

Microchip MPLAB XC8 Assembler V2.36 build 20220127204148 
                                                                                               Thu Jun 16 11:50:24 2022

Microchip MPLAB XC8 C Compiler v2.36 (Free license) build 20220127204148 Og1 
     1                           	processor	16F887
     2                           	pagewidth 120
     3                           	opt	flic
     4                           	psect	strings,global,class=STRING,delta=2,noexec
     5                           	psect	cinit,global,class=CODE,merge=1,delta=2
     6                           	psect	bssBANK1,global,class=BANK1,space=1,delta=1,noexec
     7                           	psect	clrtext,global,class=CODE,delta=2
     8                           	psect	cstackBANK1,global,class=BANK1,space=1,delta=1,noexec
     9                           	psect	cstackCOMMON,global,class=COMMON,space=1,delta=1,noexec
    10                           	psect	cstackBANK0,global,class=BANK0,space=1,delta=1,noexec
    11                           	psect	maintext,global,class=CODE,split=1,delta=2
    12                           	psect	text1,local,class=CODE,merge=1,delta=2,group=3
    13                           	psect	text2,local,class=CODE,merge=1,delta=2,group=3
    14                           	psect	text3,local,class=CODE,merge=1,delta=2,group=1
    15                           	psect	text4,local,class=CODE,merge=1,delta=2,group=1
    16                           	psect	text5,local,class=CODE,merge=1,delta=2,group=2
    17                           	psect	text6,local,class=CODE,merge=1,delta=2,group=2
    18                           	psect	text7,local,class=CODE,merge=1,delta=2
    19                           	psect	text8,local,class=CODE,merge=1,delta=2
    20                           	psect	text9,local,class=CODE,merge=1,delta=2,group=3
    21                           	psect	text10,local,class=CODE,merge=1,delta=2,group=1
    22                           	psect	text11,local,class=CODE,merge=1,delta=2,group=2
    23                           	psect	text12,local,class=CODE,merge=1,delta=2,group=2
    24                           	psect	text13,local,class=CODE,merge=1,delta=2,group=2
    25                           	psect	text14,local,class=CODE,merge=1,delta=2,group=2
    26                           	psect	text15,local,class=CODE,merge=1,delta=2,group=2
    27                           	psect	text16,local,class=CODE,merge=1,delta=2,group=2
    28                           	psect	text17,local,class=CODE,merge=1,delta=2,group=2
    29                           	psect	text18,local,class=CODE,merge=1,delta=2,group=2
    30                           	psect	text19,local,class=CODE,merge=1,delta=2,group=2
    31                           	psect	text20,local,class=CODE,merge=1,delta=2,group=2
    32                           	psect	text21,local,class=CODE,merge=1,delta=2,group=2
    33                           	psect	text22,local,class=CODE,merge=1,delta=2,group=2
    34                           	psect	text23,local,class=CODE,merge=1,delta=2,group=2
    35                           	psect	text24,local,class=CODE,merge=1,delta=2,group=2
    36                           	psect	text25,local,class=CODE,merge=1,delta=2,group=2
    37                           	psect	text26,local,class=CODE,merge=1,delta=2,group=2
    38                           	psect	text27,local,class=CODE,merge=1,delta=2
    39                           	psect	text28,local,class=CODE,merge=1,delta=2,group=2
    40                           	psect	text29,local,class=CODE,merge=1,delta=2
    41                           	psect	text30,local,class=CODE,merge=1,delta=2
    42                           	psect	text31,local,class=CODE,merge=1,delta=2
    43                           	psect	text32,local,class=CODE,merge=1,delta=2
    44                           	psect	text33,local,class=CODE,merge=1,delta=2
    45                           	psect	text34,local,class=CODE,merge=1,delta=2
    46                           	psect	text35,local,class=CODE,merge=1,delta=2
    47                           	psect	text36,local,class=CODE,merge=1,delta=2
    48                           	psect	functab,global,class=ENTRY,delta=2
    49                           	psect	idloc,global,abs,ovrld,class=IDLOC,space=5,delta=2,noexec
    50                           	psect	config,global,abs,ovrld,class=CONFIG,space=4,delta=2,noexec
    51                           	dabs	1,0x7E,2
    52  0000                     
    53                           ; Version 2.40
    54                           ; Generated 17/11/2021 GMT
    55                           ; 
    56                           ; Copyright © 2021, Microchip Technology Inc. and its subsidiaries ("Microchip")
    57                           ; All rights reserved.
    58                           ; 
    59                           ; This software is developed by Microchip Technology Inc. and its subsidiaries ("Microch
      +                          ip").
    60                           ; 
    61                           ; Redistribution and use in source and binary forms, with or without modification, are
    62                           ; permitted provided that the following conditions are met:
    63                           ; 
    64                           ;     1. Redistributions of source code must retain the above copyright notice, this lis
      +                          t of
    65                           ;        conditions and the following disclaimer.
    66                           ; 
    67                           ;     2. Redistributions in binary form must reproduce the above copyright notice, this 
      +                          list
    68                           ;        of conditions and the following disclaimer in the documentation and/or other
    69                           ;        materials provided with the distribution. Publication is not required when
    70                           ;        this file is used in an embedded application.
    71                           ; 
    72                           ;     3. Microchip's name may not be used to endorse or promote products derived from th
      +                          is
    73                           ;        software without specific prior written permission.
    74                           ; 
    75                           ; THIS SOFTWARE IS PROVIDED BY MICROCHIP "AS IS" AND ANY EXPRESS OR IMPLIED WARRANTIES,
    76                           ; INCLUDING, BUT NOT LIMITED TO, THE IMPLIED WARRANTIES OF MERCHANTABILITY AND FITNESS F
      +                          OR
    77                           ; PURPOSE ARE DISCLAIMED.  IN NO EVENT SHALL MICROCHIP BE LIABLE FOR ANY DIRECT, INDIREC
      +                          T,
    78                           ; INCIDENTAL, SPECIAL, EXEMPLARY, OR CONSEQUENTIAL DAMAGES (INCLUDING BUT NOT LIMITED TO
    79                           ; PROCUREMENT OF SUBSTITUTE GOODS OR SERVICES; LOSS OF USE, DATA OR PROFITS; OR BUSINESS
    80                           ; INTERRUPTION) HOWSOEVER CAUSED AND ON ANY THEORY OF LIABILITY, WHETHER IN CONTRACT, ST
      +                          RICT
    81                           ; LIABILITY, OR TORT (INCLUDING NEGLIGENCE OR OTHERWISE) ARISING IN ANY WAY OUT OF THE U
      +                          SE OF
    82                           ; THIS SOFTWARE, EVEN IF ADVISED OF THE POSSIBILITY OF SUCH DAMAGE.
    83                           ; 
    84                           ; 
    85                           ; Code-generator required, PIC16F887 Definitions
    86                           ; 
    87                           ; SFR Addresses
    88  0000                     	;# 
    89  0001                     	;# 
    90  0002                     	;# 
    91  0003                     	;# 
    92  0004                     	;# 
    93  0005                     	;# 
    94  0006                     	;# 
    95  0007                     	;# 
    96  0008                     	;# 
    97  0009                     	;# 
    98  000A                     	;# 
    99  000B                     	;# 
   100  000C                     	;# 
   101  000D                     	;# 
   102  000E                     	;# 
   103  000E                     	;# 
   104  000F                     	;# 
   105  0010                     	;# 
   106  0011                     	;# 
   107  0012                     	;# 
   108  0013                     	;# 
   109  0014                     	;# 
   110  0015                     	;# 
   111  0015                     	;# 
   112  0016                     	;# 
   113  0017                     	;# 
   114  0018                     	;# 
   115  0019                     	;# 
   116  001A                     	;# 
   117  001B                     	;# 
   118  001B                     	;# 
   119  001C                     	;# 
   120  001D                     	;# 
   121  001E                     	;# 
   122  001F                     	;# 
   123  0081                     	;# 
   124  0085                     	;# 
   125  0086                     	;# 
   126  0087                     	;# 
   127  0088                     	;# 
   128  0089                     	;# 
   129  008C                     	;# 
   130  008D                     	;# 
   131  008E                     	;# 
   132  008F                     	;# 
   133  0090                     	;# 
   134  0091                     	;# 
   135  0092                     	;# 
   136  0093                     	;# 
   137  0093                     	;# 
   138  0093                     	;# 
   139  0094                     	;# 
   140  0095                     	;# 
   141  0096                     	;# 
   142  0097                     	;# 
   143  0098                     	;# 
   144  0099                     	;# 
   145  009A                     	;# 
   146  009B                     	;# 
   147  009C                     	;# 
   148  009D                     	;# 
   149  009E                     	;# 
   150  009F                     	;# 
   151  0105                     	;# 
   152  0107                     	;# 
   153  0108                     	;# 
   154  0109                     	;# 
   155  010C                     	;# 
   156  010C                     	;# 
   157  010D                     	;# 
   158  010E                     	;# 
   159  010F                     	;# 
   160  0185                     	;# 
   161  0187                     	;# 
   162  0188                     	;# 
   163  0189                     	;# 
   164  018C                     	;# 
   165  018D                     	;# 
   166  0000                     	;# 
   167  0001                     	;# 
   168  0002                     	;# 
   169  0003                     	;# 
   170  0004                     	;# 
   171  0005                     	;# 
   172  0006                     	;# 
   173  0007                     	;# 
   174  0008                     	;# 
   175  0009                     	;# 
   176  000A                     	;# 
   177  000B                     	;# 
   178  000C                     	;# 
   179  000D                     	;# 
   180  000E                     	;# 
   181  000E                     	;# 
   182  000F                     	;# 
   183  0010                     	;# 
   184  0011                     	;# 
   185  0012                     	;# 
   186  0013                     	;# 
   187  0014                     	;# 
   188  0015                     	;# 
   189  0015                     	;# 
   190  0016                     	;# 
   191  0017                     	;# 
   192  0018                     	;# 
   193  0019                     	;# 
   194  001A                     	;# 
   195  001B                     	;# 
   196  001B                     	;# 
   197  001C                     	;# 
   198  001D                     	;# 
   199  001E                     	;# 
   200  001F                     	;# 
   201  0081                     	;# 
   202  0085                     	;# 
   203  0086                     	;# 
   204  0087                     	;# 
   205  0088                     	;# 
   206  0089                     	;# 
   207  008C                     	;# 
   208  008D                     	;# 
   209  008E                     	;# 
   210  008F                     	;# 
   211  0090                     	;# 
   212  0091                     	;# 
   213  0092                     	;# 
   214  0093                     	;# 
   215  0093                     	;# 
   216  0093                     	;# 
   217  0094                     	;# 
   218  0095                     	;# 
   219  0096                     	;# 
   220  0097                     	;# 
   221  0098                     	;# 
   222  0099                     	;# 
   223  009A                     	;# 
   224  009B                     	;# 
   225  009C                     	;# 
   226  009D                     	;# 
   227  009E                     	;# 
   228  009F                     	;# 
   229  0105                     	;# 
   230  0107                     	;# 
   231  0108                     	;# 
   232  0109                     	;# 
   233  010C                     	;# 
   234  010C                     	;# 
   235  010D                     	;# 
   236  010E                     	;# 
   237  010F                     	;# 
   238  0185                     	;# 
   239  0187                     	;# 
   240  0188                     	;# 
   241  0189                     	;# 
   242  018C                     	;# 
   243  018D                     	;# 
   244  0000                     	;# 
   245  0001                     	;# 
   246  0002                     	;# 
   247  0003                     	;# 
   248  0004                     	;# 
   249  0005                     	;# 
   250  0006                     	;# 
   251  0007                     	;# 
   252  0008                     	;# 
   253  0009                     	;# 
   254  000A                     	;# 
   255  000B                     	;# 
   256  000C                     	;# 
   257  000D                     	;# 
   258  000E                     	;# 
   259  000E                     	;# 
   260  000F                     	;# 
   261  0010                     	;# 
   262  0011                     	;# 
   263  0012                     	;# 
   264  0013                     	;# 
   265  0014                     	;# 
   266  0015                     	;# 
   267  0015                     	;# 
   268  0016                     	;# 
   269  0017                     	;# 
   270  0018                     	;# 
   271  0019                     	;# 
   272  001A                     	;# 
   273  001B                     	;# 
   274  001B                     	;# 
   275  001C                     	;# 
   276  001D                     	;# 
   277  001E                     	;# 
   278  001F                     	;# 
   279  0081                     	;# 
   280  0085                     	;# 
   281  0086                     	;# 
   282  0087                     	;# 
   283  0088                     	;# 
   284  0089                     	;# 
   285  008C                     	;# 
   286  008D                     	;# 
   287  008E                     	;# 
   288  008F                     	;# 
   289  0090                     	;# 
   290  0091                     	;# 
   291  0092                     	;# 
   292  0093                     	;# 
   293  0093                     	;# 
   294  0093                     	;# 
   295  0094                     	;# 
   296  0095                     	;# 
   297  0096                     	;# 
   298  0097                     	;# 
   299  0098                     	;# 
   300  0099                     	;# 
   301  009A                     	;# 
   302  009B                     	;# 
   303  009C                     	;# 
   304  009D                     	;# 
   305  009E                     	;# 
   306  009F                     	;# 
   307  0105                     	;# 
   308  0107                     	;# 
   309  0108                     	;# 
   310  0109                     	;# 
   311  010C                     	;# 
   312  010C                     	;# 
   313  010D                     	;# 
   314  010E                     	;# 
   315  010F                     	;# 
   316  0185                     	;# 
   317  0187                     	;# 
   318  0188                     	;# 
   319  0189                     	;# 
   320  018C                     	;# 
   321  018D                     	;# 
   322                           
   323                           	psect	strings
   324  1800                     __pstrings:
   325  1800                     stringtab:
   326  1800                     __stringtab:
   327  1800                     stringcode:	
   328                           ;	String table - string pointers are 1 byte each
   329                           
   330  1800                     stringdir:
   331  1800  3018               	movlw	high stringdir
   332  1801  008A               	movwf	10
   333  1802  0804               	movf	4,w
   334  1803  0A84               	incf	4,f
   335  1804  0782               	addwf	2,f
   336  1805                     __stringbase:
   337  1805  3400               	retlw	0
   338  1806                     __end_of__stringtab:
   339  1806                     __powers_:
   340  1806  3400               	retlw	0
   341  1807  3400               	retlw	0
   342  1808  3480               	retlw	128
   343  1809  343F               	retlw	63
   344  180A  3400               	retlw	0
   345  180B  3400               	retlw	0
   346  180C  3420               	retlw	32
   347  180D  3441               	retlw	65
   348  180E  3400               	retlw	0
   349  180F  3400               	retlw	0
   350  1810  34C8               	retlw	200
   351  1811  3442               	retlw	66
   352  1812  3400               	retlw	0
   353  1813  3400               	retlw	0
   354  1814  347A               	retlw	122
   355  1815  3444               	retlw	68
   356  1816  3400               	retlw	0
   357  1817  3440               	retlw	64
   358  1818  341C               	retlw	28
   359  1819  3446               	retlw	70
   360  181A  3400               	retlw	0
   361  181B  3450               	retlw	80
   362  181C  34C3               	retlw	195
   363  181D  3447               	retlw	71
   364  181E  3400               	retlw	0
   365  181F  3424               	retlw	36
   366  1820  3474               	retlw	116
   367  1821  3449               	retlw	73
   368  1822  3480               	retlw	128
   369  1823  3496               	retlw	150
   370  1824  3418               	retlw	24
   371  1825  344B               	retlw	75
   372  1826  3420               	retlw	32
   373  1827  34BC               	retlw	188
   374  1828  34BE               	retlw	190
   375  1829  344C               	retlw	76
   376  182A  3428               	retlw	40
   377  182B  346B               	retlw	107
   378  182C  346E               	retlw	110
   379  182D  344E               	retlw	78
   380  182E  34F9               	retlw	249
   381  182F  3402               	retlw	2
   382  1830  3415               	retlw	21
   383  1831  3450               	retlw	80
   384  1832  34EC               	retlw	236
   385  1833  3478               	retlw	120
   386  1834  34AD               	retlw	173
   387  1835  3460               	retlw	96
   388  1836  34CA               	retlw	202
   389  1837  34F2               	retlw	242
   390  1838  3449               	retlw	73
   391  1839  3471               	retlw	113
   392  183A                     __end_of__powers_:
   393  183A                     __npowers_:
   394  183A  3400               	retlw	0
   395  183B  3400               	retlw	0
   396  183C  3480               	retlw	128
   397  183D  343F               	retlw	63
   398  183E  34CD               	retlw	205
   399  183F  34CC               	retlw	204
   400  1840  34CC               	retlw	204
   401  1841  343D               	retlw	61
   402  1842  340A               	retlw	10
   403  1843  34D7               	retlw	215
   404  1844  3423               	retlw	35
   405  1845  343C               	retlw	60
   406  1846  346F               	retlw	111
   407  1847  3412               	retlw	18
   408  1848  3483               	retlw	131
   409  1849  343A               	retlw	58
   410  184A  3417               	retlw	23
   411  184B  34B7               	retlw	183
   412  184C  34D1               	retlw	209
   413  184D  3438               	retlw	56
   414  184E  34AC               	retlw	172
   415  184F  34C5               	retlw	197
   416  1850  3427               	retlw	39
   417  1851  3437               	retlw	55
   418  1852  34BD               	retlw	189
   419  1853  3437               	retlw	55
   420  1854  3486               	retlw	134
   421  1855  3435               	retlw	53
   422  1856  3495               	retlw	149
   423  1857  34BF               	retlw	191
   424  1858  34D6               	retlw	214
   425  1859  3433               	retlw	51
   426  185A  3477               	retlw	119
   427  185B  34CC               	retlw	204
   428  185C  342B               	retlw	43
   429  185D  3432               	retlw	50
   430  185E  345F               	retlw	95
   431  185F  3470               	retlw	112
   432  1860  3489               	retlw	137
   433  1861  3430               	retlw	48
   434  1862  34FF               	retlw	255
   435  1863  34E6               	retlw	230
   436  1864  34DB               	retlw	219
   437  1865  342E               	retlw	46
   438  1866  3408               	retlw	8
   439  1867  34E5               	retlw	229
   440  1868  343C               	retlw	60
   441  1869  341E               	retlw	30
   442  186A  3460               	retlw	96
   443  186B  3442               	retlw	66
   444  186C  34A2               	retlw	162
   445  186D  340D               	retlw	13
   446  186E                     __end_of__npowers_:
   447  186E                     _dpowers:
   448  186E  3401               	retlw	1
   449  186F  3400               	retlw	0
   450  1870  3400               	retlw	0
   451  1871  3400               	retlw	0
   452  1872  340A               	retlw	10
   453  1873  3400               	retlw	0
   454  1874  3400               	retlw	0
   455  1875  3400               	retlw	0
   456  1876  3464               	retlw	100
   457  1877  3400               	retlw	0
   458  1878  3400               	retlw	0
   459  1879  3400               	retlw	0
   460  187A  34E8               	retlw	232
   461  187B  3403               	retlw	3
   462  187C  3400               	retlw	0
   463  187D  3400               	retlw	0
   464  187E  3410               	retlw	16
   465  187F  3427               	retlw	39
   466  1880  3400               	retlw	0
   467  1881  3400               	retlw	0
   468  1882  34A0               	retlw	160
   469  1883  3486               	retlw	134
   470  1884  3401               	retlw	1
   471  1885  3400               	retlw	0
   472  1886  3440               	retlw	64
   473  1887  3442               	retlw	66
   474  1888  340F               	retlw	15
   475  1889  3400               	retlw	0
   476  188A  3480               	retlw	128
   477  188B  3496               	retlw	150
   478  188C  3498               	retlw	152
   479  188D  3400               	retlw	0
   480  188E  3400               	retlw	0
   481  188F  34E1               	retlw	225
   482  1890  34F5               	retlw	245
   483  1891  3405               	retlw	5
   484  1892  3400               	retlw	0
   485  1893  34CA               	retlw	202
   486  1894  349A               	retlw	154
   487  1895  343B               	retlw	59
   488  1896                     __end_of_dpowers:
   489  0008                     _PORTDbits	set	8
   490  0008                     _PORTD	set	8
   491  001F                     _ADCON0bits	set	31
   492  001E                     _ADRESH	set	30
   493  001F                     _ADCON0	set	31
   494  001A                     _RCREG	set	26
   495  0019                     _TXREG	set	25
   496  0065                     _RCIF	set	101
   497  00C1                     _OERR	set	193
   498  0064                     _TXIF	set	100
   499  00C6                     _RX9	set	198
   500  00C4                     _CREN	set	196
   501  00C7                     _SPEN	set	199
   502  0088                     _TRISD	set	136
   503  009E                     _ADRESL	set	158
   504  009F                     _ADCON1	set	159
   505  0099                     _SPBRG	set	153
   506  04C6                     _TX9	set	1222
   507  04C5                     _TXEN	set	1221
   508  04C4                     _SYNC	set	1220
   509  04C2                     _BRGH	set	1218
   510  043F                     _TRISC7	set	1087
   511  043E                     _TRISC6	set	1086
   512  0188                     _ANSELbits	set	392
   513  1896                     STR_1:
   514  1896  3454               	retlw	84	;'T'
   515  1897  3465               	retlw	101	;'e'
   516  1898  346D               	retlw	109	;'m'
   517  1899  3470               	retlw	112	;'p'
   518  189A  3465               	retlw	101	;'e'
   519  189B  3472               	retlw	114	;'r'
   520  189C  3461               	retlw	97	;'a'
   521  189D  3474               	retlw	116	;'t'
   522  189E  3475               	retlw	117	;'u'
   523  189F  3472               	retlw	114	;'r'
   524  18A0  3465               	retlw	101	;'e'
   525  18A1  343A               	retlw	58	;':'
   526  18A2  3425               	retlw	37	;'%'
   527  18A3  342E               	retlw	46	;'.'
   528  18A4  3430               	retlw	48	;'0'
   529  18A5  3432               	retlw	50	;'2'
   530  18A6  3466               	retlw	102	;'f'
   531  18A7  3400               	retlw	0
   532  18A8                     STR_2:
   533  18A8  3454               	retlw	84	;'T'
   534  18A9  3420               	retlw	32	;' '
   535  18AA  343D               	retlw	61	;'='
   536  18AB  3420               	retlw	32	;' '
   537  18AC  3425               	retlw	37	;'%'
   538  18AD  342E               	retlw	46	;'.'
   539  18AE  3430               	retlw	48	;'0'
   540  18AF  3432               	retlw	50	;'2'
   541  18B0  3466               	retlw	102	;'f'
   542  18B1  3420               	retlw	32	;' '
   543  18B2  3400               	retlw	0
   544                           
   545                           	psect	cinit
   546  07F3                     start_initialization:	
   547                           ; #config settings
   548                           
   549  07F3                     __initialization:
   550                           
   551                           ; Clear objects allocated to BANK1
   552  07F3  1383               	bcf	3,7	;select IRP bank0
   553  07F4  30CC               	movlw	low __pbssBANK1
   554  07F5  0084               	movwf	4
   555  07F6  30E4               	movlw	low (__pbssBANK1+24)
   556  07F7  160A  158A  2300  120A  118A  	fcall	clear_ram0
   557  07FC                     end_of_initialization:	
   558                           ;End of C runtime variable initialization code
   559                           
   560  07FC                     __end_of__initialization:
   561  07FC  0183               	clrf	3
   562  07FD  160A  158A  2F6C   	ljmp	_main	;jump to C main() function
   563                           
   564                           	psect	bssBANK1
   565  00CC                     __pbssBANK1:
   566  00CC                     _temp:
   567  00CC                     	ds	4
   568  00D0                     _buffer:
   569  00D0                     	ds	20
   570                           
   571                           	psect	clrtext
   572  1B00                     clear_ram0:	
   573                           ;	Called with FSR containing the base address, and
   574                           ;	W with the last address+1
   575                           
   576  1B00  0064               	clrwdt	;clear the watchdog before getting into this loop
   577  1B01                     clrloop0:
   578  1B01  0180               	clrf	0	;clear RAM location pointed to by FSR
   579  1B02  0A84               	incf	4,f	;increment pointer
   580  1B03  0604               	xorwf	4,w	;XOR with final address
   581  1B04  1903               	btfsc	3,2	;have we reached the end yet?
   582  1B05  3400               	retlw	0	;all done for this memory range, return
   583  1B06  0604               	xorwf	4,w	;XOR again to restore value
   584  1B07  2B01               	goto	clrloop0	;do the next byte
   585                           
   586                           	psect	cstackBANK1
   587  00A0                     __pcstackBANK1:
   588  00A0                     ??__doprnt:
   589                           
   590                           ; 1 bytes @ 0x0
   591  00A0                     	ds	5
   592  00A5                     __doprnt$1004:
   593                           
   594                           ; 4 bytes @ 0x5
   595  00A5                     	ds	4
   596  00A9                     __doprnt@flag:
   597                           
   598                           ; 2 bytes @ 0x9
   599  00A9                     	ds	2
   600  00AB                     __doprnt@val:
   601                           
   602                           ; 4 bytes @ 0xB
   603  00AB                     	ds	4
   604  00AF                     __doprnt@eexp:
   605                           
   606                           ; 2 bytes @ 0xF
   607  00AF                     	ds	2
   608  00B1                     __doprnt@prec:
   609                           
   610                           ; 2 bytes @ 0x11
   611  00B1                     	ds	2
   612  00B3                     __doprnt@tmpval:
   613                           
   614                           ; 4 bytes @ 0x13
   615  00B3                     	ds	4
   616  00B7                     __doprnt@fval:
   617                           
   618                           ; 4 bytes @ 0x17
   619  00B7                     	ds	4
   620  00BB                     __doprnt@c:
   621                           
   622                           ; 1 bytes @ 0x1B
   623  00BB                     	ds	1
   624  00BC                     __doprnt@pb:
   625                           
   626                           ; 1 bytes @ 0x1C
   627  00BC                     	ds	1
   628  00BD                     ?_sprintf:
   629  00BD                     ?_printf:	
   630                           ; 2 bytes @ 0x1D
   631                           
   632  00BD                     sprintf@f:	
   633                           ; 2 bytes @ 0x1D
   634                           
   635                           
   636                           ; 1 bytes @ 0x1D
   637  00BD                     	ds	4
   638  00C1                     ??_printf:
   639                           
   640                           ; 1 bytes @ 0x21
   641  00C1                     	ds	1
   642  00C2                     ??_sprintf:
   643                           
   644                           ; 1 bytes @ 0x22
   645  00C2                     	ds	1
   646  00C3                     printf@f:
   647                           
   648                           ; 1 bytes @ 0x23
   649  00C3                     	ds	1
   650  00C4                     printf@ap:
   651  00C4                     sprintf@wh:	
   652                           ; 1 bytes @ 0x24
   653                           
   654                           
   655                           ; 1 bytes @ 0x24
   656  00C4                     	ds	1
   657  00C5                     sprintf@ap:
   658  00C5                     printf@pb:	
   659                           ; 1 bytes @ 0x25
   660                           
   661                           
   662                           ; 2 bytes @ 0x25
   663  00C5                     	ds	1
   664  00C6                     sprintf@pb:
   665                           
   666                           ; 2 bytes @ 0x26
   667  00C6                     	ds	2
   668  00C8                     ??_main:
   669                           
   670                           ; 1 bytes @ 0x28
   671  00C8                     	ds	4
   672                           
   673                           	psect	cstackCOMMON
   674  0070                     __pcstackCOMMON:
   675  0070                     ?_isdigit:
   676  0070                     ?___fleq:	
   677                           ; 1 bit 
   678                           
   679  0070                     ?___flge:	
   680                           ; 1 bit 
   681                           
   682  0070                     ?_LCD_Initialize:	
   683                           ; 1 bit 
   684                           
   685  0070                     ?_LCDPutStr:	
   686                           ; 1 bytes @ 0x0
   687                           
   688  0070                     ?_LCDPutCmd:	
   689                           ; 1 bytes @ 0x0
   690                           
   691  0070                     ??_isdigit:	
   692                           ; 1 bytes @ 0x0
   693                           
   694  0070                     ?_Initialize_UART:	
   695                           ; 1 bytes @ 0x0
   696                           
   697  0070                     ??_Initialize_UART:	
   698                           ; 1 bytes @ 0x0
   699                           
   700  0070                     ?_UART_send_char:	
   701                           ; 1 bytes @ 0x0
   702                           
   703  0070                     ??_UART_send_char:	
   704                           ; 1 bytes @ 0x0
   705                           
   706  0070                     ?_ADCInit:	
   707                           ; 1 bytes @ 0x0
   708                           
   709  0070                     ??_ADCInit:	
   710                           ; 1 bytes @ 0x0
   711                           
   712  0070                     ?_main:	
   713                           ; 1 bytes @ 0x0
   714                           
   715  0070                     ?_LCDWriteNibble:	
   716                           ; 1 bytes @ 0x0
   717                           
   718  0070                     ?_LCDPutChar:	
   719                           ; 1 bytes @ 0x0
   720                           
   721  0070                     ?__Umul8_16:	
   722                           ; 1 bytes @ 0x0
   723                           
   724  0070                     ?_get_val:	
   725                           ; 2 bytes @ 0x0
   726                           
   727  0070                     ?___wmul:	
   728                           ; 2 bytes @ 0x0
   729                           
   730  0070                     ?___awmod:	
   731                           ; 2 bytes @ 0x0
   732                           
   733  0070                     ?___lwmod:	
   734                           ; 2 bytes @ 0x0
   735                           
   736  0070                     ?__tdiv_to_l_:	
   737                           ; 2 bytes @ 0x0
   738                           
   739  0070                     ?__div_to_l_:	
   740                           ; 4 bytes @ 0x0
   741                           
   742  0070                     ?___lldiv:	
   743                           ; 4 bytes @ 0x0
   744                           
   745  0070                     ?___flneg:	
   746                           ; 4 bytes @ 0x0
   747                           
   748  0070                     ?___llmod:	
   749                           ; 4 bytes @ 0x0
   750                           
   751  0070                     UART_send_char@bt:	
   752                           ; 4 bytes @ 0x0
   753                           
   754  0070                     LCDWriteNibble@rs:	
   755                           ; 1 bytes @ 0x0
   756                           
   757  0070                     __Umul8_16@multiplicand:	
   758                           ; 1 bytes @ 0x0
   759                           
   760  0070                     _isdigit$793:	
   761                           ; 1 bytes @ 0x0
   762                           
   763  0070                     ___wmul@multiplier:	
   764                           ; 1 bytes @ 0x0
   765                           
   766  0070                     ___awmod@divisor:	
   767                           ; 2 bytes @ 0x0
   768                           
   769  0070                     ___lwmod@divisor:	
   770                           ; 2 bytes @ 0x0
   771                           
   772  0070                     ___lldiv@divisor:	
   773                           ; 2 bytes @ 0x0
   774                           
   775  0070                     ___fleq@ff1:	
   776                           ; 4 bytes @ 0x0
   777                           
   778  0070                     ___flge@ff1:	
   779                           ; 4 bytes @ 0x0
   780                           
   781  0070                     ___flneg@f1:	
   782                           ; 4 bytes @ 0x0
   783                           
   784  0070                     ___llmod@divisor:	
   785                           ; 4 bytes @ 0x0
   786                           
   787  0070                     __div_to_l_@f1:	
   788                           ; 4 bytes @ 0x0
   789                           
   790  0070                     __tdiv_to_l_@f1:	
   791                           ; 4 bytes @ 0x0
   792                           
   793                           
   794                           ; 4 bytes @ 0x0
   795  0070                     	ds	1
   796  0071                     ?_putch:
   797  0071                     ??_LCDWriteNibble:	
   798                           ; 1 bytes @ 0x1
   799                           
   800  0071                     putch@x:	
   801                           ; 1 bytes @ 0x1
   802                           
   803  0071                     isdigit@c:	
   804                           ; 1 bytes @ 0x1
   805                           
   806                           
   807                           ; 1 bytes @ 0x1
   808  0071                     	ds	1
   809  0072                     ??__Umul8_16:
   810  0072                     ??_putch:	
   811                           ; 1 bytes @ 0x2
   812                           
   813  0072                     ??_get_val:	
   814                           ; 1 bytes @ 0x2
   815                           
   816  0072                     ___wmul@multiplicand:	
   817                           ; 1 bytes @ 0x2
   818                           
   819  0072                     ___awmod@dividend:	
   820                           ; 2 bytes @ 0x2
   821                           
   822  0072                     ___lwmod@dividend:	
   823                           ; 2 bytes @ 0x2
   824                           
   825                           
   826                           ; 2 bytes @ 0x2
   827  0072                     	ds	1
   828  0073                     LCDWriteNibble@ch:
   829                           
   830                           ; 1 bytes @ 0x3
   831  0073                     	ds	1
   832  0074                     ??_LCDPutCmd:
   833  0074                     ??_LCDPutChar:	
   834                           ; 1 bytes @ 0x4
   835                           
   836  0074                     ??___wmul:	
   837                           ; 1 bytes @ 0x4
   838                           
   839  0074                     ??___awmod:	
   840                           ; 1 bytes @ 0x4
   841                           
   842  0074                     ??___flneg:	
   843                           ; 1 bytes @ 0x4
   844                           
   845  0074                     ??___lwmod:	
   846                           ; 1 bytes @ 0x4
   847                           
   848  0074                     ?___xxtofl:	
   849                           ; 1 bytes @ 0x4
   850                           
   851  0074                     ___wmul@product:	
   852                           ; 4 bytes @ 0x4
   853                           
   854  0074                     __Umul8_16@product:	
   855                           ; 2 bytes @ 0x4
   856                           
   857  0074                     ___lldiv@dividend:	
   858                           ; 2 bytes @ 0x4
   859                           
   860  0074                     ___fleq@ff2:	
   861                           ; 4 bytes @ 0x4
   862                           
   863  0074                     ___flge@ff2:	
   864                           ; 4 bytes @ 0x4
   865                           
   866  0074                     ___llmod@dividend:	
   867                           ; 4 bytes @ 0x4
   868                           
   869  0074                     ___xxtofl@val:	
   870                           ; 4 bytes @ 0x4
   871                           
   872  0074                     __div_to_l_@f2:	
   873                           ; 4 bytes @ 0x4
   874                           
   875  0074                     __tdiv_to_l_@f2:	
   876                           ; 4 bytes @ 0x4
   877                           
   878                           
   879                           ; 4 bytes @ 0x4
   880  0074                     	ds	1
   881  0075                     ___awmod@counter:
   882  0075                     ___lwmod@counter:	
   883                           ; 1 bytes @ 0x5
   884                           
   885                           
   886                           ; 1 bytes @ 0x5
   887  0075                     	ds	1
   888  0076                     ?___lwdiv:
   889  0076                     LCDPutChar@ch:	
   890                           ; 2 bytes @ 0x6
   891                           
   892  0076                     LCDPutCmd@ch:	
   893                           ; 1 bytes @ 0x6
   894                           
   895  0076                     ___awmod@sign:	
   896                           ; 1 bytes @ 0x6
   897                           
   898  0076                     ___lwdiv@divisor:	
   899                           ; 1 bytes @ 0x6
   900                           
   901  0076                     __Umul8_16@word_mpld:	
   902                           ; 2 bytes @ 0x6
   903                           
   904                           
   905                           ; 2 bytes @ 0x6
   906  0076                     	ds	1
   907  0077                     ??_LCD_Initialize:
   908  0077                     ?_LCDGoto:	
   909                           ; 1 bytes @ 0x7
   910                           
   911  0077                     ??_LCDPutStr:	
   912                           ; 1 bytes @ 0x7
   913                           
   914  0077                     ?___awdiv:	
   915                           ; 1 bytes @ 0x7
   916                           
   917  0077                     LCDGoto@ln:	
   918                           ; 2 bytes @ 0x7
   919                           
   920  0077                     ___awdiv@divisor:	
   921                           ; 1 bytes @ 0x7
   922                           
   923                           
   924                           ; 2 bytes @ 0x7
   925  0077                     	ds	1
   926  0078                     ??_LCDGoto:
   927  0078                     ??__tdiv_to_l_:	
   928                           ; 1 bytes @ 0x8
   929                           
   930  0078                     ??__div_to_l_:	
   931                           ; 1 bytes @ 0x8
   932                           
   933  0078                     ??___lldiv:	
   934                           ; 1 bytes @ 0x8
   935                           
   936  0078                     ??___fleq:	
   937                           ; 1 bytes @ 0x8
   938                           
   939  0078                     ??___flge:	
   940                           ; 1 bytes @ 0x8
   941                           
   942  0078                     ??___llmod:	
   943                           ; 1 bytes @ 0x8
   944                           
   945  0078                     ??___xxtofl:	
   946                           ; 1 bytes @ 0x8
   947                           
   948  0078                     LCDPutStr@str:	
   949                           ; 1 bytes @ 0x8
   950                           
   951  0078                     __Umul8_16@multiplier:	
   952                           ; 1 bytes @ 0x8
   953                           
   954  0078                     ___lwdiv@dividend:	
   955                           ; 1 bytes @ 0x8
   956                           
   957                           
   958                           ; 2 bytes @ 0x8
   959  0078                     	ds	1
   960  0079                     LCDPutStr@i:
   961  0079                     ___llmod@counter:	
   962                           ; 1 bytes @ 0x9
   963                           
   964  0079                     ___awdiv@dividend:	
   965                           ; 1 bytes @ 0x9
   966                           
   967  0079                     ___lldiv@quotient:	
   968                           ; 2 bytes @ 0x9
   969                           
   970                           
   971                           ; 4 bytes @ 0x9
   972  0079                     	ds	1
   973  007A                     ??___lwdiv:
   974  007A                     _LCDGoto$230:	
   975                           ; 1 bytes @ 0xA
   976                           
   977                           
   978                           ; 2 bytes @ 0xA
   979  007A                     	ds	1
   980  007B                     ??___awdiv:
   981  007B                     ___lwdiv@quotient:	
   982                           ; 1 bytes @ 0xB
   983                           
   984                           
   985                           ; 2 bytes @ 0xB
   986  007B                     	ds	1
   987  007C                     LCDGoto@pos:
   988                           
   989                           ; 1 bytes @ 0xC
   990  007C                     	ds	1
   991  007D                     ___lldiv@counter:
   992  007D                     ___lwdiv@counter:	
   993                           ; 1 bytes @ 0xD
   994                           
   995                           
   996                           ; 1 bytes @ 0xD
   997  007D                     	ds	1
   998  007E                     ??___flsub:
   999                           
  1000                           	psect	cstackBANK0
  1001  0020                     __pcstackBANK0:	
  1002                           ; 1 bytes @ 0xE
  1003                           
  1004  0020                     ___awdiv@counter:
  1005  0020                     ___xxtofl@sign:	
  1006                           ; 1 bytes @ 0x0
  1007                           
  1008  0020                     __div_to_l_@quot:	
  1009                           ; 1 bytes @ 0x0
  1010                           
  1011  0020                     __tdiv_to_l_@quot:	
  1012                           ; 4 bytes @ 0x0
  1013                           
  1014                           
  1015                           ; 4 bytes @ 0x0
  1016  0020                     	ds	1
  1017  0021                     ___awdiv@sign:
  1018  0021                     ___xxtofl@exp:	
  1019                           ; 1 bytes @ 0x1
  1020                           
  1021                           
  1022                           ; 1 bytes @ 0x1
  1023  0021                     	ds	1
  1024  0022                     ___awdiv@quotient:
  1025  0022                     ___xxtofl@arg:	
  1026                           ; 2 bytes @ 0x2
  1027                           
  1028                           
  1029                           ; 4 bytes @ 0x2
  1030  0022                     	ds	2
  1031  0024                     ?___flmul:
  1032  0024                     __div_to_l_@cntr:	
  1033                           ; 4 bytes @ 0x4
  1034                           
  1035  0024                     __tdiv_to_l_@cntr:	
  1036                           ; 1 bytes @ 0x4
  1037                           
  1038  0024                     ___flmul@b:	
  1039                           ; 1 bytes @ 0x4
  1040                           
  1041                           
  1042                           ; 4 bytes @ 0x4
  1043  0024                     	ds	1
  1044  0025                     __div_to_l_@exp1:
  1045  0025                     __tdiv_to_l_@exp1:	
  1046                           ; 1 bytes @ 0x5
  1047                           
  1048                           
  1049                           ; 1 bytes @ 0x5
  1050  0025                     	ds	1
  1051  0026                     ?___fldiv:
  1052  0026                     ___fldiv@a:	
  1053                           ; 4 bytes @ 0x6
  1054                           
  1055                           
  1056                           ; 4 bytes @ 0x6
  1057  0026                     	ds	2
  1058  0028                     ___flmul@a:
  1059                           
  1060                           ; 4 bytes @ 0x8
  1061  0028                     	ds	2
  1062  002A                     ___fldiv@b:
  1063                           
  1064                           ; 4 bytes @ 0xA
  1065  002A                     	ds	2
  1066  002C                     ??___flmul:
  1067                           
  1068                           ; 1 bytes @ 0xC
  1069  002C                     	ds	2
  1070  002E                     ??___fldiv:
  1071                           
  1072                           ; 1 bytes @ 0xE
  1073  002E                     	ds	3
  1074  0031                     ___flmul@sign:
  1075                           
  1076                           ; 1 bytes @ 0x11
  1077  0031                     	ds	1
  1078  0032                     ___flmul@grs:
  1079                           
  1080                           ; 4 bytes @ 0x12
  1081  0032                     	ds	1
  1082  0033                     ___fldiv@rem:
  1083                           
  1084                           ; 4 bytes @ 0x13
  1085  0033                     	ds	3
  1086  0036                     ___flmul@aexp:
  1087                           
  1088                           ; 1 bytes @ 0x16
  1089  0036                     	ds	1
  1090  0037                     ___fldiv@sign:
  1091  0037                     ___flmul@bexp:	
  1092                           ; 1 bytes @ 0x17
  1093                           
  1094                           
  1095                           ; 1 bytes @ 0x17
  1096  0037                     	ds	1
  1097  0038                     ___fldiv@new_exp:
  1098  0038                     ___flmul@prod:	
  1099                           ; 2 bytes @ 0x18
  1100                           
  1101                           
  1102                           ; 4 bytes @ 0x18
  1103  0038                     	ds	2
  1104  003A                     ___fldiv@grs:
  1105                           
  1106                           ; 4 bytes @ 0x1A
  1107  003A                     	ds	2
  1108  003C                     ___flmul@temp:
  1109                           
  1110                           ; 2 bytes @ 0x1C
  1111  003C                     	ds	2
  1112  003E                     ?_fround:
  1113  003E                     ?_scale:	
  1114                           ; 4 bytes @ 0x1E
  1115                           
  1116  003E                     ___fldiv@bexp:	
  1117                           ; 4 bytes @ 0x1E
  1118                           
  1119                           
  1120                           ; 1 bytes @ 0x1E
  1121  003E                     	ds	1
  1122  003F                     ___fldiv@aexp:
  1123                           
  1124                           ; 1 bytes @ 0x1F
  1125  003F                     	ds	3
  1126  0042                     ??_fround:
  1127  0042                     ??_scale:	
  1128                           ; 1 bytes @ 0x22
  1129                           
  1130                           
  1131                           ; 1 bytes @ 0x22
  1132  0042                     	ds	7
  1133  0049                     _fround$1002:
  1134                           
  1135                           ; 4 bytes @ 0x29
  1136  0049                     	ds	3
  1137  004C                     _scale$1003:
  1138                           
  1139                           ; 4 bytes @ 0x2C
  1140  004C                     	ds	1
  1141  004D                     _fround$1001:
  1142                           
  1143                           ; 4 bytes @ 0x2D
  1144  004D                     	ds	3
  1145  0050                     scale@scl:
  1146                           
  1147                           ; 1 bytes @ 0x30
  1148  0050                     	ds	1
  1149  0051                     ?___fltol:
  1150  0051                     fround@prec:	
  1151                           ; 4 bytes @ 0x31
  1152                           
  1153  0051                     ___fltol@f1:	
  1154                           ; 1 bytes @ 0x31
  1155                           
  1156                           
  1157                           ; 4 bytes @ 0x31
  1158  0051                     	ds	1
  1159  0052                     ?___fladd:
  1160  0052                     ___fladd@b:	
  1161                           ; 4 bytes @ 0x32
  1162                           
  1163                           
  1164                           ; 4 bytes @ 0x32
  1165  0052                     	ds	3
  1166  0055                     ??___fltol:
  1167                           
  1168                           ; 1 bytes @ 0x35
  1169  0055                     	ds	1
  1170  0056                     ___fladd@a:
  1171                           
  1172                           ; 4 bytes @ 0x36
  1173  0056                     	ds	4
  1174  005A                     ??___fladd:
  1175  005A                     ___fltol@sign1:	
  1176                           ; 1 bytes @ 0x3A
  1177                           
  1178                           
  1179                           ; 1 bytes @ 0x3A
  1180  005A                     	ds	1
  1181  005B                     ___fltol@exp1:
  1182                           
  1183                           ; 1 bytes @ 0x3B
  1184  005B                     	ds	7
  1185  0062                     ___fladd@signs:
  1186                           
  1187                           ; 1 bytes @ 0x42
  1188  0062                     	ds	1
  1189  0063                     ___fladd@aexp:
  1190                           
  1191                           ; 1 bytes @ 0x43
  1192  0063                     	ds	1
  1193  0064                     ___fladd@bexp:
  1194                           
  1195                           ; 1 bytes @ 0x44
  1196  0064                     	ds	1
  1197  0065                     ___fladd@grs:
  1198                           
  1199                           ; 1 bytes @ 0x45
  1200  0065                     	ds	1
  1201  0066                     ?___flsub:
  1202  0066                     ___flsub@a:	
  1203                           ; 4 bytes @ 0x46
  1204                           
  1205                           
  1206                           ; 4 bytes @ 0x46
  1207  0066                     	ds	4
  1208  006A                     ___flsub@b:
  1209                           
  1210                           ; 4 bytes @ 0x4A
  1211  006A                     	ds	4
  1212  006E                     ?__doprnt:
  1213  006E                     __doprnt@f:	
  1214                           ; 2 bytes @ 0x4E
  1215                           
  1216                           
  1217                           ; 1 bytes @ 0x4E
  1218  006E                     	ds	1
  1219  006F                     __doprnt@ap:
  1220                           
  1221                           ; 1 bytes @ 0x4F
  1222  006F                     	ds	1
  1223                           
  1224                           	psect	maintext
  1225  1F6C                     __pmaintext:	
  1226 ;;
  1227 ;;Main: autosize = 0, tempsize = 4, incstack = 0, save=0
  1228 ;;
  1229 ;; *************** function _main *****************
  1230 ;; Defined at:
  1231 ;;		line 94 in file "newmain.c"
  1232 ;; Parameters:    Size  Location     Type
  1233 ;;		None
  1234 ;; Auto vars:     Size  Location     Type
  1235 ;;		None
  1236 ;; Return value:  Size  Location     Type
  1237 ;;                  1    wreg      void 
  1238 ;; Registers used:
  1239 ;;		wreg, fsr0l, fsr0h, status,2, status,0, btemp+1, pclath, cstack
  1240 ;; Tracked objects:
  1241 ;;		On entry : B00/0
  1242 ;;		On exit  : 0/0
  1243 ;;		Unchanged: 0/0
  1244 ;; Data sizes:     COMMON   BANK0   BANK1   BANK3   BANK2
  1245 ;;      Params:         0       0       0       0       0
  1246 ;;      Locals:         0       0       0       0       0
  1247 ;;      Temps:          0       0       4       0       0
  1248 ;;      Totals:         0       0       4       0       0
  1249 ;;Total ram usage:        4 bytes
  1250 ;; Hardware stack levels required when called: 5
  1251 ;; This function calls:
  1252 ;;		_ADCInit
  1253 ;;		_Initialize_UART
  1254 ;;		_LCDGoto
  1255 ;;		_LCDPutStr
  1256 ;;		_LCD_Initialize
  1257 ;;		___fldiv
  1258 ;;		___xxtofl
  1259 ;;		_get_val
  1260 ;;		_printf
  1261 ;;		_sprintf
  1262 ;; This function is called by:
  1263 ;;		Startup code after reset
  1264 ;; This function uses a non-reentrant model
  1265 ;;
  1266                           
  1267  1F6C                     _main:	
  1268                           ;psect for function _main
  1269                           
  1270  1F6C                     l3744:	
  1271                           ;incstack = 0
  1272                           ; Regs used in _main: [wreg-fsr0h+status,2+status,0+btemp+1+pclath+cstack]
  1273                           
  1274                           
  1275                           ;newmain.c: 95:     LCD_Initialize();
  1276  1F6C  160A  158A  24F4  160A  158A  	fcall	_LCD_Initialize
  1277                           
  1278                           ;newmain.c: 96:     Initialize_UART();
  1279  1F71  160A  158A  2339  160A  158A  	fcall	_Initialize_UART
  1280                           
  1281                           ;newmain.c: 97:     ADCInit();
  1282  1F76  160A  158A  232A  160A  158A  	fcall	_ADCInit
  1283  1F7B                     l3746:
  1284                           
  1285                           ;newmain.c: 98:     TRISD = 0;
  1286  1F7B  1683               	bsf	3,5	;RP0=1, select bank1
  1287  1F7C  1303               	bcf	3,6	;RP1=0, select bank1
  1288  1F7D  0188               	clrf	8	;volatile
  1289  1F7E                     l3748:
  1290                           
  1291                           ;newmain.c: 100:     {;newmain.c: 101:         temp = get_val() / 2.046;
  1292  1F7E  3040               	movlw	64
  1293  1F7F  1283               	bcf	3,5	;RP0=0, select bank0
  1294  1F80  1303               	bcf	3,6	;RP1=0, select bank0
  1295  1F81  00A9               	movwf	___fldiv@a+3
  1296  1F82  3002               	movlw	2
  1297  1F83  00A8               	movwf	___fldiv@a+2
  1298  1F84  30F1               	movlw	241
  1299  1F85  00A7               	movwf	___fldiv@a+1
  1300  1F86  30AA               	movlw	170
  1301  1F87  00A6               	movwf	___fldiv@a
  1302  1F88  160A  158A  23D7  160A  158A  	fcall	_get_val
  1303  1F8D  0870               	movf	?_get_val,w
  1304  1F8E  1683               	bsf	3,5	;RP0=1, select bank1
  1305  1F8F  1303               	bcf	3,6	;RP1=0, select bank1
  1306  1F90  00C8               	movwf	??_main^(0+128)
  1307  1F91  0871               	movf	?_get_val+1,w
  1308  1F92  00C9               	movwf	(??_main^(0+128)+1)
  1309  1F93  01CA               	clrf	(??_main^(0+128)+2)
  1310  1F94  01CB               	clrf	(??_main^(0+128)+3)
  1311  1F95  084B               	movf	(??_main+3)^(0+128),w
  1312  1F96  00F7               	movwf	___xxtofl@val+3
  1313  1F97  084A               	movf	(??_main+2)^(0+128),w
  1314  1F98  00F6               	movwf	___xxtofl@val+2
  1315  1F99  0849               	movf	(??_main+1)^(0+128),w
  1316  1F9A  00F5               	movwf	___xxtofl@val+1
  1317  1F9B  0848               	movf	??_main^(0+128),w
  1318  1F9C  00F4               	movwf	___xxtofl@val
  1319  1F9D  3000               	movlw	0
  1320  1F9E  160A  118A  2017  160A  158A  	fcall	___xxtofl
  1321  1FA3  0877               	movf	?___xxtofl+3,w
  1322  1FA4  1283               	bcf	3,5	;RP0=0, select bank0
  1323  1FA5  1303               	bcf	3,6	;RP1=0, select bank0
  1324  1FA6  00AD               	movwf	___fldiv@b+3
  1325  1FA7  0876               	movf	?___xxtofl+2,w
  1326  1FA8  00AC               	movwf	___fldiv@b+2
  1327  1FA9  0875               	movf	?___xxtofl+1,w
  1328  1FAA  00AB               	movwf	___fldiv@b+1
  1329  1FAB  0874               	movf	?___xxtofl,w
  1330  1FAC  00AA               	movwf	___fldiv@b
  1331  1FAD  160A  118A  2190  160A  158A  	fcall	___fldiv
  1332  1FB2  1283               	bcf	3,5	;RP0=0, select bank0
  1333  1FB3  1303               	bcf	3,6	;RP1=0, select bank0
  1334  1FB4  0829               	movf	?___fldiv+3,w
  1335  1FB5  1683               	bsf	3,5	;RP0=1, select bank1
  1336  1FB6  1303               	bcf	3,6	;RP1=0, select bank1
  1337  1FB7  00CF               	movwf	(_temp+3)^(0+128)
  1338  1FB8  1283               	bcf	3,5	;RP0=0, select bank0
  1339  1FB9  1303               	bcf	3,6	;RP1=0, select bank0
  1340  1FBA  0828               	movf	?___fldiv+2,w
  1341  1FBB  1683               	bsf	3,5	;RP0=1, select bank1
  1342  1FBC  1303               	bcf	3,6	;RP1=0, select bank1
  1343  1FBD  00CE               	movwf	(_temp+2)^(0+128)
  1344  1FBE  1283               	bcf	3,5	;RP0=0, select bank0
  1345  1FBF  1303               	bcf	3,6	;RP1=0, select bank0
  1346  1FC0  0827               	movf	?___fldiv+1,w
  1347  1FC1  1683               	bsf	3,5	;RP0=1, select bank1
  1348  1FC2  1303               	bcf	3,6	;RP1=0, select bank1
  1349  1FC3  00CD               	movwf	(_temp+1)^(0+128)
  1350  1FC4  1283               	bcf	3,5	;RP0=0, select bank0
  1351  1FC5  1303               	bcf	3,6	;RP1=0, select bank0
  1352  1FC6  0826               	movf	?___fldiv,w
  1353  1FC7  1683               	bsf	3,5	;RP0=1, select bank1
  1354  1FC8  1303               	bcf	3,6	;RP1=0, select bank1
  1355  1FC9  00CC               	movwf	_temp^(0+128)
  1356  1FCA                     l3750:
  1357                           
  1358                           ;newmain.c: 102:         LCDGoto(0,1);
  1359  1FCA  01F7               	clrf	LCDGoto@ln
  1360  1FCB  0AF7               	incf	LCDGoto@ln,f
  1361  1FCC  3000               	movlw	0
  1362  1FCD  160A  158A  2497  160A  158A  	fcall	_LCDGoto
  1363  1FD2                     l3752:
  1364                           
  1365                           ;newmain.c: 103:         sprintf(buffer, "Temperature:%.02f", temp);
  1366  1FD2  3091               	movlw	(low ((STR_1-__stringbase)| (0+32768)))& (0+255)
  1367  1FD3  1683               	bsf	3,5	;RP0=1, select bank1
  1368  1FD4  1303               	bcf	3,6	;RP1=0, select bank1
  1369  1FD5  00C8               	movwf	??_main^(0+128)
  1370  1FD6  0848               	movf	??_main^(0+128),w
  1371  1FD7  00BD               	movwf	sprintf@f^(0+128)
  1372  1FD8  084F               	movf	(_temp+3)^(0+128),w
  1373  1FD9  00C1               	movwf	((?_sprintf+3)^(0+128)+1)
  1374  1FDA  084E               	movf	(_temp+2)^(0+128),w
  1375  1FDB  00C0               	movwf	((?_sprintf+2)^(0+128)+1)
  1376  1FDC  084D               	movf	(_temp+1)^(0+128),w
  1377  1FDD  00BF               	movwf	((?_sprintf+1)^(0+128)+1)
  1378  1FDE  084C               	movf	_temp^(0+128),w
  1379  1FDF  00BE               	movwf	(?_sprintf^(0+128)+1)
  1380  1FE0  30D0               	movlw	(low (_buffer| 0))& (0+255)
  1381  1FE1  160A  158A  2448  160A  158A  	fcall	_sprintf
  1382  1FE6                     l3754:
  1383                           
  1384                           ;newmain.c: 104:         LCDPutStr(buffer);
  1385  1FE6  30D0               	movlw	(low (_buffer| 0))& (0+255)
  1386  1FE7  160A  158A  2351  160A  158A  	fcall	_LCDPutStr
  1387  1FEC                     l3756:
  1388                           
  1389                           ;newmain.c: 105:         printf("T = %.02f ", temp);
  1390  1FEC  1683               	bsf	3,5	;RP0=1, select bank1
  1391  1FED  1303               	bcf	3,6	;RP1=0, select bank1
  1392  1FEE  084F               	movf	(_temp+3)^(0+128),w
  1393  1FEF  00C0               	movwf	(?_printf+3)^(0+128)
  1394  1FF0  084E               	movf	(_temp+2)^(0+128),w
  1395  1FF1  00BF               	movwf	(?_printf+2)^(0+128)
  1396  1FF2  084D               	movf	(_temp+1)^(0+128),w
  1397  1FF3  00BE               	movwf	(?_printf+1)^(0+128)
  1398  1FF4  084C               	movf	_temp^(0+128),w
  1399  1FF5  00BD               	movwf	?_printf^(0+128)
  1400  1FF6  30A3               	movlw	(low ((STR_2-__stringbase)| (0+32768)))& (0+255)
  1401  1FF7  160A  158A  236F  160A  158A  	fcall	_printf
  1402  1FFC  2F7E               	goto	l3748
  1403  1FFD  120A  118A  2800   	ljmp	start
  1404  2000                     __end_of_main:
  1405                           
  1406                           	psect	text1
  1407  1C48                     __ptext1:	
  1408 ;; *************** function _sprintf *****************
  1409 ;; Defined at:
  1410 ;;		line 13 in file "C:\Program Files\Microchip\xc8\v2.36\pic\sources\c90\common\sprintf.c"
  1411 ;; Parameters:    Size  Location     Type
  1412 ;;  wh              1    wreg     PTR unsigned char 
  1413 ;;		 -> buffer(20), 
  1414 ;;  f               1   29[BANK1 ] PTR const unsigned char 
  1415 ;;		 -> STR_1(18), 
  1416 ;; Auto vars:     Size  Location     Type
  1417 ;;  wh              1   36[BANK1 ] PTR unsigned char 
  1418 ;;		 -> buffer(20), 
  1419 ;;  pb              2   38[BANK1 ] struct __prbuf
  1420 ;;  ap              1   37[BANK1 ] PTR void [1]
  1421 ;;		 -> ?_sprintf(2), ?_printf(2), 
  1422 ;; Return value:  Size  Location     Type
  1423 ;;                  2   29[BANK1 ] int 
  1424 ;; Registers used:
  1425 ;;		wreg, fsr0l, fsr0h, status,2, status,0, btemp+1, pclath, cstack
  1426 ;; Tracked objects:
  1427 ;;		On entry : 0/0
  1428 ;;		On exit  : 0/0
  1429 ;;		Unchanged: 0/0
  1430 ;; Data sizes:     COMMON   BANK0   BANK1   BANK3   BANK2
  1431 ;;      Params:         0       0       5       0       0
  1432 ;;      Locals:         0       0       4       0       0
  1433 ;;      Temps:          0       0       2       0       0
  1434 ;;      Totals:         0       0      11       0       0
  1435 ;;Total ram usage:       11 bytes
  1436 ;; Hardware stack levels used: 1
  1437 ;; Hardware stack levels required when called: 4
  1438 ;; This function calls:
  1439 ;;		__doprnt
  1440 ;; This function is called by:
  1441 ;;		_main
  1442 ;; This function uses a non-reentrant model
  1443 ;;
  1444                           
  1445  1C48                     _sprintf:	
  1446                           ;psect for function _sprintf
  1447                           
  1448                           
  1449                           ;incstack = 0
  1450                           ; Regs used in _sprintf: [wreg-fsr0h+status,2+status,0+btemp+1+pclath+cstack]
  1451                           ;sprintf@wh stored from wreg
  1452  1C48  1683               	bsf	3,5	;RP0=1, select bank1
  1453  1C49  1303               	bcf	3,6	;RP1=0, select bank1
  1454  1C4A  00C4               	movwf	sprintf@wh^(0+128)
  1455  1C4B                     l3564:
  1456  1C4B  0844               	movf	sprintf@wh^(0+128),w
  1457  1C4C  00C2               	movwf	??_sprintf^(0+128)
  1458  1C4D  0842               	movf	??_sprintf^(0+128),w
  1459  1C4E  00C6               	movwf	sprintf@pb^(0+128)
  1460  1C4F                     l3566:
  1461  1C4F  01C7               	clrf	(low ((sprintf@pb| 0+1)))^(0+128)
  1462  1C50                     l3568:
  1463  1C50  30BE               	movlw	(low ((?_sprintf| 0+1)))& (0+255)
  1464  1C51  00C2               	movwf	??_sprintf^(0+128)
  1465  1C52  0842               	movf	??_sprintf^(0+128),w
  1466  1C53  00C5               	movwf	sprintf@ap^(0+128)
  1467  1C54                     l3570:
  1468  1C54  083D               	movf	sprintf@f^(0+128),w
  1469  1C55  00C2               	movwf	??_sprintf^(0+128)
  1470  1C56  0842               	movf	??_sprintf^(0+128),w
  1471  1C57  1283               	bcf	3,5	;RP0=0, select bank0
  1472  1C58  1303               	bcf	3,6	;RP1=0, select bank0
  1473  1C59  00EE               	movwf	__doprnt@f
  1474  1C5A  30C5               	movlw	(low (sprintf@ap| 0))& (0+255)
  1475  1C5B  1683               	bsf	3,5	;RP0=1, select bank1
  1476  1C5C  1303               	bcf	3,6	;RP1=0, select bank1
  1477  1C5D  00C3               	movwf	(??_sprintf+1)^(0+128)
  1478  1C5E  0843               	movf	(??_sprintf+1)^(0+128),w
  1479  1C5F  1283               	bcf	3,5	;RP0=0, select bank0
  1480  1C60  1303               	bcf	3,6	;RP1=0, select bank0
  1481  1C61  00EF               	movwf	__doprnt@ap
  1482  1C62  30C6               	movlw	(low (sprintf@pb| 0))& (0+255)
  1483  1C63  120A  118A  20B1  160A  158A  	fcall	__doprnt
  1484  1C68                     l3572:
  1485  1C68  1683               	bsf	3,5	;RP0=1, select bank1
  1486  1C69  1303               	bcf	3,6	;RP1=0, select bank1
  1487  1C6A  0846               	movf	sprintf@pb^(0+128),w
  1488  1C6B  0084               	movwf	4
  1489  1C6C  1383               	bcf	3,7	;select IRP bank0
  1490  1C6D  0180               	clrf	0
  1491  1C6E                     l872:
  1492  1C6E  0008               	return
  1493  1C6F                     __end_of_sprintf:
  1494                           
  1495                           	psect	text2
  1496  1B6F                     __ptext2:	
  1497 ;; *************** function _printf *****************
  1498 ;; Defined at:
  1499 ;;		line 13 in file "C:\Program Files\Microchip\xc8\v2.36\pic\sources\c90\common\printf.c"
  1500 ;; Parameters:    Size  Location     Type
  1501 ;;  f               1    wreg     PTR const unsigned char 
  1502 ;;		 -> STR_2(11), 
  1503 ;; Auto vars:     Size  Location     Type
  1504 ;;  f               1   35[BANK1 ] PTR const unsigned char 
  1505 ;;		 -> STR_2(11), 
  1506 ;;  pb              2   37[BANK1 ] struct __prbuf
  1507 ;;  ap              1   36[BANK1 ] PTR void [1]
  1508 ;;		 -> ?_sprintf(2), ?_printf(2), 
  1509 ;; Return value:  Size  Location     Type
  1510 ;;                  2   29[BANK1 ] int 
  1511 ;; Registers used:
  1512 ;;		wreg, fsr0l, fsr0h, status,2, status,0, btemp+1, pclath, cstack
  1513 ;; Tracked objects:
  1514 ;;		On entry : 0/0
  1515 ;;		On exit  : 0/0
  1516 ;;		Unchanged: 0/0
  1517 ;; Data sizes:     COMMON   BANK0   BANK1   BANK3   BANK2
  1518 ;;      Params:         0       0       4       0       0
  1519 ;;      Locals:         0       0       4       0       0
  1520 ;;      Temps:          0       0       2       0       0
  1521 ;;      Totals:         0       0      10       0       0
  1522 ;;Total ram usage:       10 bytes
  1523 ;; Hardware stack levels used: 1
  1524 ;; Hardware stack levels required when called: 4
  1525 ;; This function calls:
  1526 ;;		__doprnt
  1527 ;; This function is called by:
  1528 ;;		_main
  1529 ;; This function uses a non-reentrant model
  1530 ;;
  1531                           
  1532  1B6F                     _printf:	
  1533                           ;psect for function _printf
  1534                           
  1535                           
  1536                           ;incstack = 0
  1537                           ; Regs used in _printf: [wreg-fsr0h+status,2+status,0+btemp+1+pclath+cstack]
  1538                           ;printf@f stored from wreg
  1539  1B6F  1683               	bsf	3,5	;RP0=1, select bank1
  1540  1B70  1303               	bcf	3,6	;RP1=0, select bank1
  1541  1B71  00C3               	movwf	printf@f^(0+128)
  1542  1B72                     l3584:
  1543  1B72  01C5               	clrf	printf@pb^(0+128)
  1544  1B73                     l3586:
  1545  1B73  3001               	movlw	(low (fp__putch-fpbase))& (0+255)
  1546  1B74  00C1               	movwf	??_printf^(0+128)
  1547  1B75  0841               	movf	??_printf^(0+128),w
  1548  1B76  00C6               	movwf	(low ((printf@pb| 0+1)))^(0+128)
  1549  1B77                     l3588:
  1550  1B77  30BD               	movlw	(low (?_printf| 0))& (0+255)
  1551  1B78  00C1               	movwf	??_printf^(0+128)
  1552  1B79  0841               	movf	??_printf^(0+128),w
  1553  1B7A  00C4               	movwf	printf@ap^(0+128)
  1554  1B7B                     l3590:
  1555                           
  1556                           ;	Return value of _printf is never used
  1557  1B7B  0843               	movf	printf@f^(0+128),w
  1558  1B7C  00C1               	movwf	??_printf^(0+128)
  1559  1B7D  0841               	movf	??_printf^(0+128),w
  1560  1B7E  1283               	bcf	3,5	;RP0=0, select bank0
  1561  1B7F  1303               	bcf	3,6	;RP1=0, select bank0
  1562  1B80  00EE               	movwf	__doprnt@f
  1563  1B81  30C4               	movlw	(low (printf@ap| 0))& (0+255)
  1564  1B82  1683               	bsf	3,5	;RP0=1, select bank1
  1565  1B83  1303               	bcf	3,6	;RP1=0, select bank1
  1566  1B84  00C2               	movwf	(??_printf+1)^(0+128)
  1567  1B85  0842               	movf	(??_printf+1)^(0+128),w
  1568  1B86  1283               	bcf	3,5	;RP0=0, select bank0
  1569  1B87  1303               	bcf	3,6	;RP1=0, select bank0
  1570  1B88  00EF               	movwf	__doprnt@ap
  1571  1B89  30C5               	movlw	(low (printf@pb| 0))& (0+255)
  1572  1B8A  120A  118A  20B1  160A  158A  	fcall	__doprnt
  1573  1B8F                     l699:
  1574  1B8F  0008               	return
  1575  1B90                     __end_of_printf:
  1576                           
  1577                           	psect	text3
  1578  00B1                     __ptext3:	
  1579 ;; *************** function __doprnt *****************
  1580 ;; Defined at:
  1581 ;;		line 471 in file "C:\Program Files\Microchip\xc8\v2.36\pic\sources\c90\common\doprnt.c"
  1582 ;; Parameters:    Size  Location     Type
  1583 ;;  pb              1    wreg     PTR struct __prbuf
  1584 ;;		 -> sprintf@pb(2), printf@pb(2), 
  1585 ;;  f               1   78[BANK0 ] PTR const unsigned char 
  1586 ;;		 -> STR_2(11), STR_1(18), 
  1587 ;;  ap              1   79[BANK0 ] PTR PTR void 
  1588 ;;		 -> sprintf@ap(1), printf@ap(1), 
  1589 ;; Auto vars:     Size  Location     Type
  1590 ;;  pb              1   28[BANK1 ] PTR struct __prbuf
  1591 ;;		 -> sprintf@pb(2), printf@pb(2), 
  1592 ;;  fval            4   23[BANK1 ] PTR struct __prbuf
  1593 ;;  tmpval          4   19[BANK1 ] struct .
  1594 ;;  val             4   11[BANK1 ] unsigned long 
  1595 ;;  prec            2   17[BANK1 ] int 
  1596 ;;  eexp            2   15[BANK1 ] int 
  1597 ;;  flag            2    9[BANK1 ] unsigned short 
  1598 ;;  cp              2    0        PTR const unsigned char 
  1599 ;;  len             2    0        unsigned int 
  1600 ;;  width           2    0        int 
  1601 ;;  c               1   27[BANK1 ] unsigned char 
  1602 ;;  d               1    0        unsigned char 
  1603 ;; Return value:  Size  Location     Type
  1604 ;;                  2   78[BANK0 ] int 
  1605 ;; Registers used:
  1606 ;;		wreg, fsr0l, fsr0h, status,2, status,0, btemp+1, pclath, cstack
  1607 ;; Tracked objects:
  1608 ;;		On entry : 0/0
  1609 ;;		On exit  : 0/0
  1610 ;;		Unchanged: 0/0
  1611 ;; Data sizes:     COMMON   BANK0   BANK1   BANK3   BANK2
  1612 ;;      Params:         0       2       0       0       0
  1613 ;;      Locals:         0       0      24       0       0
  1614 ;;      Temps:          0       0       5       0       0
  1615 ;;      Totals:         0       2      29       0       0
  1616 ;;Total ram usage:       31 bytes
  1617 ;; Hardware stack levels used: 1
  1618 ;; Hardware stack levels required when called: 3
  1619 ;; This function calls:
  1620 ;;		Absolute function
  1621 ;;		___awdiv
  1622 ;;		___fladd
  1623 ;;		___fleq
  1624 ;;		___flge
  1625 ;;		___flmul
  1626 ;;		___flneg
  1627 ;;		___flsub
  1628 ;;		___fltol
  1629 ;;		___lldiv
  1630 ;;		___llmod
  1631 ;;		___wmul
  1632 ;;		___xxtofl
  1633 ;;		__div_to_l_
  1634 ;;		__tdiv_to_l_
  1635 ;;		_fround
  1636 ;;		_isdigit
  1637 ;;		_putch
  1638 ;;		_scale
  1639 ;; This function is called by:
  1640 ;;		_printf
  1641 ;;		_sprintf
  1642 ;; This function uses a non-reentrant model
  1643 ;;
  1644                           
  1645  00B1                     __doprnt:	
  1646                           ;psect for function __doprnt
  1647                           
  1648                           
  1649                           ;incstack = 0
  1650                           ; Regs used in __doprnt: [wreg-fsr0h+status,2+status,0+btemp+1+pclath+cstack]
  1651                           ;__doprnt@pb stored from wreg
  1652  00B1  1683               	bsf	3,5	;RP0=1, select bank1
  1653  00B2  1303               	bcf	3,6	;RP1=0, select bank1
  1654  00B3  00BC               	movwf	__doprnt@pb^(0+128)
  1655  00B4                     l3260:
  1656                           
  1657                           ;C:\Program Files\Microchip\xc8\v2.36\pic\sources\c90\common\doprnt.c: 471: _doprnt(stru
      +                          ct __prbuf * pb, register const char * f, register va_list ap);C:\Program Files\Microchi
      +                          p\xc8\v2.36\pic\sources\c90\common\doprnt.c: 472: {;C:\Program Files\Microchip\xc8\v2.36
      +                          \pic\sources\c90\common\doprnt.c: 512:  char c;;C:\Program Files\Microchip\xc8\v2.36\pic
      +                          \sources\c90\common\doprnt.c: 514:  int width;;C:\Program Files\Microchip\xc8\v2.36\pic\
      +                          sources\c90\common\doprnt.c: 517:  int prec;;C:\Program Files\Microchip\xc8\v2.36\pic\so
      +                          urces\c90\common\doprnt.c: 525:  unsigned short flag;
  1658  00B4  2FD8               	goto	l3484
  1659  00B5                     l3262:
  1660                           
  1661                           ;C:\Program Files\Microchip\xc8\v2.36\pic\sources\c90\common\doprnt.c: 555:   if(c != '%
      +                          ')
  1662  00B5  3025               	movlw	37
  1663  00B6  063B               	xorwf	__doprnt@c^(0+128),w
  1664  00B7  1903               	btfsc	3,2
  1665  00B8  28BA               	goto	u5411
  1666  00B9  28BB               	goto	u5410
  1667  00BA                     u5411:
  1668  00BA  28E1               	goto	l3272
  1669  00BB                     u5410:
  1670  00BB                     l3264:
  1671  00BB  0A3C               	incf	__doprnt@pb^(0+128),w
  1672  00BC  0084               	movwf	4
  1673  00BD  1383               	bcf	3,7	;select IRP bank0
  1674  00BE  0800               	movf	0,w
  1675  00BF  1903               	btfsc	3,2
  1676  00C0  28C2               	goto	u5421
  1677  00C1  28C3               	goto	u5420
  1678  00C2                     u5421:
  1679  00C2  28D2               	goto	l3268
  1680  00C3                     u5420:
  1681  00C3                     l3266:
  1682  00C3  083B               	movf	__doprnt@c^(0+128),w
  1683  00C4  00A0               	movwf	??__doprnt^(0+128)
  1684  00C5  0820               	movf	??__doprnt^(0+128),w
  1685  00C6  00F1               	movwf	putch@x
  1686  00C7  0A3C               	incf	__doprnt@pb^(0+128),w
  1687  00C8  0084               	movwf	4
  1688  00C9  0800               	movf	0,w
  1689  00CA  120A  118A  2003  120A  118A  	fcall	fptable
  1690  00CF  1683               	bsf	3,5	;RP0=1, select bank1
  1691  00D0  1303               	bcf	3,6	;RP1=0, select bank1
  1692  00D1  28B4               	goto	l3260
  1693  00D2                     l3268:
  1694  00D2  083B               	movf	__doprnt@c^(0+128),w
  1695  00D3  00A0               	movwf	??__doprnt^(0+128)
  1696  00D4  083C               	movf	__doprnt@pb^(0+128),w
  1697  00D5  0084               	movwf	4
  1698  00D6  0800               	movf	0,w
  1699  00D7  0084               	movwf	4
  1700  00D8  0820               	movf	??__doprnt^(0+128),w
  1701  00D9  0080               	movwf	0
  1702  00DA                     l3270:
  1703  00DA  3001               	movlw	1
  1704  00DB  00A0               	movwf	??__doprnt^(0+128)
  1705  00DC  083C               	movf	__doprnt@pb^(0+128),w
  1706  00DD  0084               	movwf	4
  1707  00DE  0820               	movf	??__doprnt^(0+128),w
  1708  00DF  0780               	addwf	0,f
  1709  00E0  28B4               	goto	l3260
  1710  00E1                     l3272:
  1711                           
  1712                           ;C:\Program Files\Microchip\xc8\v2.36\pic\sources\c90\common\doprnt.c: 565:   flag = 0;
  1713  00E1  01A9               	clrf	__doprnt@flag^(0+128)
  1714  00E2  01AA               	clrf	(__doprnt@flag+1)^(0+128)
  1715  00E3                     l3274:
  1716                           
  1717                           ;C:\Program Files\Microchip\xc8\v2.36\pic\sources\c90\common\doprnt.c: 628:   if(*f == '
      +                          .') {
  1718  00E3  1283               	bcf	3,5	;RP0=0, select bank0
  1719  00E4  1303               	bcf	3,6	;RP1=0, select bank0
  1720  00E5  086E               	movf	__doprnt@f,w
  1721  00E6  0084               	movwf	4
  1722  00E7  160A  158A  2000  120A  118A  	fcall	stringdir
  1723  00EC  3A2E               	xorlw	46
  1724  00ED  1D03               	skipz
  1725  00EE  28F0               	goto	u5431
  1726  00EF  28F1               	goto	u5430
  1727  00F0                     u5431:
  1728  00F0  2943               	goto	l3290
  1729  00F1                     u5430:
  1730  00F1                     l3276:
  1731                           
  1732                           ;C:\Program Files\Microchip\xc8\v2.36\pic\sources\c90\common\doprnt.c: 629:    flag |= 0
      +                          x4000;
  1733  00F1  1683               	bsf	3,5	;RP0=1, select bank1
  1734  00F2  1303               	bcf	3,6	;RP1=0, select bank1
  1735  00F3  172A               	bsf	(__doprnt@flag^(0+128)+1),6
  1736  00F4                     l3278:
  1737                           
  1738                           ;C:\Program Files\Microchip\xc8\v2.36\pic\sources\c90\common\doprnt.c: 630:    f++;
  1739  00F4  3001               	movlw	1
  1740  00F5  00A0               	movwf	??__doprnt^(0+128)
  1741  00F6  0820               	movf	??__doprnt^(0+128),w
  1742  00F7  1283               	bcf	3,5	;RP0=0, select bank0
  1743  00F8  1303               	bcf	3,6	;RP1=0, select bank0
  1744  00F9  07EE               	addwf	__doprnt@f,f
  1745  00FA                     l3280:
  1746                           
  1747                           ;C:\Program Files\Microchip\xc8\v2.36\pic\sources\c90\common\doprnt.c: 644:    {;C:\Prog
      +                          ram Files\Microchip\xc8\v2.36\pic\sources\c90\common\doprnt.c: 645:     prec = 0;
  1748  00FA  1683               	bsf	3,5	;RP0=1, select bank1
  1749  00FB  1303               	bcf	3,6	;RP1=0, select bank1
  1750  00FC  01B1               	clrf	__doprnt@prec^(0+128)
  1751  00FD  01B2               	clrf	(__doprnt@prec+1)^(0+128)
  1752                           
  1753                           ;C:\Program Files\Microchip\xc8\v2.36\pic\sources\c90\common\doprnt.c: 646:     while(is
      +                          digit((unsigned)*f)) {
  1754  00FE  2931               	goto	l3288
  1755  00FF                     l3282:
  1756                           
  1757                           ;C:\Program Files\Microchip\xc8\v2.36\pic\sources\c90\common\doprnt.c: 647:      prec *=
      +                           10;
  1758  00FF  300A               	movlw	10
  1759  0100  00F0               	movwf	___wmul@multiplier
  1760  0101  3000               	movlw	0
  1761  0102  00F1               	movwf	___wmul@multiplier+1
  1762  0103  1683               	bsf	3,5	;RP0=1, select bank1
  1763  0104  1303               	bcf	3,6	;RP1=0, select bank1
  1764  0105  0832               	movf	(__doprnt@prec+1)^(0+128),w
  1765  0106  00F3               	movwf	___wmul@multiplicand+1
  1766  0107  0831               	movf	__doprnt@prec^(0+128),w
  1767  0108  00F2               	movwf	___wmul@multiplicand
  1768  0109  160A  158A  23FC  120A  118A  	fcall	___wmul
  1769  010E  0871               	movf	?___wmul+1,w
  1770  010F  1683               	bsf	3,5	;RP0=1, select bank1
  1771  0110  1303               	bcf	3,6	;RP1=0, select bank1
  1772  0111  00B2               	movwf	(__doprnt@prec+1)^(0+128)
  1773  0112  0870               	movf	?___wmul,w
  1774  0113  00B1               	movwf	__doprnt@prec^(0+128)
  1775  0114                     l3284:
  1776                           
  1777                           ;C:\Program Files\Microchip\xc8\v2.36\pic\sources\c90\common\doprnt.c: 648:         prec
      +                           += *f++ - '0';
  1778  0114  1283               	bcf	3,5	;RP0=0, select bank0
  1779  0115  1303               	bcf	3,6	;RP1=0, select bank0
  1780  0116  086E               	movf	__doprnt@f,w
  1781  0117  0084               	movwf	4
  1782  0118  160A  158A  2000  120A  118A  	fcall	stringdir
  1783  011D  3ED0               	addlw	208
  1784  011E  1683               	bsf	3,5	;RP0=1, select bank1
  1785  011F  1303               	bcf	3,6	;RP1=0, select bank1
  1786  0120  00A0               	movwf	??__doprnt^(0+128)
  1787  0121  30FF               	movlw	255
  1788  0122  1803               	skipnc
  1789  0123  3000               	movlw	0
  1790  0124  00A1               	movwf	(??__doprnt^(0+128)+1)
  1791  0125  0820               	movf	??__doprnt^(0+128),w
  1792  0126  07B1               	addwf	__doprnt@prec^(0+128),f
  1793  0127  1803               	skipnc
  1794  0128  0AB2               	incf	(__doprnt@prec+1)^(0+128),f
  1795  0129  0821               	movf	(??__doprnt+1)^(0+128),w
  1796  012A  07B2               	addwf	(__doprnt@prec+1)^(0+128),f
  1797  012B                     l3286:
  1798  012B  3001               	movlw	1
  1799  012C  00A0               	movwf	??__doprnt^(0+128)
  1800  012D  0820               	movf	??__doprnt^(0+128),w
  1801  012E  1283               	bcf	3,5	;RP0=0, select bank0
  1802  012F  1303               	bcf	3,6	;RP1=0, select bank0
  1803  0130  07EE               	addwf	__doprnt@f,f
  1804  0131                     l3288:
  1805                           
  1806                           ;C:\Program Files\Microchip\xc8\v2.36\pic\sources\c90\common\doprnt.c: 646:     while(is
      +                          digit((unsigned)*f)) {
  1807  0131  1283               	bcf	3,5	;RP0=0, select bank0
  1808  0132  086E               	movf	__doprnt@f,w
  1809  0133  0084               	movwf	4
  1810  0134  160A  158A  2000  120A  118A  	fcall	stringdir
  1811  0139  160A  118A  2005  120A  118A  	fcall	_isdigit
  1812  013E  1803               	btfsc	3,0
  1813  013F  2941               	goto	u5441
  1814  0140  2942               	goto	u5440
  1815  0141                     u5441:
  1816  0141  28FF               	goto	l3282
  1817  0142                     u5440:
  1818  0142  294B               	goto	l3296
  1819  0143                     l3290:
  1820                           
  1821                           ;C:\Program Files\Microchip\xc8\v2.36\pic\sources\c90\common\doprnt.c: 652:    prec = 0;
  1822  0143  1683               	bsf	3,5	;RP0=1, select bank1
  1823  0144  1303               	bcf	3,6	;RP1=0, select bank1
  1824  0145  01B1               	clrf	__doprnt@prec^(0+128)
  1825  0146  01B2               	clrf	(__doprnt@prec+1)^(0+128)
  1826  0147                     l3292:
  1827                           
  1828                           ;C:\Program Files\Microchip\xc8\v2.36\pic\sources\c90\common\doprnt.c: 654:    flag |= 0
      +                          x1000;
  1829  0147  162A               	bsf	(__doprnt@flag^(0+128)+1),4
  1830  0148  294B               	goto	l3296
  1831  0149                     l747:	
  1832                           ;C:\Program Files\Microchip\xc8\v2.36\pic\sources\c90\common\doprnt.c: 688:   case 'f':
  1833                           
  1834                           
  1835                           ;C:\Program Files\Microchip\xc8\v2.36\pic\sources\c90\common\doprnt.c: 689:    flag |= 0
      +                          x400;
  1836  0149  152A               	bsf	(__doprnt@flag^(0+128)+1),2
  1837                           
  1838                           ;C:\Program Files\Microchip\xc8\v2.36\pic\sources\c90\common\doprnt.c: 690:    break;
  1839  014A  2969               	goto	l3298
  1840  014B                     l3296:
  1841  014B  3001               	movlw	1
  1842  014C  1283               	bcf	3,5	;RP0=0, select bank0
  1843  014D  1303               	bcf	3,6	;RP1=0, select bank0
  1844  014E  07EE               	addwf	__doprnt@f,f
  1845  014F  30FF               	movlw	-1
  1846  0150  076E               	addwf	__doprnt@f,w
  1847  0151  0084               	movwf	4
  1848  0152  160A  158A  2000  120A  118A  	fcall	stringdir
  1849  0157  1683               	bsf	3,5	;RP0=1, select bank1
  1850  0158  1303               	bcf	3,6	;RP1=0, select bank1
  1851  0159  00BB               	movwf	__doprnt@c^(0+128)
  1852  015A  00A0               	movwf	??__doprnt^(0+128)
  1853  015B  01A1               	clrf	(??__doprnt^(0+128)+1)
  1854                           
  1855                           ; Switch on 2 bytes has been partitioned into a top level switch of size 1, and 1 sub-sw
      +                          itches
  1856                           ; Switch size 1, requested type "simple"
  1857                           ; Number of cases is 1, Range of values is 0 to 0
  1858                           ; switch strategies available:
  1859                           ; Name         Instructions Cycles
  1860                           ; simple_byte            4     3 (average)
  1861                           ; direct_byte           11     8 (fixed)
  1862                           ; jumptable            260     6 (fixed)
  1863                           ;	Chosen strategy is simple_byte
  1864  015C  0821               	movf	(??__doprnt+1)^(0+128),w
  1865  015D  3A00               	xorlw	0	; case 0
  1866  015E  1903               	skipnz
  1867  015F  2961               	goto	l3810
  1868  0160  2FD8               	goto	l3484
  1869  0161                     l3810:
  1870                           
  1871                           ; Switch size 1, requested type "simple"
  1872                           ; Number of cases is 2, Range of values is 0 to 102
  1873                           ; switch strategies available:
  1874                           ; Name         Instructions Cycles
  1875                           ; simple_byte            7     4 (average)
  1876                           ; jumptable            260     6 (fixed)
  1877                           ;	Chosen strategy is simple_byte
  1878  0161  0820               	movf	??__doprnt^(0+128),w
  1879  0162  3A00               	xorlw	0	; case 0
  1880  0163  1903               	skipnz
  1881  0164  2FEE               	goto	l3486
  1882  0165  3A66               	xorlw	102	; case 102
  1883  0166  1903               	skipnz
  1884  0167  2949               	goto	l747
  1885  0168  2FD8               	goto	l3484
  1886  0169                     l3298:
  1887                           
  1888                           ;C:\Program Files\Microchip\xc8\v2.36\pic\sources\c90\common\doprnt.c: 851:   if(flag & 
      +                          (0x700)) {
  1889  0169  3000               	movlw	0
  1890  016A  0529               	andwf	__doprnt@flag^(0+128),w
  1891  016B  00A0               	movwf	??__doprnt^(0+128)
  1892  016C  3007               	movlw	7
  1893  016D  052A               	andwf	(__doprnt@flag+1)^(0+128),w
  1894  016E  00A1               	movwf	(??__doprnt+1)^(0+128)
  1895  016F  0820               	movf	??__doprnt^(0+128),w
  1896  0170  0421               	iorwf	(??__doprnt^(0+128)+1),w
  1897  0171  1903               	btfsc	3,2
  1898  0172  2974               	goto	u5451
  1899  0173  2975               	goto	u5450
  1900  0174                     u5451:
  1901  0174  2F78               	goto	l3462
  1902  0175                     u5450:
  1903  0175                     l3300:
  1904                           
  1905                           ;C:\Program Files\Microchip\xc8\v2.36\pic\sources\c90\common\doprnt.c: 853:    if(flag &
      +                           0x1000)
  1906  0175  1E2A               	btfss	(__doprnt@flag+1)^(0+128),4
  1907  0176  2978               	goto	u5461
  1908  0177  2979               	goto	u5460
  1909  0178                     u5461:
  1910  0178  297D               	goto	l3304
  1911  0179                     u5460:
  1912  0179                     l3302:
  1913                           
  1914                           ;C:\Program Files\Microchip\xc8\v2.36\pic\sources\c90\common\doprnt.c: 855:     prec = 6
      +                          ;
  1915  0179  3006               	movlw	6
  1916  017A  00B1               	movwf	__doprnt@prec^(0+128)
  1917  017B  3000               	movlw	0
  1918  017C  00B2               	movwf	(__doprnt@prec^(0+128)+1)
  1919  017D                     l3304:
  1920                           
  1921                           ;C:\Program Files\Microchip\xc8\v2.36\pic\sources\c90\common\doprnt.c: 856:    fval = (*
      +                          (double *)__va_arg((*(double **)ap), (double)0));
  1922  017D  1283               	bcf	3,5	;RP0=0, select bank0
  1923  017E  1303               	bcf	3,6	;RP1=0, select bank0
  1924  017F  086F               	movf	__doprnt@ap,w
  1925  0180  0084               	movwf	4
  1926  0181  1383               	bcf	3,7	;select IRP bank0
  1927  0182  0800               	movf	0,w
  1928  0183  1683               	bsf	3,5	;RP0=1, select bank1
  1929  0184  1303               	bcf	3,6	;RP1=0, select bank1
  1930  0185  00A0               	movwf	??__doprnt^(0+128)
  1931  0186  3004               	movlw	4
  1932  0187  0780               	addwf	0,f
  1933  0188  0820               	movf	??__doprnt^(0+128),w
  1934  0189  0084               	movwf	4
  1935  018A  0800               	movf	0,w
  1936  018B  00B7               	movwf	__doprnt@fval^(0+128)
  1937  018C  0A84               	incf	4,f
  1938  018D  0800               	movf	0,w
  1939  018E  00B8               	movwf	(__doprnt@fval+1)^(0+128)
  1940  018F  0A84               	incf	4,f
  1941  0190  0800               	movf	0,w
  1942  0191  00B9               	movwf	(__doprnt@fval+2)^(0+128)
  1943  0192  0A84               	incf	4,f
  1944  0193  0800               	movf	0,w
  1945  0194  00BA               	movwf	(__doprnt@fval+3)^(0+128)
  1946  0195                     l3306:
  1947                           
  1948                           ;C:\Program Files\Microchip\xc8\v2.36\pic\sources\c90\common\doprnt.c: 857:    if(fval <
      +                           0.0) {
  1949  0195  083A               	movf	(__doprnt@fval+3)^(0+128),w
  1950  0196  00F3               	movwf	___flge@ff1+3
  1951  0197  0839               	movf	(__doprnt@fval+2)^(0+128),w
  1952  0198  00F2               	movwf	___flge@ff1+2
  1953  0199  0838               	movf	(__doprnt@fval+1)^(0+128),w
  1954  019A  00F1               	movwf	___flge@ff1+1
  1955  019B  0837               	movf	__doprnt@fval^(0+128),w
  1956  019C  00F0               	movwf	___flge@ff1
  1957  019D  3000               	movlw	0
  1958  019E  00F7               	movwf	___flge@ff2+3
  1959  019F  3000               	movlw	0
  1960  01A0  00F6               	movwf	___flge@ff2+2
  1961  01A1  3000               	movlw	0
  1962  01A2  00F5               	movwf	___flge@ff2+1
  1963  01A3  3000               	movlw	0
  1964  01A4  00F4               	movwf	___flge@ff2
  1965  01A5  120A  118A  200F  120A  118A  	fcall	___flge
  1966  01AA  1803               	btfsc	3,0
  1967  01AB  29AD               	goto	u5471
  1968  01AC  29AE               	goto	u5470
  1969  01AD                     u5471:
  1970  01AD  29CB               	goto	l3312
  1971  01AE                     u5470:
  1972  01AE                     l3308:
  1973                           
  1974                           ;C:\Program Files\Microchip\xc8\v2.36\pic\sources\c90\common\doprnt.c: 858:     fval = -
      +                          fval;
  1975  01AE  1683               	bsf	3,5	;RP0=1, select bank1
  1976  01AF  1303               	bcf	3,6	;RP1=0, select bank1
  1977  01B0  083A               	movf	(__doprnt@fval+3)^(0+128),w
  1978  01B1  00F3               	movwf	___flneg@f1+3
  1979  01B2  0839               	movf	(__doprnt@fval+2)^(0+128),w
  1980  01B3  00F2               	movwf	___flneg@f1+2
  1981  01B4  0838               	movf	(__doprnt@fval+1)^(0+128),w
  1982  01B5  00F1               	movwf	___flneg@f1+1
  1983  01B6  0837               	movf	__doprnt@fval^(0+128),w
  1984  01B7  00F0               	movwf	___flneg@f1
  1985  01B8  160A  158A  2312  120A  118A  	fcall	___flneg
  1986  01BD  0873               	movf	?___flneg+3,w
  1987  01BE  1683               	bsf	3,5	;RP0=1, select bank1
  1988  01BF  1303               	bcf	3,6	;RP1=0, select bank1
  1989  01C0  00BA               	movwf	(__doprnt@fval+3)^(0+128)
  1990  01C1  0872               	movf	?___flneg+2,w
  1991  01C2  00B9               	movwf	(__doprnt@fval+2)^(0+128)
  1992  01C3  0871               	movf	?___flneg+1,w
  1993  01C4  00B8               	movwf	(__doprnt@fval+1)^(0+128)
  1994  01C5  0870               	movf	?___flneg,w
  1995  01C6  00B7               	movwf	__doprnt@fval^(0+128)
  1996  01C7                     l3310:
  1997                           
  1998                           ;C:\Program Files\Microchip\xc8\v2.36\pic\sources\c90\common\doprnt.c: 859:     flag |= 
      +                          0x03;
  1999  01C7  3003               	movlw	3
  2000  01C8  04A9               	iorwf	__doprnt@flag^(0+128),f
  2001  01C9  3000               	movlw	0
  2002  01CA  04AA               	iorwf	(__doprnt@flag+1)^(0+128),f
  2003  01CB                     l3312:
  2004                           
  2005                           ;C:\Program Files\Microchip\xc8\v2.36\pic\sources\c90\common\doprnt.c: 861:    eexp = 0;
  2006  01CB  1683               	bsf	3,5	;RP0=1, select bank1
  2007  01CC  1303               	bcf	3,6	;RP1=0, select bank1
  2008  01CD  01AF               	clrf	__doprnt@eexp^(0+128)
  2009  01CE  01B0               	clrf	(__doprnt@eexp+1)^(0+128)
  2010  01CF                     l3314:
  2011                           
  2012                           ;C:\Program Files\Microchip\xc8\v2.36\pic\sources\c90\common\doprnt.c: 862:    if( fval!
      +                          =0) {
  2013  01CF  083A               	movf	(__doprnt@fval+3)^(0+128),w
  2014  01D0  00F3               	movwf	___fleq@ff1+3
  2015  01D1  0839               	movf	(__doprnt@fval+2)^(0+128),w
  2016  01D2  00F2               	movwf	___fleq@ff1+2
  2017  01D3  0838               	movf	(__doprnt@fval+1)^(0+128),w
  2018  01D4  00F1               	movwf	___fleq@ff1+1
  2019  01D5  0837               	movf	__doprnt@fval^(0+128),w
  2020  01D6  00F0               	movwf	___fleq@ff1
  2021  01D7  3000               	movlw	0
  2022  01D8  00F7               	movwf	___fleq@ff2+3
  2023  01D9  3000               	movlw	0
  2024  01DA  00F6               	movwf	___fleq@ff2+2
  2025  01DB  3000               	movlw	0
  2026  01DC  00F5               	movwf	___fleq@ff2+1
  2027  01DD  3000               	movlw	0
  2028  01DE  00F4               	movwf	___fleq@ff2
  2029  01DF  160A  158A  25A2  120A  118A  	fcall	___fleq
  2030  01E4  1803               	btfsc	3,0
  2031  01E5  29E7               	goto	u5481
  2032  01E6  29E8               	goto	u5480
  2033  01E7                     u5481:
  2034  01E7  2AD8               	goto	l3340
  2035  01E8                     u5480:
  2036  01E8                     l3316:
  2037                           
  2038                           ;C:\Program Files\Microchip\xc8\v2.36\pic\sources\c90\common\doprnt.c: 863:     (void)(*
      +                          (&eexp) = (unsigned char)((*(unsigned long *)&fval >> 23) & 255) - 126);
  2039  01E8  1003               	clrc
  2040  01E9  1683               	bsf	3,5	;RP0=1, select bank1
  2041  01EA  1303               	bcf	3,6	;RP1=0, select bank1
  2042  01EB  0D39               	rlf	(__doprnt@fval+2)^(0+128),w
  2043  01EC  0D3A               	rlf	(__doprnt@fval+3)^(0+128),w
  2044  01ED  3E82               	addlw	130
  2045  01EE  00AF               	movwf	__doprnt@eexp^(0+128)
  2046  01EF  30FF               	movlw	255
  2047  01F0  1803               	skipnc
  2048  01F1  3000               	movlw	0
  2049  01F2  00B0               	movwf	(__doprnt@eexp^(0+128)+1)
  2050  01F3                     l3318:
  2051                           
  2052                           ;C:\Program Files\Microchip\xc8\v2.36\pic\sources\c90\common\doprnt.c: 864:     eexp--;
  2053  01F3  30FF               	movlw	255
  2054  01F4  07AF               	addwf	__doprnt@eexp^(0+128),f
  2055  01F5  1803               	skipnc
  2056  01F6  0AB0               	incf	(__doprnt@eexp+1)^(0+128),f
  2057  01F7  30FF               	movlw	255
  2058  01F8  07B0               	addwf	(__doprnt@eexp+1)^(0+128),f
  2059  01F9                     l3320:
  2060                           
  2061                           ;C:\Program Files\Microchip\xc8\v2.36\pic\sources\c90\common\doprnt.c: 865:     eexp *= 
      +                          3;
  2062  01F9  3003               	movlw	3
  2063  01FA  00F0               	movwf	___wmul@multiplier
  2064  01FB  3000               	movlw	0
  2065  01FC  00F1               	movwf	___wmul@multiplier+1
  2066  01FD  0830               	movf	(__doprnt@eexp+1)^(0+128),w
  2067  01FE  00F3               	movwf	___wmul@multiplicand+1
  2068  01FF  082F               	movf	__doprnt@eexp^(0+128),w
  2069  0200  00F2               	movwf	___wmul@multiplicand
  2070  0201  160A  158A  23FC  120A  118A  	fcall	___wmul
  2071  0206  0871               	movf	?___wmul+1,w
  2072  0207  1683               	bsf	3,5	;RP0=1, select bank1
  2073  0208  1303               	bcf	3,6	;RP1=0, select bank1
  2074  0209  00B0               	movwf	(__doprnt@eexp+1)^(0+128)
  2075  020A  0870               	movf	?___wmul,w
  2076  020B  00AF               	movwf	__doprnt@eexp^(0+128)
  2077  020C                     l3322:
  2078                           
  2079                           ;C:\Program Files\Microchip\xc8\v2.36\pic\sources\c90\common\doprnt.c: 866:     eexp /= 
      +                          10;
  2080  020C  300A               	movlw	10
  2081  020D  00F7               	movwf	___awdiv@divisor
  2082  020E  3000               	movlw	0
  2083  020F  00F8               	movwf	___awdiv@divisor+1
  2084  0210  0830               	movf	(__doprnt@eexp+1)^(0+128),w
  2085  0211  00FA               	movwf	___awdiv@dividend+1
  2086  0212  082F               	movf	__doprnt@eexp^(0+128),w
  2087  0213  00F9               	movwf	___awdiv@dividend
  2088  0214  160A  158A  2703  120A  118A  	fcall	___awdiv
  2089  0219  0878               	movf	?___awdiv+1,w
  2090  021A  1683               	bsf	3,5	;RP0=1, select bank1
  2091  021B  1303               	bcf	3,6	;RP1=0, select bank1
  2092  021C  00B0               	movwf	(__doprnt@eexp+1)^(0+128)
  2093  021D  0877               	movf	?___awdiv,w
  2094  021E  00AF               	movwf	__doprnt@eexp^(0+128)
  2095  021F                     l3324:
  2096                           
  2097                           ;C:\Program Files\Microchip\xc8\v2.36\pic\sources\c90\common\doprnt.c: 867:     if(eexp 
      +                          < 0)
  2098  021F  1FB0               	btfss	(__doprnt@eexp+1)^(0+128),7
  2099  0220  2A22               	goto	u5491
  2100  0221  2A23               	goto	u5490
  2101  0222                     u5491:
  2102  0222  2A29               	goto	l3328
  2103  0223                     u5490:
  2104  0223                     l3326:
  2105                           
  2106                           ;C:\Program Files\Microchip\xc8\v2.36\pic\sources\c90\common\doprnt.c: 868:      eexp--;
  2107  0223  30FF               	movlw	255
  2108  0224  07AF               	addwf	__doprnt@eexp^(0+128),f
  2109  0225  1803               	skipnc
  2110  0226  0AB0               	incf	(__doprnt@eexp+1)^(0+128),f
  2111  0227  30FF               	movlw	255
  2112  0228  07B0               	addwf	(__doprnt@eexp+1)^(0+128),f
  2113  0229                     l3328:
  2114                           
  2115                           ;C:\Program Files\Microchip\xc8\v2.36\pic\sources\c90\common\doprnt.c: 872:     tmpval.i
      +                          nteg = scale(-eexp);
  2116  0229  032F               	decf	__doprnt@eexp^(0+128),w
  2117  022A  3AFF               	xorlw	255
  2118  022B  120A  158A  2140  120A  118A  	fcall	_scale
  2119  0230  1283               	bcf	3,5	;RP0=0, select bank0
  2120  0231  1303               	bcf	3,6	;RP1=0, select bank0
  2121  0232  0841               	movf	?_scale+3,w
  2122  0233  1683               	bsf	3,5	;RP0=1, select bank1
  2123  0234  1303               	bcf	3,6	;RP1=0, select bank1
  2124  0235  00B6               	movwf	(__doprnt@tmpval+3)^(0+128)
  2125  0236  1283               	bcf	3,5	;RP0=0, select bank0
  2126  0237  1303               	bcf	3,6	;RP1=0, select bank0
  2127  0238  0840               	movf	?_scale+2,w
  2128  0239  1683               	bsf	3,5	;RP0=1, select bank1
  2129  023A  1303               	bcf	3,6	;RP1=0, select bank1
  2130  023B  00B5               	movwf	(__doprnt@tmpval+2)^(0+128)
  2131  023C  1283               	bcf	3,5	;RP0=0, select bank0
  2132  023D  1303               	bcf	3,6	;RP1=0, select bank0
  2133  023E  083F               	movf	?_scale+1,w
  2134  023F  1683               	bsf	3,5	;RP0=1, select bank1
  2135  0240  1303               	bcf	3,6	;RP1=0, select bank1
  2136  0241  00B4               	movwf	(__doprnt@tmpval+1)^(0+128)
  2137  0242  1283               	bcf	3,5	;RP0=0, select bank0
  2138  0243  1303               	bcf	3,6	;RP1=0, select bank0
  2139  0244  083E               	movf	?_scale,w
  2140  0245  1683               	bsf	3,5	;RP0=1, select bank1
  2141  0246  1303               	bcf	3,6	;RP1=0, select bank1
  2142  0247  00B3               	movwf	__doprnt@tmpval^(0+128)
  2143  0248                     l3330:
  2144                           
  2145                           ;C:\Program Files\Microchip\xc8\v2.36\pic\sources\c90\common\doprnt.c: 873:     tmpval.i
      +                          nteg *= fval;
  2146  0248  083A               	movf	(__doprnt@fval+3)^(0+128),w
  2147  0249  1283               	bcf	3,5	;RP0=0, select bank0
  2148  024A  1303               	bcf	3,6	;RP1=0, select bank0
  2149  024B  00A7               	movwf	___flmul@b+3
  2150  024C  1683               	bsf	3,5	;RP0=1, select bank1
  2151  024D  1303               	bcf	3,6	;RP1=0, select bank1
  2152  024E  0839               	movf	(__doprnt@fval+2)^(0+128),w
  2153  024F  1283               	bcf	3,5	;RP0=0, select bank0
  2154  0250  1303               	bcf	3,6	;RP1=0, select bank0
  2155  0251  00A6               	movwf	___flmul@b+2
  2156  0252  1683               	bsf	3,5	;RP0=1, select bank1
  2157  0253  1303               	bcf	3,6	;RP1=0, select bank1
  2158  0254  0838               	movf	(__doprnt@fval+1)^(0+128),w
  2159  0255  1283               	bcf	3,5	;RP0=0, select bank0
  2160  0256  1303               	bcf	3,6	;RP1=0, select bank0
  2161  0257  00A5               	movwf	___flmul@b+1
  2162  0258  1683               	bsf	3,5	;RP0=1, select bank1
  2163  0259  1303               	bcf	3,6	;RP1=0, select bank1
  2164  025A  0837               	movf	__doprnt@fval^(0+128),w
  2165  025B  1283               	bcf	3,5	;RP0=0, select bank0
  2166  025C  1303               	bcf	3,6	;RP1=0, select bank0
  2167  025D  00A4               	movwf	___flmul@b
  2168  025E  1683               	bsf	3,5	;RP0=1, select bank1
  2169  025F  1303               	bcf	3,6	;RP1=0, select bank1
  2170  0260  0836               	movf	(__doprnt@tmpval+3)^(0+128),w
  2171  0261  1283               	bcf	3,5	;RP0=0, select bank0
  2172  0262  1303               	bcf	3,6	;RP1=0, select bank0
  2173  0263  00AB               	movwf	___flmul@a+3
  2174  0264  1683               	bsf	3,5	;RP0=1, select bank1
  2175  0265  1303               	bcf	3,6	;RP1=0, select bank1
  2176  0266  0835               	movf	(__doprnt@tmpval+2)^(0+128),w
  2177  0267  1283               	bcf	3,5	;RP0=0, select bank0
  2178  0268  1303               	bcf	3,6	;RP1=0, select bank0
  2179  0269  00AA               	movwf	___flmul@a+2
  2180  026A  1683               	bsf	3,5	;RP0=1, select bank1
  2181  026B  1303               	bcf	3,6	;RP1=0, select bank1
  2182  026C  0834               	movf	(__doprnt@tmpval+1)^(0+128),w
  2183  026D  1283               	bcf	3,5	;RP0=0, select bank0
  2184  026E  1303               	bcf	3,6	;RP1=0, select bank0
  2185  026F  00A9               	movwf	___flmul@a+1
  2186  0270  1683               	bsf	3,5	;RP0=1, select bank1
  2187  0271  1303               	bcf	3,6	;RP1=0, select bank1
  2188  0272  0833               	movf	__doprnt@tmpval^(0+128),w
  2189  0273  1283               	bcf	3,5	;RP0=0, select bank0
  2190  0274  1303               	bcf	3,6	;RP1=0, select bank0
  2191  0275  00A8               	movwf	___flmul@a
  2192  0276  120A  158A  249F  120A  118A  	fcall	___flmul
  2193  027B  1283               	bcf	3,5	;RP0=0, select bank0
  2194  027C  1303               	bcf	3,6	;RP1=0, select bank0
  2195  027D  0827               	movf	?___flmul+3,w
  2196  027E  1683               	bsf	3,5	;RP0=1, select bank1
  2197  027F  1303               	bcf	3,6	;RP1=0, select bank1
  2198  0280  00B6               	movwf	(__doprnt@tmpval+3)^(0+128)
  2199  0281  1283               	bcf	3,5	;RP0=0, select bank0
  2200  0282  1303               	bcf	3,6	;RP1=0, select bank0
  2201  0283  0826               	movf	?___flmul+2,w
  2202  0284  1683               	bsf	3,5	;RP0=1, select bank1
  2203  0285  1303               	bcf	3,6	;RP1=0, select bank1
  2204  0286  00B5               	movwf	(__doprnt@tmpval+2)^(0+128)
  2205  0287  1283               	bcf	3,5	;RP0=0, select bank0
  2206  0288  1303               	bcf	3,6	;RP1=0, select bank0
  2207  0289  0825               	movf	?___flmul+1,w
  2208  028A  1683               	bsf	3,5	;RP0=1, select bank1
  2209  028B  1303               	bcf	3,6	;RP1=0, select bank1
  2210  028C  00B4               	movwf	(__doprnt@tmpval+1)^(0+128)
  2211  028D  1283               	bcf	3,5	;RP0=0, select bank0
  2212  028E  1303               	bcf	3,6	;RP1=0, select bank0
  2213  028F  0824               	movf	?___flmul,w
  2214  0290  1683               	bsf	3,5	;RP0=1, select bank1
  2215  0291  1303               	bcf	3,6	;RP1=0, select bank1
  2216  0292  00B3               	movwf	__doprnt@tmpval^(0+128)
  2217  0293                     l3332:
  2218                           
  2219                           ;C:\Program Files\Microchip\xc8\v2.36\pic\sources\c90\common\doprnt.c: 874:     if(tmpva
      +                          l.integ < 1.0)
  2220  0293  0836               	movf	(__doprnt@tmpval+3)^(0+128),w
  2221  0294  00F3               	movwf	___flge@ff1+3
  2222  0295  0835               	movf	(__doprnt@tmpval+2)^(0+128),w
  2223  0296  00F2               	movwf	___flge@ff1+2
  2224  0297  0834               	movf	(__doprnt@tmpval+1)^(0+128),w
  2225  0298  00F1               	movwf	___flge@ff1+1
  2226  0299  0833               	movf	__doprnt@tmpval^(0+128),w
  2227  029A  00F0               	movwf	___flge@ff1
  2228  029B  303F               	movlw	63
  2229  029C  00F7               	movwf	___flge@ff2+3
  2230  029D  3080               	movlw	128
  2231  029E  00F6               	movwf	___flge@ff2+2
  2232  029F  3000               	movlw	0
  2233  02A0  00F5               	movwf	___flge@ff2+1
  2234  02A1  3000               	movlw	0
  2235  02A2  00F4               	movwf	___flge@ff2
  2236  02A3  120A  118A  200F  120A  118A  	fcall	___flge
  2237  02A8  1803               	btfsc	3,0
  2238  02A9  2AAB               	goto	u5501
  2239  02AA  2AAC               	goto	u5500
  2240  02AB                     u5501:
  2241  02AB  2AB5               	goto	l3336
  2242  02AC                     u5500:
  2243  02AC                     l3334:
  2244                           
  2245                           ;C:\Program Files\Microchip\xc8\v2.36\pic\sources\c90\common\doprnt.c: 875:      eexp--;
  2246  02AC  30FF               	movlw	255
  2247  02AD  1683               	bsf	3,5	;RP0=1, select bank1
  2248  02AE  1303               	bcf	3,6	;RP1=0, select bank1
  2249  02AF  07AF               	addwf	__doprnt@eexp^(0+128),f
  2250  02B0  1803               	skipnc
  2251  02B1  0AB0               	incf	(__doprnt@eexp+1)^(0+128),f
  2252  02B2  30FF               	movlw	255
  2253  02B3  07B0               	addwf	(__doprnt@eexp+1)^(0+128),f
  2254  02B4  2AD8               	goto	l3340
  2255  02B5                     l3336:
  2256  02B5  1683               	bsf	3,5	;RP0=1, select bank1
  2257  02B6  1303               	bcf	3,6	;RP1=0, select bank1
  2258  02B7  0836               	movf	(__doprnt@tmpval+3)^(0+128),w
  2259  02B8  00F3               	movwf	___flge@ff1+3
  2260  02B9  0835               	movf	(__doprnt@tmpval+2)^(0+128),w
  2261  02BA  00F2               	movwf	___flge@ff1+2
  2262  02BB  0834               	movf	(__doprnt@tmpval+1)^(0+128),w
  2263  02BC  00F1               	movwf	___flge@ff1+1
  2264  02BD  0833               	movf	__doprnt@tmpval^(0+128),w
  2265  02BE  00F0               	movwf	___flge@ff1
  2266  02BF  3041               	movlw	65
  2267  02C0  00F7               	movwf	___flge@ff2+3
  2268  02C1  3020               	movlw	32
  2269  02C2  00F6               	movwf	___flge@ff2+2
  2270  02C3  3000               	movlw	0
  2271  02C4  00F5               	movwf	___flge@ff2+1
  2272  02C5  3000               	movlw	0
  2273  02C6  00F4               	movwf	___flge@ff2
  2274  02C7  120A  118A  200F  120A  118A  	fcall	___flge
  2275  02CC  1C03               	btfss	3,0
  2276  02CD  2ACF               	goto	u5511
  2277  02CE  2AD0               	goto	u5510
  2278  02CF                     u5511:
  2279  02CF  2AD8               	goto	l3340
  2280  02D0                     u5510:
  2281  02D0                     l3338:
  2282                           
  2283                           ;C:\Program Files\Microchip\xc8\v2.36\pic\sources\c90\common\doprnt.c: 877:      eexp++;
  2284  02D0  3001               	movlw	1
  2285  02D1  1683               	bsf	3,5	;RP0=1, select bank1
  2286  02D2  1303               	bcf	3,6	;RP1=0, select bank1
  2287  02D3  07AF               	addwf	__doprnt@eexp^(0+128),f
  2288  02D4  1803               	skipnc
  2289  02D5  0AB0               	incf	(__doprnt@eexp+1)^(0+128),f
  2290  02D6  3000               	movlw	0
  2291  02D7  07B0               	addwf	(__doprnt@eexp+1)^(0+128),f
  2292  02D8                     l3340:
  2293                           
  2294                           ;C:\Program Files\Microchip\xc8\v2.36\pic\sources\c90\common\doprnt.c: 1138:      if(pre
      +                          c <= 12)
  2295  02D8  1683               	bsf	3,5	;RP0=1, select bank1
  2296  02D9  1303               	bcf	3,6	;RP1=0, select bank1
  2297  02DA  0832               	movf	(__doprnt@prec+1)^(0+128),w
  2298  02DB  3A80               	xorlw	128
  2299  02DC  00FF               	movwf	btemp+1
  2300  02DD  3080               	movlw	128
  2301  02DE  027F               	subwf	btemp+1,w
  2302  02DF  1D03               	skipz
  2303  02E0  2AE3               	goto	u5525
  2304  02E1  300D               	movlw	13
  2305  02E2  0231               	subwf	__doprnt@prec^(0+128),w
  2306  02E3                     u5525:
  2307  02E3  1803               	skipnc
  2308  02E4  2AE6               	goto	u5521
  2309  02E5  2AE7               	goto	u5520
  2310  02E6                     u5521:
  2311  02E6  2B2E               	goto	l3344
  2312  02E7                     u5520:
  2313  02E7                     l3342:
  2314                           
  2315                           ;C:\Program Files\Microchip\xc8\v2.36\pic\sources\c90\common\doprnt.c: 1139:       fval 
      +                          += fround((unsigned int)prec);
  2316  02E7  1683               	bsf	3,5	;RP0=1, select bank1
  2317  02E8  1303               	bcf	3,6	;RP1=0, select bank1
  2318  02E9  0831               	movf	__doprnt@prec^(0+128),w
  2319  02EA  160A  118A  236D  120A  118A  	fcall	_fround
  2320  02EF  1283               	bcf	3,5	;RP0=0, select bank0
  2321  02F0  1303               	bcf	3,6	;RP1=0, select bank0
  2322  02F1  0841               	movf	?_fround+3,w
  2323  02F2  00D5               	movwf	___fladd@b+3
  2324  02F3  0840               	movf	?_fround+2,w
  2325  02F4  00D4               	movwf	___fladd@b+2
  2326  02F5  083F               	movf	?_fround+1,w
  2327  02F6  00D3               	movwf	___fladd@b+1
  2328  02F7  083E               	movf	?_fround,w
  2329  02F8  00D2               	movwf	___fladd@b
  2330  02F9  1683               	bsf	3,5	;RP0=1, select bank1
  2331  02FA  1303               	bcf	3,6	;RP1=0, select bank1
  2332  02FB  083A               	movf	(__doprnt@fval+3)^(0+128),w
  2333  02FC  1283               	bcf	3,5	;RP0=0, select bank0
  2334  02FD  1303               	bcf	3,6	;RP1=0, select bank0
  2335  02FE  00D9               	movwf	___fladd@a+3
  2336  02FF  1683               	bsf	3,5	;RP0=1, select bank1
  2337  0300  1303               	bcf	3,6	;RP1=0, select bank1
  2338  0301  0839               	movf	(__doprnt@fval+2)^(0+128),w
  2339  0302  1283               	bcf	3,5	;RP0=0, select bank0
  2340  0303  1303               	bcf	3,6	;RP1=0, select bank0
  2341  0304  00D8               	movwf	___fladd@a+2
  2342  0305  1683               	bsf	3,5	;RP0=1, select bank1
  2343  0306  1303               	bcf	3,6	;RP1=0, select bank1
  2344  0307  0838               	movf	(__doprnt@fval+1)^(0+128),w
  2345  0308  1283               	bcf	3,5	;RP0=0, select bank0
  2346  0309  1303               	bcf	3,6	;RP1=0, select bank0
  2347  030A  00D7               	movwf	___fladd@a+1
  2348  030B  1683               	bsf	3,5	;RP0=1, select bank1
  2349  030C  1303               	bcf	3,6	;RP1=0, select bank1
  2350  030D  0837               	movf	__doprnt@fval^(0+128),w
  2351  030E  1283               	bcf	3,5	;RP0=0, select bank0
  2352  030F  1303               	bcf	3,6	;RP1=0, select bank0
  2353  0310  00D6               	movwf	___fladd@a
  2354  0311  160A  118A  2578  120A  118A  	fcall	___fladd
  2355  0316  1283               	bcf	3,5	;RP0=0, select bank0
  2356  0317  1303               	bcf	3,6	;RP1=0, select bank0
  2357  0318  0855               	movf	?___fladd+3,w
  2358  0319  1683               	bsf	3,5	;RP0=1, select bank1
  2359  031A  1303               	bcf	3,6	;RP1=0, select bank1
  2360  031B  00BA               	movwf	(__doprnt@fval+3)^(0+128)
  2361  031C  1283               	bcf	3,5	;RP0=0, select bank0
  2362  031D  1303               	bcf	3,6	;RP1=0, select bank0
  2363  031E  0854               	movf	?___fladd+2,w
  2364  031F  1683               	bsf	3,5	;RP0=1, select bank1
  2365  0320  1303               	bcf	3,6	;RP1=0, select bank1
  2366  0321  00B9               	movwf	(__doprnt@fval+2)^(0+128)
  2367  0322  1283               	bcf	3,5	;RP0=0, select bank0
  2368  0323  1303               	bcf	3,6	;RP1=0, select bank0
  2369  0324  0853               	movf	?___fladd+1,w
  2370  0325  1683               	bsf	3,5	;RP0=1, select bank1
  2371  0326  1303               	bcf	3,6	;RP1=0, select bank1
  2372  0327  00B8               	movwf	(__doprnt@fval+1)^(0+128)
  2373  0328  1283               	bcf	3,5	;RP0=0, select bank0
  2374  0329  1303               	bcf	3,6	;RP1=0, select bank0
  2375  032A  0852               	movf	?___fladd,w
  2376  032B  1683               	bsf	3,5	;RP0=1, select bank1
  2377  032C  1303               	bcf	3,6	;RP1=0, select bank1
  2378  032D  00B7               	movwf	__doprnt@fval^(0+128)
  2379  032E                     l3344:
  2380                           
  2381                           ;C:\Program Files\Microchip\xc8\v2.36\pic\sources\c90\common\doprnt.c: 1142:     if((eex
      +                          p > 9)||(fval != 0 && (unsigned long)fval == 0 && eexp > 1)) {
  2382  032E  1683               	bsf	3,5	;RP0=1, select bank1
  2383  032F  1303               	bcf	3,6	;RP1=0, select bank1
  2384  0330  0830               	movf	(__doprnt@eexp+1)^(0+128),w
  2385  0331  3A80               	xorlw	128
  2386  0332  00FF               	movwf	btemp+1
  2387  0333  3080               	movlw	128
  2388  0334  027F               	subwf	btemp+1,w
  2389  0335  1D03               	skipz
  2390  0336  2B39               	goto	u5535
  2391  0337  300A               	movlw	10
  2392  0338  022F               	subwf	__doprnt@eexp^(0+128),w
  2393  0339                     u5535:
  2394  0339  1803               	skipnc
  2395  033A  2B3C               	goto	u5531
  2396  033B  2B3D               	goto	u5530
  2397  033C                     u5531:
  2398  033C  2B8E               	goto	l3352
  2399  033D                     u5530:
  2400  033D                     l3346:
  2401  033D  1683               	bsf	3,5	;RP0=1, select bank1
  2402  033E  1303               	bcf	3,6	;RP1=0, select bank1
  2403  033F  083A               	movf	(__doprnt@fval+3)^(0+128),w
  2404  0340  00F3               	movwf	___fleq@ff1+3
  2405  0341  0839               	movf	(__doprnt@fval+2)^(0+128),w
  2406  0342  00F2               	movwf	___fleq@ff1+2
  2407  0343  0838               	movf	(__doprnt@fval+1)^(0+128),w
  2408  0344  00F1               	movwf	___fleq@ff1+1
  2409  0345  0837               	movf	__doprnt@fval^(0+128),w
  2410  0346  00F0               	movwf	___fleq@ff1
  2411  0347  3000               	movlw	0
  2412  0348  00F7               	movwf	___fleq@ff2+3
  2413  0349  3000               	movlw	0
  2414  034A  00F6               	movwf	___fleq@ff2+2
  2415  034B  3000               	movlw	0
  2416  034C  00F5               	movwf	___fleq@ff2+1
  2417  034D  3000               	movlw	0
  2418  034E  00F4               	movwf	___fleq@ff2
  2419  034F  160A  158A  25A2  120A  118A  	fcall	___fleq
  2420  0354  1803               	btfsc	3,0
  2421  0355  2B57               	goto	u5541
  2422  0356  2B58               	goto	u5540
  2423  0357                     u5541:
  2424  0357  2C00               	goto	l3366
  2425  0358                     u5540:
  2426  0358                     l3348:
  2427  0358  1683               	bsf	3,5	;RP0=1, select bank1
  2428  0359  1303               	bcf	3,6	;RP1=0, select bank1
  2429  035A  083A               	movf	(__doprnt@fval+3)^(0+128),w
  2430  035B  1283               	bcf	3,5	;RP0=0, select bank0
  2431  035C  1303               	bcf	3,6	;RP1=0, select bank0
  2432  035D  00D4               	movwf	___fltol@f1+3
  2433  035E  1683               	bsf	3,5	;RP0=1, select bank1
  2434  035F  1303               	bcf	3,6	;RP1=0, select bank1
  2435  0360  0839               	movf	(__doprnt@fval+2)^(0+128),w
  2436  0361  1283               	bcf	3,5	;RP0=0, select bank0
  2437  0362  1303               	bcf	3,6	;RP1=0, select bank0
  2438  0363  00D3               	movwf	___fltol@f1+2
  2439  0364  1683               	bsf	3,5	;RP0=1, select bank1
  2440  0365  1303               	bcf	3,6	;RP1=0, select bank1
  2441  0366  0838               	movf	(__doprnt@fval+1)^(0+128),w
  2442  0367  1283               	bcf	3,5	;RP0=0, select bank0
  2443  0368  1303               	bcf	3,6	;RP1=0, select bank0
  2444  0369  00D2               	movwf	___fltol@f1+1
  2445  036A  1683               	bsf	3,5	;RP0=1, select bank1
  2446  036B  1303               	bcf	3,6	;RP1=0, select bank1
  2447  036C  0837               	movf	__doprnt@fval^(0+128),w
  2448  036D  1283               	bcf	3,5	;RP0=0, select bank0
  2449  036E  1303               	bcf	3,6	;RP1=0, select bank0
  2450  036F  00D1               	movwf	___fltol@f1
  2451  0370  120A  158A  2006  120A  118A  	fcall	___fltol
  2452  0375  1283               	bcf	3,5	;RP0=0, select bank0
  2453  0376  1303               	bcf	3,6	;RP1=0, select bank0
  2454  0377  0854               	movf	?___fltol+3,w
  2455  0378  0453               	iorwf	?___fltol+2,w
  2456  0379  0452               	iorwf	?___fltol+1,w
  2457  037A  0451               	iorwf	?___fltol,w
  2458  037B  1D03               	skipz
  2459  037C  2B7E               	goto	u5551
  2460  037D  2B7F               	goto	u5550
  2461  037E                     u5551:
  2462  037E  2C00               	goto	l3366
  2463  037F                     u5550:
  2464  037F                     l3350:
  2465  037F  1683               	bsf	3,5	;RP0=1, select bank1
  2466  0380  1303               	bcf	3,6	;RP1=0, select bank1
  2467  0381  0830               	movf	(__doprnt@eexp+1)^(0+128),w
  2468  0382  3A80               	xorlw	128
  2469  0383  00FF               	movwf	btemp+1
  2470  0384  3080               	movlw	128
  2471  0385  027F               	subwf	btemp+1,w
  2472  0386  1D03               	skipz
  2473  0387  2B8A               	goto	u5565
  2474  0388  3002               	movlw	2
  2475  0389  022F               	subwf	__doprnt@eexp^(0+128),w
  2476  038A                     u5565:
  2477  038A  1C03               	skipc
  2478  038B  2B8D               	goto	u5561
  2479  038C  2B8E               	goto	u5560
  2480  038D                     u5561:
  2481  038D  2C00               	goto	l3366
  2482  038E                     u5560:
  2483  038E                     l3352:
  2484                           
  2485                           ;C:\Program Files\Microchip\xc8\v2.36\pic\sources\c90\common\doprnt.c: 1146:      if(tmp
      +                          val.integ < 4.294967296){
  2486  038E  1683               	bsf	3,5	;RP0=1, select bank1
  2487  038F  1303               	bcf	3,6	;RP1=0, select bank1
  2488  0390  0836               	movf	(__doprnt@tmpval+3)^(0+128),w
  2489  0391  00F3               	movwf	___flge@ff1+3
  2490  0392  0835               	movf	(__doprnt@tmpval+2)^(0+128),w
  2491  0393  00F2               	movwf	___flge@ff1+2
  2492  0394  0834               	movf	(__doprnt@tmpval+1)^(0+128),w
  2493  0395  00F1               	movwf	___flge@ff1+1
  2494  0396  0833               	movf	__doprnt@tmpval^(0+128),w
  2495  0397  00F0               	movwf	___flge@ff1
  2496  0398  3040               	movlw	64
  2497  0399  00F7               	movwf	___flge@ff2+3
  2498  039A  3089               	movlw	137
  2499  039B  00F6               	movwf	___flge@ff2+2
  2500  039C  3070               	movlw	112
  2501  039D  00F5               	movwf	___flge@ff2+1
  2502  039E  305F               	movlw	95
  2503  039F  00F4               	movwf	___flge@ff2
  2504  03A0  120A  118A  200F  120A  118A  	fcall	___flge
  2505  03A5  1803               	btfsc	3,0
  2506  03A6  2BA8               	goto	u5571
  2507  03A7  2BA9               	goto	u5570
  2508  03A8                     u5571:
  2509  03A8  2BB2               	goto	l3356
  2510  03A9                     u5570:
  2511  03A9                     l3354:
  2512                           
  2513                           ;C:\Program Files\Microchip\xc8\v2.36\pic\sources\c90\common\doprnt.c: 1147:       eexp 
      +                          -= (sizeof dpowers/sizeof dpowers[0])-1;
  2514  03A9  30F7               	movlw	247
  2515  03AA  1683               	bsf	3,5	;RP0=1, select bank1
  2516  03AB  1303               	bcf	3,6	;RP1=0, select bank1
  2517  03AC  07AF               	addwf	__doprnt@eexp^(0+128),f
  2518  03AD  1803               	skipnc
  2519  03AE  0AB0               	incf	(__doprnt@eexp+1)^(0+128),f
  2520  03AF  30FF               	movlw	255
  2521  03B0  07B0               	addwf	(__doprnt@eexp+1)^(0+128),f
  2522                           
  2523                           ;C:\Program Files\Microchip\xc8\v2.36\pic\sources\c90\common\doprnt.c: 1148:      }else{
  2524  03B1  2BBA               	goto	l3358
  2525  03B2                     l3356:
  2526                           
  2527                           ;C:\Program Files\Microchip\xc8\v2.36\pic\sources\c90\common\doprnt.c: 1149:       eexp 
      +                          -= (sizeof dpowers/sizeof dpowers[0])-2;
  2528  03B2  30F8               	movlw	248
  2529  03B3  1683               	bsf	3,5	;RP0=1, select bank1
  2530  03B4  1303               	bcf	3,6	;RP1=0, select bank1
  2531  03B5  07AF               	addwf	__doprnt@eexp^(0+128),f
  2532  03B6  1803               	skipnc
  2533  03B7  0AB0               	incf	(__doprnt@eexp+1)^(0+128),f
  2534  03B8  30FF               	movlw	255
  2535  03B9  07B0               	addwf	(__doprnt@eexp+1)^(0+128),f
  2536  03BA                     l3358:
  2537                           
  2538                           ;C:\Program Files\Microchip\xc8\v2.36\pic\sources\c90\common\doprnt.c: 1152:      val = 
      +                          ((sizeof(double)== 3) ? _tdiv_to_l_(fval,tmpval.integ) : _div_to_l_(fval,tmpval.integ));
  2539  03BA  082F               	movf	__doprnt@eexp^(0+128),w
  2540  03BB  120A  158A  2140  120A  118A  	fcall	_scale
  2541  03C0  1283               	bcf	3,5	;RP0=0, select bank0
  2542  03C1  1303               	bcf	3,6	;RP1=0, select bank0
  2543  03C2  0841               	movf	?_scale+3,w
  2544  03C3  1683               	bsf	3,5	;RP0=1, select bank1
  2545  03C4  1303               	bcf	3,6	;RP1=0, select bank1
  2546  03C5  00B6               	movwf	(__doprnt@tmpval+3)^(0+128)
  2547  03C6  1283               	bcf	3,5	;RP0=0, select bank0
  2548  03C7  1303               	bcf	3,6	;RP1=0, select bank0
  2549  03C8  0840               	movf	?_scale+2,w
  2550  03C9  1683               	bsf	3,5	;RP0=1, select bank1
  2551  03CA  1303               	bcf	3,6	;RP1=0, select bank1
  2552  03CB  00B5               	movwf	(__doprnt@tmpval+2)^(0+128)
  2553  03CC  1283               	bcf	3,5	;RP0=0, select bank0
  2554  03CD  1303               	bcf	3,6	;RP1=0, select bank0
  2555  03CE  083F               	movf	?_scale+1,w
  2556  03CF  1683               	bsf	3,5	;RP0=1, select bank1
  2557  03D0  1303               	bcf	3,6	;RP1=0, select bank1
  2558  03D1  00B4               	movwf	(__doprnt@tmpval+1)^(0+128)
  2559  03D2  1283               	bcf	3,5	;RP0=0, select bank0
  2560  03D3  1303               	bcf	3,6	;RP1=0, select bank0
  2561  03D4  083E               	movf	?_scale,w
  2562  03D5  1683               	bsf	3,5	;RP0=1, select bank1
  2563  03D6  1303               	bcf	3,6	;RP1=0, select bank1
  2564  03D7  00B3               	movwf	__doprnt@tmpval^(0+128)
  2565  03D8                     l3360:
  2566  03D8  083A               	movf	(__doprnt@fval+3)^(0+128),w
  2567  03D9  00F3               	movwf	__div_to_l_@f1+3
  2568  03DA  0839               	movf	(__doprnt@fval+2)^(0+128),w
  2569  03DB  00F2               	movwf	__div_to_l_@f1+2
  2570  03DC  0838               	movf	(__doprnt@fval+1)^(0+128),w
  2571  03DD  00F1               	movwf	__div_to_l_@f1+1
  2572  03DE  0837               	movf	__doprnt@fval^(0+128),w
  2573  03DF  00F0               	movwf	__div_to_l_@f1
  2574  03E0  0836               	movf	(__doprnt@tmpval+3)^(0+128),w
  2575  03E1  00F7               	movwf	__div_to_l_@f2+3
  2576  03E2  0835               	movf	(__doprnt@tmpval+2)^(0+128),w
  2577  03E3  00F6               	movwf	__div_to_l_@f2+2
  2578  03E4  0834               	movf	(__doprnt@tmpval+1)^(0+128),w
  2579  03E5  00F5               	movwf	__div_to_l_@f2+1
  2580  03E6  0833               	movf	__doprnt@tmpval^(0+128),w
  2581  03E7  00F4               	movwf	__div_to_l_@f2
  2582  03E8  120A  158A  2082  120A  118A  	fcall	__div_to_l_
  2583  03ED  0873               	movf	?__div_to_l_+3,w
  2584  03EE  1683               	bsf	3,5	;RP0=1, select bank1
  2585  03EF  1303               	bcf	3,6	;RP1=0, select bank1
  2586  03F0  00AE               	movwf	(__doprnt@val+3)^(0+128)
  2587  03F1  0872               	movf	?__div_to_l_+2,w
  2588  03F2  00AD               	movwf	(__doprnt@val+2)^(0+128)
  2589  03F3  0871               	movf	?__div_to_l_+1,w
  2590  03F4  00AC               	movwf	(__doprnt@val+1)^(0+128)
  2591  03F5  0870               	movf	?__div_to_l_,w
  2592  03F6  00AB               	movwf	__doprnt@val^(0+128)
  2593  03F7                     l3364:
  2594                           
  2595                           ;C:\Program Files\Microchip\xc8\v2.36\pic\sources\c90\common\doprnt.c: 1155:      fval =
      +                           0.0;
  2596  03F7  3000               	movlw	0
  2597  03F8  00BA               	movwf	(__doprnt@fval+3)^(0+128)
  2598  03F9  3000               	movlw	0
  2599  03FA  00B9               	movwf	(__doprnt@fval+2)^(0+128)
  2600  03FB  3000               	movlw	0
  2601  03FC  00B8               	movwf	(__doprnt@fval+1)^(0+128)
  2602  03FD  3000               	movlw	0
  2603  03FE  00B7               	movwf	__doprnt@fval^(0+128)
  2604                           
  2605                           ;C:\Program Files\Microchip\xc8\v2.36\pic\sources\c90\common\doprnt.c: 1156:     } else 
      +                          {
  2606  03FF  2C84               	goto	l3372
  2607  0400                     l3366:
  2608                           
  2609                           ;C:\Program Files\Microchip\xc8\v2.36\pic\sources\c90\common\doprnt.c: 1157:      val = 
      +                          (unsigned long)fval;
  2610  0400  1683               	bsf	3,5	;RP0=1, select bank1
  2611  0401  1303               	bcf	3,6	;RP1=0, select bank1
  2612  0402  083A               	movf	(__doprnt@fval+3)^(0+128),w
  2613  0403  1283               	bcf	3,5	;RP0=0, select bank0
  2614  0404  1303               	bcf	3,6	;RP1=0, select bank0
  2615  0405  00D4               	movwf	___fltol@f1+3
  2616  0406  1683               	bsf	3,5	;RP0=1, select bank1
  2617  0407  1303               	bcf	3,6	;RP1=0, select bank1
  2618  0408  0839               	movf	(__doprnt@fval+2)^(0+128),w
  2619  0409  1283               	bcf	3,5	;RP0=0, select bank0
  2620  040A  1303               	bcf	3,6	;RP1=0, select bank0
  2621  040B  00D3               	movwf	___fltol@f1+2
  2622  040C  1683               	bsf	3,5	;RP0=1, select bank1
  2623  040D  1303               	bcf	3,6	;RP1=0, select bank1
  2624  040E  0838               	movf	(__doprnt@fval+1)^(0+128),w
  2625  040F  1283               	bcf	3,5	;RP0=0, select bank0
  2626  0410  1303               	bcf	3,6	;RP1=0, select bank0
  2627  0411  00D2               	movwf	___fltol@f1+1
  2628  0412  1683               	bsf	3,5	;RP0=1, select bank1
  2629  0413  1303               	bcf	3,6	;RP1=0, select bank1
  2630  0414  0837               	movf	__doprnt@fval^(0+128),w
  2631  0415  1283               	bcf	3,5	;RP0=0, select bank0
  2632  0416  1303               	bcf	3,6	;RP1=0, select bank0
  2633  0417  00D1               	movwf	___fltol@f1
  2634  0418  120A  158A  2006  120A  118A  	fcall	___fltol
  2635  041D  1283               	bcf	3,5	;RP0=0, select bank0
  2636  041E  1303               	bcf	3,6	;RP1=0, select bank0
  2637  041F  0854               	movf	?___fltol+3,w
  2638  0420  1683               	bsf	3,5	;RP0=1, select bank1
  2639  0421  1303               	bcf	3,6	;RP1=0, select bank1
  2640  0422  00AE               	movwf	(__doprnt@val+3)^(0+128)
  2641  0423  1283               	bcf	3,5	;RP0=0, select bank0
  2642  0424  1303               	bcf	3,6	;RP1=0, select bank0
  2643  0425  0853               	movf	?___fltol+2,w
  2644  0426  1683               	bsf	3,5	;RP0=1, select bank1
  2645  0427  1303               	bcf	3,6	;RP1=0, select bank1
  2646  0428  00AD               	movwf	(__doprnt@val+2)^(0+128)
  2647  0429  1283               	bcf	3,5	;RP0=0, select bank0
  2648  042A  1303               	bcf	3,6	;RP1=0, select bank0
  2649  042B  0852               	movf	?___fltol+1,w
  2650  042C  1683               	bsf	3,5	;RP0=1, select bank1
  2651  042D  1303               	bcf	3,6	;RP1=0, select bank1
  2652  042E  00AC               	movwf	(__doprnt@val+1)^(0+128)
  2653  042F  1283               	bcf	3,5	;RP0=0, select bank0
  2654  0430  1303               	bcf	3,6	;RP1=0, select bank0
  2655  0431  0851               	movf	?___fltol,w
  2656  0432  1683               	bsf	3,5	;RP0=1, select bank1
  2657  0433  1303               	bcf	3,6	;RP1=0, select bank1
  2658  0434  00AB               	movwf	__doprnt@val^(0+128)
  2659  0435                     l3368:
  2660                           
  2661                           ;C:\Program Files\Microchip\xc8\v2.36\pic\sources\c90\common\doprnt.c: 1158:      fval -
      +                          = (double)val;
  2662  0435  082E               	movf	(__doprnt@val+3)^(0+128),w
  2663  0436  00F7               	movwf	___xxtofl@val+3
  2664  0437  082D               	movf	(__doprnt@val+2)^(0+128),w
  2665  0438  00F6               	movwf	___xxtofl@val+2
  2666  0439  082C               	movf	(__doprnt@val+1)^(0+128),w
  2667  043A  00F5               	movwf	___xxtofl@val+1
  2668  043B  082B               	movf	__doprnt@val^(0+128),w
  2669  043C  00F4               	movwf	___xxtofl@val
  2670  043D  3000               	movlw	0
  2671  043E  160A  118A  2017  120A  118A  	fcall	___xxtofl
  2672  0443  0877               	movf	?___xxtofl+3,w
  2673  0444  1283               	bcf	3,5	;RP0=0, select bank0
  2674  0445  1303               	bcf	3,6	;RP1=0, select bank0
  2675  0446  00E9               	movwf	___flsub@a+3
  2676  0447  0876               	movf	?___xxtofl+2,w
  2677  0448  00E8               	movwf	___flsub@a+2
  2678  0449  0875               	movf	?___xxtofl+1,w
  2679  044A  00E7               	movwf	___flsub@a+1
  2680  044B  0874               	movf	?___xxtofl,w
  2681  044C  00E6               	movwf	___flsub@a
  2682  044D  1683               	bsf	3,5	;RP0=1, select bank1
  2683  044E  1303               	bcf	3,6	;RP1=0, select bank1
  2684  044F  083A               	movf	(__doprnt@fval+3)^(0+128),w
  2685  0450  1283               	bcf	3,5	;RP0=0, select bank0
  2686  0451  1303               	bcf	3,6	;RP1=0, select bank0
  2687  0452  00ED               	movwf	___flsub@b+3
  2688  0453  1683               	bsf	3,5	;RP0=1, select bank1
  2689  0454  1303               	bcf	3,6	;RP1=0, select bank1
  2690  0455  0839               	movf	(__doprnt@fval+2)^(0+128),w
  2691  0456  1283               	bcf	3,5	;RP0=0, select bank0
  2692  0457  1303               	bcf	3,6	;RP1=0, select bank0
  2693  0458  00EC               	movwf	___flsub@b+2
  2694  0459  1683               	bsf	3,5	;RP0=1, select bank1
  2695  045A  1303               	bcf	3,6	;RP1=0, select bank1
  2696  045B  0838               	movf	(__doprnt@fval+1)^(0+128),w
  2697  045C  1283               	bcf	3,5	;RP0=0, select bank0
  2698  045D  1303               	bcf	3,6	;RP1=0, select bank0
  2699  045E  00EB               	movwf	___flsub@b+1
  2700  045F  1683               	bsf	3,5	;RP0=1, select bank1
  2701  0460  1303               	bcf	3,6	;RP1=0, select bank1
  2702  0461  0837               	movf	__doprnt@fval^(0+128),w
  2703  0462  1283               	bcf	3,5	;RP0=0, select bank0
  2704  0463  1303               	bcf	3,6	;RP1=0, select bank0
  2705  0464  00EA               	movwf	___flsub@b
  2706  0465  160A  158A  23B3  120A  118A  	fcall	___flsub
  2707  046A  1283               	bcf	3,5	;RP0=0, select bank0
  2708  046B  1303               	bcf	3,6	;RP1=0, select bank0
  2709  046C  0869               	movf	?___flsub+3,w
  2710  046D  1683               	bsf	3,5	;RP0=1, select bank1
  2711  046E  1303               	bcf	3,6	;RP1=0, select bank1
  2712  046F  00BA               	movwf	(__doprnt@fval+3)^(0+128)
  2713  0470  1283               	bcf	3,5	;RP0=0, select bank0
  2714  0471  1303               	bcf	3,6	;RP1=0, select bank0
  2715  0472  0868               	movf	?___flsub+2,w
  2716  0473  1683               	bsf	3,5	;RP0=1, select bank1
  2717  0474  1303               	bcf	3,6	;RP1=0, select bank1
  2718  0475  00B9               	movwf	(__doprnt@fval+2)^(0+128)
  2719  0476  1283               	bcf	3,5	;RP0=0, select bank0
  2720  0477  1303               	bcf	3,6	;RP1=0, select bank0
  2721  0478  0867               	movf	?___flsub+1,w
  2722  0479  1683               	bsf	3,5	;RP0=1, select bank1
  2723  047A  1303               	bcf	3,6	;RP1=0, select bank1
  2724  047B  00B8               	movwf	(__doprnt@fval+1)^(0+128)
  2725  047C  1283               	bcf	3,5	;RP0=0, select bank0
  2726  047D  1303               	bcf	3,6	;RP1=0, select bank0
  2727  047E  0866               	movf	?___flsub,w
  2728  047F  1683               	bsf	3,5	;RP0=1, select bank1
  2729  0480  1303               	bcf	3,6	;RP1=0, select bank1
  2730  0481  00B7               	movwf	__doprnt@fval^(0+128)
  2731  0482                     l3370:
  2732                           
  2733                           ;C:\Program Files\Microchip\xc8\v2.36\pic\sources\c90\common\doprnt.c: 1159:      eexp =
      +                           0;
  2734  0482  01AF               	clrf	__doprnt@eexp^(0+128)
  2735  0483  01B0               	clrf	(__doprnt@eexp+1)^(0+128)
  2736  0484                     l3372:
  2737                           
  2738                           ;C:\Program Files\Microchip\xc8\v2.36\pic\sources\c90\common\doprnt.c: 1162:     for(c =
      +                           1 ; c != (sizeof dpowers/sizeof dpowers[0]) ; c++)
  2739  0484  01BB               	clrf	__doprnt@c^(0+128)
  2740  0485  0ABB               	incf	__doprnt@c^(0+128),f
  2741  0486                     l3378:
  2742                           
  2743                           ;C:\Program Files\Microchip\xc8\v2.36\pic\sources\c90\common\doprnt.c: 1163:      if(val
      +                           < dpowers[c])
  2744  0486  083B               	movf	__doprnt@c^(0+128),w
  2745  0487  00A0               	movwf	??__doprnt^(0+128)
  2746  0488  3001               	movlw	1
  2747  0489                     u5585:
  2748  0489  1003               	clrc
  2749  048A  0DA0               	rlf	??__doprnt^(0+128),f
  2750  048B  3EFF               	addlw	-1
  2751  048C  1D03               	skipz
  2752  048D  2C89               	goto	u5585
  2753  048E  1003               	clrc
  2754  048F  0D20               	rlf	??__doprnt^(0+128),w
  2755  0490  3E69               	addlw	low ((_dpowers-__stringbase)| (0+32768))
  2756  0491  0084               	movwf	4
  2757  0492  160A  158A  2000  120A  118A  	fcall	stringdir
  2758  0497  00A1               	movwf	(??__doprnt+1)^(0+128)
  2759  0498  160A  158A  2000  120A  118A  	fcall	stringdir
  2760  049D  00A2               	movwf	((??__doprnt+1)^(0+128)+1)
  2761  049E  160A  158A  2000  120A  118A  	fcall	stringdir
  2762  04A3  00A3               	movwf	((??__doprnt+1)^(0+128)+2)
  2763  04A4  160A  158A  2000  120A  118A  	fcall	stringdir
  2764  04A9  00A4               	movwf	((??__doprnt+1)^(0+128)+3)
  2765  04AA  0824               	movf	(??__doprnt+4)^(0+128),w
  2766  04AB  022E               	subwf	(__doprnt@val+3)^(0+128),w
  2767  04AC  1D03               	skipz
  2768  04AD  2CB8               	goto	u5595
  2769  04AE  0823               	movf	(??__doprnt+3)^(0+128),w
  2770  04AF  022D               	subwf	(__doprnt@val+2)^(0+128),w
  2771  04B0  1D03               	skipz
  2772  04B1  2CB8               	goto	u5595
  2773  04B2  0822               	movf	(??__doprnt+2)^(0+128),w
  2774  04B3  022C               	subwf	(__doprnt@val+1)^(0+128),w
  2775  04B4  1D03               	skipz
  2776  04B5  2CB8               	goto	u5595
  2777  04B6  0821               	movf	(??__doprnt+1)^(0+128),w
  2778  04B7  022B               	subwf	__doprnt@val^(0+128),w
  2779  04B8                     u5595:
  2780  04B8  1803               	skipnc
  2781  04B9  2CBB               	goto	u5591
  2782  04BA  2CBC               	goto	u5590
  2783  04BB                     u5591:
  2784  04BB  2CBD               	goto	l3382
  2785  04BC                     u5590:
  2786  04BC  2CC7               	goto	l3384
  2787  04BD                     l3382:
  2788  04BD  3001               	movlw	1
  2789  04BE  00A0               	movwf	??__doprnt^(0+128)
  2790  04BF  0820               	movf	??__doprnt^(0+128),w
  2791  04C0  07BB               	addwf	__doprnt@c^(0+128),f
  2792  04C1  300A               	movlw	10
  2793  04C2  063B               	xorwf	__doprnt@c^(0+128),w
  2794  04C3  1D03               	btfss	3,2
  2795  04C4  2CC6               	goto	u5601
  2796  04C5  2CC7               	goto	u5600
  2797  04C6                     u5601:
  2798  04C6  2C86               	goto	l3378
  2799  04C7                     u5600:
  2800  04C7                     l3384:
  2801                           
  2802                           ;C:\Program Files\Microchip\xc8\v2.36\pic\sources\c90\common\doprnt.c: 1201:     {;C:\Pr
      +                          ogram Files\Microchip\xc8\v2.36\pic\sources\c90\common\doprnt.c: 1214:     if(flag & 0x0
      +                          3)
  2803  04C7  3003               	movlw	3
  2804  04C8  0529               	andwf	__doprnt@flag^(0+128),w
  2805  04C9  00A0               	movwf	??__doprnt^(0+128)
  2806  04CA  3000               	movlw	0
  2807  04CB  052A               	andwf	(__doprnt@flag+1)^(0+128),w
  2808  04CC  00A1               	movwf	(??__doprnt+1)^(0+128)
  2809  04CD  0820               	movf	??__doprnt^(0+128),w
  2810  04CE  0421               	iorwf	(??__doprnt^(0+128)+1),w
  2811  04CF  1903               	btfsc	3,2
  2812  04D0  2CD2               	goto	u5611
  2813  04D1  2CD3               	goto	u5610
  2814  04D2                     u5611:
  2815  04D2  2D76               	goto	l3404
  2816  04D3                     u5610:
  2817  04D3                     l3386:
  2818  04D3  0A3C               	incf	__doprnt@pb^(0+128),w
  2819  04D4  0084               	movwf	4
  2820  04D5  1383               	bcf	3,7	;select IRP bank0
  2821  04D6  0800               	movf	0,w
  2822  04D7  1903               	btfsc	3,2
  2823  04D8  2CDA               	goto	u5621
  2824  04D9  2CDB               	goto	u5620
  2825  04DA                     u5621:
  2826  04DA  2CE8               	goto	l3390
  2827  04DB                     u5620:
  2828  04DB                     l3388:
  2829  04DB  302D               	movlw	45
  2830  04DC  00A0               	movwf	??__doprnt^(0+128)
  2831  04DD  0820               	movf	??__doprnt^(0+128),w
  2832  04DE  00F1               	movwf	putch@x
  2833  04DF  0A3C               	incf	__doprnt@pb^(0+128),w
  2834  04E0  0084               	movwf	4
  2835  04E1  0800               	movf	0,w
  2836  04E2  120A  118A  2003  120A  118A  	fcall	fptable
  2837  04E7  2D76               	goto	l3404
  2838  04E8                     l3390:
  2839  04E8  302D               	movlw	45
  2840  04E9  00A0               	movwf	??__doprnt^(0+128)
  2841  04EA  083C               	movf	__doprnt@pb^(0+128),w
  2842  04EB  0084               	movwf	4
  2843  04EC  0800               	movf	0,w
  2844  04ED  0084               	movwf	4
  2845  04EE  0820               	movf	??__doprnt^(0+128),w
  2846  04EF  0080               	movwf	0
  2847  04F0                     l3392:
  2848  04F0  3001               	movlw	1
  2849  04F1  00A0               	movwf	??__doprnt^(0+128)
  2850  04F2  083C               	movf	__doprnt@pb^(0+128),w
  2851  04F3  0084               	movwf	4
  2852  04F4  0820               	movf	??__doprnt^(0+128),w
  2853  04F5  0780               	addwf	0,f
  2854  04F6  2D76               	goto	l3404
  2855  04F7                     l3394:
  2856                           
  2857                           ;C:\Program Files\Microchip\xc8\v2.36\pic\sources\c90\common\doprnt.c: 1226:     {;C:\Pr
      +                          ogram Files\Microchip\xc8\v2.36\pic\sources\c90\common\doprnt.c: 1227:      tmpval.vd = 
      +                          val/dpowers[c];
  2858  04F7  083B               	movf	__doprnt@c^(0+128),w
  2859  04F8  00A0               	movwf	??__doprnt^(0+128)
  2860  04F9  3001               	movlw	1
  2861  04FA                     u5635:
  2862  04FA  1003               	clrc
  2863  04FB  0DA0               	rlf	??__doprnt^(0+128),f
  2864  04FC  3EFF               	addlw	-1
  2865  04FD  1D03               	skipz
  2866  04FE  2CFA               	goto	u5635
  2867  04FF  1003               	clrc
  2868  0500  0D20               	rlf	??__doprnt^(0+128),w
  2869  0501  3E69               	addlw	low ((_dpowers-__stringbase)| (0+32768))
  2870  0502  0084               	movwf	4
  2871  0503  160A  158A  2000  120A  118A  	fcall	stringdir
  2872  0508  00F0               	movwf	___lldiv@divisor
  2873  0509  160A  158A  2000  120A  118A  	fcall	stringdir
  2874  050E  00F1               	movwf	___lldiv@divisor+1
  2875  050F  160A  158A  2000  120A  118A  	fcall	stringdir
  2876  0514  00F2               	movwf	___lldiv@divisor+2
  2877  0515  160A  158A  2000  120A  118A  	fcall	stringdir
  2878  051A  00F3               	movwf	___lldiv@divisor+3
  2879  051B  082E               	movf	(__doprnt@val+3)^(0+128),w
  2880  051C  00F7               	movwf	___lldiv@dividend+3
  2881  051D  082D               	movf	(__doprnt@val+2)^(0+128),w
  2882  051E  00F6               	movwf	___lldiv@dividend+2
  2883  051F  082C               	movf	(__doprnt@val+1)^(0+128),w
  2884  0520  00F5               	movwf	___lldiv@dividend+1
  2885  0521  082B               	movf	__doprnt@val^(0+128),w
  2886  0522  00F4               	movwf	___lldiv@dividend
  2887  0523  160A  158A  269D  120A  118A  	fcall	___lldiv
  2888  0528  0873               	movf	?___lldiv+3,w
  2889  0529  1683               	bsf	3,5	;RP0=1, select bank1
  2890  052A  1303               	bcf	3,6	;RP1=0, select bank1
  2891  052B  00B6               	movwf	(__doprnt@tmpval+3)^(0+128)
  2892  052C  0872               	movf	?___lldiv+2,w
  2893  052D  00B5               	movwf	(__doprnt@tmpval+2)^(0+128)
  2894  052E  0871               	movf	?___lldiv+1,w
  2895  052F  00B4               	movwf	(__doprnt@tmpval+1)^(0+128)
  2896  0530  0870               	movf	?___lldiv,w
  2897  0531  00B3               	movwf	__doprnt@tmpval^(0+128)
  2898  0532                     l3396:
  2899                           
  2900                           ;C:\Program Files\Microchip\xc8\v2.36\pic\sources\c90\common\doprnt.c: 1228:      tmpval
      +                          .vd %= 10;
  2901  0532  3000               	movlw	0
  2902  0533  00F3               	movwf	___llmod@divisor+3
  2903  0534  3000               	movlw	0
  2904  0535  00F2               	movwf	___llmod@divisor+2
  2905  0536  3000               	movlw	0
  2906  0537  00F1               	movwf	___llmod@divisor+1
  2907  0538  300A               	movlw	10
  2908  0539  00F0               	movwf	___llmod@divisor
  2909  053A  0836               	movf	(__doprnt@tmpval+3)^(0+128),w
  2910  053B  00F7               	movwf	___llmod@dividend+3
  2911  053C  0835               	movf	(__doprnt@tmpval+2)^(0+128),w
  2912  053D  00F6               	movwf	___llmod@dividend+2
  2913  053E  0834               	movf	(__doprnt@tmpval+1)^(0+128),w
  2914  053F  00F5               	movwf	___llmod@dividend+1
  2915  0540  0833               	movf	__doprnt@tmpval^(0+128),w
  2916  0541  00F4               	movwf	___llmod@dividend
  2917  0542  160A  158A  25F0  120A  118A  	fcall	___llmod
  2918  0547  0873               	movf	?___llmod+3,w
  2919  0548  1683               	bsf	3,5	;RP0=1, select bank1
  2920  0549  1303               	bcf	3,6	;RP1=0, select bank1
  2921  054A  00B6               	movwf	(__doprnt@tmpval+3)^(0+128)
  2922  054B  0872               	movf	?___llmod+2,w
  2923  054C  00B5               	movwf	(__doprnt@tmpval+2)^(0+128)
  2924  054D  0871               	movf	?___llmod+1,w
  2925  054E  00B4               	movwf	(__doprnt@tmpval+1)^(0+128)
  2926  054F  0870               	movf	?___llmod,w
  2927  0550  00B3               	movwf	__doprnt@tmpval^(0+128)
  2928  0551                     l3398:
  2929  0551  0A3C               	incf	__doprnt@pb^(0+128),w
  2930  0552  0084               	movwf	4
  2931  0553  1383               	bcf	3,7	;select IRP bank0
  2932  0554  0800               	movf	0,w
  2933  0555  1903               	btfsc	3,2
  2934  0556  2D58               	goto	u5641
  2935  0557  2D59               	goto	u5640
  2936  0558                     u5641:
  2937  0558  2D67               	goto	l3402
  2938  0559                     u5640:
  2939  0559                     l3400:
  2940  0559  0833               	movf	__doprnt@tmpval^(0+128),w
  2941  055A  3E30               	addlw	48
  2942  055B  00A0               	movwf	??__doprnt^(0+128)
  2943  055C  0820               	movf	??__doprnt^(0+128),w
  2944  055D  00F1               	movwf	putch@x
  2945  055E  0A3C               	incf	__doprnt@pb^(0+128),w
  2946  055F  0084               	movwf	4
  2947  0560  0800               	movf	0,w
  2948  0561  120A  118A  2003  120A  118A  	fcall	fptable
  2949  0566  2D76               	goto	l3404
  2950  0567                     l3402:
  2951  0567  0833               	movf	__doprnt@tmpval^(0+128),w
  2952  0568  3E30               	addlw	48
  2953  0569  00A0               	movwf	??__doprnt^(0+128)
  2954  056A  083C               	movf	__doprnt@pb^(0+128),w
  2955  056B  0084               	movwf	4
  2956  056C  0800               	movf	0,w
  2957  056D  0084               	movwf	4
  2958  056E  0820               	movf	??__doprnt^(0+128),w
  2959  056F  0080               	movwf	0
  2960  0570  3001               	movlw	1
  2961  0571  00A0               	movwf	??__doprnt^(0+128)
  2962  0572  083C               	movf	__doprnt@pb^(0+128),w
  2963  0573  0084               	movwf	4
  2964  0574  0820               	movf	??__doprnt^(0+128),w
  2965  0575  0780               	addwf	0,f
  2966  0576                     l3404:
  2967                           
  2968                           ;C:\Program Files\Microchip\xc8\v2.36\pic\sources\c90\common\doprnt.c: 1222:    while(c-
      +                          -) {
  2969  0576  3001               	movlw	1
  2970  0577  1683               	bsf	3,5	;RP0=1, select bank1
  2971  0578  1303               	bcf	3,6	;RP1=0, select bank1
  2972  0579  02BB               	subwf	__doprnt@c^(0+128),f
  2973  057A  0A3B               	incf	__doprnt@c^(0+128),w
  2974  057B  1D03               	btfss	3,2
  2975  057C  2D7E               	goto	u5651
  2976  057D  2D7F               	goto	u5650
  2977  057E                     u5651:
  2978  057E  2CF7               	goto	l3394
  2979  057F                     u5650:
  2980  057F  2DAD               	goto	l3416
  2981  0580                     l3406:
  2982  0580  1683               	bsf	3,5	;RP0=1, select bank1
  2983  0581  1303               	bcf	3,6	;RP1=0, select bank1
  2984  0582  0A3C               	incf	__doprnt@pb^(0+128),w
  2985  0583  0084               	movwf	4
  2986  0584  1383               	bcf	3,7	;select IRP bank0
  2987  0585  0800               	movf	0,w
  2988  0586  1903               	btfsc	3,2
  2989  0587  2D89               	goto	u5661
  2990  0588  2D8A               	goto	u5660
  2991  0589                     u5661:
  2992  0589  2D97               	goto	l3410
  2993  058A                     u5660:
  2994  058A                     l3408:
  2995  058A  3030               	movlw	48
  2996  058B  00A0               	movwf	??__doprnt^(0+128)
  2997  058C  0820               	movf	??__doprnt^(0+128),w
  2998  058D  00F1               	movwf	putch@x
  2999  058E  0A3C               	incf	__doprnt@pb^(0+128),w
  3000  058F  0084               	movwf	4
  3001  0590  0800               	movf	0,w
  3002  0591  120A  118A  2003  120A  118A  	fcall	fptable
  3003  0596  2DA5               	goto	l3414
  3004  0597                     l3410:
  3005  0597  3030               	movlw	48
  3006  0598  00A0               	movwf	??__doprnt^(0+128)
  3007  0599  083C               	movf	__doprnt@pb^(0+128),w
  3008  059A  0084               	movwf	4
  3009  059B  0800               	movf	0,w
  3010  059C  0084               	movwf	4
  3011  059D  0820               	movf	??__doprnt^(0+128),w
  3012  059E  0080               	movwf	0
  3013  059F                     l3412:
  3014  059F  3001               	movlw	1
  3015  05A0  00A0               	movwf	??__doprnt^(0+128)
  3016  05A1  083C               	movf	__doprnt@pb^(0+128),w
  3017  05A2  0084               	movwf	4
  3018  05A3  0820               	movf	??__doprnt^(0+128),w
  3019  05A4  0780               	addwf	0,f
  3020  05A5                     l3414:
  3021                           
  3022                           ;C:\Program Files\Microchip\xc8\v2.36\pic\sources\c90\common\doprnt.c: 1235:     eexp--;
  3023  05A5  30FF               	movlw	255
  3024  05A6  1683               	bsf	3,5	;RP0=1, select bank1
  3025  05A7  1303               	bcf	3,6	;RP1=0, select bank1
  3026  05A8  07AF               	addwf	__doprnt@eexp^(0+128),f
  3027  05A9  1803               	skipnc
  3028  05AA  0AB0               	incf	(__doprnt@eexp+1)^(0+128),f
  3029  05AB  30FF               	movlw	255
  3030  05AC  07B0               	addwf	(__doprnt@eexp+1)^(0+128),f
  3031  05AD                     l3416:
  3032                           
  3033                           ;C:\Program Files\Microchip\xc8\v2.36\pic\sources\c90\common\doprnt.c: 1233:    while(ee
      +                          xp > 0) {
  3034  05AD  0830               	movf	(__doprnt@eexp+1)^(0+128),w
  3035  05AE  3A80               	xorlw	128
  3036  05AF  00FF               	movwf	btemp+1
  3037  05B0  3080               	movlw	128
  3038  05B1  027F               	subwf	btemp+1,w
  3039  05B2  1D03               	skipz
  3040  05B3  2DB6               	goto	u5675
  3041  05B4  3001               	movlw	1
  3042  05B5  022F               	subwf	__doprnt@eexp^(0+128),w
  3043  05B6                     u5675:
  3044  05B6  1803               	skipnc
  3045  05B7  2DB9               	goto	u5671
  3046  05B8  2DBA               	goto	u5670
  3047  05B9                     u5671:
  3048  05B9  2D80               	goto	l3406
  3049  05BA                     u5670:
  3050  05BA                     l3418:
  3051                           
  3052                           ;C:\Program Files\Microchip\xc8\v2.36\pic\sources\c90\common\doprnt.c: 1237:    if(prec 
      +                          > (int)((sizeof dpowers/sizeof dpowers[0])-2))
  3053  05BA  1683               	bsf	3,5	;RP0=1, select bank1
  3054  05BB  1303               	bcf	3,6	;RP1=0, select bank1
  3055  05BC  0832               	movf	(__doprnt@prec+1)^(0+128),w
  3056  05BD  3A80               	xorlw	128
  3057  05BE  00FF               	movwf	btemp+1
  3058  05BF  3080               	movlw	128
  3059  05C0  027F               	subwf	btemp+1,w
  3060  05C1  1D03               	skipz
  3061  05C2  2DC5               	goto	u5685
  3062  05C3  3009               	movlw	9
  3063  05C4  0231               	subwf	__doprnt@prec^(0+128),w
  3064  05C5                     u5685:
  3065  05C5  1C03               	skipc
  3066  05C6  2DC8               	goto	u5681
  3067  05C7  2DC9               	goto	u5680
  3068  05C8                     u5681:
  3069  05C8  2DD0               	goto	l3422
  3070  05C9                     u5680:
  3071  05C9                     l3420:
  3072                           
  3073                           ;C:\Program Files\Microchip\xc8\v2.36\pic\sources\c90\common\doprnt.c: 1238:     c = (si
      +                          zeof dpowers/sizeof dpowers[0])-2;
  3074  05C9  3008               	movlw	8
  3075  05CA  1683               	bsf	3,5	;RP0=1, select bank1
  3076  05CB  1303               	bcf	3,6	;RP1=0, select bank1
  3077  05CC  00A0               	movwf	??__doprnt^(0+128)
  3078  05CD  0820               	movf	??__doprnt^(0+128),w
  3079  05CE  00BB               	movwf	__doprnt@c^(0+128)
  3080  05CF  2DD6               	goto	l792
  3081  05D0                     l3422:
  3082                           
  3083                           ;C:\Program Files\Microchip\xc8\v2.36\pic\sources\c90\common\doprnt.c: 1240:     c = (ch
      +                          ar)prec;
  3084  05D0  1683               	bsf	3,5	;RP0=1, select bank1
  3085  05D1  1303               	bcf	3,6	;RP1=0, select bank1
  3086  05D2  0831               	movf	__doprnt@prec^(0+128),w
  3087  05D3  00A0               	movwf	??__doprnt^(0+128)
  3088  05D4  0820               	movf	??__doprnt^(0+128),w
  3089  05D5  00BB               	movwf	__doprnt@c^(0+128)
  3090  05D6                     l792:
  3091                           
  3092                           ;C:\Program Files\Microchip\xc8\v2.36\pic\sources\c90\common\doprnt.c: 1241:    prec -= 
      +                          (int)c;
  3093  05D6  083B               	movf	__doprnt@c^(0+128),w
  3094  05D7  00A0               	movwf	??__doprnt^(0+128)
  3095  05D8  01A1               	clrf	(??__doprnt^(0+128)+1)
  3096  05D9  0820               	movf	??__doprnt^(0+128),w
  3097  05DA  02B1               	subwf	__doprnt@prec^(0+128),f
  3098  05DB  0821               	movf	(??__doprnt+1)^(0+128),w
  3099  05DC  1C03               	skipc
  3100  05DD  03B2               	decf	(__doprnt@prec+1)^(0+128),f
  3101  05DE  02B2               	subwf	(__doprnt@prec+1)^(0+128),f
  3102  05DF                     l3424:
  3103                           
  3104                           ;C:\Program Files\Microchip\xc8\v2.36\pic\sources\c90\common\doprnt.c: 1245:    if(c)
  3105  05DF  083B               	movf	__doprnt@c^(0+128),w
  3106  05E0  1903               	btfsc	3,2
  3107  05E1  2DE3               	goto	u5691
  3108  05E2  2DE4               	goto	u5690
  3109  05E3                     u5691:
  3110  05E3  2E07               	goto	l3434
  3111  05E4                     u5690:
  3112  05E4                     l3426:
  3113  05E4  0A3C               	incf	__doprnt@pb^(0+128),w
  3114  05E5  0084               	movwf	4
  3115  05E6  1383               	bcf	3,7	;select IRP bank0
  3116  05E7  0800               	movf	0,w
  3117  05E8  1903               	btfsc	3,2
  3118  05E9  2DEB               	goto	u5701
  3119  05EA  2DEC               	goto	u5700
  3120  05EB                     u5701:
  3121  05EB  2DF9               	goto	l3430
  3122  05EC                     u5700:
  3123  05EC                     l3428:
  3124  05EC  302E               	movlw	46
  3125  05ED  00A0               	movwf	??__doprnt^(0+128)
  3126  05EE  0820               	movf	??__doprnt^(0+128),w
  3127  05EF  00F1               	movwf	putch@x
  3128  05F0  0A3C               	incf	__doprnt@pb^(0+128),w
  3129  05F1  0084               	movwf	4
  3130  05F2  0800               	movf	0,w
  3131  05F3  120A  118A  2003  120A  118A  	fcall	fptable
  3132  05F8  2E07               	goto	l3434
  3133  05F9                     l3430:
  3134  05F9  302E               	movlw	46
  3135  05FA  00A0               	movwf	??__doprnt^(0+128)
  3136  05FB  083C               	movf	__doprnt@pb^(0+128),w
  3137  05FC  0084               	movwf	4
  3138  05FD  0800               	movf	0,w
  3139  05FE  0084               	movwf	4
  3140  05FF  0820               	movf	??__doprnt^(0+128),w
  3141  0600  0080               	movwf	0
  3142  0601                     l3432:
  3143  0601  3001               	movlw	1
  3144  0602  00A0               	movwf	??__doprnt^(0+128)
  3145  0603  083C               	movf	__doprnt@pb^(0+128),w
  3146  0604  0084               	movwf	4
  3147  0605  0820               	movf	??__doprnt^(0+128),w
  3148  0606  0780               	addwf	0,f
  3149  0607                     l3434:
  3150                           
  3151                           ;C:\Program Files\Microchip\xc8\v2.36\pic\sources\c90\common\doprnt.c: 1253:    val = (u
      +                          nsigned long)(fval * scale((signed char)c));
  3152  0607  1683               	bsf	3,5	;RP0=1, select bank1
  3153  0608  1303               	bcf	3,6	;RP1=0, select bank1
  3154  0609  083B               	movf	__doprnt@c^(0+128),w
  3155  060A  120A  158A  2140  120A  118A  	fcall	_scale
  3156  060F  1283               	bcf	3,5	;RP0=0, select bank0
  3157  0610  1303               	bcf	3,6	;RP1=0, select bank0
  3158  0611  0841               	movf	?_scale+3,w
  3159  0612  1683               	bsf	3,5	;RP0=1, select bank1
  3160  0613  1303               	bcf	3,6	;RP1=0, select bank1
  3161  0614  00A8               	movwf	(__doprnt$1004+3)^(0+128)
  3162  0615  1283               	bcf	3,5	;RP0=0, select bank0
  3163  0616  1303               	bcf	3,6	;RP1=0, select bank0
  3164  0617  0840               	movf	?_scale+2,w
  3165  0618  1683               	bsf	3,5	;RP0=1, select bank1
  3166  0619  1303               	bcf	3,6	;RP1=0, select bank1
  3167  061A  00A7               	movwf	(__doprnt$1004+2)^(0+128)
  3168  061B  1283               	bcf	3,5	;RP0=0, select bank0
  3169  061C  1303               	bcf	3,6	;RP1=0, select bank0
  3170  061D  083F               	movf	?_scale+1,w
  3171  061E  1683               	bsf	3,5	;RP0=1, select bank1
  3172  061F  1303               	bcf	3,6	;RP1=0, select bank1
  3173  0620  00A6               	movwf	(__doprnt$1004+1)^(0+128)
  3174  0621  1283               	bcf	3,5	;RP0=0, select bank0
  3175  0622  1303               	bcf	3,6	;RP1=0, select bank0
  3176  0623  083E               	movf	?_scale,w
  3177  0624  1683               	bsf	3,5	;RP0=1, select bank1
  3178  0625  1303               	bcf	3,6	;RP1=0, select bank1
  3179  0626  00A5               	movwf	__doprnt$1004^(0+128)
  3180  0627                     l3436:
  3181                           
  3182                           ;C:\Program Files\Microchip\xc8\v2.36\pic\sources\c90\common\doprnt.c: 1253:    val = (u
      +                          nsigned long)(fval * scale((signed char)c));
  3183  0627  0828               	movf	(__doprnt$1004+3)^(0+128),w
  3184  0628  1283               	bcf	3,5	;RP0=0, select bank0
  3185  0629  1303               	bcf	3,6	;RP1=0, select bank0
  3186  062A  00AB               	movwf	___flmul@a+3
  3187  062B  1683               	bsf	3,5	;RP0=1, select bank1
  3188  062C  1303               	bcf	3,6	;RP1=0, select bank1
  3189  062D  0827               	movf	(__doprnt$1004+2)^(0+128),w
  3190  062E  1283               	bcf	3,5	;RP0=0, select bank0
  3191  062F  1303               	bcf	3,6	;RP1=0, select bank0
  3192  0630  00AA               	movwf	___flmul@a+2
  3193  0631  1683               	bsf	3,5	;RP0=1, select bank1
  3194  0632  1303               	bcf	3,6	;RP1=0, select bank1
  3195  0633  0826               	movf	(__doprnt$1004+1)^(0+128),w
  3196  0634  1283               	bcf	3,5	;RP0=0, select bank0
  3197  0635  1303               	bcf	3,6	;RP1=0, select bank0
  3198  0636  00A9               	movwf	___flmul@a+1
  3199  0637  1683               	bsf	3,5	;RP0=1, select bank1
  3200  0638  1303               	bcf	3,6	;RP1=0, select bank1
  3201  0639  0825               	movf	__doprnt$1004^(0+128),w
  3202  063A  1283               	bcf	3,5	;RP0=0, select bank0
  3203  063B  1303               	bcf	3,6	;RP1=0, select bank0
  3204  063C  00A8               	movwf	___flmul@a
  3205  063D  1683               	bsf	3,5	;RP0=1, select bank1
  3206  063E  1303               	bcf	3,6	;RP1=0, select bank1
  3207  063F  083A               	movf	(__doprnt@fval+3)^(0+128),w
  3208  0640  1283               	bcf	3,5	;RP0=0, select bank0
  3209  0641  1303               	bcf	3,6	;RP1=0, select bank0
  3210  0642  00A7               	movwf	___flmul@b+3
  3211  0643  1683               	bsf	3,5	;RP0=1, select bank1
  3212  0644  1303               	bcf	3,6	;RP1=0, select bank1
  3213  0645  0839               	movf	(__doprnt@fval+2)^(0+128),w
  3214  0646  1283               	bcf	3,5	;RP0=0, select bank0
  3215  0647  1303               	bcf	3,6	;RP1=0, select bank0
  3216  0648  00A6               	movwf	___flmul@b+2
  3217  0649  1683               	bsf	3,5	;RP0=1, select bank1
  3218  064A  1303               	bcf	3,6	;RP1=0, select bank1
  3219  064B  0838               	movf	(__doprnt@fval+1)^(0+128),w
  3220  064C  1283               	bcf	3,5	;RP0=0, select bank0
  3221  064D  1303               	bcf	3,6	;RP1=0, select bank0
  3222  064E  00A5               	movwf	___flmul@b+1
  3223  064F  1683               	bsf	3,5	;RP0=1, select bank1
  3224  0650  1303               	bcf	3,6	;RP1=0, select bank1
  3225  0651  0837               	movf	__doprnt@fval^(0+128),w
  3226  0652  1283               	bcf	3,5	;RP0=0, select bank0
  3227  0653  1303               	bcf	3,6	;RP1=0, select bank0
  3228  0654  00A4               	movwf	___flmul@b
  3229  0655  120A  158A  249F  120A  118A  	fcall	___flmul
  3230  065A  1283               	bcf	3,5	;RP0=0, select bank0
  3231  065B  1303               	bcf	3,6	;RP1=0, select bank0
  3232  065C  0827               	movf	?___flmul+3,w
  3233  065D  00D4               	movwf	___fltol@f1+3
  3234  065E  0826               	movf	?___flmul+2,w
  3235  065F  00D3               	movwf	___fltol@f1+2
  3236  0660  0825               	movf	?___flmul+1,w
  3237  0661  00D2               	movwf	___fltol@f1+1
  3238  0662  0824               	movf	?___flmul,w
  3239  0663  00D1               	movwf	___fltol@f1
  3240  0664  120A  158A  2006  120A  118A  	fcall	___fltol
  3241  0669  1283               	bcf	3,5	;RP0=0, select bank0
  3242  066A  1303               	bcf	3,6	;RP1=0, select bank0
  3243  066B  0854               	movf	?___fltol+3,w
  3244  066C  1683               	bsf	3,5	;RP0=1, select bank1
  3245  066D  1303               	bcf	3,6	;RP1=0, select bank1
  3246  066E  00AE               	movwf	(__doprnt@val+3)^(0+128)
  3247  066F  1283               	bcf	3,5	;RP0=0, select bank0
  3248  0670  1303               	bcf	3,6	;RP1=0, select bank0
  3249  0671  0853               	movf	?___fltol+2,w
  3250  0672  1683               	bsf	3,5	;RP0=1, select bank1
  3251  0673  1303               	bcf	3,6	;RP1=0, select bank1
  3252  0674  00AD               	movwf	(__doprnt@val+2)^(0+128)
  3253  0675  1283               	bcf	3,5	;RP0=0, select bank0
  3254  0676  1303               	bcf	3,6	;RP1=0, select bank0
  3255  0677  0852               	movf	?___fltol+1,w
  3256  0678  1683               	bsf	3,5	;RP0=1, select bank1
  3257  0679  1303               	bcf	3,6	;RP1=0, select bank1
  3258  067A  00AC               	movwf	(__doprnt@val+1)^(0+128)
  3259  067B  1283               	bcf	3,5	;RP0=0, select bank0
  3260  067C  1303               	bcf	3,6	;RP1=0, select bank0
  3261  067D  0851               	movf	?___fltol,w
  3262  067E  1683               	bsf	3,5	;RP0=1, select bank1
  3263  067F  1303               	bcf	3,6	;RP1=0, select bank1
  3264  0680  00AB               	movwf	__doprnt@val^(0+128)
  3265                           
  3266                           ;C:\Program Files\Microchip\xc8\v2.36\pic\sources\c90\common\doprnt.c: 1254:    while(c-
      +                          -) {
  3267  0681  2F3E               	goto	l3450
  3268  0682                     l3438:
  3269                           
  3270                           ;C:\Program Files\Microchip\xc8\v2.36\pic\sources\c90\common\doprnt.c: 1255:     tmpval.
      +                          vd = val/dpowers[c];
  3271  0682  083B               	movf	__doprnt@c^(0+128),w
  3272  0683  00A0               	movwf	??__doprnt^(0+128)
  3273  0684  3001               	movlw	1
  3274  0685                     u5715:
  3275  0685  1003               	clrc
  3276  0686  0DA0               	rlf	??__doprnt^(0+128),f
  3277  0687  3EFF               	addlw	-1
  3278  0688  1D03               	skipz
  3279  0689  2E85               	goto	u5715
  3280  068A  1003               	clrc
  3281  068B  0D20               	rlf	??__doprnt^(0+128),w
  3282  068C  3E69               	addlw	low ((_dpowers-__stringbase)| (0+32768))
  3283  068D  0084               	movwf	4
  3284  068E  160A  158A  2000  120A  118A  	fcall	stringdir
  3285  0693  00F0               	movwf	___lldiv@divisor
  3286  0694  160A  158A  2000  120A  118A  	fcall	stringdir
  3287  0699  00F1               	movwf	___lldiv@divisor+1
  3288  069A  160A  158A  2000  120A  118A  	fcall	stringdir
  3289  069F  00F2               	movwf	___lldiv@divisor+2
  3290  06A0  160A  158A  2000  120A  118A  	fcall	stringdir
  3291  06A5  00F3               	movwf	___lldiv@divisor+3
  3292  06A6  082E               	movf	(__doprnt@val+3)^(0+128),w
  3293  06A7  00F7               	movwf	___lldiv@dividend+3
  3294  06A8  082D               	movf	(__doprnt@val+2)^(0+128),w
  3295  06A9  00F6               	movwf	___lldiv@dividend+2
  3296  06AA  082C               	movf	(__doprnt@val+1)^(0+128),w
  3297  06AB  00F5               	movwf	___lldiv@dividend+1
  3298  06AC  082B               	movf	__doprnt@val^(0+128),w
  3299  06AD  00F4               	movwf	___lldiv@dividend
  3300  06AE  160A  158A  269D  120A  118A  	fcall	___lldiv
  3301  06B3  0873               	movf	?___lldiv+3,w
  3302  06B4  1683               	bsf	3,5	;RP0=1, select bank1
  3303  06B5  1303               	bcf	3,6	;RP1=0, select bank1
  3304  06B6  00B6               	movwf	(__doprnt@tmpval+3)^(0+128)
  3305  06B7  0872               	movf	?___lldiv+2,w
  3306  06B8  00B5               	movwf	(__doprnt@tmpval+2)^(0+128)
  3307  06B9  0871               	movf	?___lldiv+1,w
  3308  06BA  00B4               	movwf	(__doprnt@tmpval+1)^(0+128)
  3309  06BB  0870               	movf	?___lldiv,w
  3310  06BC  00B3               	movwf	__doprnt@tmpval^(0+128)
  3311  06BD                     l3440:
  3312                           
  3313                           ;C:\Program Files\Microchip\xc8\v2.36\pic\sources\c90\common\doprnt.c: 1256:     tmpval.
      +                          vd %= 10;
  3314  06BD  3000               	movlw	0
  3315  06BE  00F3               	movwf	___llmod@divisor+3
  3316  06BF  3000               	movlw	0
  3317  06C0  00F2               	movwf	___llmod@divisor+2
  3318  06C1  3000               	movlw	0
  3319  06C2  00F1               	movwf	___llmod@divisor+1
  3320  06C3  300A               	movlw	10
  3321  06C4  00F0               	movwf	___llmod@divisor
  3322  06C5  0836               	movf	(__doprnt@tmpval+3)^(0+128),w
  3323  06C6  00F7               	movwf	___llmod@dividend+3
  3324  06C7  0835               	movf	(__doprnt@tmpval+2)^(0+128),w
  3325  06C8  00F6               	movwf	___llmod@dividend+2
  3326  06C9  0834               	movf	(__doprnt@tmpval+1)^(0+128),w
  3327  06CA  00F5               	movwf	___llmod@dividend+1
  3328  06CB  0833               	movf	__doprnt@tmpval^(0+128),w
  3329  06CC  00F4               	movwf	___llmod@dividend
  3330  06CD  160A  158A  25F0  120A  118A  	fcall	___llmod
  3331  06D2  0873               	movf	?___llmod+3,w
  3332  06D3  1683               	bsf	3,5	;RP0=1, select bank1
  3333  06D4  1303               	bcf	3,6	;RP1=0, select bank1
  3334  06D5  00B6               	movwf	(__doprnt@tmpval+3)^(0+128)
  3335  06D6  0872               	movf	?___llmod+2,w
  3336  06D7  00B5               	movwf	(__doprnt@tmpval+2)^(0+128)
  3337  06D8  0871               	movf	?___llmod+1,w
  3338  06D9  00B4               	movwf	(__doprnt@tmpval+1)^(0+128)
  3339  06DA  0870               	movf	?___llmod,w
  3340  06DB  00B3               	movwf	__doprnt@tmpval^(0+128)
  3341  06DC                     l3442:
  3342  06DC  0A3C               	incf	__doprnt@pb^(0+128),w
  3343  06DD  0084               	movwf	4
  3344  06DE  1383               	bcf	3,7	;select IRP bank0
  3345  06DF  0800               	movf	0,w
  3346  06E0  1903               	btfsc	3,2
  3347  06E1  2EE3               	goto	u5721
  3348  06E2  2EE4               	goto	u5720
  3349  06E3                     u5721:
  3350  06E3  2EF2               	goto	l3446
  3351  06E4                     u5720:
  3352  06E4                     l3444:
  3353  06E4  0833               	movf	__doprnt@tmpval^(0+128),w
  3354  06E5  3E30               	addlw	48
  3355  06E6  00A0               	movwf	??__doprnt^(0+128)
  3356  06E7  0820               	movf	??__doprnt^(0+128),w
  3357  06E8  00F1               	movwf	putch@x
  3358  06E9  0A3C               	incf	__doprnt@pb^(0+128),w
  3359  06EA  0084               	movwf	4
  3360  06EB  0800               	movf	0,w
  3361  06EC  120A  118A  2003  120A  118A  	fcall	fptable
  3362  06F1  2F01               	goto	l3448
  3363  06F2                     l3446:
  3364  06F2  0833               	movf	__doprnt@tmpval^(0+128),w
  3365  06F3  3E30               	addlw	48
  3366  06F4  00A0               	movwf	??__doprnt^(0+128)
  3367  06F5  083C               	movf	__doprnt@pb^(0+128),w
  3368  06F6  0084               	movwf	4
  3369  06F7  0800               	movf	0,w
  3370  06F8  0084               	movwf	4
  3371  06F9  0820               	movf	??__doprnt^(0+128),w
  3372  06FA  0080               	movwf	0
  3373  06FB  3001               	movlw	1
  3374  06FC  00A0               	movwf	??__doprnt^(0+128)
  3375  06FD  083C               	movf	__doprnt@pb^(0+128),w
  3376  06FE  0084               	movwf	4
  3377  06FF  0820               	movf	??__doprnt^(0+128),w
  3378  0700  0780               	addwf	0,f
  3379  0701                     l3448:
  3380                           
  3381                           ;C:\Program Files\Microchip\xc8\v2.36\pic\sources\c90\common\doprnt.c: 1258:     val %= 
      +                          dpowers[c];
  3382  0701  1683               	bsf	3,5	;RP0=1, select bank1
  3383  0702  1303               	bcf	3,6	;RP1=0, select bank1
  3384  0703  083B               	movf	__doprnt@c^(0+128),w
  3385  0704  00A0               	movwf	??__doprnt^(0+128)
  3386  0705  3001               	movlw	1
  3387  0706                     u5735:
  3388  0706  1003               	clrc
  3389  0707  0DA0               	rlf	??__doprnt^(0+128),f
  3390  0708  3EFF               	addlw	-1
  3391  0709  1D03               	skipz
  3392  070A  2F06               	goto	u5735
  3393  070B  1003               	clrc
  3394  070C  0D20               	rlf	??__doprnt^(0+128),w
  3395  070D  3E69               	addlw	low ((_dpowers-__stringbase)| (0+32768))
  3396  070E  0084               	movwf	4
  3397  070F  160A  158A  2000  120A  118A  	fcall	stringdir
  3398  0714  00F0               	movwf	___llmod@divisor
  3399  0715  160A  158A  2000  120A  118A  	fcall	stringdir
  3400  071A  00F1               	movwf	___llmod@divisor+1
  3401  071B  160A  158A  2000  120A  118A  	fcall	stringdir
  3402  0720  00F2               	movwf	___llmod@divisor+2
  3403  0721  160A  158A  2000  120A  118A  	fcall	stringdir
  3404  0726  00F3               	movwf	___llmod@divisor+3
  3405  0727  082E               	movf	(__doprnt@val+3)^(0+128),w
  3406  0728  00F7               	movwf	___llmod@dividend+3
  3407  0729  082D               	movf	(__doprnt@val+2)^(0+128),w
  3408  072A  00F6               	movwf	___llmod@dividend+2
  3409  072B  082C               	movf	(__doprnt@val+1)^(0+128),w
  3410  072C  00F5               	movwf	___llmod@dividend+1
  3411  072D  082B               	movf	__doprnt@val^(0+128),w
  3412  072E  00F4               	movwf	___llmod@dividend
  3413  072F  160A  158A  25F0  120A  118A  	fcall	___llmod
  3414  0734  0873               	movf	?___llmod+3,w
  3415  0735  1683               	bsf	3,5	;RP0=1, select bank1
  3416  0736  1303               	bcf	3,6	;RP1=0, select bank1
  3417  0737  00AE               	movwf	(__doprnt@val+3)^(0+128)
  3418  0738  0872               	movf	?___llmod+2,w
  3419  0739  00AD               	movwf	(__doprnt@val+2)^(0+128)
  3420  073A  0871               	movf	?___llmod+1,w
  3421  073B  00AC               	movwf	(__doprnt@val+1)^(0+128)
  3422  073C  0870               	movf	?___llmod,w
  3423  073D  00AB               	movwf	__doprnt@val^(0+128)
  3424  073E                     l3450:
  3425                           
  3426                           ;C:\Program Files\Microchip\xc8\v2.36\pic\sources\c90\common\doprnt.c: 1254:    while(c-
      +                          -) {
  3427  073E  3001               	movlw	1
  3428  073F  02BB               	subwf	__doprnt@c^(0+128),f
  3429  0740  0A3B               	incf	__doprnt@c^(0+128),w
  3430  0741  1D03               	btfss	3,2
  3431  0742  2F44               	goto	u5741
  3432  0743  2F45               	goto	u5740
  3433  0744                     u5741:
  3434  0744  2E82               	goto	l3438
  3435  0745                     u5740:
  3436  0745  2F71               	goto	l805
  3437  0746                     l3452:
  3438  0746  0A3C               	incf	__doprnt@pb^(0+128),w
  3439  0747  0084               	movwf	4
  3440  0748  1383               	bcf	3,7	;select IRP bank0
  3441  0749  0800               	movf	0,w
  3442  074A  1903               	btfsc	3,2
  3443  074B  2F4D               	goto	u5751
  3444  074C  2F4E               	goto	u5750
  3445  074D                     u5751:
  3446  074D  2F5B               	goto	l3456
  3447  074E                     u5750:
  3448  074E                     l3454:
  3449  074E  3030               	movlw	48
  3450  074F  00A0               	movwf	??__doprnt^(0+128)
  3451  0750  0820               	movf	??__doprnt^(0+128),w
  3452  0751  00F1               	movwf	putch@x
  3453  0752  0A3C               	incf	__doprnt@pb^(0+128),w
  3454  0753  0084               	movwf	4
  3455  0754  0800               	movf	0,w
  3456  0755  120A  118A  2003  120A  118A  	fcall	fptable
  3457  075A  2F69               	goto	l3460
  3458  075B                     l3456:
  3459  075B  3030               	movlw	48
  3460  075C  00A0               	movwf	??__doprnt^(0+128)
  3461  075D  083C               	movf	__doprnt@pb^(0+128),w
  3462  075E  0084               	movwf	4
  3463  075F  0800               	movf	0,w
  3464  0760  0084               	movwf	4
  3465  0761  0820               	movf	??__doprnt^(0+128),w
  3466  0762  0080               	movwf	0
  3467  0763                     l3458:
  3468  0763  3001               	movlw	1
  3469  0764  00A0               	movwf	??__doprnt^(0+128)
  3470  0765  083C               	movf	__doprnt@pb^(0+128),w
  3471  0766  0084               	movwf	4
  3472  0767  0820               	movf	??__doprnt^(0+128),w
  3473  0768  0780               	addwf	0,f
  3474  0769                     l3460:
  3475                           
  3476                           ;C:\Program Files\Microchip\xc8\v2.36\pic\sources\c90\common\doprnt.c: 1263:     prec--;
  3477  0769  30FF               	movlw	255
  3478  076A  1683               	bsf	3,5	;RP0=1, select bank1
  3479  076B  1303               	bcf	3,6	;RP1=0, select bank1
  3480  076C  07B1               	addwf	__doprnt@prec^(0+128),f
  3481  076D  1803               	skipnc
  3482  076E  0AB2               	incf	(__doprnt@prec+1)^(0+128),f
  3483  076F  30FF               	movlw	255
  3484  0770  07B2               	addwf	(__doprnt@prec+1)^(0+128),f
  3485  0771                     l805:	
  3486                           ;C:\Program Files\Microchip\xc8\v2.36\pic\sources\c90\common\doprnt.c: 1264:    }
  3487                           
  3488                           
  3489                           ;C:\Program Files\Microchip\xc8\v2.36\pic\sources\c90\common\doprnt.c: 1261:    while(pr
      +                          ec) {
  3490  0771  0831               	movf	__doprnt@prec^(0+128),w
  3491  0772  0432               	iorwf	(__doprnt@prec+1)^(0+128),w
  3492  0773  1D03               	btfss	3,2
  3493  0774  2F76               	goto	u5761
  3494  0775  2F77               	goto	u5760
  3495  0776                     u5761:
  3496  0776  2F46               	goto	l3452
  3497  0777                     u5760:
  3498  0777  2FD8               	goto	l3484
  3499  0778                     l3462:
  3500                           
  3501                           ;C:\Program Files\Microchip\xc8\v2.36\pic\sources\c90\common\doprnt.c: 1316:   if(prec =
      +                          = 0 && val == 0)
  3502  0778  0831               	movf	__doprnt@prec^(0+128),w
  3503  0779  0432               	iorwf	(__doprnt@prec+1)^(0+128),w
  3504  077A  1D03               	btfss	3,2
  3505  077B  2F7D               	goto	u5771
  3506  077C  2F7E               	goto	u5770
  3507  077D                     u5771:
  3508  077D  2F8C               	goto	l812
  3509  077E                     u5770:
  3510  077E                     l3464:
  3511  077E  082E               	movf	(__doprnt@val+3)^(0+128),w
  3512  077F  042D               	iorwf	(__doprnt@val+2)^(0+128),w
  3513  0780  042C               	iorwf	(__doprnt@val+1)^(0+128),w
  3514  0781  042B               	iorwf	__doprnt@val^(0+128),w
  3515  0782  1D03               	skipz
  3516  0783  2F85               	goto	u5781
  3517  0784  2F86               	goto	u5780
  3518  0785                     u5781:
  3519  0785  2F8C               	goto	l812
  3520  0786                     u5780:
  3521  0786                     l3466:
  3522                           
  3523                           ;C:\Program Files\Microchip\xc8\v2.36\pic\sources\c90\common\doprnt.c: 1317:    prec++;
  3524  0786  3001               	movlw	1
  3525  0787  07B1               	addwf	__doprnt@prec^(0+128),f
  3526  0788  1803               	skipnc
  3527  0789  0AB2               	incf	(__doprnt@prec+1)^(0+128),f
  3528  078A  3000               	movlw	0
  3529  078B  07B2               	addwf	(__doprnt@prec+1)^(0+128),f
  3530  078C                     l812:
  3531                           
  3532                           ;C:\Program Files\Microchip\xc8\v2.36\pic\sources\c90\common\doprnt.c: 1365:   if(c < pr
      +                          ec)
  3533  078C  0832               	movf	(__doprnt@prec+1)^(0+128),w
  3534  078D  3A80               	xorlw	128
  3535  078E  3C80               	sublw	128
  3536  078F  1D03               	skipz
  3537  0790  2F93               	goto	u5795
  3538  0791  0831               	movf	__doprnt@prec^(0+128),w
  3539  0792  023B               	subwf	__doprnt@c^(0+128),w
  3540  0793                     u5795:
  3541  0793  1803               	skipnc
  3542  0794  2F96               	goto	u5791
  3543  0795  2F97               	goto	u5790
  3544  0796                     u5791:
  3545  0796  2F98               	goto	l3470
  3546  0797                     u5790:
  3547  0797                     l3468:
  3548  0797  2FA7               	goto	l3474
  3549  0798                     l3470:
  3550  0798  1683               	bsf	3,5	;RP0=1, select bank1
  3551  0799  1303               	bcf	3,6	;RP1=0, select bank1
  3552  079A  0832               	movf	(__doprnt@prec+1)^(0+128),w
  3553  079B  3A80               	xorlw	128
  3554  079C  00A0               	movwf	??__doprnt^(0+128)
  3555  079D  3080               	movlw	128
  3556  079E  0220               	subwf	??__doprnt^(0+128),w
  3557  079F  1D03               	skipz
  3558  07A0  2FA3               	goto	u5805
  3559  07A1  083B               	movf	__doprnt@c^(0+128),w
  3560  07A2  0231               	subwf	__doprnt@prec^(0+128),w
  3561  07A3                     u5805:
  3562  07A3  1803               	skipnc
  3563  07A4  2FA6               	goto	u5801
  3564  07A5  2FA7               	goto	u5800
  3565  07A6                     u5801:
  3566  07A6  2FA7               	goto	l3474
  3567  07A7                     u5800:
  3568  07A7                     l3472:
  3569  07A7                     l3474:
  3570                           
  3571                           ;C:\Program Files\Microchip\xc8\v2.36\pic\sources\c90\common\doprnt.c: 1448:   {;C:\Prog
      +                          ram Files\Microchip\xc8\v2.36\pic\sources\c90\common\doprnt.c: 1464:    if(flag & 0x03)
  3572  07A7  3003               	movlw	3
  3573  07A8  1683               	bsf	3,5	;RP0=1, select bank1
  3574  07A9  1303               	bcf	3,6	;RP1=0, select bank1
  3575  07AA  0529               	andwf	__doprnt@flag^(0+128),w
  3576  07AB  00A0               	movwf	??__doprnt^(0+128)
  3577  07AC  3000               	movlw	0
  3578  07AD  052A               	andwf	(__doprnt@flag+1)^(0+128),w
  3579  07AE  00A1               	movwf	(??__doprnt+1)^(0+128)
  3580  07AF  0820               	movf	??__doprnt^(0+128),w
  3581  07B0  0421               	iorwf	(??__doprnt^(0+128)+1),w
  3582  07B1  1903               	btfsc	3,2
  3583  07B2  2FB4               	goto	u5811
  3584  07B3  2FB5               	goto	u5810
  3585  07B4                     u5811:
  3586  07B4  2FD8               	goto	l3484
  3587  07B5                     u5810:
  3588  07B5                     l3476:
  3589  07B5  0A3C               	incf	__doprnt@pb^(0+128),w
  3590  07B6  0084               	movwf	4
  3591  07B7  1383               	bcf	3,7	;select IRP bank0
  3592  07B8  0800               	movf	0,w
  3593  07B9  1903               	btfsc	3,2
  3594  07BA  2FBC               	goto	u5821
  3595  07BB  2FBD               	goto	u5820
  3596  07BC                     u5821:
  3597  07BC  2FCA               	goto	l3480
  3598  07BD                     u5820:
  3599  07BD                     l3478:
  3600  07BD  302D               	movlw	45
  3601  07BE  00A0               	movwf	??__doprnt^(0+128)
  3602  07BF  0820               	movf	??__doprnt^(0+128),w
  3603  07C0  00F1               	movwf	putch@x
  3604  07C1  0A3C               	incf	__doprnt@pb^(0+128),w
  3605  07C2  0084               	movwf	4
  3606  07C3  0800               	movf	0,w
  3607  07C4  120A  118A  2003  120A  118A  	fcall	fptable
  3608  07C9  2FD8               	goto	l3484
  3609  07CA                     l3480:
  3610  07CA  302D               	movlw	45
  3611  07CB  00A0               	movwf	??__doprnt^(0+128)
  3612  07CC  083C               	movf	__doprnt@pb^(0+128),w
  3613  07CD  0084               	movwf	4
  3614  07CE  0800               	movf	0,w
  3615  07CF  0084               	movwf	4
  3616  07D0  0820               	movf	??__doprnt^(0+128),w
  3617  07D1  0080               	movwf	0
  3618  07D2                     l3482:
  3619  07D2  3001               	movlw	1
  3620  07D3  00A0               	movwf	??__doprnt^(0+128)
  3621  07D4  083C               	movf	__doprnt@pb^(0+128),w
  3622  07D5  0084               	movwf	4
  3623  07D6  0820               	movf	??__doprnt^(0+128),w
  3624  07D7  0780               	addwf	0,f
  3625  07D8                     l3484:
  3626                           
  3627                           ;C:\Program Files\Microchip\xc8\v2.36\pic\sources\c90\common\doprnt.c: 553:  while((c = 
      +                          *f++)) {
  3628  07D8  3001               	movlw	1
  3629  07D9  1283               	bcf	3,5	;RP0=0, select bank0
  3630  07DA  1303               	bcf	3,6	;RP1=0, select bank0
  3631  07DB  07EE               	addwf	__doprnt@f,f
  3632  07DC  30FF               	movlw	-1
  3633  07DD  076E               	addwf	__doprnt@f,w
  3634  07DE  0084               	movwf	4
  3635  07DF  160A  158A  2000  120A  118A  	fcall	stringdir
  3636  07E4  1683               	bsf	3,5	;RP0=1, select bank1
  3637  07E5  1303               	bcf	3,6	;RP1=0, select bank1
  3638  07E6  00A0               	movwf	??__doprnt^(0+128)
  3639  07E7  0820               	movf	??__doprnt^(0+128),w
  3640  07E8  00BB               	movwf	__doprnt@c^(0+128)
  3641  07E9  083B               	movf	__doprnt@c^(0+128),w
  3642  07EA  1D03               	btfss	3,2
  3643  07EB  2FED               	goto	u5831
  3644  07EC  2FEE               	goto	u5830
  3645  07ED                     u5831:
  3646  07ED  28B5               	goto	l3262
  3647  07EE                     u5830:
  3648  07EE                     l3486:
  3649                           
  3650                           ;C:\Program Files\Microchip\xc8\v2.36\pic\sources\c90\common\doprnt.c: 1566:  return 0;
  3651  07EE  1283               	bcf	3,5	;RP0=0, select bank0
  3652  07EF  1303               	bcf	3,6	;RP1=0, select bank0
  3653  07F0  01EE               	clrf	?__doprnt
  3654  07F1  01EF               	clrf	?__doprnt+1
  3655  07F2                     l822:
  3656  07F2  0008               	return
  3657  07F3                     __end_of__doprnt:
  3658                           
  3659                           	psect	text4
  3660  0940                     __ptext4:	
  3661 ;; *************** function _scale *****************
  3662 ;; Defined at:
  3663 ;;		line 433 in file "C:\Program Files\Microchip\xc8\v2.36\pic\sources\c90\common\doprnt.c"
  3664 ;; Parameters:    Size  Location     Type
  3665 ;;  scl             1    wreg     char 
  3666 ;; Auto vars:     Size  Location     Type
  3667 ;;  scl             1   48[BANK0 ] char 
  3668 ;; Return value:  Size  Location     Type
  3669 ;;                  4   30[BANK0 ] char 
  3670 ;; Registers used:
  3671 ;;		wreg, fsr0l, fsr0h, status,2, status,0, btemp+1, pclath, cstack
  3672 ;; Tracked objects:
  3673 ;;		On entry : 0/0
  3674 ;;		On exit  : 0/0
  3675 ;;		Unchanged: 0/0
  3676 ;; Data sizes:     COMMON   BANK0   BANK1   BANK3   BANK2
  3677 ;;      Params:         0       4       0       0       0
  3678 ;;      Locals:         0       5       0       0       0
  3679 ;;      Temps:          0      10       0       0       0
  3680 ;;      Totals:         0      19       0       0       0
  3681 ;;Total ram usage:       19 bytes
  3682 ;; Hardware stack levels used: 1
  3683 ;; Hardware stack levels required when called: 2
  3684 ;; This function calls:
  3685 ;;		___awdiv
  3686 ;;		___awmod
  3687 ;;		___flmul
  3688 ;; This function is called by:
  3689 ;;		__doprnt
  3690 ;; This function uses a non-reentrant model
  3691 ;;
  3692                           
  3693  0940                     _scale:	
  3694                           ;psect for function _scale
  3695                           
  3696                           
  3697                           ;incstack = 0
  3698                           ; Regs used in _scale: [wreg-fsr0h+status,2+status,0+btemp+1+pclath+cstack]
  3699                           ;scale@scl stored from wreg
  3700  0940  1283               	bcf	3,5	;RP0=0, select bank0
  3701  0941  1303               	bcf	3,6	;RP1=0, select bank0
  3702  0942  00D0               	movwf	scale@scl
  3703  0943                     l3086:
  3704                           
  3705                           ;C:\Program Files\Microchip\xc8\v2.36\pic\sources\c90\common\doprnt.c: 433: scale(signed
      +                           char scl);C:\Program Files\Microchip\xc8\v2.36\pic\sources\c90\common\doprnt.c: 434: {;
      +                          C:\Program Files\Microchip\xc8\v2.36\pic\sources\c90\common\doprnt.c: 436:  if(scl < 0) 
      +                          {
  3706  0943  1FD0               	btfss	scale@scl,7
  3707  0944  2946               	goto	u4941
  3708  0945  2947               	goto	u4940
  3709  0946                     u4941:
  3710  0946  2AF4               	goto	l3108
  3711  0947                     u4940:
  3712  0947                     l3088:
  3713                           
  3714                           ;C:\Program Files\Microchip\xc8\v2.36\pic\sources\c90\common\doprnt.c: 437:   scl = -scl
      +                          ;
  3715  0947  09D0               	comf	scale@scl,f
  3716  0948  0AD0               	incf	scale@scl,f
  3717  0949                     l3090:
  3718                           
  3719                           ;C:\Program Files\Microchip\xc8\v2.36\pic\sources\c90\common\doprnt.c: 438:   if(scl>=11
      +                          0)
  3720  0949  0850               	movf	scale@scl,w
  3721  094A  3A80               	xorlw	128
  3722  094B  3E12               	addlw	-238
  3723  094C  1C03               	skipc
  3724  094D  294F               	goto	u4951
  3725  094E  2950               	goto	u4950
  3726  094F                     u4951:
  3727  094F  2A38               	goto	l3098
  3728  0950                     u4950:
  3729  0950                     l3092:
  3730                           
  3731                           ;C:\Program Files\Microchip\xc8\v2.36\pic\sources\c90\common\doprnt.c: 439:    return _n
      +                          powers_[(unsigned char)(scl/100+18)] * _npowers_[(unsigned char)((scl%100)/10+9)] * _npo
      +                          wers_[(unsigned char)(scl%10)];
  3732  0950  300A               	movlw	10
  3733  0951  00F7               	movwf	___awdiv@divisor
  3734  0952  3000               	movlw	0
  3735  0953  00F8               	movwf	___awdiv@divisor+1
  3736  0954  0850               	movf	scale@scl,w
  3737  0955  00F2               	movwf	___awmod@dividend
  3738  0956  01F3               	clrf	___awmod@dividend+1
  3739  0957  1BF2               	btfsc	___awmod@dividend,7
  3740  0958  03F3               	decf	___awmod@dividend+1,f
  3741  0959  3064               	movlw	100
  3742  095A  00F0               	movwf	___awmod@divisor
  3743  095B  3000               	movlw	0
  3744  095C  00F1               	movwf	___awmod@divisor+1
  3745  095D  160A  158A  2644  120A  158A  	fcall	___awmod
  3746  0962  0871               	movf	?___awmod+1,w
  3747  0963  00FA               	movwf	___awdiv@dividend+1
  3748  0964  0870               	movf	?___awmod,w
  3749  0965  00F9               	movwf	___awdiv@dividend
  3750  0966  160A  158A  2703  120A  158A  	fcall	___awdiv
  3751  096B  0877               	movf	?___awdiv,w
  3752  096C  1283               	bcf	3,5	;RP0=0, select bank0
  3753  096D  1303               	bcf	3,6	;RP1=0, select bank0
  3754  096E  00C2               	movwf	??_scale
  3755  096F  3001               	movlw	1
  3756  0970                     u4965:
  3757  0970  1003               	clrc
  3758  0971  0DC2               	rlf	??_scale,f
  3759  0972  3EFF               	addlw	-1
  3760  0973  1D03               	skipz
  3761  0974  2970               	goto	u4965
  3762  0975  1003               	clrc
  3763  0976  0D42               	rlf	??_scale,w
  3764  0977  3E59               	addlw	low (((__npowers_-__stringbase)| (0+32768)+36))
  3765  0978  0084               	movwf	4
  3766  0979  160A  158A  2000  120A  158A  	fcall	stringdir
  3767  097E  00C3               	movwf	??_scale+1
  3768  097F  160A  158A  2000  120A  158A  	fcall	stringdir
  3769  0984  00C4               	movwf	??_scale+2
  3770  0985  160A  158A  2000  120A  158A  	fcall	stringdir
  3771  098A  00C5               	movwf	??_scale+3
  3772  098B  160A  158A  2000  120A  158A  	fcall	stringdir
  3773  0990  00C6               	movwf	??_scale+4
  3774  0991  0846               	movf	??_scale+4,w
  3775  0992  00A7               	movwf	___flmul@b+3
  3776  0993  0845               	movf	??_scale+3,w
  3777  0994  00A6               	movwf	___flmul@b+2
  3778  0995  0844               	movf	??_scale+2,w
  3779  0996  00A5               	movwf	___flmul@b+1
  3780  0997  0843               	movf	??_scale+1,w
  3781  0998  00A4               	movwf	___flmul@b
  3782  0999  3064               	movlw	100
  3783  099A  00F7               	movwf	___awdiv@divisor
  3784  099B  3000               	movlw	0
  3785  099C  00F8               	movwf	___awdiv@divisor+1
  3786  099D  0850               	movf	scale@scl,w
  3787  099E  00F9               	movwf	___awdiv@dividend
  3788  099F  01FA               	clrf	___awdiv@dividend+1
  3789  09A0  1BF9               	btfsc	___awdiv@dividend,7
  3790  09A1  03FA               	decf	___awdiv@dividend+1,f
  3791  09A2  160A  158A  2703  120A  158A  	fcall	___awdiv
  3792  09A7  0877               	movf	?___awdiv,w
  3793  09A8  1283               	bcf	3,5	;RP0=0, select bank0
  3794  09A9  1303               	bcf	3,6	;RP1=0, select bank0
  3795  09AA  00C7               	movwf	??_scale+5
  3796  09AB  3001               	movlw	1
  3797  09AC                     u4975:
  3798  09AC  1003               	clrc
  3799  09AD  0DC7               	rlf	??_scale+5,f
  3800  09AE  3EFF               	addlw	-1
  3801  09AF  1D03               	skipz
  3802  09B0  29AC               	goto	u4975
  3803  09B1  1003               	clrc
  3804  09B2  0D47               	rlf	??_scale+5,w
  3805  09B3  3E7D               	addlw	low (((__npowers_-__stringbase)| (0+32768)+72))
  3806  09B4  0084               	movwf	4
  3807  09B5  160A  158A  2000  120A  158A  	fcall	stringdir
  3808  09BA  00C8               	movwf	??_scale+6
  3809  09BB  160A  158A  2000  120A  158A  	fcall	stringdir
  3810  09C0  00C9               	movwf	??_scale+7
  3811  09C1  160A  158A  2000  120A  158A  	fcall	stringdir
  3812  09C6  00CA               	movwf	??_scale+8
  3813  09C7  160A  158A  2000  120A  158A  	fcall	stringdir
  3814  09CC  00CB               	movwf	??_scale+9
  3815  09CD  084B               	movf	??_scale+9,w
  3816  09CE  00AB               	movwf	___flmul@a+3
  3817  09CF  084A               	movf	??_scale+8,w
  3818  09D0  00AA               	movwf	___flmul@a+2
  3819  09D1  0849               	movf	??_scale+7,w
  3820  09D2  00A9               	movwf	___flmul@a+1
  3821  09D3  0848               	movf	??_scale+6,w
  3822  09D4  00A8               	movwf	___flmul@a
  3823  09D5  120A  158A  249F  120A  158A  	fcall	___flmul
  3824  09DA  1283               	bcf	3,5	;RP0=0, select bank0
  3825  09DB  1303               	bcf	3,6	;RP1=0, select bank0
  3826  09DC  0827               	movf	?___flmul+3,w
  3827  09DD  00CF               	movwf	_scale$1003+3
  3828  09DE  0826               	movf	?___flmul+2,w
  3829  09DF  00CE               	movwf	_scale$1003+2
  3830  09E0  0825               	movf	?___flmul+1,w
  3831  09E1  00CD               	movwf	_scale$1003+1
  3832  09E2  0824               	movf	?___flmul,w
  3833  09E3  00CC               	movwf	_scale$1003
  3834                           
  3835                           ;C:\Program Files\Microchip\xc8\v2.36\pic\sources\c90\common\doprnt.c: 439:    return _n
      +                          powers_[(unsigned char)(scl/100+18)] * _npowers_[(unsigned char)((scl%100)/10+9)] * _npo
      +                          wers_[(unsigned char)(scl%10)];
  3836  09E4  300A               	movlw	10
  3837  09E5  00F0               	movwf	___awmod@divisor
  3838  09E6  3000               	movlw	0
  3839  09E7  00F1               	movwf	___awmod@divisor+1
  3840  09E8  0850               	movf	scale@scl,w
  3841  09E9  00F2               	movwf	___awmod@dividend
  3842  09EA  01F3               	clrf	___awmod@dividend+1
  3843  09EB  1BF2               	btfsc	___awmod@dividend,7
  3844  09EC  03F3               	decf	___awmod@dividend+1,f
  3845  09ED  160A  158A  2644  120A  158A  	fcall	___awmod
  3846  09F2  0870               	movf	?___awmod,w
  3847  09F3  1283               	bcf	3,5	;RP0=0, select bank0
  3848  09F4  1303               	bcf	3,6	;RP1=0, select bank0
  3849  09F5  00C2               	movwf	??_scale
  3850  09F6  3001               	movlw	1
  3851  09F7                     u4985:
  3852  09F7  1003               	clrc
  3853  09F8  0DC2               	rlf	??_scale,f
  3854  09F9  3EFF               	addlw	-1
  3855  09FA  1D03               	skipz
  3856  09FB  29F7               	goto	u4985
  3857  09FC  1003               	clrc
  3858  09FD  0D42               	rlf	??_scale,w
  3859  09FE  3E35               	addlw	low ((__npowers_-__stringbase)| (0+32768))
  3860  09FF  0084               	movwf	4
  3861  0A00  160A  158A  2000  120A  158A  	fcall	stringdir
  3862  0A05  00C3               	movwf	??_scale+1
  3863  0A06  160A  158A  2000  120A  158A  	fcall	stringdir
  3864  0A0B  00C4               	movwf	??_scale+2
  3865  0A0C  160A  158A  2000  120A  158A  	fcall	stringdir
  3866  0A11  00C5               	movwf	??_scale+3
  3867  0A12  160A  158A  2000  120A  158A  	fcall	stringdir
  3868  0A17  00C6               	movwf	??_scale+4
  3869  0A18  0846               	movf	??_scale+4,w
  3870  0A19  00A7               	movwf	___flmul@b+3
  3871  0A1A  0845               	movf	??_scale+3,w
  3872  0A1B  00A6               	movwf	___flmul@b+2
  3873  0A1C  0844               	movf	??_scale+2,w
  3874  0A1D  00A5               	movwf	___flmul@b+1
  3875  0A1E  0843               	movf	??_scale+1,w
  3876  0A1F  00A4               	movwf	___flmul@b
  3877  0A20  084F               	movf	_scale$1003+3,w
  3878  0A21  00AB               	movwf	___flmul@a+3
  3879  0A22  084E               	movf	_scale$1003+2,w
  3880  0A23  00AA               	movwf	___flmul@a+2
  3881  0A24  084D               	movf	_scale$1003+1,w
  3882  0A25  00A9               	movwf	___flmul@a+1
  3883  0A26  084C               	movf	_scale$1003,w
  3884  0A27  00A8               	movwf	___flmul@a
  3885  0A28  120A  158A  249F  120A  158A  	fcall	___flmul
  3886  0A2D  1283               	bcf	3,5	;RP0=0, select bank0
  3887  0A2E  1303               	bcf	3,6	;RP1=0, select bank0
  3888  0A2F  0827               	movf	?___flmul+3,w
  3889  0A30  00C1               	movwf	?_scale+3
  3890  0A31  0826               	movf	?___flmul+2,w
  3891  0A32  00C0               	movwf	?_scale+2
  3892  0A33  0825               	movf	?___flmul+1,w
  3893  0A34  00BF               	movwf	?_scale+1
  3894  0A35  0824               	movf	?___flmul,w
  3895  0A36  00BE               	movwf	?_scale
  3896  0A37  2C9E               	goto	l724
  3897  0A38                     l3098:
  3898  0A38  0850               	movf	scale@scl,w
  3899  0A39  3A80               	xorlw	128
  3900  0A3A  3E75               	addlw	-139
  3901  0A3B  1C03               	skipc
  3902  0A3C  2A3E               	goto	u4991
  3903  0A3D  2A3F               	goto	u4990
  3904  0A3E                     u4991:
  3905  0A3E  2AC7               	goto	l3104
  3906  0A3F                     u4990:
  3907  0A3F                     l3100:
  3908                           
  3909                           ;C:\Program Files\Microchip\xc8\v2.36\pic\sources\c90\common\doprnt.c: 441:    return _n
      +                          powers_[(unsigned char)(scl/10+9)] * _npowers_[(unsigned char)(scl%10)];
  3910  0A3F  300A               	movlw	10
  3911  0A40  00F0               	movwf	___awmod@divisor
  3912  0A41  3000               	movlw	0
  3913  0A42  00F1               	movwf	___awmod@divisor+1
  3914  0A43  0850               	movf	scale@scl,w
  3915  0A44  00F2               	movwf	___awmod@dividend
  3916  0A45  01F3               	clrf	___awmod@dividend+1
  3917  0A46  1BF2               	btfsc	___awmod@dividend,7
  3918  0A47  03F3               	decf	___awmod@dividend+1,f
  3919  0A48  160A  158A  2644  120A  158A  	fcall	___awmod
  3920  0A4D  0870               	movf	?___awmod,w
  3921  0A4E  1283               	bcf	3,5	;RP0=0, select bank0
  3922  0A4F  1303               	bcf	3,6	;RP1=0, select bank0
  3923  0A50  00C2               	movwf	??_scale
  3924  0A51  3001               	movlw	1
  3925  0A52                     u5005:
  3926  0A52  1003               	clrc
  3927  0A53  0DC2               	rlf	??_scale,f
  3928  0A54  3EFF               	addlw	-1
  3929  0A55  1D03               	skipz
  3930  0A56  2A52               	goto	u5005
  3931  0A57  1003               	clrc
  3932  0A58  0D42               	rlf	??_scale,w
  3933  0A59  3E35               	addlw	low ((__npowers_-__stringbase)| (0+32768))
  3934  0A5A  0084               	movwf	4
  3935  0A5B  160A  158A  2000  120A  158A  	fcall	stringdir
  3936  0A60  00C3               	movwf	??_scale+1
  3937  0A61  160A  158A  2000  120A  158A  	fcall	stringdir
  3938  0A66  00C4               	movwf	??_scale+2
  3939  0A67  160A  158A  2000  120A  158A  	fcall	stringdir
  3940  0A6C  00C5               	movwf	??_scale+3
  3941  0A6D  160A  158A  2000  120A  158A  	fcall	stringdir
  3942  0A72  00C6               	movwf	??_scale+4
  3943  0A73  0846               	movf	??_scale+4,w
  3944  0A74  00A7               	movwf	___flmul@b+3
  3945  0A75  0845               	movf	??_scale+3,w
  3946  0A76  00A6               	movwf	___flmul@b+2
  3947  0A77  0844               	movf	??_scale+2,w
  3948  0A78  00A5               	movwf	___flmul@b+1
  3949  0A79  0843               	movf	??_scale+1,w
  3950  0A7A  00A4               	movwf	___flmul@b
  3951  0A7B  300A               	movlw	10
  3952  0A7C  00F7               	movwf	___awdiv@divisor
  3953  0A7D  3000               	movlw	0
  3954  0A7E  00F8               	movwf	___awdiv@divisor+1
  3955  0A7F  0850               	movf	scale@scl,w
  3956  0A80  00F9               	movwf	___awdiv@dividend
  3957  0A81  01FA               	clrf	___awdiv@dividend+1
  3958  0A82  1BF9               	btfsc	___awdiv@dividend,7
  3959  0A83  03FA               	decf	___awdiv@dividend+1,f
  3960  0A84  160A  158A  2703  120A  158A  	fcall	___awdiv
  3961  0A89  0877               	movf	?___awdiv,w
  3962  0A8A  1283               	bcf	3,5	;RP0=0, select bank0
  3963  0A8B  1303               	bcf	3,6	;RP1=0, select bank0
  3964  0A8C  00C7               	movwf	??_scale+5
  3965  0A8D  3001               	movlw	1
  3966  0A8E                     u5015:
  3967  0A8E  1003               	clrc
  3968  0A8F  0DC7               	rlf	??_scale+5,f
  3969  0A90  3EFF               	addlw	-1
  3970  0A91  1D03               	skipz
  3971  0A92  2A8E               	goto	u5015
  3972  0A93  1003               	clrc
  3973  0A94  0D47               	rlf	??_scale+5,w
  3974  0A95  3E59               	addlw	low (((__npowers_-__stringbase)| (0+32768)+36))
  3975  0A96  0084               	movwf	4
  3976  0A97  160A  158A  2000  120A  158A  	fcall	stringdir
  3977  0A9C  00C8               	movwf	??_scale+6
  3978  0A9D  160A  158A  2000  120A  158A  	fcall	stringdir
  3979  0AA2  00C9               	movwf	??_scale+7
  3980  0AA3  160A  158A  2000  120A  158A  	fcall	stringdir
  3981  0AA8  00CA               	movwf	??_scale+8
  3982  0AA9  160A  158A  2000  120A  158A  	fcall	stringdir
  3983  0AAE  00CB               	movwf	??_scale+9
  3984  0AAF  084B               	movf	??_scale+9,w
  3985  0AB0  00AB               	movwf	___flmul@a+3
  3986  0AB1  084A               	movf	??_scale+8,w
  3987  0AB2  00AA               	movwf	___flmul@a+2
  3988  0AB3  0849               	movf	??_scale+7,w
  3989  0AB4  00A9               	movwf	___flmul@a+1
  3990  0AB5  0848               	movf	??_scale+6,w
  3991  0AB6  00A8               	movwf	___flmul@a
  3992  0AB7  120A  158A  249F  120A  158A  	fcall	___flmul
  3993  0ABC  1283               	bcf	3,5	;RP0=0, select bank0
  3994  0ABD  1303               	bcf	3,6	;RP1=0, select bank0
  3995  0ABE  0827               	movf	?___flmul+3,w
  3996  0ABF  00C1               	movwf	?_scale+3
  3997  0AC0  0826               	movf	?___flmul+2,w
  3998  0AC1  00C0               	movwf	?_scale+2
  3999  0AC2  0825               	movf	?___flmul+1,w
  4000  0AC3  00BF               	movwf	?_scale+1
  4001  0AC4  0824               	movf	?___flmul,w
  4002  0AC5  00BE               	movwf	?_scale
  4003  0AC6  2C9E               	goto	l724
  4004  0AC7                     l3104:
  4005                           
  4006                           ;C:\Program Files\Microchip\xc8\v2.36\pic\sources\c90\common\doprnt.c: 442:   return _np
      +                          owers_[(unsigned char)scl];
  4007  0AC7  0850               	movf	scale@scl,w
  4008  0AC8  00C2               	movwf	??_scale
  4009  0AC9  3001               	movlw	1
  4010  0ACA                     u5025:
  4011  0ACA  1003               	clrc
  4012  0ACB  0DC2               	rlf	??_scale,f
  4013  0ACC  3EFF               	addlw	-1
  4014  0ACD  1D03               	skipz
  4015  0ACE  2ACA               	goto	u5025
  4016  0ACF  1003               	clrc
  4017  0AD0  0D42               	rlf	??_scale,w
  4018  0AD1  3E35               	addlw	low ((__npowers_-__stringbase)| (0+32768))
  4019  0AD2  0084               	movwf	4
  4020  0AD3  160A  158A  2000  120A  158A  	fcall	stringdir
  4021  0AD8  00C3               	movwf	??_scale+1
  4022  0AD9  160A  158A  2000  120A  158A  	fcall	stringdir
  4023  0ADE  00C4               	movwf	??_scale+2
  4024  0ADF  160A  158A  2000  120A  158A  	fcall	stringdir
  4025  0AE4  00C5               	movwf	??_scale+3
  4026  0AE5  160A  158A  2000  120A  158A  	fcall	stringdir
  4027  0AEA  00C6               	movwf	??_scale+4
  4028  0AEB  0846               	movf	??_scale+4,w
  4029  0AEC  00C1               	movwf	?_scale+3
  4030  0AED  0845               	movf	??_scale+3,w
  4031  0AEE  00C0               	movwf	?_scale+2
  4032  0AEF  0844               	movf	??_scale+2,w
  4033  0AF0  00BF               	movwf	?_scale+1
  4034  0AF1  0843               	movf	??_scale+1,w
  4035  0AF2  00BE               	movwf	?_scale
  4036  0AF3  2C9E               	goto	l724
  4037  0AF4                     l3108:
  4038                           
  4039                           ;C:\Program Files\Microchip\xc8\v2.36\pic\sources\c90\common\doprnt.c: 444:  if(scl>=110
      +                          )
  4040  0AF4  0850               	movf	scale@scl,w
  4041  0AF5  3A80               	xorlw	128
  4042  0AF6  3E12               	addlw	-238
  4043  0AF7  1C03               	skipc
  4044  0AF8  2AFA               	goto	u5031
  4045  0AF9  2AFB               	goto	u5030
  4046  0AFA                     u5031:
  4047  0AFA  2BE3               	goto	l3116
  4048  0AFB                     u5030:
  4049  0AFB                     l3110:
  4050                           
  4051                           ;C:\Program Files\Microchip\xc8\v2.36\pic\sources\c90\common\doprnt.c: 445:   return _po
      +                          wers_[(unsigned char)(scl/100+18)] * _powers_[(unsigned char)((scl%100)/10+9)] * _powers
      +                          _[(unsigned char)(scl%10)];
  4052  0AFB  300A               	movlw	10
  4053  0AFC  00F7               	movwf	___awdiv@divisor
  4054  0AFD  3000               	movlw	0
  4055  0AFE  00F8               	movwf	___awdiv@divisor+1
  4056  0AFF  0850               	movf	scale@scl,w
  4057  0B00  00F2               	movwf	___awmod@dividend
  4058  0B01  01F3               	clrf	___awmod@dividend+1
  4059  0B02  1BF2               	btfsc	___awmod@dividend,7
  4060  0B03  03F3               	decf	___awmod@dividend+1,f
  4061  0B04  3064               	movlw	100
  4062  0B05  00F0               	movwf	___awmod@divisor
  4063  0B06  3000               	movlw	0
  4064  0B07  00F1               	movwf	___awmod@divisor+1
  4065  0B08  160A  158A  2644  120A  158A  	fcall	___awmod
  4066  0B0D  0871               	movf	?___awmod+1,w
  4067  0B0E  00FA               	movwf	___awdiv@dividend+1
  4068  0B0F  0870               	movf	?___awmod,w
  4069  0B10  00F9               	movwf	___awdiv@dividend
  4070  0B11  160A  158A  2703  120A  158A  	fcall	___awdiv
  4071  0B16  0877               	movf	?___awdiv,w
  4072  0B17  1283               	bcf	3,5	;RP0=0, select bank0
  4073  0B18  1303               	bcf	3,6	;RP1=0, select bank0
  4074  0B19  00C2               	movwf	??_scale
  4075  0B1A  3001               	movlw	1
  4076  0B1B                     u5045:
  4077  0B1B  1003               	clrc
  4078  0B1C  0DC2               	rlf	??_scale,f
  4079  0B1D  3EFF               	addlw	-1
  4080  0B1E  1D03               	skipz
  4081  0B1F  2B1B               	goto	u5045
  4082  0B20  1003               	clrc
  4083  0B21  0D42               	rlf	??_scale,w
  4084  0B22  3E25               	addlw	low (((__powers_-__stringbase)| (0+32768)+36))
  4085  0B23  0084               	movwf	4
  4086  0B24  160A  158A  2000  120A  158A  	fcall	stringdir
  4087  0B29  00C3               	movwf	??_scale+1
  4088  0B2A  160A  158A  2000  120A  158A  	fcall	stringdir
  4089  0B2F  00C4               	movwf	??_scale+2
  4090  0B30  160A  158A  2000  120A  158A  	fcall	stringdir
  4091  0B35  00C5               	movwf	??_scale+3
  4092  0B36  160A  158A  2000  120A  158A  	fcall	stringdir
  4093  0B3B  00C6               	movwf	??_scale+4
  4094  0B3C  0846               	movf	??_scale+4,w
  4095  0B3D  00A7               	movwf	___flmul@b+3
  4096  0B3E  0845               	movf	??_scale+3,w
  4097  0B3F  00A6               	movwf	___flmul@b+2
  4098  0B40  0844               	movf	??_scale+2,w
  4099  0B41  00A5               	movwf	___flmul@b+1
  4100  0B42  0843               	movf	??_scale+1,w
  4101  0B43  00A4               	movwf	___flmul@b
  4102  0B44  3064               	movlw	100
  4103  0B45  00F7               	movwf	___awdiv@divisor
  4104  0B46  3000               	movlw	0
  4105  0B47  00F8               	movwf	___awdiv@divisor+1
  4106  0B48  0850               	movf	scale@scl,w
  4107  0B49  00F9               	movwf	___awdiv@dividend
  4108  0B4A  01FA               	clrf	___awdiv@dividend+1
  4109  0B4B  1BF9               	btfsc	___awdiv@dividend,7
  4110  0B4C  03FA               	decf	___awdiv@dividend+1,f
  4111  0B4D  160A  158A  2703  120A  158A  	fcall	___awdiv
  4112  0B52  0877               	movf	?___awdiv,w
  4113  0B53  1283               	bcf	3,5	;RP0=0, select bank0
  4114  0B54  1303               	bcf	3,6	;RP1=0, select bank0
  4115  0B55  00C7               	movwf	??_scale+5
  4116  0B56  3001               	movlw	1
  4117  0B57                     u5055:
  4118  0B57  1003               	clrc
  4119  0B58  0DC7               	rlf	??_scale+5,f
  4120  0B59  3EFF               	addlw	-1
  4121  0B5A  1D03               	skipz
  4122  0B5B  2B57               	goto	u5055
  4123  0B5C  1003               	clrc
  4124  0B5D  0D47               	rlf	??_scale+5,w
  4125  0B5E  3E49               	addlw	low (((__powers_-__stringbase)| (0+32768)+72))
  4126  0B5F  0084               	movwf	4
  4127  0B60  160A  158A  2000  120A  158A  	fcall	stringdir
  4128  0B65  00C8               	movwf	??_scale+6
  4129  0B66  160A  158A  2000  120A  158A  	fcall	stringdir
  4130  0B6B  00C9               	movwf	??_scale+7
  4131  0B6C  160A  158A  2000  120A  158A  	fcall	stringdir
  4132  0B71  00CA               	movwf	??_scale+8
  4133  0B72  160A  158A  2000  120A  158A  	fcall	stringdir
  4134  0B77  00CB               	movwf	??_scale+9
  4135  0B78  084B               	movf	??_scale+9,w
  4136  0B79  00AB               	movwf	___flmul@a+3
  4137  0B7A  084A               	movf	??_scale+8,w
  4138  0B7B  00AA               	movwf	___flmul@a+2
  4139  0B7C  0849               	movf	??_scale+7,w
  4140  0B7D  00A9               	movwf	___flmul@a+1
  4141  0B7E  0848               	movf	??_scale+6,w
  4142  0B7F  00A8               	movwf	___flmul@a
  4143  0B80  120A  158A  249F  120A  158A  	fcall	___flmul
  4144  0B85  1283               	bcf	3,5	;RP0=0, select bank0
  4145  0B86  1303               	bcf	3,6	;RP1=0, select bank0
  4146  0B87  0827               	movf	?___flmul+3,w
  4147  0B88  00CF               	movwf	_scale$1003+3
  4148  0B89  0826               	movf	?___flmul+2,w
  4149  0B8A  00CE               	movwf	_scale$1003+2
  4150  0B8B  0825               	movf	?___flmul+1,w
  4151  0B8C  00CD               	movwf	_scale$1003+1
  4152  0B8D  0824               	movf	?___flmul,w
  4153  0B8E  00CC               	movwf	_scale$1003
  4154                           
  4155                           ;C:\Program Files\Microchip\xc8\v2.36\pic\sources\c90\common\doprnt.c: 445:   return _po
      +                          wers_[(unsigned char)(scl/100+18)] * _powers_[(unsigned char)((scl%100)/10+9)] * _powers
      +                          _[(unsigned char)(scl%10)];
  4156  0B8F  300A               	movlw	10
  4157  0B90  00F0               	movwf	___awmod@divisor
  4158  0B91  3000               	movlw	0
  4159  0B92  00F1               	movwf	___awmod@divisor+1
  4160  0B93  0850               	movf	scale@scl,w
  4161  0B94  00F2               	movwf	___awmod@dividend
  4162  0B95  01F3               	clrf	___awmod@dividend+1
  4163  0B96  1BF2               	btfsc	___awmod@dividend,7
  4164  0B97  03F3               	decf	___awmod@dividend+1,f
  4165  0B98  160A  158A  2644  120A  158A  	fcall	___awmod
  4166  0B9D  0870               	movf	?___awmod,w
  4167  0B9E  1283               	bcf	3,5	;RP0=0, select bank0
  4168  0B9F  1303               	bcf	3,6	;RP1=0, select bank0
  4169  0BA0  00C2               	movwf	??_scale
  4170  0BA1  3001               	movlw	1
  4171  0BA2                     u5065:
  4172  0BA2  1003               	clrc
  4173  0BA3  0DC2               	rlf	??_scale,f
  4174  0BA4  3EFF               	addlw	-1
  4175  0BA5  1D03               	skipz
  4176  0BA6  2BA2               	goto	u5065
  4177  0BA7  1003               	clrc
  4178  0BA8  0D42               	rlf	??_scale,w
  4179  0BA9  3E01               	addlw	low ((__powers_-__stringbase)| (0+32768))
  4180  0BAA  0084               	movwf	4
  4181  0BAB  160A  158A  2000  120A  158A  	fcall	stringdir
  4182  0BB0  00C3               	movwf	??_scale+1
  4183  0BB1  160A  158A  2000  120A  158A  	fcall	stringdir
  4184  0BB6  00C4               	movwf	??_scale+2
  4185  0BB7  160A  158A  2000  120A  158A  	fcall	stringdir
  4186  0BBC  00C5               	movwf	??_scale+3
  4187  0BBD  160A  158A  2000  120A  158A  	fcall	stringdir
  4188  0BC2  00C6               	movwf	??_scale+4
  4189  0BC3  0846               	movf	??_scale+4,w
  4190  0BC4  00A7               	movwf	___flmul@b+3
  4191  0BC5  0845               	movf	??_scale+3,w
  4192  0BC6  00A6               	movwf	___flmul@b+2
  4193  0BC7  0844               	movf	??_scale+2,w
  4194  0BC8  00A5               	movwf	___flmul@b+1
  4195  0BC9  0843               	movf	??_scale+1,w
  4196  0BCA  00A4               	movwf	___flmul@b
  4197  0BCB  084F               	movf	_scale$1003+3,w
  4198  0BCC  00AB               	movwf	___flmul@a+3
  4199  0BCD  084E               	movf	_scale$1003+2,w
  4200  0BCE  00AA               	movwf	___flmul@a+2
  4201  0BCF  084D               	movf	_scale$1003+1,w
  4202  0BD0  00A9               	movwf	___flmul@a+1
  4203  0BD1  084C               	movf	_scale$1003,w
  4204  0BD2  00A8               	movwf	___flmul@a
  4205  0BD3  120A  158A  249F  120A  158A  	fcall	___flmul
  4206  0BD8  1283               	bcf	3,5	;RP0=0, select bank0
  4207  0BD9  1303               	bcf	3,6	;RP1=0, select bank0
  4208  0BDA  0827               	movf	?___flmul+3,w
  4209  0BDB  00C1               	movwf	?_scale+3
  4210  0BDC  0826               	movf	?___flmul+2,w
  4211  0BDD  00C0               	movwf	?_scale+2
  4212  0BDE  0825               	movf	?___flmul+1,w
  4213  0BDF  00BF               	movwf	?_scale+1
  4214  0BE0  0824               	movf	?___flmul,w
  4215  0BE1  00BE               	movwf	?_scale
  4216  0BE2  2C9E               	goto	l724
  4217  0BE3                     l3116:
  4218  0BE3  0850               	movf	scale@scl,w
  4219  0BE4  3A80               	xorlw	128
  4220  0BE5  3E75               	addlw	-139
  4221  0BE6  1C03               	skipc
  4222  0BE7  2BE9               	goto	u5071
  4223  0BE8  2BEA               	goto	u5070
  4224  0BE9                     u5071:
  4225  0BE9  2C72               	goto	l3122
  4226  0BEA                     u5070:
  4227  0BEA                     l3118:
  4228                           
  4229                           ;C:\Program Files\Microchip\xc8\v2.36\pic\sources\c90\common\doprnt.c: 447:   return _po
      +                          wers_[(unsigned char)(scl/10+9)] * _powers_[(unsigned char)(scl%10)];
  4230  0BEA  300A               	movlw	10
  4231  0BEB  00F0               	movwf	___awmod@divisor
  4232  0BEC  3000               	movlw	0
  4233  0BED  00F1               	movwf	___awmod@divisor+1
  4234  0BEE  0850               	movf	scale@scl,w
  4235  0BEF  00F2               	movwf	___awmod@dividend
  4236  0BF0  01F3               	clrf	___awmod@dividend+1
  4237  0BF1  1BF2               	btfsc	___awmod@dividend,7
  4238  0BF2  03F3               	decf	___awmod@dividend+1,f
  4239  0BF3  160A  158A  2644  120A  158A  	fcall	___awmod
  4240  0BF8  0870               	movf	?___awmod,w
  4241  0BF9  1283               	bcf	3,5	;RP0=0, select bank0
  4242  0BFA  1303               	bcf	3,6	;RP1=0, select bank0
  4243  0BFB  00C2               	movwf	??_scale
  4244  0BFC  3001               	movlw	1
  4245  0BFD                     u5085:
  4246  0BFD  1003               	clrc
  4247  0BFE  0DC2               	rlf	??_scale,f
  4248  0BFF  3EFF               	addlw	-1
  4249  0C00  1D03               	skipz
  4250  0C01  2BFD               	goto	u5085
  4251  0C02  1003               	clrc
  4252  0C03  0D42               	rlf	??_scale,w
  4253  0C04  3E01               	addlw	low ((__powers_-__stringbase)| (0+32768))
  4254  0C05  0084               	movwf	4
  4255  0C06  160A  158A  2000  120A  158A  	fcall	stringdir
  4256  0C0B  00C3               	movwf	??_scale+1
  4257  0C0C  160A  158A  2000  120A  158A  	fcall	stringdir
  4258  0C11  00C4               	movwf	??_scale+2
  4259  0C12  160A  158A  2000  120A  158A  	fcall	stringdir
  4260  0C17  00C5               	movwf	??_scale+3
  4261  0C18  160A  158A  2000  120A  158A  	fcall	stringdir
  4262  0C1D  00C6               	movwf	??_scale+4
  4263  0C1E  0846               	movf	??_scale+4,w
  4264  0C1F  00A7               	movwf	___flmul@b+3
  4265  0C20  0845               	movf	??_scale+3,w
  4266  0C21  00A6               	movwf	___flmul@b+2
  4267  0C22  0844               	movf	??_scale+2,w
  4268  0C23  00A5               	movwf	___flmul@b+1
  4269  0C24  0843               	movf	??_scale+1,w
  4270  0C25  00A4               	movwf	___flmul@b
  4271  0C26  300A               	movlw	10
  4272  0C27  00F7               	movwf	___awdiv@divisor
  4273  0C28  3000               	movlw	0
  4274  0C29  00F8               	movwf	___awdiv@divisor+1
  4275  0C2A  0850               	movf	scale@scl,w
  4276  0C2B  00F9               	movwf	___awdiv@dividend
  4277  0C2C  01FA               	clrf	___awdiv@dividend+1
  4278  0C2D  1BF9               	btfsc	___awdiv@dividend,7
  4279  0C2E  03FA               	decf	___awdiv@dividend+1,f
  4280  0C2F  160A  158A  2703  120A  158A  	fcall	___awdiv
  4281  0C34  0877               	movf	?___awdiv,w
  4282  0C35  1283               	bcf	3,5	;RP0=0, select bank0
  4283  0C36  1303               	bcf	3,6	;RP1=0, select bank0
  4284  0C37  00C7               	movwf	??_scale+5
  4285  0C38  3001               	movlw	1
  4286  0C39                     u5095:
  4287  0C39  1003               	clrc
  4288  0C3A  0DC7               	rlf	??_scale+5,f
  4289  0C3B  3EFF               	addlw	-1
  4290  0C3C  1D03               	skipz
  4291  0C3D  2C39               	goto	u5095
  4292  0C3E  1003               	clrc
  4293  0C3F  0D47               	rlf	??_scale+5,w
  4294  0C40  3E25               	addlw	low (((__powers_-__stringbase)| (0+32768)+36))
  4295  0C41  0084               	movwf	4
  4296  0C42  160A  158A  2000  120A  158A  	fcall	stringdir
  4297  0C47  00C8               	movwf	??_scale+6
  4298  0C48  160A  158A  2000  120A  158A  	fcall	stringdir
  4299  0C4D  00C9               	movwf	??_scale+7
  4300  0C4E  160A  158A  2000  120A  158A  	fcall	stringdir
  4301  0C53  00CA               	movwf	??_scale+8
  4302  0C54  160A  158A  2000  120A  158A  	fcall	stringdir
  4303  0C59  00CB               	movwf	??_scale+9
  4304  0C5A  084B               	movf	??_scale+9,w
  4305  0C5B  00AB               	movwf	___flmul@a+3
  4306  0C5C  084A               	movf	??_scale+8,w
  4307  0C5D  00AA               	movwf	___flmul@a+2
  4308  0C5E  0849               	movf	??_scale+7,w
  4309  0C5F  00A9               	movwf	___flmul@a+1
  4310  0C60  0848               	movf	??_scale+6,w
  4311  0C61  00A8               	movwf	___flmul@a
  4312  0C62  120A  158A  249F  120A  158A  	fcall	___flmul
  4313  0C67  1283               	bcf	3,5	;RP0=0, select bank0
  4314  0C68  1303               	bcf	3,6	;RP1=0, select bank0
  4315  0C69  0827               	movf	?___flmul+3,w
  4316  0C6A  00C1               	movwf	?_scale+3
  4317  0C6B  0826               	movf	?___flmul+2,w
  4318  0C6C  00C0               	movwf	?_scale+2
  4319  0C6D  0825               	movf	?___flmul+1,w
  4320  0C6E  00BF               	movwf	?_scale+1
  4321  0C6F  0824               	movf	?___flmul,w
  4322  0C70  00BE               	movwf	?_scale
  4323  0C71  2C9E               	goto	l724
  4324  0C72                     l3122:
  4325                           
  4326                           ;C:\Program Files\Microchip\xc8\v2.36\pic\sources\c90\common\doprnt.c: 448:  return _pow
      +                          ers_[(unsigned char)scl];
  4327  0C72  0850               	movf	scale@scl,w
  4328  0C73  00C2               	movwf	??_scale
  4329  0C74  3001               	movlw	1
  4330  0C75                     u5105:
  4331  0C75  1003               	clrc
  4332  0C76  0DC2               	rlf	??_scale,f
  4333  0C77  3EFF               	addlw	-1
  4334  0C78  1D03               	skipz
  4335  0C79  2C75               	goto	u5105
  4336  0C7A  1003               	clrc
  4337  0C7B  0D42               	rlf	??_scale,w
  4338  0C7C  3E01               	addlw	low ((__powers_-__stringbase)| (0+32768))
  4339  0C7D  0084               	movwf	4
  4340  0C7E  160A  158A  2000  120A  158A  	fcall	stringdir
  4341  0C83  00C3               	movwf	??_scale+1
  4342  0C84  160A  158A  2000  120A  158A  	fcall	stringdir
  4343  0C89  00C4               	movwf	??_scale+2
  4344  0C8A  160A  158A  2000  120A  158A  	fcall	stringdir
  4345  0C8F  00C5               	movwf	??_scale+3
  4346  0C90  160A  158A  2000  120A  158A  	fcall	stringdir
  4347  0C95  00C6               	movwf	??_scale+4
  4348  0C96  0846               	movf	??_scale+4,w
  4349  0C97  00C1               	movwf	?_scale+3
  4350  0C98  0845               	movf	??_scale+3,w
  4351  0C99  00C0               	movwf	?_scale+2
  4352  0C9A  0844               	movf	??_scale+2,w
  4353  0C9B  00BF               	movwf	?_scale+1
  4354  0C9C  0843               	movf	??_scale+1,w
  4355  0C9D  00BE               	movwf	?_scale
  4356  0C9E                     l724:
  4357  0C9E  0008               	return
  4358  0C9F                     __end_of_scale:
  4359                           
  4360                           	psect	text5
  4361  1E44                     __ptext5:	
  4362 ;; *************** function ___awmod *****************
  4363 ;; Defined at:
  4364 ;;		line 5 in file "C:\Program Files\Microchip\xc8\v2.36\pic\sources\c90\common\awmod.c"
  4365 ;; Parameters:    Size  Location     Type
  4366 ;;  divisor         2    0[COMMON] int 
  4367 ;;  dividend        2    2[COMMON] int 
  4368 ;; Auto vars:     Size  Location     Type
  4369 ;;  sign            1    6[COMMON] unsigned char 
  4370 ;;  counter         1    5[COMMON] unsigned char 
  4371 ;; Return value:  Size  Location     Type
  4372 ;;                  2    0[COMMON] int 
  4373 ;; Registers used:
  4374 ;;		wreg, status,2, status,0
  4375 ;; Tracked objects:
  4376 ;;		On entry : 0/0
  4377 ;;		On exit  : 0/0
  4378 ;;		Unchanged: 0/0
  4379 ;; Data sizes:     COMMON   BANK0   BANK1   BANK3   BANK2
  4380 ;;      Params:         4       0       0       0       0
  4381 ;;      Locals:         2       0       0       0       0
  4382 ;;      Temps:          1       0       0       0       0
  4383 ;;      Totals:         7       0       0       0       0
  4384 ;;Total ram usage:        7 bytes
  4385 ;; Hardware stack levels used: 1
  4386 ;; This function calls:
  4387 ;;		Nothing
  4388 ;; This function is called by:
  4389 ;;		_scale
  4390 ;; This function uses a non-reentrant model
  4391 ;;
  4392                           
  4393  1E44                     ___awmod:	
  4394                           ;psect for function ___awmod
  4395                           
  4396  1E44                     l2446:	
  4397                           ;incstack = 0
  4398                           ; Regs used in ___awmod: [wreg+status,2+status,0]
  4399                           
  4400  1E44  01F6               	clrf	___awmod@sign
  4401  1E45                     l2448:
  4402  1E45  1FF3               	btfss	___awmod@dividend+1,7
  4403  1E46  2E48               	goto	u3271
  4404  1E47  2E49               	goto	u3270
  4405  1E48                     u3271:
  4406  1E48  2E50               	goto	l2454
  4407  1E49                     u3270:
  4408  1E49                     l2450:
  4409  1E49  09F2               	comf	___awmod@dividend,f
  4410  1E4A  09F3               	comf	___awmod@dividend+1,f
  4411  1E4B  0AF2               	incf	___awmod@dividend,f
  4412  1E4C  1903               	skipnz
  4413  1E4D  0AF3               	incf	___awmod@dividend+1,f
  4414  1E4E                     l2452:
  4415  1E4E  01F6               	clrf	___awmod@sign
  4416  1E4F  0AF6               	incf	___awmod@sign,f
  4417  1E50                     l2454:
  4418  1E50  1FF1               	btfss	___awmod@divisor+1,7
  4419  1E51  2E53               	goto	u3281
  4420  1E52  2E54               	goto	u3280
  4421  1E53                     u3281:
  4422  1E53  2E59               	goto	l2458
  4423  1E54                     u3280:
  4424  1E54                     l2456:
  4425  1E54  09F0               	comf	___awmod@divisor,f
  4426  1E55  09F1               	comf	___awmod@divisor+1,f
  4427  1E56  0AF0               	incf	___awmod@divisor,f
  4428  1E57  1903               	skipnz
  4429  1E58  0AF1               	incf	___awmod@divisor+1,f
  4430  1E59                     l2458:
  4431  1E59  0870               	movf	___awmod@divisor,w
  4432  1E5A  0471               	iorwf	___awmod@divisor+1,w
  4433  1E5B  1903               	btfsc	3,2
  4434  1E5C  2E5E               	goto	u3291
  4435  1E5D  2E5F               	goto	u3290
  4436  1E5E                     u3291:
  4437  1E5E  2E8E               	goto	l2476
  4438  1E5F                     u3290:
  4439  1E5F                     l2460:
  4440  1E5F  01F5               	clrf	___awmod@counter
  4441  1E60  0AF5               	incf	___awmod@counter,f
  4442  1E61  2E6D               	goto	l2466
  4443  1E62                     l2462:
  4444  1E62  3001               	movlw	1
  4445  1E63                     u3305:
  4446  1E63  1003               	clrc
  4447  1E64  0DF0               	rlf	___awmod@divisor,f
  4448  1E65  0DF1               	rlf	___awmod@divisor+1,f
  4449  1E66  3EFF               	addlw	-1
  4450  1E67  1D03               	skipz
  4451  1E68  2E63               	goto	u3305
  4452  1E69                     l2464:
  4453  1E69  3001               	movlw	1
  4454  1E6A  00F4               	movwf	??___awmod
  4455  1E6B  0874               	movf	??___awmod,w
  4456  1E6C  07F5               	addwf	___awmod@counter,f
  4457  1E6D                     l2466:
  4458  1E6D  1FF1               	btfss	___awmod@divisor+1,7
  4459  1E6E  2E70               	goto	u3311
  4460  1E6F  2E71               	goto	u3310
  4461  1E70                     u3311:
  4462  1E70  2E62               	goto	l2462
  4463  1E71                     u3310:
  4464  1E71                     l2468:
  4465  1E71  0871               	movf	___awmod@divisor+1,w
  4466  1E72  0273               	subwf	___awmod@dividend+1,w
  4467  1E73  1D03               	skipz
  4468  1E74  2E77               	goto	u3325
  4469  1E75  0870               	movf	___awmod@divisor,w
  4470  1E76  0272               	subwf	___awmod@dividend,w
  4471  1E77                     u3325:
  4472  1E77  1C03               	skipc
  4473  1E78  2E7A               	goto	u3321
  4474  1E79  2E7B               	goto	u3320
  4475  1E7A                     u3321:
  4476  1E7A  2E81               	goto	l2472
  4477  1E7B                     u3320:
  4478  1E7B                     l2470:
  4479  1E7B  0870               	movf	___awmod@divisor,w
  4480  1E7C  02F2               	subwf	___awmod@dividend,f
  4481  1E7D  0871               	movf	___awmod@divisor+1,w
  4482  1E7E  1C03               	skipc
  4483  1E7F  03F3               	decf	___awmod@dividend+1,f
  4484  1E80  02F3               	subwf	___awmod@dividend+1,f
  4485  1E81                     l2472:
  4486  1E81  3001               	movlw	1
  4487  1E82                     u3335:
  4488  1E82  1003               	clrc
  4489  1E83  0CF1               	rrf	___awmod@divisor+1,f
  4490  1E84  0CF0               	rrf	___awmod@divisor,f
  4491  1E85  3EFF               	addlw	-1
  4492  1E86  1D03               	skipz
  4493  1E87  2E82               	goto	u3335
  4494  1E88                     l2474:
  4495  1E88  3001               	movlw	1
  4496  1E89  02F5               	subwf	___awmod@counter,f
  4497  1E8A  1D03               	btfss	3,2
  4498  1E8B  2E8D               	goto	u3341
  4499  1E8C  2E8E               	goto	u3340
  4500  1E8D                     u3341:
  4501  1E8D  2E71               	goto	l2468
  4502  1E8E                     u3340:
  4503  1E8E                     l2476:
  4504  1E8E  0876               	movf	___awmod@sign,w
  4505  1E8F  1903               	btfsc	3,2
  4506  1E90  2E92               	goto	u3351
  4507  1E91  2E93               	goto	u3350
  4508  1E92                     u3351:
  4509  1E92  2E98               	goto	l2480
  4510  1E93                     u3350:
  4511  1E93                     l2478:
  4512  1E93  09F2               	comf	___awmod@dividend,f
  4513  1E94  09F3               	comf	___awmod@dividend+1,f
  4514  1E95  0AF2               	incf	___awmod@dividend,f
  4515  1E96  1903               	skipnz
  4516  1E97  0AF3               	incf	___awmod@dividend+1,f
  4517  1E98                     l2480:
  4518  1E98  0873               	movf	___awmod@dividend+1,w
  4519  1E99  00F1               	movwf	?___awmod+1
  4520  1E9A  0872               	movf	___awmod@dividend,w
  4521  1E9B  00F0               	movwf	?___awmod
  4522  1E9C                     l408:
  4523  1E9C  0008               	return
  4524  1E9D                     __end_of___awmod:
  4525                           
  4526                           	psect	text6
  4527  1F03                     __ptext6:	
  4528 ;; *************** function ___awdiv *****************
  4529 ;; Defined at:
  4530 ;;		line 5 in file "C:\Program Files\Microchip\xc8\v2.36\pic\sources\c90\common\awdiv.c"
  4531 ;; Parameters:    Size  Location     Type
  4532 ;;  divisor         2    7[COMMON] int 
  4533 ;;  dividend        2    9[COMMON] int 
  4534 ;; Auto vars:     Size  Location     Type
  4535 ;;  quotient        2    2[BANK0 ] int 
  4536 ;;  sign            1    1[BANK0 ] unsigned char 
  4537 ;;  counter         1    0[BANK0 ] unsigned char 
  4538 ;; Return value:  Size  Location     Type
  4539 ;;                  2    7[COMMON] int 
  4540 ;; Registers used:
  4541 ;;		wreg, status,2, status,0
  4542 ;; Tracked objects:
  4543 ;;		On entry : 0/0
  4544 ;;		On exit  : 0/0
  4545 ;;		Unchanged: 0/0
  4546 ;; Data sizes:     COMMON   BANK0   BANK1   BANK3   BANK2
  4547 ;;      Params:         4       0       0       0       0
  4548 ;;      Locals:         0       4       0       0       0
  4549 ;;      Temps:          1       0       0       0       0
  4550 ;;      Totals:         5       4       0       0       0
  4551 ;;Total ram usage:        9 bytes
  4552 ;; Hardware stack levels used: 1
  4553 ;; This function calls:
  4554 ;;		Nothing
  4555 ;; This function is called by:
  4556 ;;		_scale
  4557 ;;		__doprnt
  4558 ;; This function uses a non-reentrant model
  4559 ;;
  4560                           
  4561  1F03                     ___awdiv:	
  4562                           ;psect for function ___awdiv
  4563                           
  4564  1F03                     l2402:	
  4565                           ;incstack = 0
  4566                           ; Regs used in ___awdiv: [wreg+status,2+status,0]
  4567                           
  4568  1F03  1283               	bcf	3,5	;RP0=0, select bank0
  4569  1F04  1303               	bcf	3,6	;RP1=0, select bank0
  4570  1F05  01A1               	clrf	___awdiv@sign
  4571  1F06                     l2404:
  4572  1F06  1FF8               	btfss	___awdiv@divisor+1,7
  4573  1F07  2F09               	goto	u3171
  4574  1F08  2F0A               	goto	u3170
  4575  1F09                     u3171:
  4576  1F09  2F11               	goto	l2410
  4577  1F0A                     u3170:
  4578  1F0A                     l2406:
  4579  1F0A  09F7               	comf	___awdiv@divisor,f
  4580  1F0B  09F8               	comf	___awdiv@divisor+1,f
  4581  1F0C  0AF7               	incf	___awdiv@divisor,f
  4582  1F0D  1903               	skipnz
  4583  1F0E  0AF8               	incf	___awdiv@divisor+1,f
  4584  1F0F                     l2408:
  4585  1F0F  01A1               	clrf	___awdiv@sign
  4586  1F10  0AA1               	incf	___awdiv@sign,f
  4587  1F11                     l2410:
  4588  1F11  1FFA               	btfss	___awdiv@dividend+1,7
  4589  1F12  2F14               	goto	u3181
  4590  1F13  2F15               	goto	u3180
  4591  1F14                     u3181:
  4592  1F14  2F1E               	goto	l2416
  4593  1F15                     u3180:
  4594  1F15                     l2412:
  4595  1F15  09F9               	comf	___awdiv@dividend,f
  4596  1F16  09FA               	comf	___awdiv@dividend+1,f
  4597  1F17  0AF9               	incf	___awdiv@dividend,f
  4598  1F18  1903               	skipnz
  4599  1F19  0AFA               	incf	___awdiv@dividend+1,f
  4600  1F1A                     l2414:
  4601  1F1A  3001               	movlw	1
  4602  1F1B  00FB               	movwf	??___awdiv
  4603  1F1C  087B               	movf	??___awdiv,w
  4604  1F1D  06A1               	xorwf	___awdiv@sign,f
  4605  1F1E                     l2416:
  4606  1F1E  01A2               	clrf	___awdiv@quotient
  4607  1F1F  01A3               	clrf	___awdiv@quotient+1
  4608  1F20                     l2418:
  4609  1F20  0877               	movf	___awdiv@divisor,w
  4610  1F21  0478               	iorwf	___awdiv@divisor+1,w
  4611  1F22  1903               	btfsc	3,2
  4612  1F23  2F25               	goto	u3191
  4613  1F24  2F26               	goto	u3190
  4614  1F25                     u3191:
  4615  1F25  2F5D               	goto	l2438
  4616  1F26                     u3190:
  4617  1F26                     l2420:
  4618  1F26  01A0               	clrf	___awdiv@counter
  4619  1F27  0AA0               	incf	___awdiv@counter,f
  4620  1F28  2F34               	goto	l2426
  4621  1F29                     l2422:
  4622  1F29  3001               	movlw	1
  4623  1F2A                     u3205:
  4624  1F2A  1003               	clrc
  4625  1F2B  0DF7               	rlf	___awdiv@divisor,f
  4626  1F2C  0DF8               	rlf	___awdiv@divisor+1,f
  4627  1F2D  3EFF               	addlw	-1
  4628  1F2E  1D03               	skipz
  4629  1F2F  2F2A               	goto	u3205
  4630  1F30                     l2424:
  4631  1F30  3001               	movlw	1
  4632  1F31  00FB               	movwf	??___awdiv
  4633  1F32  087B               	movf	??___awdiv,w
  4634  1F33  07A0               	addwf	___awdiv@counter,f
  4635  1F34                     l2426:
  4636  1F34  1FF8               	btfss	___awdiv@divisor+1,7
  4637  1F35  2F37               	goto	u3211
  4638  1F36  2F38               	goto	u3210
  4639  1F37                     u3211:
  4640  1F37  2F29               	goto	l2422
  4641  1F38                     u3210:
  4642  1F38                     l2428:
  4643  1F38  3001               	movlw	1
  4644  1F39                     u3225:
  4645  1F39  1003               	clrc
  4646  1F3A  0DA2               	rlf	___awdiv@quotient,f
  4647  1F3B  0DA3               	rlf	___awdiv@quotient+1,f
  4648  1F3C  3EFF               	addlw	-1
  4649  1F3D  1D03               	skipz
  4650  1F3E  2F39               	goto	u3225
  4651  1F3F  0878               	movf	___awdiv@divisor+1,w
  4652  1F40  027A               	subwf	___awdiv@dividend+1,w
  4653  1F41  1D03               	skipz
  4654  1F42  2F45               	goto	u3235
  4655  1F43  0877               	movf	___awdiv@divisor,w
  4656  1F44  0279               	subwf	___awdiv@dividend,w
  4657  1F45                     u3235:
  4658  1F45  1C03               	skipc
  4659  1F46  2F48               	goto	u3231
  4660  1F47  2F49               	goto	u3230
  4661  1F48                     u3231:
  4662  1F48  2F50               	goto	l2434
  4663  1F49                     u3230:
  4664  1F49                     l2430:
  4665  1F49  0877               	movf	___awdiv@divisor,w
  4666  1F4A  02F9               	subwf	___awdiv@dividend,f
  4667  1F4B  0878               	movf	___awdiv@divisor+1,w
  4668  1F4C  1C03               	skipc
  4669  1F4D  03FA               	decf	___awdiv@dividend+1,f
  4670  1F4E  02FA               	subwf	___awdiv@dividend+1,f
  4671  1F4F                     l2432:
  4672  1F4F  1422               	bsf	___awdiv@quotient,0
  4673  1F50                     l2434:
  4674  1F50  3001               	movlw	1
  4675  1F51                     u3245:
  4676  1F51  1003               	clrc
  4677  1F52  0CF8               	rrf	___awdiv@divisor+1,f
  4678  1F53  0CF7               	rrf	___awdiv@divisor,f
  4679  1F54  3EFF               	addlw	-1
  4680  1F55  1D03               	skipz
  4681  1F56  2F51               	goto	u3245
  4682  1F57                     l2436:
  4683  1F57  3001               	movlw	1
  4684  1F58  02A0               	subwf	___awdiv@counter,f
  4685  1F59  1D03               	btfss	3,2
  4686  1F5A  2F5C               	goto	u3251
  4687  1F5B  2F5D               	goto	u3250
  4688  1F5C                     u3251:
  4689  1F5C  2F38               	goto	l2428
  4690  1F5D                     u3250:
  4691  1F5D                     l2438:
  4692  1F5D  0821               	movf	___awdiv@sign,w
  4693  1F5E  1903               	btfsc	3,2
  4694  1F5F  2F61               	goto	u3261
  4695  1F60  2F62               	goto	u3260
  4696  1F61                     u3261:
  4697  1F61  2F67               	goto	l2442
  4698  1F62                     u3260:
  4699  1F62                     l2440:
  4700  1F62  09A2               	comf	___awdiv@quotient,f
  4701  1F63  09A3               	comf	___awdiv@quotient+1,f
  4702  1F64  0AA2               	incf	___awdiv@quotient,f
  4703  1F65  1903               	skipnz
  4704  1F66  0AA3               	incf	___awdiv@quotient+1,f
  4705  1F67                     l2442:
  4706  1F67  0823               	movf	___awdiv@quotient+1,w
  4707  1F68  00F8               	movwf	?___awdiv+1
  4708  1F69  0822               	movf	___awdiv@quotient,w
  4709  1F6A  00F7               	movwf	?___awdiv
  4710  1F6B                     l395:
  4711  1F6B  0008               	return
  4712  1F6C                     __end_of___awdiv:
  4713                           
  4714                           	psect	text7
  4715  1B1D                     __ptext7:	
  4716 ;; *************** function _putch *****************
  4717 ;; Defined at:
  4718 ;;		line 64 in file "newmain.c"
  4719 ;; Parameters:    Size  Location     Type
  4720 ;;  x               1    1[COMMON] unsigned char 
  4721 ;; Auto vars:     Size  Location     Type
  4722 ;;		None
  4723 ;; Return value:  Size  Location     Type
  4724 ;;                  1    wreg      void 
  4725 ;; Registers used:
  4726 ;;		wreg, status,2, status,0, pclath, cstack
  4727 ;; Tracked objects:
  4728 ;;		On entry : 0/0
  4729 ;;		On exit  : 0/0
  4730 ;;		Unchanged: 0/0
  4731 ;; Data sizes:     COMMON   BANK0   BANK1   BANK3   BANK2
  4732 ;;      Params:         1       0       0       0       0
  4733 ;;      Locals:         0       0       0       0       0
  4734 ;;      Temps:          0       0       0       0       0
  4735 ;;      Totals:         1       0       0       0       0
  4736 ;;Total ram usage:        1 bytes
  4737 ;; Hardware stack levels used: 1
  4738 ;; Hardware stack levels required when called: 1
  4739 ;; This function calls:
  4740 ;;		_UART_send_char
  4741 ;; This function is called by:
  4742 ;;		_printf
  4743 ;;		__doprnt
  4744 ;; This function uses a non-reentrant model
  4745 ;;
  4746                           
  4747  1B1D                     _putch:	
  4748                           ;psect for function _putch
  4749                           
  4750  1B1D                     l2866:	
  4751                           ;incstack = 0
  4752                           ; Regs used in _putch: [wreg+status,2+status,0+pclath+cstack]
  4753                           
  4754  1B1D                     l81:	
  4755                           ;newmain.c: 64: void putch(char x);newmain.c: 65: {;newmain.c: 66:     while(!TXIF);
  4756                           
  4757  1B1D  1283               	bcf	3,5	;RP0=0, select bank0
  4758  1B1E  1303               	bcf	3,6	;RP1=0, select bank0
  4759  1B1F  1E0C               	btfss	12,4	;volatile
  4760  1B20  2B22               	goto	u4321
  4761  1B21  2B23               	goto	u4320
  4762  1B22                     u4321:
  4763  1B22  2B1D               	goto	l81
  4764  1B23                     u4320:
  4765  1B23                     l2868:
  4766                           
  4767                           ;newmain.c: 67:     UART_send_char(x);
  4768  1B23  0871               	movf	putch@x,w
  4769  1B24  160A  158A  2308  160A  158A  	fcall	_UART_send_char
  4770  1B29                     l84:
  4771  1B29  0008               	return
  4772  1B2A                     __end_of_putch:
  4773                           
  4774                           	psect	text8
  4775  1B08                     __ptext8:	
  4776 ;; *************** function _UART_send_char *****************
  4777 ;; Defined at:
  4778 ;;		line 44 in file "newmain.c"
  4779 ;; Parameters:    Size  Location     Type
  4780 ;;  bt              1    wreg     unsigned char 
  4781 ;; Auto vars:     Size  Location     Type
  4782 ;;  bt              1    0[COMMON] unsigned char 
  4783 ;; Return value:  Size  Location     Type
  4784 ;;                  1    wreg      void 
  4785 ;; Registers used:
  4786 ;;		wreg
  4787 ;; Tracked objects:
  4788 ;;		On entry : 0/0
  4789 ;;		On exit  : 0/0
  4790 ;;		Unchanged: 0/0
  4791 ;; Data sizes:     COMMON   BANK0   BANK1   BANK3   BANK2
  4792 ;;      Params:         0       0       0       0       0
  4793 ;;      Locals:         1       0       0       0       0
  4794 ;;      Temps:          0       0       0       0       0
  4795 ;;      Totals:         1       0       0       0       0
  4796 ;;Total ram usage:        1 bytes
  4797 ;; Hardware stack levels used: 1
  4798 ;; This function calls:
  4799 ;;		Nothing
  4800 ;; This function is called by:
  4801 ;;		_putch
  4802 ;;		_UART_send_string
  4803 ;; This function uses a non-reentrant model
  4804 ;;
  4805                           
  4806  1B08                     _UART_send_char:	
  4807                           ;psect for function _UART_send_char
  4808                           
  4809                           
  4810                           ;incstack = 0
  4811                           ; Regs used in _UART_send_char: [wreg]
  4812                           ;UART_send_char@bt stored from wreg
  4813  1B08  00F0               	movwf	UART_send_char@bt
  4814  1B09                     l2398:
  4815  1B09                     l62:	
  4816                           ;newmain.c: 44: void UART_send_char(char bt);newmain.c: 45: {;newmain.c: 46:     while(!
      +                          TXIF);
  4817                           
  4818  1B09  1283               	bcf	3,5	;RP0=0, select bank0
  4819  1B0A  1303               	bcf	3,6	;RP1=0, select bank0
  4820  1B0B  1E0C               	btfss	12,4	;volatile
  4821  1B0C  2B0E               	goto	u3161
  4822  1B0D  2B0F               	goto	u3160
  4823  1B0E                     u3161:
  4824  1B0E  2B09               	goto	l62
  4825  1B0F                     u3160:
  4826  1B0F                     l2400:
  4827                           
  4828                           ;newmain.c: 47:     TXREG = bt;
  4829  1B0F  0870               	movf	UART_send_char@bt,w
  4830  1B10  0099               	movwf	25	;volatile
  4831  1B11                     l65:
  4832  1B11  0008               	return
  4833  1B12                     __end_of_UART_send_char:
  4834                           
  4835                           	psect	text9
  4836  1005                     __ptext9:	
  4837 ;; *************** function _isdigit *****************
  4838 ;; Defined at:
  4839 ;;		line 8 in file "C:\Program Files\Microchip\xc8\v2.36\pic\sources\c90\common\isdigit.c"
  4840 ;; Parameters:    Size  Location     Type
  4841 ;;  c               1    wreg     unsigned char 
  4842 ;; Auto vars:     Size  Location     Type
  4843 ;;  c               1    1[COMMON] unsigned char 
  4844 ;; Return value:  Size  Location     Type
  4845 ;;		None               void
  4846 ;; Registers used:
  4847 ;;		wreg, status,2, status,0
  4848 ;; Tracked objects:
  4849 ;;		On entry : 0/0
  4850 ;;		On exit  : 0/0
  4851 ;;		Unchanged: 0/0
  4852 ;; Data sizes:     COMMON   BANK0   BANK1   BANK3   BANK2
  4853 ;;      Params:         0       0       0       0       0
  4854 ;;      Locals:         2       0       0       0       0
  4855 ;;      Temps:          0       0       0       0       0
  4856 ;;      Totals:         2       0       0       0       0
  4857 ;;Total ram usage:        2 bytes
  4858 ;; Hardware stack levels used: 1
  4859 ;; This function calls:
  4860 ;;		Nothing
  4861 ;; This function is called by:
  4862 ;;		__doprnt
  4863 ;; This function uses a non-reentrant model
  4864 ;;
  4865                           
  4866  1005                     _isdigit:	
  4867                           ;psect for function _isdigit
  4868                           
  4869                           
  4870                           ;incstack = 0
  4871                           ; Regs used in _isdigit: [wreg+status,2+status,0]
  4872                           ;isdigit@c stored from wreg
  4873  1005  00F1               	movwf	isdigit@c
  4874  1006                     l3126:
  4875  1006  01F0               	clrf	_isdigit$793
  4876  1007                     l3128:
  4877  1007  303A               	movlw	58
  4878  1008  0271               	subwf	isdigit@c,w
  4879  1009  1803               	skipnc
  4880  100A  280C               	goto	u5111
  4881  100B  280D               	goto	u5110
  4882  100C                     u5111:
  4883  100C  2815               	goto	l3134
  4884  100D                     u5110:
  4885  100D                     l3130:
  4886  100D  3030               	movlw	48
  4887  100E  0271               	subwf	isdigit@c,w
  4888  100F  1C03               	skipc
  4889  1010  2812               	goto	u5121
  4890  1011  2813               	goto	u5120
  4891  1012                     u5121:
  4892  1012  2815               	goto	l3134
  4893  1013                     u5120:
  4894  1013                     l3132:
  4895  1013  01F0               	clrf	_isdigit$793
  4896  1014  0AF0               	incf	_isdigit$793,f
  4897  1015                     l3134:
  4898  1015  0C70               	rrf	_isdigit$793,w
  4899  1016                     l861:
  4900  1016  0008               	return
  4901  1017                     __end_of_isdigit:
  4902                           
  4903                           	psect	text10
  4904  136D                     __ptext10:	
  4905 ;; *************** function _fround *****************
  4906 ;; Defined at:
  4907 ;;		line 417 in file "C:\Program Files\Microchip\xc8\v2.36\pic\sources\c90\common\doprnt.c"
  4908 ;; Parameters:    Size  Location     Type
  4909 ;;  prec            1    wreg     unsigned char 
  4910 ;; Auto vars:     Size  Location     Type
  4911 ;;  prec            1   49[BANK0 ] unsigned char 
  4912 ;; Return value:  Size  Location     Type
  4913 ;;                  4   30[BANK0 ] unsigned char 
  4914 ;; Registers used:
  4915 ;;		wreg, fsr0l, fsr0h, status,2, status,0, btemp+1, pclath, cstack
  4916 ;; Tracked objects:
  4917 ;;		On entry : 0/0
  4918 ;;		On exit  : 0/0
  4919 ;;		Unchanged: 0/0
  4920 ;; Data sizes:     COMMON   BANK0   BANK1   BANK3   BANK2
  4921 ;;      Params:         0       4       0       0       0
  4922 ;;      Locals:         0       9       0       0       0
  4923 ;;      Temps:          0       7       0       0       0
  4924 ;;      Totals:         0      20       0       0       0
  4925 ;;Total ram usage:       20 bytes
  4926 ;; Hardware stack levels used: 1
  4927 ;; Hardware stack levels required when called: 2
  4928 ;; This function calls:
  4929 ;;		___flmul
  4930 ;;		___lwdiv
  4931 ;;		___lwmod
  4932 ;; This function is called by:
  4933 ;;		__doprnt
  4934 ;; This function uses a non-reentrant model
  4935 ;;
  4936                           
  4937  136D                     _fround:	
  4938                           ;psect for function _fround
  4939                           
  4940                           
  4941                           ;incstack = 0
  4942                           ; Regs used in _fround: [wreg-fsr0h+status,2+status,0+btemp+1+pclath+cstack]
  4943                           ;fround@prec stored from wreg
  4944  136D  1283               	bcf	3,5	;RP0=0, select bank0
  4945  136E  1303               	bcf	3,6	;RP1=0, select bank0
  4946  136F  00D1               	movwf	fround@prec
  4947  1370                     l3068:
  4948                           
  4949                           ;C:\Program Files\Microchip\xc8\v2.36\pic\sources\c90\common\doprnt.c: 417: fround(unsig
      +                          ned char prec);C:\Program Files\Microchip\xc8\v2.36\pic\sources\c90\common\doprnt.c: 418
      +                          : {;C:\Program Files\Microchip\xc8\v2.36\pic\sources\c90\common\doprnt.c: 421:  if(prec>
      +                          =110)
  4950  1370  306E               	movlw	110
  4951  1371  0251               	subwf	fround@prec,w
  4952  1372  1C03               	skipc
  4953  1373  2B75               	goto	u4861
  4954  1374  2B76               	goto	u4860
  4955  1375                     u4861:
  4956  1375  2C83               	goto	l3076
  4957  1376                     u4860:
  4958  1376                     l3070:
  4959                           
  4960                           ;C:\Program Files\Microchip\xc8\v2.36\pic\sources\c90\common\doprnt.c: 422:   return 0.5
      +                           * _npowers_[prec/100U+18U] * _npowers_[(prec%100U)/10U+9U] * _npowers_[prec%10U];
  4961  1376  303F               	movlw	63
  4962  1377  00A7               	movwf	___flmul@b+3
  4963  1378  3000               	movlw	0
  4964  1379  00A6               	movwf	___flmul@b+2
  4965  137A  3000               	movlw	0
  4966  137B  00A5               	movwf	___flmul@b+1
  4967  137C  3000               	movlw	0
  4968  137D  00A4               	movwf	___flmul@b
  4969  137E  3064               	movlw	100
  4970  137F  00F6               	movwf	___lwdiv@divisor
  4971  1380  3000               	movlw	0
  4972  1381  00F7               	movwf	___lwdiv@divisor+1
  4973  1382  0851               	movf	fround@prec,w
  4974  1383  00C2               	movwf	??_fround
  4975  1384  01C3               	clrf	??_fround+1
  4976  1385  0842               	movf	??_fround,w
  4977  1386  00F8               	movwf	___lwdiv@dividend
  4978  1387  0843               	movf	??_fround+1,w
  4979  1388  00F9               	movwf	___lwdiv@dividend+1
  4980  1389  160A  158A  255E  160A  118A  	fcall	___lwdiv
  4981  138E  0876               	movf	?___lwdiv,w
  4982  138F  1283               	bcf	3,5	;RP0=0, select bank0
  4983  1390  1303               	bcf	3,6	;RP1=0, select bank0
  4984  1391  00C4               	movwf	??_fround+2
  4985  1392  3001               	movlw	1
  4986  1393                     u4875:
  4987  1393  1003               	clrc
  4988  1394  0DC4               	rlf	??_fround+2,f
  4989  1395  3EFF               	addlw	-1
  4990  1396  1D03               	skipz
  4991  1397  2B93               	goto	u4875
  4992  1398  1003               	clrc
  4993  1399  0D44               	rlf	??_fround+2,w
  4994  139A  3E7D               	addlw	low (((__npowers_-__stringbase)| (0+32768)+72))
  4995  139B  0084               	movwf	4
  4996  139C  160A  158A  2000  160A  118A  	fcall	stringdir
  4997  13A1  00C5               	movwf	??_fround+3
  4998  13A2  160A  158A  2000  160A  118A  	fcall	stringdir
  4999  13A7  00C6               	movwf	??_fround+4
  5000  13A8  160A  158A  2000  160A  118A  	fcall	stringdir
  5001  13AD  00C7               	movwf	??_fround+5
  5002  13AE  160A  158A  2000  160A  118A  	fcall	stringdir
  5003  13B3  00C8               	movwf	??_fround+6
  5004  13B4  0848               	movf	??_fround+6,w
  5005  13B5  00AB               	movwf	___flmul@a+3
  5006  13B6  0847               	movf	??_fround+5,w
  5007  13B7  00AA               	movwf	___flmul@a+2
  5008  13B8  0846               	movf	??_fround+4,w
  5009  13B9  00A9               	movwf	___flmul@a+1
  5010  13BA  0845               	movf	??_fround+3,w
  5011  13BB  00A8               	movwf	___flmul@a
  5012  13BC  120A  158A  249F  160A  118A  	fcall	___flmul
  5013  13C1  1283               	bcf	3,5	;RP0=0, select bank0
  5014  13C2  1303               	bcf	3,6	;RP1=0, select bank0
  5015  13C3  0827               	movf	?___flmul+3,w
  5016  13C4  00D0               	movwf	_fround$1001+3
  5017  13C5  0826               	movf	?___flmul+2,w
  5018  13C6  00CF               	movwf	_fround$1001+2
  5019  13C7  0825               	movf	?___flmul+1,w
  5020  13C8  00CE               	movwf	_fround$1001+1
  5021  13C9  0824               	movf	?___flmul,w
  5022  13CA  00CD               	movwf	_fround$1001
  5023                           
  5024                           ;C:\Program Files\Microchip\xc8\v2.36\pic\sources\c90\common\doprnt.c: 422:   return 0.5
      +                           * _npowers_[prec/100U+18U] * _npowers_[(prec%100U)/10U+9U] * _npowers_[prec%10U];
  5025  13CB  300A               	movlw	10
  5026  13CC  00F6               	movwf	___lwdiv@divisor
  5027  13CD  3000               	movlw	0
  5028  13CE  00F7               	movwf	___lwdiv@divisor+1
  5029  13CF  0851               	movf	fround@prec,w
  5030  13D0  00C2               	movwf	??_fround
  5031  13D1  01C3               	clrf	??_fround+1
  5032  13D2  0842               	movf	??_fround,w
  5033  13D3  00F2               	movwf	___lwmod@dividend
  5034  13D4  0843               	movf	??_fround+1,w
  5035  13D5  00F3               	movwf	___lwmod@dividend+1
  5036  13D6  3064               	movlw	100
  5037  13D7  00F0               	movwf	___lwmod@divisor
  5038  13D8  3000               	movlw	0
  5039  13D9  00F1               	movwf	___lwmod@divisor+1
  5040  13DA  160A  158A  2524  160A  118A  	fcall	___lwmod
  5041  13DF  0871               	movf	?___lwmod+1,w
  5042  13E0  00F9               	movwf	___lwdiv@dividend+1
  5043  13E1  0870               	movf	?___lwmod,w
  5044  13E2  00F8               	movwf	___lwdiv@dividend
  5045  13E3  160A  158A  255E  160A  118A  	fcall	___lwdiv
  5046  13E8  0876               	movf	?___lwdiv,w
  5047  13E9  1283               	bcf	3,5	;RP0=0, select bank0
  5048  13EA  1303               	bcf	3,6	;RP1=0, select bank0
  5049  13EB  00C4               	movwf	??_fround+2
  5050  13EC  3001               	movlw	1
  5051  13ED                     u4885:
  5052  13ED  1003               	clrc
  5053  13EE  0DC4               	rlf	??_fround+2,f
  5054  13EF  3EFF               	addlw	-1
  5055  13F0  1D03               	skipz
  5056  13F1  2BED               	goto	u4885
  5057  13F2  1003               	clrc
  5058  13F3  0D44               	rlf	??_fround+2,w
  5059  13F4  3E59               	addlw	low (((__npowers_-__stringbase)| (0+32768)+36))
  5060  13F5  0084               	movwf	4
  5061  13F6  160A  158A  2000  160A  118A  	fcall	stringdir
  5062  13FB  00C5               	movwf	??_fround+3
  5063  13FC  160A  158A  2000  160A  118A  	fcall	stringdir
  5064  1401  00C6               	movwf	??_fround+4
  5065  1402  160A  158A  2000  160A  118A  	fcall	stringdir
  5066  1407  00C7               	movwf	??_fround+5
  5067  1408  160A  158A  2000  160A  118A  	fcall	stringdir
  5068  140D  00C8               	movwf	??_fround+6
  5069  140E  0848               	movf	??_fround+6,w
  5070  140F  00A7               	movwf	___flmul@b+3
  5071  1410  0847               	movf	??_fround+5,w
  5072  1411  00A6               	movwf	___flmul@b+2
  5073  1412  0846               	movf	??_fround+4,w
  5074  1413  00A5               	movwf	___flmul@b+1
  5075  1414  0845               	movf	??_fround+3,w
  5076  1415  00A4               	movwf	___flmul@b
  5077  1416  0850               	movf	_fround$1001+3,w
  5078  1417  00AB               	movwf	___flmul@a+3
  5079  1418  084F               	movf	_fround$1001+2,w
  5080  1419  00AA               	movwf	___flmul@a+2
  5081  141A  084E               	movf	_fround$1001+1,w
  5082  141B  00A9               	movwf	___flmul@a+1
  5083  141C  084D               	movf	_fround$1001,w
  5084  141D  00A8               	movwf	___flmul@a
  5085  141E  120A  158A  249F  160A  118A  	fcall	___flmul
  5086  1423  1283               	bcf	3,5	;RP0=0, select bank0
  5087  1424  1303               	bcf	3,6	;RP1=0, select bank0
  5088  1425  0827               	movf	?___flmul+3,w
  5089  1426  00CC               	movwf	_fround$1002+3
  5090  1427  0826               	movf	?___flmul+2,w
  5091  1428  00CB               	movwf	_fround$1002+2
  5092  1429  0825               	movf	?___flmul+1,w
  5093  142A  00CA               	movwf	_fround$1002+1
  5094  142B  0824               	movf	?___flmul,w
  5095  142C  00C9               	movwf	_fround$1002
  5096                           
  5097                           ;C:\Program Files\Microchip\xc8\v2.36\pic\sources\c90\common\doprnt.c: 422:   return 0.5
      +                           * _npowers_[prec/100U+18U] * _npowers_[(prec%100U)/10U+9U] * _npowers_[prec%10U];
  5098  142D  300A               	movlw	10
  5099  142E  00F0               	movwf	___lwmod@divisor
  5100  142F  3000               	movlw	0
  5101  1430  00F1               	movwf	___lwmod@divisor+1
  5102  1431  0851               	movf	fround@prec,w
  5103  1432  00C2               	movwf	??_fround
  5104  1433  01C3               	clrf	??_fround+1
  5105  1434  0842               	movf	??_fround,w
  5106  1435  00F2               	movwf	___lwmod@dividend
  5107  1436  0843               	movf	??_fround+1,w
  5108  1437  00F3               	movwf	___lwmod@dividend+1
  5109  1438  160A  158A  2524  160A  118A  	fcall	___lwmod
  5110  143D  0870               	movf	?___lwmod,w
  5111  143E  1283               	bcf	3,5	;RP0=0, select bank0
  5112  143F  1303               	bcf	3,6	;RP1=0, select bank0
  5113  1440  00C4               	movwf	??_fround+2
  5114  1441  3001               	movlw	1
  5115  1442                     u4895:
  5116  1442  1003               	clrc
  5117  1443  0DC4               	rlf	??_fround+2,f
  5118  1444  3EFF               	addlw	-1
  5119  1445  1D03               	skipz
  5120  1446  2C42               	goto	u4895
  5121  1447  1003               	clrc
  5122  1448  0D44               	rlf	??_fround+2,w
  5123  1449  3E35               	addlw	low ((__npowers_-__stringbase)| (0+32768))
  5124  144A  0084               	movwf	4
  5125  144B  160A  158A  2000  160A  118A  	fcall	stringdir
  5126  1450  00C5               	movwf	??_fround+3
  5127  1451  160A  158A  2000  160A  118A  	fcall	stringdir
  5128  1456  00C6               	movwf	??_fround+4
  5129  1457  160A  158A  2000  160A  118A  	fcall	stringdir
  5130  145C  00C7               	movwf	??_fround+5
  5131  145D  160A  158A  2000  160A  118A  	fcall	stringdir
  5132  1462  00C8               	movwf	??_fround+6
  5133  1463  0848               	movf	??_fround+6,w
  5134  1464  00A7               	movwf	___flmul@b+3
  5135  1465  0847               	movf	??_fround+5,w
  5136  1466  00A6               	movwf	___flmul@b+2
  5137  1467  0846               	movf	??_fround+4,w
  5138  1468  00A5               	movwf	___flmul@b+1
  5139  1469  0845               	movf	??_fround+3,w
  5140  146A  00A4               	movwf	___flmul@b
  5141  146B  084C               	movf	_fround$1002+3,w
  5142  146C  00AB               	movwf	___flmul@a+3
  5143  146D  084B               	movf	_fround$1002+2,w
  5144  146E  00AA               	movwf	___flmul@a+2
  5145  146F  084A               	movf	_fround$1002+1,w
  5146  1470  00A9               	movwf	___flmul@a+1
  5147  1471  0849               	movf	_fround$1002,w
  5148  1472  00A8               	movwf	___flmul@a
  5149  1473  120A  158A  249F  160A  118A  	fcall	___flmul
  5150  1478  1283               	bcf	3,5	;RP0=0, select bank0
  5151  1479  1303               	bcf	3,6	;RP1=0, select bank0
  5152  147A  0827               	movf	?___flmul+3,w
  5153  147B  00C1               	movwf	?_fround+3
  5154  147C  0826               	movf	?___flmul+2,w
  5155  147D  00C0               	movwf	?_fround+2
  5156  147E  0825               	movf	?___flmul+1,w
  5157  147F  00BF               	movwf	?_fround+1
  5158  1480  0824               	movf	?___flmul,w
  5159  1481  00BE               	movwf	?_fround
  5160  1482  2D77               	goto	l717
  5161  1483                     l3076:
  5162  1483  300B               	movlw	11
  5163  1484  0251               	subwf	fround@prec,w
  5164  1485  1C03               	skipc
  5165  1486  2C88               	goto	u4901
  5166  1487  2C89               	goto	u4900
  5167  1488                     u4901:
  5168  1488  2D34               	goto	l3082
  5169  1489                     u4900:
  5170  1489                     l3078:
  5171                           
  5172                           ;C:\Program Files\Microchip\xc8\v2.36\pic\sources\c90\common\doprnt.c: 424:   return 0.5
      +                           * _npowers_[prec/10U+9U] * _npowers_[prec%10U];
  5173  1489  303F               	movlw	63
  5174  148A  00A7               	movwf	___flmul@b+3
  5175  148B  3000               	movlw	0
  5176  148C  00A6               	movwf	___flmul@b+2
  5177  148D  3000               	movlw	0
  5178  148E  00A5               	movwf	___flmul@b+1
  5179  148F  3000               	movlw	0
  5180  1490  00A4               	movwf	___flmul@b
  5181  1491  300A               	movlw	10
  5182  1492  00F6               	movwf	___lwdiv@divisor
  5183  1493  3000               	movlw	0
  5184  1494  00F7               	movwf	___lwdiv@divisor+1
  5185  1495  0851               	movf	fround@prec,w
  5186  1496  00C2               	movwf	??_fround
  5187  1497  01C3               	clrf	??_fround+1
  5188  1498  0842               	movf	??_fround,w
  5189  1499  00F8               	movwf	___lwdiv@dividend
  5190  149A  0843               	movf	??_fround+1,w
  5191  149B  00F9               	movwf	___lwdiv@dividend+1
  5192  149C  160A  158A  255E  160A  118A  	fcall	___lwdiv
  5193  14A1  0876               	movf	?___lwdiv,w
  5194  14A2  1283               	bcf	3,5	;RP0=0, select bank0
  5195  14A3  1303               	bcf	3,6	;RP1=0, select bank0
  5196  14A4  00C4               	movwf	??_fround+2
  5197  14A5  3001               	movlw	1
  5198  14A6                     u4915:
  5199  14A6  1003               	clrc
  5200  14A7  0DC4               	rlf	??_fround+2,f
  5201  14A8  3EFF               	addlw	-1
  5202  14A9  1D03               	skipz
  5203  14AA  2CA6               	goto	u4915
  5204  14AB  1003               	clrc
  5205  14AC  0D44               	rlf	??_fround+2,w
  5206  14AD  3E59               	addlw	low (((__npowers_-__stringbase)| (0+32768)+36))
  5207  14AE  0084               	movwf	4
  5208  14AF  160A  158A  2000  160A  118A  	fcall	stringdir
  5209  14B4  00C5               	movwf	??_fround+3
  5210  14B5  160A  158A  2000  160A  118A  	fcall	stringdir
  5211  14BA  00C6               	movwf	??_fround+4
  5212  14BB  160A  158A  2000  160A  118A  	fcall	stringdir
  5213  14C0  00C7               	movwf	??_fround+5
  5214  14C1  160A  158A  2000  160A  118A  	fcall	stringdir
  5215  14C6  00C8               	movwf	??_fround+6
  5216  14C7  0848               	movf	??_fround+6,w
  5217  14C8  00AB               	movwf	___flmul@a+3
  5218  14C9  0847               	movf	??_fround+5,w
  5219  14CA  00AA               	movwf	___flmul@a+2
  5220  14CB  0846               	movf	??_fround+4,w
  5221  14CC  00A9               	movwf	___flmul@a+1
  5222  14CD  0845               	movf	??_fround+3,w
  5223  14CE  00A8               	movwf	___flmul@a
  5224  14CF  120A  158A  249F  160A  118A  	fcall	___flmul
  5225  14D4  1283               	bcf	3,5	;RP0=0, select bank0
  5226  14D5  1303               	bcf	3,6	;RP1=0, select bank0
  5227  14D6  0827               	movf	?___flmul+3,w
  5228  14D7  00D0               	movwf	_fround$1001+3
  5229  14D8  0826               	movf	?___flmul+2,w
  5230  14D9  00CF               	movwf	_fround$1001+2
  5231  14DA  0825               	movf	?___flmul+1,w
  5232  14DB  00CE               	movwf	_fround$1001+1
  5233  14DC  0824               	movf	?___flmul,w
  5234  14DD  00CD               	movwf	_fround$1001
  5235                           
  5236                           ;C:\Program Files\Microchip\xc8\v2.36\pic\sources\c90\common\doprnt.c: 424:   return 0.5
      +                           * _npowers_[prec/10U+9U] * _npowers_[prec%10U];
  5237  14DE  300A               	movlw	10
  5238  14DF  00F0               	movwf	___lwmod@divisor
  5239  14E0  3000               	movlw	0
  5240  14E1  00F1               	movwf	___lwmod@divisor+1
  5241  14E2  0851               	movf	fround@prec,w
  5242  14E3  00C2               	movwf	??_fround
  5243  14E4  01C3               	clrf	??_fround+1
  5244  14E5  0842               	movf	??_fround,w
  5245  14E6  00F2               	movwf	___lwmod@dividend
  5246  14E7  0843               	movf	??_fround+1,w
  5247  14E8  00F3               	movwf	___lwmod@dividend+1
  5248  14E9  160A  158A  2524  160A  118A  	fcall	___lwmod
  5249  14EE  0870               	movf	?___lwmod,w
  5250  14EF  1283               	bcf	3,5	;RP0=0, select bank0
  5251  14F0  1303               	bcf	3,6	;RP1=0, select bank0
  5252  14F1  00C4               	movwf	??_fround+2
  5253  14F2  3001               	movlw	1
  5254  14F3                     u4925:
  5255  14F3  1003               	clrc
  5256  14F4  0DC4               	rlf	??_fround+2,f
  5257  14F5  3EFF               	addlw	-1
  5258  14F6  1D03               	skipz
  5259  14F7  2CF3               	goto	u4925
  5260  14F8  1003               	clrc
  5261  14F9  0D44               	rlf	??_fround+2,w
  5262  14FA  3E35               	addlw	low ((__npowers_-__stringbase)| (0+32768))
  5263  14FB  0084               	movwf	4
  5264  14FC  160A  158A  2000  160A  118A  	fcall	stringdir
  5265  1501  00C5               	movwf	??_fround+3
  5266  1502  160A  158A  2000  160A  118A  	fcall	stringdir
  5267  1507  00C6               	movwf	??_fround+4
  5268  1508  160A  158A  2000  160A  118A  	fcall	stringdir
  5269  150D  00C7               	movwf	??_fround+5
  5270  150E  160A  158A  2000  160A  118A  	fcall	stringdir
  5271  1513  00C8               	movwf	??_fround+6
  5272  1514  0848               	movf	??_fround+6,w
  5273  1515  00A7               	movwf	___flmul@b+3
  5274  1516  0847               	movf	??_fround+5,w
  5275  1517  00A6               	movwf	___flmul@b+2
  5276  1518  0846               	movf	??_fround+4,w
  5277  1519  00A5               	movwf	___flmul@b+1
  5278  151A  0845               	movf	??_fround+3,w
  5279  151B  00A4               	movwf	___flmul@b
  5280  151C  0850               	movf	_fround$1001+3,w
  5281  151D  00AB               	movwf	___flmul@a+3
  5282  151E  084F               	movf	_fround$1001+2,w
  5283  151F  00AA               	movwf	___flmul@a+2
  5284  1520  084E               	movf	_fround$1001+1,w
  5285  1521  00A9               	movwf	___flmul@a+1
  5286  1522  084D               	movf	_fround$1001,w
  5287  1523  00A8               	movwf	___flmul@a
  5288  1524  120A  158A  249F  160A  118A  	fcall	___flmul
  5289  1529  1283               	bcf	3,5	;RP0=0, select bank0
  5290  152A  1303               	bcf	3,6	;RP1=0, select bank0
  5291  152B  0827               	movf	?___flmul+3,w
  5292  152C  00C1               	movwf	?_fround+3
  5293  152D  0826               	movf	?___flmul+2,w
  5294  152E  00C0               	movwf	?_fround+2
  5295  152F  0825               	movf	?___flmul+1,w
  5296  1530  00BF               	movwf	?_fround+1
  5297  1531  0824               	movf	?___flmul,w
  5298  1532  00BE               	movwf	?_fround
  5299  1533  2D77               	goto	l717
  5300  1534                     l3082:
  5301                           
  5302                           ;C:\Program Files\Microchip\xc8\v2.36\pic\sources\c90\common\doprnt.c: 425:  return 0.5 
      +                          * _npowers_[prec];
  5303  1534  303F               	movlw	63
  5304  1535  00A7               	movwf	___flmul@b+3
  5305  1536  3000               	movlw	0
  5306  1537  00A6               	movwf	___flmul@b+2
  5307  1538  3000               	movlw	0
  5308  1539  00A5               	movwf	___flmul@b+1
  5309  153A  3000               	movlw	0
  5310  153B  00A4               	movwf	___flmul@b
  5311  153C  0851               	movf	fround@prec,w
  5312  153D  00C2               	movwf	??_fround
  5313  153E  3001               	movlw	1
  5314  153F                     u4935:
  5315  153F  1003               	clrc
  5316  1540  0DC2               	rlf	??_fround,f
  5317  1541  3EFF               	addlw	-1
  5318  1542  1D03               	skipz
  5319  1543  2D3F               	goto	u4935
  5320  1544  1003               	clrc
  5321  1545  0D42               	rlf	??_fround,w
  5322  1546  3E35               	addlw	low ((__npowers_-__stringbase)| (0+32768))
  5323  1547  0084               	movwf	4
  5324  1548  160A  158A  2000  160A  118A  	fcall	stringdir
  5325  154D  00C3               	movwf	??_fround+1
  5326  154E  160A  158A  2000  160A  118A  	fcall	stringdir
  5327  1553  00C4               	movwf	??_fround+2
  5328  1554  160A  158A  2000  160A  118A  	fcall	stringdir
  5329  1559  00C5               	movwf	??_fround+3
  5330  155A  160A  158A  2000  160A  118A  	fcall	stringdir
  5331  155F  00C6               	movwf	??_fround+4
  5332  1560  0846               	movf	??_fround+4,w
  5333  1561  00AB               	movwf	___flmul@a+3
  5334  1562  0845               	movf	??_fround+3,w
  5335  1563  00AA               	movwf	___flmul@a+2
  5336  1564  0844               	movf	??_fround+2,w
  5337  1565  00A9               	movwf	___flmul@a+1
  5338  1566  0843               	movf	??_fround+1,w
  5339  1567  00A8               	movwf	___flmul@a
  5340  1568  120A  158A  249F  160A  118A  	fcall	___flmul
  5341  156D  1283               	bcf	3,5	;RP0=0, select bank0
  5342  156E  1303               	bcf	3,6	;RP1=0, select bank0
  5343  156F  0827               	movf	?___flmul+3,w
  5344  1570  00C1               	movwf	?_fround+3
  5345  1571  0826               	movf	?___flmul+2,w
  5346  1572  00C0               	movwf	?_fround+2
  5347  1573  0825               	movf	?___flmul+1,w
  5348  1574  00BF               	movwf	?_fround+1
  5349  1575  0824               	movf	?___flmul,w
  5350  1576  00BE               	movwf	?_fround
  5351  1577                     l717:
  5352  1577  0008               	return
  5353  1578                     __end_of_fround:
  5354                           
  5355                           	psect	text11
  5356  1D24                     __ptext11:	
  5357 ;; *************** function ___lwmod *****************
  5358 ;; Defined at:
  5359 ;;		line 5 in file "C:\Program Files\Microchip\xc8\v2.36\pic\sources\c90\common\lwmod.c"
  5360 ;; Parameters:    Size  Location     Type
  5361 ;;  divisor         2    0[COMMON] unsigned int 
  5362 ;;  dividend        2    2[COMMON] unsigned int 
  5363 ;; Auto vars:     Size  Location     Type
  5364 ;;  counter         1    5[COMMON] unsigned char 
  5365 ;; Return value:  Size  Location     Type
  5366 ;;                  2    0[COMMON] unsigned int 
  5367 ;; Registers used:
  5368 ;;		wreg, status,2, status,0
  5369 ;; Tracked objects:
  5370 ;;		On entry : 0/0
  5371 ;;		On exit  : 0/0
  5372 ;;		Unchanged: 0/0
  5373 ;; Data sizes:     COMMON   BANK0   BANK1   BANK3   BANK2
  5374 ;;      Params:         4       0       0       0       0
  5375 ;;      Locals:         1       0       0       0       0
  5376 ;;      Temps:          1       0       0       0       0
  5377 ;;      Totals:         6       0       0       0       0
  5378 ;;Total ram usage:        6 bytes
  5379 ;; Hardware stack levels used: 1
  5380 ;; This function calls:
  5381 ;;		Nothing
  5382 ;; This function is called by:
  5383 ;;		_fround
  5384 ;; This function uses a non-reentrant model
  5385 ;;
  5386                           
  5387  1D24                     ___lwmod:	
  5388                           ;psect for function ___lwmod
  5389                           
  5390  1D24                     l2510:	
  5391                           ;incstack = 0
  5392                           ; Regs used in ___lwmod: [wreg+status,2+status,0]
  5393                           
  5394  1D24  0870               	movf	___lwmod@divisor,w
  5395  1D25  0471               	iorwf	___lwmod@divisor+1,w
  5396  1D26  1903               	btfsc	3,2
  5397  1D27  2D29               	goto	u3431
  5398  1D28  2D2A               	goto	u3430
  5399  1D29                     u3431:
  5400  1D29  2D59               	goto	l2528
  5401  1D2A                     u3430:
  5402  1D2A                     l2512:
  5403  1D2A  01F5               	clrf	___lwmod@counter
  5404  1D2B  0AF5               	incf	___lwmod@counter,f
  5405  1D2C  2D38               	goto	l2518
  5406  1D2D                     l2514:
  5407  1D2D  3001               	movlw	1
  5408  1D2E                     u3445:
  5409  1D2E  1003               	clrc
  5410  1D2F  0DF0               	rlf	___lwmod@divisor,f
  5411  1D30  0DF1               	rlf	___lwmod@divisor+1,f
  5412  1D31  3EFF               	addlw	-1
  5413  1D32  1D03               	skipz
  5414  1D33  2D2E               	goto	u3445
  5415  1D34                     l2516:
  5416  1D34  3001               	movlw	1
  5417  1D35  00F4               	movwf	??___lwmod
  5418  1D36  0874               	movf	??___lwmod,w
  5419  1D37  07F5               	addwf	___lwmod@counter,f
  5420  1D38                     l2518:
  5421  1D38  1FF1               	btfss	___lwmod@divisor+1,7
  5422  1D39  2D3B               	goto	u3451
  5423  1D3A  2D3C               	goto	u3450
  5424  1D3B                     u3451:
  5425  1D3B  2D2D               	goto	l2514
  5426  1D3C                     u3450:
  5427  1D3C                     l2520:
  5428  1D3C  0871               	movf	___lwmod@divisor+1,w
  5429  1D3D  0273               	subwf	___lwmod@dividend+1,w
  5430  1D3E  1D03               	skipz
  5431  1D3F  2D42               	goto	u3465
  5432  1D40  0870               	movf	___lwmod@divisor,w
  5433  1D41  0272               	subwf	___lwmod@dividend,w
  5434  1D42                     u3465:
  5435  1D42  1C03               	skipc
  5436  1D43  2D45               	goto	u3461
  5437  1D44  2D46               	goto	u3460
  5438  1D45                     u3461:
  5439  1D45  2D4C               	goto	l2524
  5440  1D46                     u3460:
  5441  1D46                     l2522:
  5442  1D46  0870               	movf	___lwmod@divisor,w
  5443  1D47  02F2               	subwf	___lwmod@dividend,f
  5444  1D48  0871               	movf	___lwmod@divisor+1,w
  5445  1D49  1C03               	skipc
  5446  1D4A  03F3               	decf	___lwmod@dividend+1,f
  5447  1D4B  02F3               	subwf	___lwmod@dividend+1,f
  5448  1D4C                     l2524:
  5449  1D4C  3001               	movlw	1
  5450  1D4D                     u3475:
  5451  1D4D  1003               	clrc
  5452  1D4E  0CF1               	rrf	___lwmod@divisor+1,f
  5453  1D4F  0CF0               	rrf	___lwmod@divisor,f
  5454  1D50  3EFF               	addlw	-1
  5455  1D51  1D03               	skipz
  5456  1D52  2D4D               	goto	u3475
  5457  1D53                     l2526:
  5458  1D53  3001               	movlw	1
  5459  1D54  02F5               	subwf	___lwmod@counter,f
  5460  1D55  1D03               	btfss	3,2
  5461  1D56  2D58               	goto	u3481
  5462  1D57  2D59               	goto	u3480
  5463  1D58                     u3481:
  5464  1D58  2D3C               	goto	l2520
  5465  1D59                     u3480:
  5466  1D59                     l2528:
  5467  1D59  0873               	movf	___lwmod@dividend+1,w
  5468  1D5A  00F1               	movwf	?___lwmod+1
  5469  1D5B  0872               	movf	___lwmod@dividend,w
  5470  1D5C  00F0               	movwf	?___lwmod
  5471  1D5D                     l524:
  5472  1D5D  0008               	return
  5473  1D5E                     __end_of___lwmod:
  5474                           
  5475                           	psect	text12
  5476  1D5E                     __ptext12:	
  5477 ;; *************** function ___lwdiv *****************
  5478 ;; Defined at:
  5479 ;;		line 5 in file "C:\Program Files\Microchip\xc8\v2.36\pic\sources\c90\common\lwdiv.c"
  5480 ;; Parameters:    Size  Location     Type
  5481 ;;  divisor         2    6[COMMON] unsigned int 
  5482 ;;  dividend        2    8[COMMON] unsigned int 
  5483 ;; Auto vars:     Size  Location     Type
  5484 ;;  quotient        2   11[COMMON] unsigned int 
  5485 ;;  counter         1   13[COMMON] unsigned char 
  5486 ;; Return value:  Size  Location     Type
  5487 ;;                  2    6[COMMON] unsigned int 
  5488 ;; Registers used:
  5489 ;;		wreg, status,2, status,0
  5490 ;; Tracked objects:
  5491 ;;		On entry : 0/0
  5492 ;;		On exit  : 0/0
  5493 ;;		Unchanged: 0/0
  5494 ;; Data sizes:     COMMON   BANK0   BANK1   BANK3   BANK2
  5495 ;;      Params:         4       0       0       0       0
  5496 ;;      Locals:         3       0       0       0       0
  5497 ;;      Temps:          1       0       0       0       0
  5498 ;;      Totals:         8       0       0       0       0
  5499 ;;Total ram usage:        8 bytes
  5500 ;; Hardware stack levels used: 1
  5501 ;; This function calls:
  5502 ;;		Nothing
  5503 ;; This function is called by:
  5504 ;;		_fround
  5505 ;; This function uses a non-reentrant model
  5506 ;;
  5507                           
  5508  1D5E                     ___lwdiv:	
  5509                           ;psect for function ___lwdiv
  5510                           
  5511  1D5E                     l2484:	
  5512                           ;incstack = 0
  5513                           ; Regs used in ___lwdiv: [wreg+status,2+status,0]
  5514                           
  5515  1D5E  01FB               	clrf	___lwdiv@quotient
  5516  1D5F  01FC               	clrf	___lwdiv@quotient+1
  5517  1D60                     l2486:
  5518  1D60  0876               	movf	___lwdiv@divisor,w
  5519  1D61  0477               	iorwf	___lwdiv@divisor+1,w
  5520  1D62  1903               	btfsc	3,2
  5521  1D63  2D65               	goto	u3361
  5522  1D64  2D66               	goto	u3360
  5523  1D65                     u3361:
  5524  1D65  2D9D               	goto	l2506
  5525  1D66                     u3360:
  5526  1D66                     l2488:
  5527  1D66  01FD               	clrf	___lwdiv@counter
  5528  1D67  0AFD               	incf	___lwdiv@counter,f
  5529  1D68  2D74               	goto	l2494
  5530  1D69                     l2490:
  5531  1D69  3001               	movlw	1
  5532  1D6A                     u3375:
  5533  1D6A  1003               	clrc
  5534  1D6B  0DF6               	rlf	___lwdiv@divisor,f
  5535  1D6C  0DF7               	rlf	___lwdiv@divisor+1,f
  5536  1D6D  3EFF               	addlw	-1
  5537  1D6E  1D03               	skipz
  5538  1D6F  2D6A               	goto	u3375
  5539  1D70                     l2492:
  5540  1D70  3001               	movlw	1
  5541  1D71  00FA               	movwf	??___lwdiv
  5542  1D72  087A               	movf	??___lwdiv,w
  5543  1D73  07FD               	addwf	___lwdiv@counter,f
  5544  1D74                     l2494:
  5545  1D74  1FF7               	btfss	___lwdiv@divisor+1,7
  5546  1D75  2D77               	goto	u3381
  5547  1D76  2D78               	goto	u3380
  5548  1D77                     u3381:
  5549  1D77  2D69               	goto	l2490
  5550  1D78                     u3380:
  5551  1D78                     l2496:
  5552  1D78  3001               	movlw	1
  5553  1D79                     u3395:
  5554  1D79  1003               	clrc
  5555  1D7A  0DFB               	rlf	___lwdiv@quotient,f
  5556  1D7B  0DFC               	rlf	___lwdiv@quotient+1,f
  5557  1D7C  3EFF               	addlw	-1
  5558  1D7D  1D03               	skipz
  5559  1D7E  2D79               	goto	u3395
  5560  1D7F  0877               	movf	___lwdiv@divisor+1,w
  5561  1D80  0279               	subwf	___lwdiv@dividend+1,w
  5562  1D81  1D03               	skipz
  5563  1D82  2D85               	goto	u3405
  5564  1D83  0876               	movf	___lwdiv@divisor,w
  5565  1D84  0278               	subwf	___lwdiv@dividend,w
  5566  1D85                     u3405:
  5567  1D85  1C03               	skipc
  5568  1D86  2D88               	goto	u3401
  5569  1D87  2D89               	goto	u3400
  5570  1D88                     u3401:
  5571  1D88  2D90               	goto	l2502
  5572  1D89                     u3400:
  5573  1D89                     l2498:
  5574  1D89  0876               	movf	___lwdiv@divisor,w
  5575  1D8A  02F8               	subwf	___lwdiv@dividend,f
  5576  1D8B  0877               	movf	___lwdiv@divisor+1,w
  5577  1D8C  1C03               	skipc
  5578  1D8D  03F9               	decf	___lwdiv@dividend+1,f
  5579  1D8E  02F9               	subwf	___lwdiv@dividend+1,f
  5580  1D8F                     l2500:
  5581  1D8F  147B               	bsf	___lwdiv@quotient,0
  5582  1D90                     l2502:
  5583  1D90  3001               	movlw	1
  5584  1D91                     u3415:
  5585  1D91  1003               	clrc
  5586  1D92  0CF7               	rrf	___lwdiv@divisor+1,f
  5587  1D93  0CF6               	rrf	___lwdiv@divisor,f
  5588  1D94  3EFF               	addlw	-1
  5589  1D95  1D03               	skipz
  5590  1D96  2D91               	goto	u3415
  5591  1D97                     l2504:
  5592  1D97  3001               	movlw	1
  5593  1D98  02FD               	subwf	___lwdiv@counter,f
  5594  1D99  1D03               	btfss	3,2
  5595  1D9A  2D9C               	goto	u3421
  5596  1D9B  2D9D               	goto	u3420
  5597  1D9C                     u3421:
  5598  1D9C  2D78               	goto	l2496
  5599  1D9D                     u3420:
  5600  1D9D                     l2506:
  5601  1D9D  087C               	movf	___lwdiv@quotient+1,w
  5602  1D9E  00F7               	movwf	?___lwdiv+1
  5603  1D9F  087B               	movf	___lwdiv@quotient,w
  5604  1DA0  00F6               	movwf	?___lwdiv
  5605  1DA1                     l514:
  5606  1DA1  0008               	return
  5607  1DA2                     __end_of___lwdiv:
  5608                           
  5609                           	psect	text13
  5610  0C9F                     __ptext13:	
  5611 ;; *************** function ___flmul *****************
  5612 ;; Defined at:
  5613 ;;		line 8 in file "C:\Program Files\Microchip\xc8\v2.36\pic\sources\c90\common\sprcmul.c"
  5614 ;; Parameters:    Size  Location     Type
  5615 ;;  b               4    4[BANK0 ] unsigned int 
  5616 ;;  a               4    8[BANK0 ] unsigned int 
  5617 ;; Auto vars:     Size  Location     Type
  5618 ;;  prod            4   24[BANK0 ] struct .
  5619 ;;  grs             4   18[BANK0 ] unsigned long 
  5620 ;;  temp            2   28[BANK0 ] struct .
  5621 ;;  bexp            1   23[BANK0 ] unsigned char 
  5622 ;;  aexp            1   22[BANK0 ] unsigned char 
  5623 ;;  sign            1   17[BANK0 ] unsigned char 
  5624 ;; Return value:  Size  Location     Type
  5625 ;;                  4    4[BANK0 ] unsigned char 
  5626 ;; Registers used:
  5627 ;;		wreg, status,2, status,0, btemp+1, pclath, cstack
  5628 ;; Tracked objects:
  5629 ;;		On entry : 0/0
  5630 ;;		On exit  : 0/0
  5631 ;;		Unchanged: 0/0
  5632 ;; Data sizes:     COMMON   BANK0   BANK1   BANK3   BANK2
  5633 ;;      Params:         0       8       0       0       0
  5634 ;;      Locals:         0      13       0       0       0
  5635 ;;      Temps:          0       5       0       0       0
  5636 ;;      Totals:         0      26       0       0       0
  5637 ;;Total ram usage:       26 bytes
  5638 ;; Hardware stack levels used: 1
  5639 ;; Hardware stack levels required when called: 1
  5640 ;; This function calls:
  5641 ;;		__Umul8_16
  5642 ;; This function is called by:
  5643 ;;		_fround
  5644 ;;		_scale
  5645 ;;		__doprnt
  5646 ;; This function uses a non-reentrant model
  5647 ;;
  5648                           
  5649  0C9F                     ___flmul:	
  5650                           ;psect for function ___flmul
  5651                           
  5652  0C9F                     l2726:	
  5653                           ;incstack = 0
  5654                           ; Regs used in ___flmul: [wreg+status,2+status,0+btemp+1+pclath+cstack]
  5655                           
  5656  0C9F  1283               	bcf	3,5	;RP0=0, select bank0
  5657  0CA0  1303               	bcf	3,6	;RP1=0, select bank0
  5658  0CA1  0827               	movf	___flmul@b+3,w
  5659  0CA2  3980               	andlw	128
  5660  0CA3  00AC               	movwf	??___flmul
  5661  0CA4  082C               	movf	??___flmul,w
  5662  0CA5  00B1               	movwf	___flmul@sign
  5663  0CA6                     l2728:
  5664  0CA6  0827               	movf	___flmul@b+3,w
  5665  0CA7  00AC               	movwf	??___flmul
  5666  0CA8  072C               	addwf	??___flmul,w
  5667  0CA9  00AD               	movwf	??___flmul+1
  5668  0CAA  082D               	movf	??___flmul+1,w
  5669  0CAB  00B7               	movwf	___flmul@bexp
  5670  0CAC                     l2730:
  5671  0CAC  1FA6               	btfss	___flmul@b+2,7
  5672  0CAD  2CAF               	goto	u3951
  5673  0CAE  2CB0               	goto	u3950
  5674  0CAF                     u3951:
  5675  0CAF  2CB1               	goto	l2734
  5676  0CB0                     u3950:
  5677  0CB0                     l2732:
  5678  0CB0  1437               	bsf	___flmul@bexp,0
  5679  0CB1                     l2734:
  5680  0CB1  0837               	movf	___flmul@bexp,w
  5681  0CB2  1903               	btfsc	3,2
  5682  0CB3  2CB5               	goto	u3961
  5683  0CB4  2CB6               	goto	u3960
  5684  0CB5                     u3961:
  5685  0CB5  2CC5               	goto	l2742
  5686  0CB6                     u3960:
  5687  0CB6                     l2736:
  5688  0CB6  0A37               	incf	___flmul@bexp,w
  5689  0CB7  1D03               	btfss	3,2
  5690  0CB8  2CBA               	goto	u3971
  5691  0CB9  2CBB               	goto	u3970
  5692  0CBA                     u3971:
  5693  0CBA  2CC3               	goto	l2740
  5694  0CBB                     u3970:
  5695  0CBB                     l2738:
  5696  0CBB  3000               	movlw	0
  5697  0CBC  00A7               	movwf	___flmul@b+3
  5698  0CBD  3000               	movlw	0
  5699  0CBE  00A6               	movwf	___flmul@b+2
  5700  0CBF  3000               	movlw	0
  5701  0CC0  00A5               	movwf	___flmul@b+1
  5702  0CC1  3000               	movlw	0
  5703  0CC2  00A4               	movwf	___flmul@b
  5704  0CC3                     l2740:
  5705  0CC3  17A6               	bsf	___flmul@b+2,7
  5706  0CC4  2CCD               	goto	l2744
  5707  0CC5                     l2742:
  5708  0CC5  3000               	movlw	0
  5709  0CC6  00A7               	movwf	___flmul@b+3
  5710  0CC7  3000               	movlw	0
  5711  0CC8  00A6               	movwf	___flmul@b+2
  5712  0CC9  3000               	movlw	0
  5713  0CCA  00A5               	movwf	___flmul@b+1
  5714  0CCB  3000               	movlw	0
  5715  0CCC  00A4               	movwf	___flmul@b
  5716  0CCD                     l2744:
  5717  0CCD  082B               	movf	___flmul@a+3,w
  5718  0CCE  3980               	andlw	128
  5719  0CCF  00AC               	movwf	??___flmul
  5720  0CD0  082C               	movf	??___flmul,w
  5721  0CD1  06B1               	xorwf	___flmul@sign,f
  5722  0CD2                     l2746:
  5723  0CD2  082B               	movf	___flmul@a+3,w
  5724  0CD3  00AC               	movwf	??___flmul
  5725  0CD4  072C               	addwf	??___flmul,w
  5726  0CD5  00AD               	movwf	??___flmul+1
  5727  0CD6  082D               	movf	??___flmul+1,w
  5728  0CD7  00B6               	movwf	___flmul@aexp
  5729  0CD8                     l2748:
  5730  0CD8  1FAA               	btfss	___flmul@a+2,7
  5731  0CD9  2CDB               	goto	u3981
  5732  0CDA  2CDC               	goto	u3980
  5733  0CDB                     u3981:
  5734  0CDB  2CDD               	goto	l2752
  5735  0CDC                     u3980:
  5736  0CDC                     l2750:
  5737  0CDC  1436               	bsf	___flmul@aexp,0
  5738  0CDD                     l2752:
  5739  0CDD  0836               	movf	___flmul@aexp,w
  5740  0CDE  1903               	btfsc	3,2
  5741  0CDF  2CE1               	goto	u3991
  5742  0CE0  2CE2               	goto	u3990
  5743  0CE1                     u3991:
  5744  0CE1  2CF1               	goto	l2760
  5745  0CE2                     u3990:
  5746  0CE2                     l2754:
  5747  0CE2  0A36               	incf	___flmul@aexp,w
  5748  0CE3  1D03               	btfss	3,2
  5749  0CE4  2CE6               	goto	u4001
  5750  0CE5  2CE7               	goto	u4000
  5751  0CE6                     u4001:
  5752  0CE6  2CEF               	goto	l2758
  5753  0CE7                     u4000:
  5754  0CE7                     l2756:
  5755  0CE7  3000               	movlw	0
  5756  0CE8  00AB               	movwf	___flmul@a+3
  5757  0CE9  3000               	movlw	0
  5758  0CEA  00AA               	movwf	___flmul@a+2
  5759  0CEB  3000               	movlw	0
  5760  0CEC  00A9               	movwf	___flmul@a+1
  5761  0CED  3000               	movlw	0
  5762  0CEE  00A8               	movwf	___flmul@a
  5763  0CEF                     l2758:
  5764  0CEF  17AA               	bsf	___flmul@a+2,7
  5765  0CF0  2CF9               	goto	l2762
  5766  0CF1                     l2760:
  5767  0CF1  3000               	movlw	0
  5768  0CF2  00AB               	movwf	___flmul@a+3
  5769  0CF3  3000               	movlw	0
  5770  0CF4  00AA               	movwf	___flmul@a+2
  5771  0CF5  3000               	movlw	0
  5772  0CF6  00A9               	movwf	___flmul@a+1
  5773  0CF7  3000               	movlw	0
  5774  0CF8  00A8               	movwf	___flmul@a
  5775  0CF9                     l2762:
  5776  0CF9  0836               	movf	___flmul@aexp,w
  5777  0CFA  1903               	btfsc	3,2
  5778  0CFB  2CFD               	goto	u4011
  5779  0CFC  2CFE               	goto	u4010
  5780  0CFD                     u4011:
  5781  0CFD  2D03               	goto	l2766
  5782  0CFE                     u4010:
  5783  0CFE                     l2764:
  5784  0CFE  0837               	movf	___flmul@bexp,w
  5785  0CFF  1D03               	btfss	3,2
  5786  0D00  2D02               	goto	u4021
  5787  0D01  2D03               	goto	u4020
  5788  0D02                     u4021:
  5789  0D02  2D0C               	goto	l2770
  5790  0D03                     u4020:
  5791  0D03                     l2766:
  5792  0D03  3000               	movlw	0
  5793  0D04  00A7               	movwf	?___flmul+3
  5794  0D05  3000               	movlw	0
  5795  0D06  00A6               	movwf	?___flmul+2
  5796  0D07  3000               	movlw	0
  5797  0D08  00A5               	movwf	?___flmul+1
  5798  0D09  3000               	movlw	0
  5799  0D0A  00A4               	movwf	?___flmul
  5800  0D0B  2FFF               	goto	l631
  5801  0D0C                     l2770:
  5802  0D0C  0824               	movf	___flmul@b,w
  5803  0D0D  00AC               	movwf	??___flmul
  5804  0D0E  082C               	movf	??___flmul,w
  5805  0D0F  00F0               	movwf	__Umul8_16@multiplicand
  5806  0D10  082A               	movf	___flmul@a+2,w
  5807  0D11  160A  158A  2421  120A  158A  	fcall	__Umul8_16
  5808  0D16  0871               	movf	?__Umul8_16+1,w
  5809  0D17  1283               	bcf	3,5	;RP0=0, select bank0
  5810  0D18  1303               	bcf	3,6	;RP1=0, select bank0
  5811  0D19  00BD               	movwf	___flmul@temp+1
  5812  0D1A  0870               	movf	?__Umul8_16,w
  5813  0D1B  00BC               	movwf	___flmul@temp
  5814  0D1C                     l2772:
  5815  0D1C  083C               	movf	___flmul@temp,w
  5816  0D1D  00AC               	movwf	??___flmul
  5817  0D1E  01AD               	clrf	??___flmul+1
  5818  0D1F  01AE               	clrf	??___flmul+2
  5819  0D20  01AF               	clrf	??___flmul+3
  5820  0D21  082F               	movf	??___flmul+3,w
  5821  0D22  00B5               	movwf	___flmul@grs+3
  5822  0D23  082E               	movf	??___flmul+2,w
  5823  0D24  00B4               	movwf	___flmul@grs+2
  5824  0D25  082D               	movf	??___flmul+1,w
  5825  0D26  00B3               	movwf	___flmul@grs+1
  5826  0D27  082C               	movf	??___flmul,w
  5827  0D28  00B2               	movwf	___flmul@grs
  5828  0D29                     l2774:
  5829  0D29  083D               	movf	___flmul@temp+1,w
  5830  0D2A  00AC               	movwf	??___flmul
  5831  0D2B  01AD               	clrf	??___flmul+1
  5832  0D2C  01AE               	clrf	??___flmul+2
  5833  0D2D  01AF               	clrf	??___flmul+3
  5834  0D2E  082F               	movf	??___flmul+3,w
  5835  0D2F  00BB               	movwf	___flmul@prod+3
  5836  0D30  082E               	movf	??___flmul+2,w
  5837  0D31  00BA               	movwf	___flmul@prod+2
  5838  0D32  082D               	movf	??___flmul+1,w
  5839  0D33  00B9               	movwf	___flmul@prod+1
  5840  0D34  082C               	movf	??___flmul,w
  5841  0D35  00B8               	movwf	___flmul@prod
  5842  0D36  0825               	movf	___flmul@b+1,w
  5843  0D37  00AC               	movwf	??___flmul
  5844  0D38  082C               	movf	??___flmul,w
  5845  0D39  00F0               	movwf	__Umul8_16@multiplicand
  5846  0D3A  0829               	movf	___flmul@a+1,w
  5847  0D3B  160A  158A  2421  120A  158A  	fcall	__Umul8_16
  5848  0D40  0871               	movf	?__Umul8_16+1,w
  5849  0D41  1283               	bcf	3,5	;RP0=0, select bank0
  5850  0D42  1303               	bcf	3,6	;RP1=0, select bank0
  5851  0D43  00BD               	movwf	___flmul@temp+1
  5852  0D44  0870               	movf	?__Umul8_16,w
  5853  0D45  00BC               	movwf	___flmul@temp
  5854  0D46                     l2776:
  5855  0D46  083C               	movf	___flmul@temp,w
  5856  0D47  00AC               	movwf	??___flmul
  5857  0D48  01AD               	clrf	??___flmul+1
  5858  0D49  01AE               	clrf	??___flmul+2
  5859  0D4A  01AF               	clrf	??___flmul+3
  5860  0D4B  082C               	movf	??___flmul,w
  5861  0D4C  07B2               	addwf	___flmul@grs,f
  5862  0D4D  082D               	movf	??___flmul+1,w
  5863  0D4E  1103               	clrz
  5864  0D4F  1803               	skipnc
  5865  0D50  3E01               	addlw	1
  5866  0D51  1903               	skipnz
  5867  0D52  2D54               	goto	u4031
  5868  0D53  07B3               	addwf	___flmul@grs+1,f
  5869  0D54                     u4031:
  5870  0D54  082E               	movf	??___flmul+2,w
  5871  0D55  1103               	clrz
  5872  0D56  1803               	skipnc
  5873  0D57  3E01               	addlw	1
  5874  0D58  1903               	skipnz
  5875  0D59  2D5B               	goto	u4032
  5876  0D5A  07B4               	addwf	___flmul@grs+2,f
  5877  0D5B                     u4032:
  5878  0D5B  082F               	movf	??___flmul+3,w
  5879  0D5C  1103               	clrz
  5880  0D5D  1803               	skipnc
  5881  0D5E  3E01               	addlw	1
  5882  0D5F  1903               	skipnz
  5883  0D60  2D62               	goto	u4033
  5884  0D61  07B5               	addwf	___flmul@grs+3,f
  5885  0D62                     u4033:
  5886  0D62                     l2778:
  5887  0D62  083D               	movf	___flmul@temp+1,w
  5888  0D63  00AC               	movwf	??___flmul
  5889  0D64  01AD               	clrf	??___flmul+1
  5890  0D65  01AE               	clrf	??___flmul+2
  5891  0D66  01AF               	clrf	??___flmul+3
  5892  0D67  082C               	movf	??___flmul,w
  5893  0D68  07B8               	addwf	___flmul@prod,f
  5894  0D69  082D               	movf	??___flmul+1,w
  5895  0D6A  1103               	clrz
  5896  0D6B  1803               	skipnc
  5897  0D6C  3E01               	addlw	1
  5898  0D6D  1903               	skipnz
  5899  0D6E  2D70               	goto	u4041
  5900  0D6F  07B9               	addwf	___flmul@prod+1,f
  5901  0D70                     u4041:
  5902  0D70  082E               	movf	??___flmul+2,w
  5903  0D71  1103               	clrz
  5904  0D72  1803               	skipnc
  5905  0D73  3E01               	addlw	1
  5906  0D74  1903               	skipnz
  5907  0D75  2D77               	goto	u4042
  5908  0D76  07BA               	addwf	___flmul@prod+2,f
  5909  0D77                     u4042:
  5910  0D77  082F               	movf	??___flmul+3,w
  5911  0D78  1103               	clrz
  5912  0D79  1803               	skipnc
  5913  0D7A  3E01               	addlw	1
  5914  0D7B  1903               	skipnz
  5915  0D7C  2D7E               	goto	u4043
  5916  0D7D  07BB               	addwf	___flmul@prod+3,f
  5917  0D7E                     u4043:
  5918  0D7E  0826               	movf	___flmul@b+2,w
  5919  0D7F  00AC               	movwf	??___flmul
  5920  0D80  082C               	movf	??___flmul,w
  5921  0D81  00F0               	movwf	__Umul8_16@multiplicand
  5922  0D82  0828               	movf	___flmul@a,w
  5923  0D83  160A  158A  2421  120A  158A  	fcall	__Umul8_16
  5924  0D88  0871               	movf	?__Umul8_16+1,w
  5925  0D89  1283               	bcf	3,5	;RP0=0, select bank0
  5926  0D8A  1303               	bcf	3,6	;RP1=0, select bank0
  5927  0D8B  00BD               	movwf	___flmul@temp+1
  5928  0D8C  0870               	movf	?__Umul8_16,w
  5929  0D8D  00BC               	movwf	___flmul@temp
  5930  0D8E                     l2780:
  5931  0D8E  083C               	movf	___flmul@temp,w
  5932  0D8F  00AC               	movwf	??___flmul
  5933  0D90  01AD               	clrf	??___flmul+1
  5934  0D91  01AE               	clrf	??___flmul+2
  5935  0D92  01AF               	clrf	??___flmul+3
  5936  0D93  082C               	movf	??___flmul,w
  5937  0D94  07B2               	addwf	___flmul@grs,f
  5938  0D95  082D               	movf	??___flmul+1,w
  5939  0D96  1103               	clrz
  5940  0D97  1803               	skipnc
  5941  0D98  3E01               	addlw	1
  5942  0D99  1903               	skipnz
  5943  0D9A  2D9C               	goto	u4051
  5944  0D9B  07B3               	addwf	___flmul@grs+1,f
  5945  0D9C                     u4051:
  5946  0D9C  082E               	movf	??___flmul+2,w
  5947  0D9D  1103               	clrz
  5948  0D9E  1803               	skipnc
  5949  0D9F  3E01               	addlw	1
  5950  0DA0  1903               	skipnz
  5951  0DA1  2DA3               	goto	u4052
  5952  0DA2  07B4               	addwf	___flmul@grs+2,f
  5953  0DA3                     u4052:
  5954  0DA3  082F               	movf	??___flmul+3,w
  5955  0DA4  1103               	clrz
  5956  0DA5  1803               	skipnc
  5957  0DA6  3E01               	addlw	1
  5958  0DA7  1903               	skipnz
  5959  0DA8  2DAA               	goto	u4053
  5960  0DA9  07B5               	addwf	___flmul@grs+3,f
  5961  0DAA                     u4053:
  5962  0DAA                     l2782:
  5963  0DAA  083D               	movf	___flmul@temp+1,w
  5964  0DAB  00AC               	movwf	??___flmul
  5965  0DAC  01AD               	clrf	??___flmul+1
  5966  0DAD  01AE               	clrf	??___flmul+2
  5967  0DAE  01AF               	clrf	??___flmul+3
  5968  0DAF  082C               	movf	??___flmul,w
  5969  0DB0  07B8               	addwf	___flmul@prod,f
  5970  0DB1  082D               	movf	??___flmul+1,w
  5971  0DB2  1103               	clrz
  5972  0DB3  1803               	skipnc
  5973  0DB4  3E01               	addlw	1
  5974  0DB5  1903               	skipnz
  5975  0DB6  2DB8               	goto	u4061
  5976  0DB7  07B9               	addwf	___flmul@prod+1,f
  5977  0DB8                     u4061:
  5978  0DB8  082E               	movf	??___flmul+2,w
  5979  0DB9  1103               	clrz
  5980  0DBA  1803               	skipnc
  5981  0DBB  3E01               	addlw	1
  5982  0DBC  1903               	skipnz
  5983  0DBD  2DBF               	goto	u4062
  5984  0DBE  07BA               	addwf	___flmul@prod+2,f
  5985  0DBF                     u4062:
  5986  0DBF  082F               	movf	??___flmul+3,w
  5987  0DC0  1103               	clrz
  5988  0DC1  1803               	skipnc
  5989  0DC2  3E01               	addlw	1
  5990  0DC3  1903               	skipnz
  5991  0DC4  2DC6               	goto	u4063
  5992  0DC5  07BB               	addwf	___flmul@prod+3,f
  5993  0DC6                     u4063:
  5994  0DC6                     l2784:
  5995  0DC6  3008               	movlw	8
  5996  0DC7  00AC               	movwf	??___flmul
  5997  0DC8                     u4075:
  5998  0DC8  1003               	clrc
  5999  0DC9  0DB2               	rlf	___flmul@grs,f
  6000  0DCA  0DB3               	rlf	___flmul@grs+1,f
  6001  0DCB  0DB4               	rlf	___flmul@grs+2,f
  6002  0DCC  0DB5               	rlf	___flmul@grs+3,f
  6003  0DCD  0BAC               	decfsz	??___flmul,f
  6004  0DCE  2DC8               	goto	u4075
  6005  0DCF                     l2786:
  6006  0DCF  0825               	movf	___flmul@b+1,w
  6007  0DD0  00AC               	movwf	??___flmul
  6008  0DD1  082C               	movf	??___flmul,w
  6009  0DD2  00F0               	movwf	__Umul8_16@multiplicand
  6010  0DD3  0828               	movf	___flmul@a,w
  6011  0DD4  160A  158A  2421  120A  158A  	fcall	__Umul8_16
  6012  0DD9  0871               	movf	?__Umul8_16+1,w
  6013  0DDA  1283               	bcf	3,5	;RP0=0, select bank0
  6014  0DDB  1303               	bcf	3,6	;RP1=0, select bank0
  6015  0DDC  00BD               	movwf	___flmul@temp+1
  6016  0DDD  0870               	movf	?__Umul8_16,w
  6017  0DDE  00BC               	movwf	___flmul@temp
  6018  0DDF                     l2788:
  6019  0DDF  083C               	movf	___flmul@temp,w
  6020  0DE0  00AC               	movwf	??___flmul
  6021  0DE1  083D               	movf	___flmul@temp+1,w
  6022  0DE2  00AD               	movwf	??___flmul+1
  6023  0DE3  01AE               	clrf	??___flmul+2
  6024  0DE4  01AF               	clrf	??___flmul+3
  6025  0DE5  082C               	movf	??___flmul,w
  6026  0DE6  07B2               	addwf	___flmul@grs,f
  6027  0DE7  082D               	movf	??___flmul+1,w
  6028  0DE8  1103               	clrz
  6029  0DE9  1803               	skipnc
  6030  0DEA  3E01               	addlw	1
  6031  0DEB  1903               	skipnz
  6032  0DEC  2DEE               	goto	u4081
  6033  0DED  07B3               	addwf	___flmul@grs+1,f
  6034  0DEE                     u4081:
  6035  0DEE  082E               	movf	??___flmul+2,w
  6036  0DEF  1103               	clrz
  6037  0DF0  1803               	skipnc
  6038  0DF1  3E01               	addlw	1
  6039  0DF2  1903               	skipnz
  6040  0DF3  2DF5               	goto	u4082
  6041  0DF4  07B4               	addwf	___flmul@grs+2,f
  6042  0DF5                     u4082:
  6043  0DF5  082F               	movf	??___flmul+3,w
  6044  0DF6  1103               	clrz
  6045  0DF7  1803               	skipnc
  6046  0DF8  3E01               	addlw	1
  6047  0DF9  1903               	skipnz
  6048  0DFA  2DFC               	goto	u4083
  6049  0DFB  07B5               	addwf	___flmul@grs+3,f
  6050  0DFC                     u4083:
  6051  0DFC                     l2790:
  6052  0DFC  0824               	movf	___flmul@b,w
  6053  0DFD  00AC               	movwf	??___flmul
  6054  0DFE  082C               	movf	??___flmul,w
  6055  0DFF  00F0               	movwf	__Umul8_16@multiplicand
  6056  0E00  0829               	movf	___flmul@a+1,w
  6057  0E01  160A  158A  2421  120A  158A  	fcall	__Umul8_16
  6058  0E06  0871               	movf	?__Umul8_16+1,w
  6059  0E07  1283               	bcf	3,5	;RP0=0, select bank0
  6060  0E08  1303               	bcf	3,6	;RP1=0, select bank0
  6061  0E09  00BD               	movwf	___flmul@temp+1
  6062  0E0A  0870               	movf	?__Umul8_16,w
  6063  0E0B  00BC               	movwf	___flmul@temp
  6064  0E0C                     l2792:
  6065  0E0C  083C               	movf	___flmul@temp,w
  6066  0E0D  00AC               	movwf	??___flmul
  6067  0E0E  083D               	movf	___flmul@temp+1,w
  6068  0E0F  00AD               	movwf	??___flmul+1
  6069  0E10  01AE               	clrf	??___flmul+2
  6070  0E11  01AF               	clrf	??___flmul+3
  6071  0E12  082C               	movf	??___flmul,w
  6072  0E13  07B2               	addwf	___flmul@grs,f
  6073  0E14  082D               	movf	??___flmul+1,w
  6074  0E15  1103               	clrz
  6075  0E16  1803               	skipnc
  6076  0E17  3E01               	addlw	1
  6077  0E18  1903               	skipnz
  6078  0E19  2E1B               	goto	u4091
  6079  0E1A  07B3               	addwf	___flmul@grs+1,f
  6080  0E1B                     u4091:
  6081  0E1B  082E               	movf	??___flmul+2,w
  6082  0E1C  1103               	clrz
  6083  0E1D  1803               	skipnc
  6084  0E1E  3E01               	addlw	1
  6085  0E1F  1903               	skipnz
  6086  0E20  2E22               	goto	u4092
  6087  0E21  07B4               	addwf	___flmul@grs+2,f
  6088  0E22                     u4092:
  6089  0E22  082F               	movf	??___flmul+3,w
  6090  0E23  1103               	clrz
  6091  0E24  1803               	skipnc
  6092  0E25  3E01               	addlw	1
  6093  0E26  1903               	skipnz
  6094  0E27  2E29               	goto	u4093
  6095  0E28  07B5               	addwf	___flmul@grs+3,f
  6096  0E29                     u4093:
  6097  0E29                     l2794:
  6098  0E29  3008               	movlw	8
  6099  0E2A  00AC               	movwf	??___flmul
  6100  0E2B                     u4105:
  6101  0E2B  1003               	clrc
  6102  0E2C  0DB2               	rlf	___flmul@grs,f
  6103  0E2D  0DB3               	rlf	___flmul@grs+1,f
  6104  0E2E  0DB4               	rlf	___flmul@grs+2,f
  6105  0E2F  0DB5               	rlf	___flmul@grs+3,f
  6106  0E30  0BAC               	decfsz	??___flmul,f
  6107  0E31  2E2B               	goto	u4105
  6108  0E32  0824               	movf	___flmul@b,w
  6109  0E33  00AC               	movwf	??___flmul
  6110  0E34  082C               	movf	??___flmul,w
  6111  0E35  00F0               	movwf	__Umul8_16@multiplicand
  6112  0E36  0828               	movf	___flmul@a,w
  6113  0E37  160A  158A  2421  120A  158A  	fcall	__Umul8_16
  6114  0E3C  0871               	movf	?__Umul8_16+1,w
  6115  0E3D  1283               	bcf	3,5	;RP0=0, select bank0
  6116  0E3E  1303               	bcf	3,6	;RP1=0, select bank0
  6117  0E3F  00BD               	movwf	___flmul@temp+1
  6118  0E40  0870               	movf	?__Umul8_16,w
  6119  0E41  00BC               	movwf	___flmul@temp
  6120  0E42                     l2796:
  6121  0E42  083C               	movf	___flmul@temp,w
  6122  0E43  00AC               	movwf	??___flmul
  6123  0E44  083D               	movf	___flmul@temp+1,w
  6124  0E45  00AD               	movwf	??___flmul+1
  6125  0E46  01AE               	clrf	??___flmul+2
  6126  0E47  01AF               	clrf	??___flmul+3
  6127  0E48  082C               	movf	??___flmul,w
  6128  0E49  07B2               	addwf	___flmul@grs,f
  6129  0E4A  082D               	movf	??___flmul+1,w
  6130  0E4B  1103               	clrz
  6131  0E4C  1803               	skipnc
  6132  0E4D  3E01               	addlw	1
  6133  0E4E  1903               	skipnz
  6134  0E4F  2E51               	goto	u4111
  6135  0E50  07B3               	addwf	___flmul@grs+1,f
  6136  0E51                     u4111:
  6137  0E51  082E               	movf	??___flmul+2,w
  6138  0E52  1103               	clrz
  6139  0E53  1803               	skipnc
  6140  0E54  3E01               	addlw	1
  6141  0E55  1903               	skipnz
  6142  0E56  2E58               	goto	u4112
  6143  0E57  07B4               	addwf	___flmul@grs+2,f
  6144  0E58                     u4112:
  6145  0E58  082F               	movf	??___flmul+3,w
  6146  0E59  1103               	clrz
  6147  0E5A  1803               	skipnc
  6148  0E5B  3E01               	addlw	1
  6149  0E5C  1903               	skipnz
  6150  0E5D  2E5F               	goto	u4113
  6151  0E5E  07B5               	addwf	___flmul@grs+3,f
  6152  0E5F                     u4113:
  6153  0E5F                     l2798:
  6154  0E5F  0825               	movf	___flmul@b+1,w
  6155  0E60  00AC               	movwf	??___flmul
  6156  0E61  082C               	movf	??___flmul,w
  6157  0E62  00F0               	movwf	__Umul8_16@multiplicand
  6158  0E63  082A               	movf	___flmul@a+2,w
  6159  0E64  160A  158A  2421  120A  158A  	fcall	__Umul8_16
  6160  0E69  0871               	movf	?__Umul8_16+1,w
  6161  0E6A  1283               	bcf	3,5	;RP0=0, select bank0
  6162  0E6B  1303               	bcf	3,6	;RP1=0, select bank0
  6163  0E6C  00BD               	movwf	___flmul@temp+1
  6164  0E6D  0870               	movf	?__Umul8_16,w
  6165  0E6E  00BC               	movwf	___flmul@temp
  6166  0E6F  083C               	movf	___flmul@temp,w
  6167  0E70  00AC               	movwf	??___flmul
  6168  0E71  083D               	movf	___flmul@temp+1,w
  6169  0E72  00AD               	movwf	??___flmul+1
  6170  0E73  01AE               	clrf	??___flmul+2
  6171  0E74  01AF               	clrf	??___flmul+3
  6172  0E75  082C               	movf	??___flmul,w
  6173  0E76  07B8               	addwf	___flmul@prod,f
  6174  0E77  082D               	movf	??___flmul+1,w
  6175  0E78  1103               	clrz
  6176  0E79  1803               	skipnc
  6177  0E7A  3E01               	addlw	1
  6178  0E7B  1903               	skipnz
  6179  0E7C  2E7E               	goto	u4121
  6180  0E7D  07B9               	addwf	___flmul@prod+1,f
  6181  0E7E                     u4121:
  6182  0E7E  082E               	movf	??___flmul+2,w
  6183  0E7F  1103               	clrz
  6184  0E80  1803               	skipnc
  6185  0E81  3E01               	addlw	1
  6186  0E82  1903               	skipnz
  6187  0E83  2E85               	goto	u4122
  6188  0E84  07BA               	addwf	___flmul@prod+2,f
  6189  0E85                     u4122:
  6190  0E85  082F               	movf	??___flmul+3,w
  6191  0E86  1103               	clrz
  6192  0E87  1803               	skipnc
  6193  0E88  3E01               	addlw	1
  6194  0E89  1903               	skipnz
  6195  0E8A  2E8C               	goto	u4123
  6196  0E8B  07BB               	addwf	___flmul@prod+3,f
  6197  0E8C                     u4123:
  6198  0E8C                     l2800:
  6199  0E8C  0826               	movf	___flmul@b+2,w
  6200  0E8D  00AC               	movwf	??___flmul
  6201  0E8E  082C               	movf	??___flmul,w
  6202  0E8F  00F0               	movwf	__Umul8_16@multiplicand
  6203  0E90  0829               	movf	___flmul@a+1,w
  6204  0E91  160A  158A  2421  120A  158A  	fcall	__Umul8_16
  6205  0E96  0871               	movf	?__Umul8_16+1,w
  6206  0E97  1283               	bcf	3,5	;RP0=0, select bank0
  6207  0E98  1303               	bcf	3,6	;RP1=0, select bank0
  6208  0E99  00BD               	movwf	___flmul@temp+1
  6209  0E9A  0870               	movf	?__Umul8_16,w
  6210  0E9B  00BC               	movwf	___flmul@temp
  6211  0E9C                     l2802:
  6212  0E9C  083C               	movf	___flmul@temp,w
  6213  0E9D  00AC               	movwf	??___flmul
  6214  0E9E  083D               	movf	___flmul@temp+1,w
  6215  0E9F  00AD               	movwf	??___flmul+1
  6216  0EA0  01AE               	clrf	??___flmul+2
  6217  0EA1  01AF               	clrf	??___flmul+3
  6218  0EA2  082C               	movf	??___flmul,w
  6219  0EA3  07B8               	addwf	___flmul@prod,f
  6220  0EA4  082D               	movf	??___flmul+1,w
  6221  0EA5  1103               	clrz
  6222  0EA6  1803               	skipnc
  6223  0EA7  3E01               	addlw	1
  6224  0EA8  1903               	skipnz
  6225  0EA9  2EAB               	goto	u4131
  6226  0EAA  07B9               	addwf	___flmul@prod+1,f
  6227  0EAB                     u4131:
  6228  0EAB  082E               	movf	??___flmul+2,w
  6229  0EAC  1103               	clrz
  6230  0EAD  1803               	skipnc
  6231  0EAE  3E01               	addlw	1
  6232  0EAF  1903               	skipnz
  6233  0EB0  2EB2               	goto	u4132
  6234  0EB1  07BA               	addwf	___flmul@prod+2,f
  6235  0EB2                     u4132:
  6236  0EB2  082F               	movf	??___flmul+3,w
  6237  0EB3  1103               	clrz
  6238  0EB4  1803               	skipnc
  6239  0EB5  3E01               	addlw	1
  6240  0EB6  1903               	skipnz
  6241  0EB7  2EB9               	goto	u4133
  6242  0EB8  07BB               	addwf	___flmul@prod+3,f
  6243  0EB9                     u4133:
  6244  0EB9  0826               	movf	___flmul@b+2,w
  6245  0EBA  00AC               	movwf	??___flmul
  6246  0EBB  082C               	movf	??___flmul,w
  6247  0EBC  00F0               	movwf	__Umul8_16@multiplicand
  6248  0EBD  082A               	movf	___flmul@a+2,w
  6249  0EBE  160A  158A  2421  120A  158A  	fcall	__Umul8_16
  6250  0EC3  0871               	movf	?__Umul8_16+1,w
  6251  0EC4  1283               	bcf	3,5	;RP0=0, select bank0
  6252  0EC5  1303               	bcf	3,6	;RP1=0, select bank0
  6253  0EC6  00BD               	movwf	___flmul@temp+1
  6254  0EC7  0870               	movf	?__Umul8_16,w
  6255  0EC8  00BC               	movwf	___flmul@temp
  6256  0EC9                     l2804:
  6257  0EC9  083C               	movf	___flmul@temp,w
  6258  0ECA  00AC               	movwf	??___flmul
  6259  0ECB  083D               	movf	___flmul@temp+1,w
  6260  0ECC  00AD               	movwf	??___flmul+1
  6261  0ECD  01AE               	clrf	??___flmul+2
  6262  0ECE  01AF               	clrf	??___flmul+3
  6263  0ECF  3008               	movlw	8
  6264  0ED0                     u4145:
  6265  0ED0  1003               	clrc
  6266  0ED1  0DAC               	rlf	??___flmul,f
  6267  0ED2  0DAD               	rlf	??___flmul+1,f
  6268  0ED3  0DAE               	rlf	??___flmul+2,f
  6269  0ED4  0DAF               	rlf	??___flmul+3,f
  6270  0ED5                     u4140:
  6271  0ED5  3EFF               	addlw	-1
  6272  0ED6  1D03               	skipz
  6273  0ED7  2ED0               	goto	u4145
  6274  0ED8  082C               	movf	??___flmul,w
  6275  0ED9  07B8               	addwf	___flmul@prod,f
  6276  0EDA  082D               	movf	??___flmul+1,w
  6277  0EDB  1103               	clrz
  6278  0EDC  1803               	skipnc
  6279  0EDD  3E01               	addlw	1
  6280  0EDE  1903               	skipnz
  6281  0EDF  2EE1               	goto	u4151
  6282  0EE0  07B9               	addwf	___flmul@prod+1,f
  6283  0EE1                     u4151:
  6284  0EE1  082E               	movf	??___flmul+2,w
  6285  0EE2  1103               	clrz
  6286  0EE3  1803               	skipnc
  6287  0EE4  3E01               	addlw	1
  6288  0EE5  1903               	skipnz
  6289  0EE6  2EE8               	goto	u4152
  6290  0EE7  07BA               	addwf	___flmul@prod+2,f
  6291  0EE8                     u4152:
  6292  0EE8  082F               	movf	??___flmul+3,w
  6293  0EE9  1103               	clrz
  6294  0EEA  1803               	skipnc
  6295  0EEB  3E01               	addlw	1
  6296  0EEC  1903               	skipnz
  6297  0EED  2EEF               	goto	u4153
  6298  0EEE  07BB               	addwf	___flmul@prod+3,f
  6299  0EEF                     u4153:
  6300  0EEF                     l2806:
  6301  0EEF  0832               	movf	___flmul@grs,w
  6302  0EF0  00AC               	movwf	??___flmul
  6303  0EF1  0833               	movf	___flmul@grs+1,w
  6304  0EF2  00AD               	movwf	??___flmul+1
  6305  0EF3  0834               	movf	___flmul@grs+2,w
  6306  0EF4  00AE               	movwf	??___flmul+2
  6307  0EF5  0835               	movf	___flmul@grs+3,w
  6308  0EF6  00AF               	movwf	??___flmul+3
  6309  0EF7  3018               	movlw	24
  6310  0EF8                     u4165:
  6311  0EF8  1003               	clrc
  6312  0EF9  0CAF               	rrf	??___flmul+3,f
  6313  0EFA  0CAE               	rrf	??___flmul+2,f
  6314  0EFB  0CAD               	rrf	??___flmul+1,f
  6315  0EFC  0CAC               	rrf	??___flmul,f
  6316  0EFD                     u4160:
  6317  0EFD  3EFF               	addlw	-1
  6318  0EFE  1D03               	skipz
  6319  0EFF  2EF8               	goto	u4165
  6320  0F00  082C               	movf	??___flmul,w
  6321  0F01  07B8               	addwf	___flmul@prod,f
  6322  0F02  082D               	movf	??___flmul+1,w
  6323  0F03  1103               	clrz
  6324  0F04  1803               	skipnc
  6325  0F05  3E01               	addlw	1
  6326  0F06  1903               	skipnz
  6327  0F07  2F09               	goto	u4171
  6328  0F08  07B9               	addwf	___flmul@prod+1,f
  6329  0F09                     u4171:
  6330  0F09  082E               	movf	??___flmul+2,w
  6331  0F0A  1103               	clrz
  6332  0F0B  1803               	skipnc
  6333  0F0C  3E01               	addlw	1
  6334  0F0D  1903               	skipnz
  6335  0F0E  2F10               	goto	u4172
  6336  0F0F  07BA               	addwf	___flmul@prod+2,f
  6337  0F10                     u4172:
  6338  0F10  082F               	movf	??___flmul+3,w
  6339  0F11  1103               	clrz
  6340  0F12  1803               	skipnc
  6341  0F13  3E01               	addlw	1
  6342  0F14  1903               	skipnz
  6343  0F15  2F17               	goto	u4173
  6344  0F16  07BB               	addwf	___flmul@prod+3,f
  6345  0F17                     u4173:
  6346  0F17                     l2808:
  6347  0F17  3008               	movlw	8
  6348  0F18  00AC               	movwf	??___flmul
  6349  0F19                     u4185:
  6350  0F19  1003               	clrc
  6351  0F1A  0DB2               	rlf	___flmul@grs,f
  6352  0F1B  0DB3               	rlf	___flmul@grs+1,f
  6353  0F1C  0DB4               	rlf	___flmul@grs+2,f
  6354  0F1D  0DB5               	rlf	___flmul@grs+3,f
  6355  0F1E  0BAC               	decfsz	??___flmul,f
  6356  0F1F  2F19               	goto	u4185
  6357  0F20                     l2810:
  6358  0F20  0837               	movf	___flmul@bexp,w
  6359  0F21  0736               	addwf	___flmul@aexp,w
  6360  0F22  00AC               	movwf	??___flmul
  6361  0F23  01AD               	clrf	??___flmul+1
  6362  0F24  0DAD               	rlf	??___flmul+1,f
  6363  0F25  082C               	movf	??___flmul,w
  6364  0F26  3E82               	addlw	130
  6365  0F27  00BC               	movwf	___flmul@temp
  6366  0F28  082D               	movf	??___flmul+1,w
  6367  0F29  1803               	skipnc
  6368  0F2A  3E01               	addlw	1
  6369  0F2B  3EFF               	addlw	255
  6370  0F2C  00BD               	movwf	___flmul@temp+1
  6371  0F2D  2F4B               	goto	l2822
  6372  0F2E                     l2812:
  6373  0F2E  3001               	movlw	1
  6374  0F2F  00AC               	movwf	??___flmul
  6375  0F30                     u4195:
  6376  0F30  1003               	clrc
  6377  0F31  0DB8               	rlf	___flmul@prod,f
  6378  0F32  0DB9               	rlf	___flmul@prod+1,f
  6379  0F33  0DBA               	rlf	___flmul@prod+2,f
  6380  0F34  0DBB               	rlf	___flmul@prod+3,f
  6381  0F35  0BAC               	decfsz	??___flmul,f
  6382  0F36  2F30               	goto	u4195
  6383  0F37                     l2814:
  6384  0F37  1FB5               	btfss	___flmul@grs+3,7
  6385  0F38  2F3A               	goto	u4201
  6386  0F39  2F3B               	goto	u4200
  6387  0F3A                     u4201:
  6388  0F3A  2F3C               	goto	l2818
  6389  0F3B                     u4200:
  6390  0F3B                     l2816:
  6391  0F3B  1438               	bsf	___flmul@prod,0
  6392  0F3C                     l2818:
  6393  0F3C  3001               	movlw	1
  6394  0F3D  00AC               	movwf	??___flmul
  6395  0F3E                     u4215:
  6396  0F3E  1003               	clrc
  6397  0F3F  0DB2               	rlf	___flmul@grs,f
  6398  0F40  0DB3               	rlf	___flmul@grs+1,f
  6399  0F41  0DB4               	rlf	___flmul@grs+2,f
  6400  0F42  0DB5               	rlf	___flmul@grs+3,f
  6401  0F43  0BAC               	decfsz	??___flmul,f
  6402  0F44  2F3E               	goto	u4215
  6403  0F45                     l2820:
  6404  0F45  30FF               	movlw	255
  6405  0F46  07BC               	addwf	___flmul@temp,f
  6406  0F47  1803               	skipnc
  6407  0F48  0ABD               	incf	___flmul@temp+1,f
  6408  0F49  30FF               	movlw	255
  6409  0F4A  07BD               	addwf	___flmul@temp+1,f
  6410  0F4B                     l2822:
  6411  0F4B  1FBA               	btfss	___flmul@prod+2,7
  6412  0F4C  2F4E               	goto	u4221
  6413  0F4D  2F4F               	goto	u4220
  6414  0F4E                     u4221:
  6415  0F4E  2F2E               	goto	l2812
  6416  0F4F                     u4220:
  6417  0F4F                     l2824:
  6418  0F4F  01B6               	clrf	___flmul@aexp
  6419  0F50                     l2826:
  6420  0F50  1FB5               	btfss	___flmul@grs+3,7
  6421  0F51  2F53               	goto	u4231
  6422  0F52  2F54               	goto	u4230
  6423  0F53                     u4231:
  6424  0F53  2F70               	goto	l2834
  6425  0F54                     u4230:
  6426  0F54                     l2828:
  6427  0F54  30FF               	movlw	255
  6428  0F55  0532               	andwf	___flmul@grs,w
  6429  0F56  00AC               	movwf	??___flmul
  6430  0F57  30FF               	movlw	255
  6431  0F58  0533               	andwf	___flmul@grs+1,w
  6432  0F59  00AD               	movwf	??___flmul+1
  6433  0F5A  30FF               	movlw	255
  6434  0F5B  0534               	andwf	___flmul@grs+2,w
  6435  0F5C  00AE               	movwf	??___flmul+2
  6436  0F5D  307F               	movlw	127
  6437  0F5E  0535               	andwf	___flmul@grs+3,w
  6438  0F5F  00AF               	movwf	??___flmul+3
  6439  0F60  082F               	movf	??___flmul+3,w
  6440  0F61  042E               	iorwf	??___flmul+2,w
  6441  0F62  042D               	iorwf	??___flmul+1,w
  6442  0F63  042C               	iorwf	??___flmul,w
  6443  0F64  1903               	skipnz
  6444  0F65  2F67               	goto	u4241
  6445  0F66  2F68               	goto	u4240
  6446  0F67                     u4241:
  6447  0F67  2F6B               	goto	l637
  6448  0F68                     u4240:
  6449  0F68                     l2830:
  6450  0F68  01B6               	clrf	___flmul@aexp
  6451  0F69  0AB6               	incf	___flmul@aexp,f
  6452  0F6A  2F70               	goto	l2834
  6453  0F6B                     l637:
  6454  0F6B  1C38               	btfss	___flmul@prod,0
  6455  0F6C  2F6E               	goto	u4251
  6456  0F6D  2F6F               	goto	u4250
  6457  0F6E                     u4251:
  6458  0F6E  2F70               	goto	l2834
  6459  0F6F                     u4250:
  6460  0F6F  2F68               	goto	l2830
  6461  0F70                     l2834:
  6462  0F70  0836               	movf	___flmul@aexp,w
  6463  0F71  1903               	btfsc	3,2
  6464  0F72  2F74               	goto	u4261
  6465  0F73  2F75               	goto	u4260
  6466  0F74                     u4261:
  6467  0F74  2FA6               	goto	l2844
  6468  0F75                     u4260:
  6469  0F75                     l2836:
  6470  0F75  3001               	movlw	1
  6471  0F76  07B8               	addwf	___flmul@prod,f
  6472  0F77  3000               	movlw	0
  6473  0F78  1803               	skipnc
  6474  0F79  3001               	movlw	1
  6475  0F7A  07B9               	addwf	___flmul@prod+1,f
  6476  0F7B  3000               	movlw	0
  6477  0F7C  1803               	skipnc
  6478  0F7D  3001               	movlw	1
  6479  0F7E  07BA               	addwf	___flmul@prod+2,f
  6480  0F7F  3000               	movlw	0
  6481  0F80  1803               	skipnc
  6482  0F81  3001               	movlw	1
  6483  0F82  07BB               	addwf	___flmul@prod+3,f
  6484  0F83                     l2838:
  6485  0F83  1C3B               	btfss	___flmul@prod+3,0
  6486  0F84  2F86               	goto	u4271
  6487  0F85  2F87               	goto	u4270
  6488  0F86                     u4271:
  6489  0F86  2FA6               	goto	l2844
  6490  0F87                     u4270:
  6491  0F87                     l2840:
  6492  0F87  0838               	movf	___flmul@prod,w
  6493  0F88  00AC               	movwf	??___flmul
  6494  0F89  0839               	movf	___flmul@prod+1,w
  6495  0F8A  00AD               	movwf	??___flmul+1
  6496  0F8B  083A               	movf	___flmul@prod+2,w
  6497  0F8C  00AE               	movwf	??___flmul+2
  6498  0F8D  083B               	movf	___flmul@prod+3,w
  6499  0F8E  00AF               	movwf	??___flmul+3
  6500  0F8F  3001               	movlw	1
  6501  0F90  00B0               	movwf	??___flmul+4
  6502  0F91                     u4285:
  6503  0F91  0D2F               	rlf	??___flmul+3,w
  6504  0F92  0CAF               	rrf	??___flmul+3,f
  6505  0F93  0CAE               	rrf	??___flmul+2,f
  6506  0F94  0CAD               	rrf	??___flmul+1,f
  6507  0F95  0CAC               	rrf	??___flmul,f
  6508  0F96                     u4280:
  6509  0F96  0BB0               	decfsz	??___flmul+4,f
  6510  0F97  2F91               	goto	u4285
  6511  0F98  082F               	movf	??___flmul+3,w
  6512  0F99  00BB               	movwf	___flmul@prod+3
  6513  0F9A  082E               	movf	??___flmul+2,w
  6514  0F9B  00BA               	movwf	___flmul@prod+2
  6515  0F9C  082D               	movf	??___flmul+1,w
  6516  0F9D  00B9               	movwf	___flmul@prod+1
  6517  0F9E  082C               	movf	??___flmul,w
  6518  0F9F  00B8               	movwf	___flmul@prod
  6519  0FA0                     l2842:
  6520  0FA0  3001               	movlw	1
  6521  0FA1  07BC               	addwf	___flmul@temp,f
  6522  0FA2  1803               	skipnc
  6523  0FA3  0ABD               	incf	___flmul@temp+1,f
  6524  0FA4  3000               	movlw	0
  6525  0FA5  07BD               	addwf	___flmul@temp+1,f
  6526  0FA6                     l2844:
  6527  0FA6  083D               	movf	___flmul@temp+1,w
  6528  0FA7  3A80               	xorlw	128
  6529  0FA8  00FF               	movwf	btemp+1
  6530  0FA9  3080               	movlw	128
  6531  0FAA  027F               	subwf	btemp+1,w
  6532  0FAB  1D03               	skipz
  6533  0FAC  2FAF               	goto	u4295
  6534  0FAD  30FF               	movlw	255
  6535  0FAE  023C               	subwf	___flmul@temp,w
  6536  0FAF                     u4295:
  6537  0FAF  1C03               	skipc
  6538  0FB0  2FB2               	goto	u4291
  6539  0FB1  2FB3               	goto	u4290
  6540  0FB2                     u4291:
  6541  0FB2  2FBE               	goto	l2848
  6542  0FB3                     u4290:
  6543  0FB3                     l2846:
  6544  0FB3  307F               	movlw	127
  6545  0FB4  1283               	bcf	3,5	;RP0=0, select bank0
  6546  0FB5  1303               	bcf	3,6	;RP1=0, select bank0
  6547  0FB6  00BB               	movwf	___flmul@prod+3
  6548  0FB7  3080               	movlw	128
  6549  0FB8  00BA               	movwf	___flmul@prod+2
  6550  0FB9  3000               	movlw	0
  6551  0FBA  00B9               	movwf	___flmul@prod+1
  6552  0FBB  3000               	movlw	0
  6553  0FBC  00B8               	movwf	___flmul@prod
  6554  0FBD  2FF3               	goto	l643
  6555  0FBE                     l2848:
  6556  0FBE  1283               	bcf	3,5	;RP0=0, select bank0
  6557  0FBF  1303               	bcf	3,6	;RP1=0, select bank0
  6558  0FC0  083D               	movf	___flmul@temp+1,w
  6559  0FC1  3A80               	xorlw	128
  6560  0FC2  00FF               	movwf	btemp+1
  6561  0FC3  3080               	movlw	128
  6562  0FC4  027F               	subwf	btemp+1,w
  6563  0FC5  1D03               	skipz
  6564  0FC6  2FC9               	goto	u4305
  6565  0FC7  3001               	movlw	1
  6566  0FC8  023C               	subwf	___flmul@temp,w
  6567  0FC9                     u4305:
  6568  0FC9  1803               	skipnc
  6569  0FCA  2FCC               	goto	u4301
  6570  0FCB  2FCD               	goto	u4300
  6571  0FCC                     u4301:
  6572  0FCC  2FD9               	goto	l2854
  6573  0FCD                     u4300:
  6574  0FCD                     l2850:
  6575  0FCD  3000               	movlw	0
  6576  0FCE  1283               	bcf	3,5	;RP0=0, select bank0
  6577  0FCF  1303               	bcf	3,6	;RP1=0, select bank0
  6578  0FD0  00BB               	movwf	___flmul@prod+3
  6579  0FD1  3000               	movlw	0
  6580  0FD2  00BA               	movwf	___flmul@prod+2
  6581  0FD3  3000               	movlw	0
  6582  0FD4  00B9               	movwf	___flmul@prod+1
  6583  0FD5  3000               	movlw	0
  6584  0FD6  00B8               	movwf	___flmul@prod
  6585  0FD7                     l2852:
  6586  0FD7  01B1               	clrf	___flmul@sign
  6587  0FD8  2FF3               	goto	l643
  6588  0FD9                     l2854:
  6589  0FD9  1283               	bcf	3,5	;RP0=0, select bank0
  6590  0FDA  1303               	bcf	3,6	;RP1=0, select bank0
  6591  0FDB  083C               	movf	___flmul@temp,w
  6592  0FDC  00AC               	movwf	??___flmul
  6593  0FDD  082C               	movf	??___flmul,w
  6594  0FDE  00B7               	movwf	___flmul@bexp
  6595  0FDF  30FF               	movlw	255
  6596  0FE0  05B8               	andwf	___flmul@prod,f
  6597  0FE1  30FF               	movlw	255
  6598  0FE2  05B9               	andwf	___flmul@prod+1,f
  6599  0FE3  307F               	movlw	127
  6600  0FE4  05BA               	andwf	___flmul@prod+2,f
  6601  0FE5  3000               	movlw	0
  6602  0FE6  05BB               	andwf	___flmul@prod+3,f
  6603  0FE7                     l2856:
  6604  0FE7  1C37               	btfss	___flmul@bexp,0
  6605  0FE8  2FEA               	goto	u4311
  6606  0FE9  2FEB               	goto	u4310
  6607  0FEA                     u4311:
  6608  0FEA  2FEC               	goto	l2860
  6609  0FEB                     u4310:
  6610  0FEB                     l2858:
  6611  0FEB  17BA               	bsf	___flmul@prod+2,7
  6612  0FEC                     l2860:
  6613  0FEC  0837               	movf	___flmul@bexp,w
  6614  0FED  00AC               	movwf	??___flmul
  6615  0FEE  1003               	clrc
  6616  0FEF  0C2C               	rrf	??___flmul,w
  6617  0FF0  00AD               	movwf	??___flmul+1
  6618  0FF1  082D               	movf	??___flmul+1,w
  6619  0FF2  00BB               	movwf	___flmul@prod+3
  6620  0FF3                     l643:
  6621  0FF3  0831               	movf	___flmul@sign,w
  6622  0FF4  00AC               	movwf	??___flmul
  6623  0FF5  082C               	movf	??___flmul,w
  6624  0FF6  04BB               	iorwf	___flmul@prod+3,f
  6625  0FF7                     l2862:
  6626  0FF7  083B               	movf	___flmul@prod+3,w
  6627  0FF8  00A7               	movwf	?___flmul+3
  6628  0FF9  083A               	movf	___flmul@prod+2,w
  6629  0FFA  00A6               	movwf	?___flmul+2
  6630  0FFB  0839               	movf	___flmul@prod+1,w
  6631  0FFC  00A5               	movwf	?___flmul+1
  6632  0FFD  0838               	movf	___flmul@prod,w
  6633  0FFE  00A4               	movwf	?___flmul
  6634  0FFF                     l631:
  6635  0FFF  0008               	return
  6636  1000                     __end_of___flmul:
  6637                           
  6638                           	psect	text14
  6639  1C21                     __ptext14:	
  6640 ;; *************** function __Umul8_16 *****************
  6641 ;; Defined at:
  6642 ;;		line 4 in file "C:\Program Files\Microchip\xc8\v2.36\pic\sources\c90\common\Umul8_16.c"
  6643 ;; Parameters:    Size  Location     Type
  6644 ;;  multiplier      1    wreg     unsigned char 
  6645 ;;  multiplicand    1    0[COMMON] unsigned char 
  6646 ;; Auto vars:     Size  Location     Type
  6647 ;;  multiplier      1    8[COMMON] unsigned char 
  6648 ;;  word_mpld       2    6[COMMON] unsigned int 
  6649 ;;  product         2    4[COMMON] unsigned int 
  6650 ;; Return value:  Size  Location     Type
  6651 ;;                  2    0[COMMON] unsigned int 
  6652 ;; Registers used:
  6653 ;;		wreg, status,2, status,0
  6654 ;; Tracked objects:
  6655 ;;		On entry : 0/0
  6656 ;;		On exit  : 0/0
  6657 ;;		Unchanged: 0/0
  6658 ;; Data sizes:     COMMON   BANK0   BANK1   BANK3   BANK2
  6659 ;;      Params:         2       0       0       0       0
  6660 ;;      Locals:         5       0       0       0       0
  6661 ;;      Temps:          2       0       0       0       0
  6662 ;;      Totals:         9       0       0       0       0
  6663 ;;Total ram usage:        9 bytes
  6664 ;; Hardware stack levels used: 1
  6665 ;; This function calls:
  6666 ;;		Nothing
  6667 ;; This function is called by:
  6668 ;;		___flmul
  6669 ;; This function uses a non-reentrant model
  6670 ;;
  6671                           
  6672  1C21                     __Umul8_16:	
  6673                           ;psect for function __Umul8_16
  6674                           
  6675                           
  6676                           ;incstack = 0
  6677                           ; Regs used in __Umul8_16: [wreg+status,2+status,0]
  6678                           ;__Umul8_16@multiplier stored from wreg
  6679  1C21  00F8               	movwf	__Umul8_16@multiplier
  6680  1C22                     l2384:
  6681  1C22  01F4               	clrf	__Umul8_16@product
  6682  1C23  01F5               	clrf	__Umul8_16@product+1
  6683  1C24                     l2386:
  6684  1C24  0870               	movf	__Umul8_16@multiplicand,w
  6685  1C25  00F2               	movwf	??__Umul8_16
  6686  1C26  01F3               	clrf	??__Umul8_16+1
  6687  1C27  0872               	movf	??__Umul8_16,w
  6688  1C28  00F6               	movwf	__Umul8_16@word_mpld
  6689  1C29  0873               	movf	??__Umul8_16+1,w
  6690  1C2A  00F7               	movwf	__Umul8_16@word_mpld+1
  6691  1C2B                     l2388:
  6692  1C2B  1C78               	btfss	__Umul8_16@multiplier,0
  6693  1C2C  2C2E               	goto	u3131
  6694  1C2D  2C2F               	goto	u3130
  6695  1C2E                     u3131:
  6696  1C2E  2C35               	goto	l650
  6697  1C2F                     u3130:
  6698  1C2F                     l2390:
  6699  1C2F  0876               	movf	__Umul8_16@word_mpld,w
  6700  1C30  07F4               	addwf	__Umul8_16@product,f
  6701  1C31  1803               	skipnc
  6702  1C32  0AF5               	incf	__Umul8_16@product+1,f
  6703  1C33  0877               	movf	__Umul8_16@word_mpld+1,w
  6704  1C34  07F5               	addwf	__Umul8_16@product+1,f
  6705  1C35                     l650:
  6706  1C35  3001               	movlw	1
  6707  1C36                     u3145:
  6708  1C36  1003               	clrc
  6709  1C37  0DF6               	rlf	__Umul8_16@word_mpld,f
  6710  1C38  0DF7               	rlf	__Umul8_16@word_mpld+1,f
  6711  1C39  3EFF               	addlw	-1
  6712  1C3A  1D03               	skipz
  6713  1C3B  2C36               	goto	u3145
  6714  1C3C  1003               	clrc
  6715  1C3D  0CF8               	rrf	__Umul8_16@multiplier,f
  6716  1C3E                     l2392:
  6717  1C3E  0878               	movf	__Umul8_16@multiplier,w
  6718  1C3F  1D03               	btfss	3,2
  6719  1C40  2C42               	goto	u3151
  6720  1C41  2C43               	goto	u3150
  6721  1C42                     u3151:
  6722  1C42  2C2B               	goto	l2388
  6723  1C43                     u3150:
  6724  1C43                     l2394:
  6725  1C43  0875               	movf	__Umul8_16@product+1,w
  6726  1C44  00F1               	movwf	?__Umul8_16+1
  6727  1C45  0874               	movf	__Umul8_16@product,w
  6728  1C46  00F0               	movwf	?__Umul8_16
  6729  1C47                     l652:
  6730  1C47  0008               	return
  6731  1C48                     __end_of__Umul8_16:
  6732                           
  6733                           	psect	text15
  6734  10D3                     __ptext15:	
  6735 ;; *************** function __tdiv_to_l_ *****************
  6736 ;; Defined at:
  6737 ;;		line 60 in file "C:\Program Files\Microchip\xc8\v2.36\pic\sources\c90\common\ftdivl.c"
  6738 ;; Parameters:    Size  Location     Type
  6739 ;;  f1              4    0[COMMON] float 
  6740 ;;  f2              4    4[COMMON] float 
  6741 ;; Auto vars:     Size  Location     Type
  6742 ;;  quot            4    0[BANK0 ] unsigned long 
  6743 ;;  exp1            1    5[BANK0 ] unsigned char 
  6744 ;;  cntr            1    4[BANK0 ] unsigned char 
  6745 ;; Return value:  Size  Location     Type
  6746 ;;                  4    0[COMMON] unsigned long 
  6747 ;; Registers used:
  6748 ;;		wreg, status,2, status,0
  6749 ;; Tracked objects:
  6750 ;;		On entry : 0/0
  6751 ;;		On exit  : 0/0
  6752 ;;		Unchanged: 0/0
  6753 ;; Data sizes:     COMMON   BANK0   BANK1   BANK3   BANK2
  6754 ;;      Params:         8       0       0       0       0
  6755 ;;      Locals:         0       6       0       0       0
  6756 ;;      Temps:          4       0       0       0       0
  6757 ;;      Totals:        12       6       0       0       0
  6758 ;;Total ram usage:       18 bytes
  6759 ;; Hardware stack levels used: 1
  6760 ;; This function calls:
  6761 ;;		Nothing
  6762 ;; This function is called by:
  6763 ;;		__doprnt
  6764 ;; This function uses a non-reentrant model
  6765 ;;
  6766                           
  6767  10D3                     __tdiv_to_l_:	
  6768                           ;psect for function __tdiv_to_l_
  6769                           
  6770  10D3                     l3138:	
  6771                           ;incstack = 0
  6772                           ; Regs used in __tdiv_to_l_: [wreg+status,2+status,0]
  6773                           
  6774  10D3  0870               	movf	__tdiv_to_l_@f1,w
  6775  10D4  00F8               	movwf	??__tdiv_to_l_
  6776  10D5  0871               	movf	__tdiv_to_l_@f1+1,w
  6777  10D6  00F9               	movwf	??__tdiv_to_l_+1
  6778  10D7  0872               	movf	__tdiv_to_l_@f1+2,w
  6779  10D8  00FA               	movwf	??__tdiv_to_l_+2
  6780  10D9  1003               	clrc
  6781  10DA  0D79               	rlf	??__tdiv_to_l_+1,w
  6782  10DB  0D7A               	rlf	??__tdiv_to_l_+2,w
  6783  10DC  00FB               	movwf	??__tdiv_to_l_+3
  6784  10DD  087B               	movf	??__tdiv_to_l_+3,w
  6785  10DE  1283               	bcf	3,5	;RP0=0, select bank0
  6786  10DF  1303               	bcf	3,6	;RP1=0, select bank0
  6787  10E0  00A5               	movwf	__tdiv_to_l_@exp1
  6788  10E1  0825               	movf	__tdiv_to_l_@exp1,w
  6789  10E2  1D03               	btfss	3,2
  6790  10E3  28E5               	goto	u5131
  6791  10E4  28E6               	goto	u5130
  6792  10E5                     u5131:
  6793  10E5  28EF               	goto	l3144
  6794  10E6                     u5130:
  6795  10E6                     l3140:
  6796  10E6  3000               	movlw	0
  6797  10E7  00F3               	movwf	?__tdiv_to_l_+3
  6798  10E8  3000               	movlw	0
  6799  10E9  00F2               	movwf	?__tdiv_to_l_+2
  6800  10EA  3000               	movlw	0
  6801  10EB  00F1               	movwf	?__tdiv_to_l_+1
  6802  10EC  3000               	movlw	0
  6803  10ED  00F0               	movwf	?__tdiv_to_l_
  6804  10EE  298F               	goto	l843
  6805  10EF                     l3144:
  6806  10EF  0874               	movf	__tdiv_to_l_@f2,w
  6807  10F0  00F8               	movwf	??__tdiv_to_l_
  6808  10F1  0875               	movf	__tdiv_to_l_@f2+1,w
  6809  10F2  00F9               	movwf	??__tdiv_to_l_+1
  6810  10F3  0876               	movf	__tdiv_to_l_@f2+2,w
  6811  10F4  00FA               	movwf	??__tdiv_to_l_+2
  6812  10F5  1003               	clrc
  6813  10F6  0D79               	rlf	??__tdiv_to_l_+1,w
  6814  10F7  0D7A               	rlf	??__tdiv_to_l_+2,w
  6815  10F8  00FB               	movwf	??__tdiv_to_l_+3
  6816  10F9  087B               	movf	??__tdiv_to_l_+3,w
  6817  10FA  00A4               	movwf	__tdiv_to_l_@cntr
  6818  10FB  0824               	movf	__tdiv_to_l_@cntr,w
  6819  10FC  1D03               	btfss	3,2
  6820  10FD  28FF               	goto	u5141
  6821  10FE  2900               	goto	u5140
  6822  10FF                     u5141:
  6823  10FF  2901               	goto	l844
  6824  1100                     u5140:
  6825  1100  28E6               	goto	l3140
  6826  1101                     l844:
  6827  1101  17F1               	bsf	__tdiv_to_l_@f1+1,7
  6828  1102                     l3150:
  6829  1102  30FF               	movlw	255
  6830  1103  05F0               	andwf	__tdiv_to_l_@f1,f
  6831  1104  30FF               	movlw	255
  6832  1105  05F1               	andwf	__tdiv_to_l_@f1+1,f
  6833  1106  3000               	movlw	0
  6834  1107  05F2               	andwf	__tdiv_to_l_@f1+2,f
  6835  1108                     l3152:
  6836  1108  17F5               	bsf	__tdiv_to_l_@f2+1,7
  6837  1109  30FF               	movlw	255
  6838  110A  05F4               	andwf	__tdiv_to_l_@f2,f
  6839  110B  30FF               	movlw	255
  6840  110C  05F5               	andwf	__tdiv_to_l_@f2+1,f
  6841  110D  3000               	movlw	0
  6842  110E  05F6               	andwf	__tdiv_to_l_@f2+2,f
  6843  110F  3000               	movlw	0
  6844  1110  00A3               	movwf	__tdiv_to_l_@quot+3
  6845  1111  3000               	movlw	0
  6846  1112  00A2               	movwf	__tdiv_to_l_@quot+2
  6847  1113  3000               	movlw	0
  6848  1114  00A1               	movwf	__tdiv_to_l_@quot+1
  6849  1115  3000               	movlw	0
  6850  1116  00A0               	movwf	__tdiv_to_l_@quot
  6851  1117                     l3154:
  6852  1117  307F               	movlw	127
  6853  1118  02A5               	subwf	__tdiv_to_l_@exp1,f
  6854  1119                     l3156:
  6855  1119  3098               	movlw	152
  6856  111A  0724               	addwf	__tdiv_to_l_@cntr,w
  6857  111B  00F8               	movwf	??__tdiv_to_l_
  6858  111C  0878               	movf	??__tdiv_to_l_,w
  6859  111D  02A5               	subwf	__tdiv_to_l_@exp1,f
  6860  111E  3018               	movlw	24
  6861  111F  00F8               	movwf	??__tdiv_to_l_
  6862  1120  0878               	movf	??__tdiv_to_l_,w
  6863  1121  00A4               	movwf	__tdiv_to_l_@cntr
  6864  1122                     l3158:
  6865  1122  3001               	movlw	1
  6866  1123  00F8               	movwf	??__tdiv_to_l_
  6867  1124                     u5155:
  6868  1124  1003               	clrc
  6869  1125  0DA0               	rlf	__tdiv_to_l_@quot,f
  6870  1126  0DA1               	rlf	__tdiv_to_l_@quot+1,f
  6871  1127  0DA2               	rlf	__tdiv_to_l_@quot+2,f
  6872  1128  0DA3               	rlf	__tdiv_to_l_@quot+3,f
  6873  1129  0BF8               	decfsz	??__tdiv_to_l_,f
  6874  112A  2924               	goto	u5155
  6875  112B                     l3160:
  6876  112B  0876               	movf	__tdiv_to_l_@f2+2,w
  6877  112C  0272               	subwf	__tdiv_to_l_@f1+2,w
  6878  112D  1D03               	skipz
  6879  112E  2935               	goto	u5165
  6880  112F  0875               	movf	__tdiv_to_l_@f2+1,w
  6881  1130  0271               	subwf	__tdiv_to_l_@f1+1,w
  6882  1131  1D03               	skipz
  6883  1132  2935               	goto	u5165
  6884  1133  0874               	movf	__tdiv_to_l_@f2,w
  6885  1134  0270               	subwf	__tdiv_to_l_@f1,w
  6886  1135                     u5165:
  6887  1135  1C03               	skipc
  6888  1136  2938               	goto	u5161
  6889  1137  2939               	goto	u5160
  6890  1138                     u5161:
  6891  1138  2944               	goto	l3166
  6892  1139                     u5160:
  6893  1139                     l3162:
  6894  1139  0874               	movf	__tdiv_to_l_@f2,w
  6895  113A  02F0               	subwf	__tdiv_to_l_@f1,f
  6896  113B  0875               	movf	__tdiv_to_l_@f2+1,w
  6897  113C  1C03               	skipc
  6898  113D  0F75               	incfsz	__tdiv_to_l_@f2+1,w
  6899  113E  02F1               	subwf	__tdiv_to_l_@f1+1,f
  6900  113F  0876               	movf	__tdiv_to_l_@f2+2,w
  6901  1140  1C03               	skipc
  6902  1141  0A76               	incf	__tdiv_to_l_@f2+2,w
  6903  1142  02F2               	subwf	__tdiv_to_l_@f1+2,f
  6904  1143                     l3164:
  6905  1143  1420               	bsf	__tdiv_to_l_@quot,0
  6906  1144                     l3166:
  6907  1144  3001               	movlw	1
  6908  1145                     u5175:
  6909  1145  1003               	clrc
  6910  1146  0DF0               	rlf	__tdiv_to_l_@f1,f
  6911  1147  0DF1               	rlf	__tdiv_to_l_@f1+1,f
  6912  1148  0DF2               	rlf	__tdiv_to_l_@f1+2,f
  6913  1149  3EFF               	addlw	-1
  6914  114A  1D03               	skipz
  6915  114B  2945               	goto	u5175
  6916  114C                     l3168:
  6917  114C  3001               	movlw	1
  6918  114D  02A4               	subwf	__tdiv_to_l_@cntr,f
  6919  114E  1D03               	btfss	3,2
  6920  114F  2951               	goto	u5181
  6921  1150  2952               	goto	u5180
  6922  1151                     u5181:
  6923  1151  2922               	goto	l3158
  6924  1152                     u5180:
  6925  1152                     l847:
  6926  1152  1FA5               	btfss	__tdiv_to_l_@exp1,7
  6927  1153  2955               	goto	u5191
  6928  1154  2956               	goto	u5190
  6929  1155                     u5191:
  6930  1155  2970               	goto	l3178
  6931  1156                     u5190:
  6932  1156                     l3170:
  6933  1156  0825               	movf	__tdiv_to_l_@exp1,w
  6934  1157  3A80               	xorlw	128
  6935  1158  3E97               	addlw	151
  6936  1159  1803               	skipnc
  6937  115A  295C               	goto	u5201
  6938  115B  295D               	goto	u5200
  6939  115C                     u5201:
  6940  115C  295E               	goto	l3176
  6941  115D                     u5200:
  6942  115D  28E6               	goto	l3140
  6943  115E                     l3176:
  6944  115E  3001               	movlw	1
  6945  115F                     u5215:
  6946  115F  1003               	clrc
  6947  1160  0CA3               	rrf	__tdiv_to_l_@quot+3,f
  6948  1161  0CA2               	rrf	__tdiv_to_l_@quot+2,f
  6949  1162  0CA1               	rrf	__tdiv_to_l_@quot+1,f
  6950  1163  0CA0               	rrf	__tdiv_to_l_@quot,f
  6951  1164  3EFF               	addlw	-1
  6952  1165  1D03               	skipz
  6953  1166  295F               	goto	u5215
  6954  1167  3001               	movlw	1
  6955  1168  00F8               	movwf	??__tdiv_to_l_
  6956  1169  0878               	movf	??__tdiv_to_l_,w
  6957  116A  07A5               	addwf	__tdiv_to_l_@exp1,f
  6958  116B  1D03               	btfss	3,2
  6959  116C  296E               	goto	u5221
  6960  116D  296F               	goto	u5220
  6961  116E                     u5221:
  6962  116E  295E               	goto	l3176
  6963  116F                     u5220:
  6964  116F  2987               	goto	l3186
  6965  1170                     l3178:
  6966  1170  3018               	movlw	24
  6967  1171  0225               	subwf	__tdiv_to_l_@exp1,w
  6968  1172  1C03               	skipc
  6969  1173  2975               	goto	u5231
  6970  1174  2976               	goto	u5230
  6971  1175                     u5231:
  6972  1175  2982               	goto	l854
  6973  1176                     u5230:
  6974  1176  28E6               	goto	l3140
  6975  1177                     l3184:
  6976  1177  3001               	movlw	1
  6977  1178  00F8               	movwf	??__tdiv_to_l_
  6978  1179                     u5245:
  6979  1179  1003               	clrc
  6980  117A  0DA0               	rlf	__tdiv_to_l_@quot,f
  6981  117B  0DA1               	rlf	__tdiv_to_l_@quot+1,f
  6982  117C  0DA2               	rlf	__tdiv_to_l_@quot+2,f
  6983  117D  0DA3               	rlf	__tdiv_to_l_@quot+3,f
  6984  117E  0BF8               	decfsz	??__tdiv_to_l_,f
  6985  117F  2979               	goto	u5245
  6986  1180  3001               	movlw	1
  6987  1181  02A5               	subwf	__tdiv_to_l_@exp1,f
  6988  1182                     l854:
  6989  1182  0825               	movf	__tdiv_to_l_@exp1,w
  6990  1183  1D03               	btfss	3,2
  6991  1184  2986               	goto	u5251
  6992  1185  2987               	goto	u5250
  6993  1186                     u5251:
  6994  1186  2977               	goto	l3184
  6995  1187                     u5250:
  6996  1187                     l3186:
  6997  1187  0823               	movf	__tdiv_to_l_@quot+3,w
  6998  1188  00F3               	movwf	?__tdiv_to_l_+3
  6999  1189  0822               	movf	__tdiv_to_l_@quot+2,w
  7000  118A  00F2               	movwf	?__tdiv_to_l_+2
  7001  118B  0821               	movf	__tdiv_to_l_@quot+1,w
  7002  118C  00F1               	movwf	?__tdiv_to_l_+1
  7003  118D  0820               	movf	__tdiv_to_l_@quot,w
  7004  118E  00F0               	movwf	?__tdiv_to_l_
  7005  118F                     l843:
  7006  118F  0008               	return
  7007  1190                     __end_of__tdiv_to_l_:
  7008                           
  7009                           	psect	text16
  7010  0882                     __ptext16:	
  7011 ;; *************** function __div_to_l_ *****************
  7012 ;; Defined at:
  7013 ;;		line 60 in file "C:\Program Files\Microchip\xc8\v2.36\pic\sources\c90\common\fldivl.c"
  7014 ;; Parameters:    Size  Location     Type
  7015 ;;  f1              4    0[COMMON] unsigned long 
  7016 ;;  f2              4    4[COMMON] unsigned long 
  7017 ;; Auto vars:     Size  Location     Type
  7018 ;;  quot            4    0[BANK0 ] unsigned long 
  7019 ;;  exp1            1    5[BANK0 ] unsigned char 
  7020 ;;  cntr            1    4[BANK0 ] unsigned char 
  7021 ;; Return value:  Size  Location     Type
  7022 ;;                  4    0[COMMON] unsigned long 
  7023 ;; Registers used:
  7024 ;;		wreg, status,2, status,0
  7025 ;; Tracked objects:
  7026 ;;		On entry : 0/0
  7027 ;;		On exit  : 0/0
  7028 ;;		Unchanged: 0/0
  7029 ;; Data sizes:     COMMON   BANK0   BANK1   BANK3   BANK2
  7030 ;;      Params:         8       0       0       0       0
  7031 ;;      Locals:         0       6       0       0       0
  7032 ;;      Temps:          1       0       0       0       0
  7033 ;;      Totals:         9       6       0       0       0
  7034 ;;Total ram usage:       15 bytes
  7035 ;; Hardware stack levels used: 1
  7036 ;; This function calls:
  7037 ;;		Nothing
  7038 ;; This function is called by:
  7039 ;;		__doprnt
  7040 ;; This function uses a non-reentrant model
  7041 ;;
  7042                           
  7043  0882                     __div_to_l_:	
  7044                           ;psect for function __div_to_l_
  7045                           
  7046  0882                     l3190:	
  7047                           ;incstack = 0
  7048                           ; Regs used in __div_to_l_: [wreg+status,2+status,0]
  7049                           
  7050  0882  1003               	clrc
  7051  0883  0D72               	rlf	__div_to_l_@f1+2,w
  7052  0884  0D73               	rlf	__div_to_l_@f1+3,w
  7053  0885  00F8               	movwf	??__div_to_l_
  7054  0886  0878               	movf	??__div_to_l_,w
  7055  0887  1283               	bcf	3,5	;RP0=0, select bank0
  7056  0888  1303               	bcf	3,6	;RP1=0, select bank0
  7057  0889  00A5               	movwf	__div_to_l_@exp1
  7058  088A  0825               	movf	__div_to_l_@exp1,w
  7059  088B  1D03               	btfss	3,2
  7060  088C  288E               	goto	u5261
  7061  088D  288F               	goto	u5260
  7062  088E                     u5261:
  7063  088E  2898               	goto	l3196
  7064  088F                     u5260:
  7065  088F                     l3192:
  7066  088F  3000               	movlw	0
  7067  0890  00F3               	movwf	?__div_to_l_+3
  7068  0891  3000               	movlw	0
  7069  0892  00F2               	movwf	?__div_to_l_+2
  7070  0893  3000               	movlw	0
  7071  0894  00F1               	movwf	?__div_to_l_+1
  7072  0895  3000               	movlw	0
  7073  0896  00F0               	movwf	?__div_to_l_
  7074  0897  293F               	goto	l826
  7075  0898                     l3196:
  7076  0898  1003               	clrc
  7077  0899  0D76               	rlf	__div_to_l_@f2+2,w
  7078  089A  0D77               	rlf	__div_to_l_@f2+3,w
  7079  089B  00F8               	movwf	??__div_to_l_
  7080  089C  0878               	movf	??__div_to_l_,w
  7081  089D  00A4               	movwf	__div_to_l_@cntr
  7082  089E  0824               	movf	__div_to_l_@cntr,w
  7083  089F  1D03               	btfss	3,2
  7084  08A0  28A2               	goto	u5271
  7085  08A1  28A3               	goto	u5270
  7086  08A2                     u5271:
  7087  08A2  28A4               	goto	l827
  7088  08A3                     u5270:
  7089  08A3  288F               	goto	l3192
  7090  08A4                     l827:
  7091  08A4  17F2               	bsf	__div_to_l_@f1+2,7
  7092  08A5                     l3202:
  7093  08A5  30FF               	movlw	255
  7094  08A6  05F0               	andwf	__div_to_l_@f1,f
  7095  08A7  30FF               	movlw	255
  7096  08A8  05F1               	andwf	__div_to_l_@f1+1,f
  7097  08A9  30FF               	movlw	255
  7098  08AA  05F2               	andwf	__div_to_l_@f1+2,f
  7099  08AB  3000               	movlw	0
  7100  08AC  05F3               	andwf	__div_to_l_@f1+3,f
  7101  08AD                     l3204:
  7102  08AD  17F6               	bsf	__div_to_l_@f2+2,7
  7103  08AE  30FF               	movlw	255
  7104  08AF  05F4               	andwf	__div_to_l_@f2,f
  7105  08B0  30FF               	movlw	255
  7106  08B1  05F5               	andwf	__div_to_l_@f2+1,f
  7107  08B2  30FF               	movlw	255
  7108  08B3  05F6               	andwf	__div_to_l_@f2+2,f
  7109  08B4  3000               	movlw	0
  7110  08B5  05F7               	andwf	__div_to_l_@f2+3,f
  7111  08B6  3000               	movlw	0
  7112  08B7  00A3               	movwf	__div_to_l_@quot+3
  7113  08B8  3000               	movlw	0
  7114  08B9  00A2               	movwf	__div_to_l_@quot+2
  7115  08BA  3000               	movlw	0
  7116  08BB  00A1               	movwf	__div_to_l_@quot+1
  7117  08BC  3000               	movlw	0
  7118  08BD  00A0               	movwf	__div_to_l_@quot
  7119  08BE                     l3206:
  7120  08BE  307F               	movlw	127
  7121  08BF  02A5               	subwf	__div_to_l_@exp1,f
  7122  08C0                     l3208:
  7123  08C0  30A0               	movlw	160
  7124  08C1  0724               	addwf	__div_to_l_@cntr,w
  7125  08C2  00F8               	movwf	??__div_to_l_
  7126  08C3  0878               	movf	??__div_to_l_,w
  7127  08C4  02A5               	subwf	__div_to_l_@exp1,f
  7128  08C5  3020               	movlw	32
  7129  08C6  00F8               	movwf	??__div_to_l_
  7130  08C7  0878               	movf	??__div_to_l_,w
  7131  08C8  00A4               	movwf	__div_to_l_@cntr
  7132  08C9                     l3210:
  7133  08C9  3001               	movlw	1
  7134  08CA  00F8               	movwf	??__div_to_l_
  7135  08CB                     u5285:
  7136  08CB  1003               	clrc
  7137  08CC  0DA0               	rlf	__div_to_l_@quot,f
  7138  08CD  0DA1               	rlf	__div_to_l_@quot+1,f
  7139  08CE  0DA2               	rlf	__div_to_l_@quot+2,f
  7140  08CF  0DA3               	rlf	__div_to_l_@quot+3,f
  7141  08D0  0BF8               	decfsz	??__div_to_l_,f
  7142  08D1  28CB               	goto	u5285
  7143  08D2                     l3212:
  7144  08D2  0877               	movf	__div_to_l_@f2+3,w
  7145  08D3  0273               	subwf	__div_to_l_@f1+3,w
  7146  08D4  1D03               	skipz
  7147  08D5  28E0               	goto	u5295
  7148  08D6  0876               	movf	__div_to_l_@f2+2,w
  7149  08D7  0272               	subwf	__div_to_l_@f1+2,w
  7150  08D8  1D03               	skipz
  7151  08D9  28E0               	goto	u5295
  7152  08DA  0875               	movf	__div_to_l_@f2+1,w
  7153  08DB  0271               	subwf	__div_to_l_@f1+1,w
  7154  08DC  1D03               	skipz
  7155  08DD  28E0               	goto	u5295
  7156  08DE  0874               	movf	__div_to_l_@f2,w
  7157  08DF  0270               	subwf	__div_to_l_@f1,w
  7158  08E0                     u5295:
  7159  08E0  1C03               	skipc
  7160  08E1  28E3               	goto	u5291
  7161  08E2  28E4               	goto	u5290
  7162  08E3                     u5291:
  7163  08E3  28F3               	goto	l3218
  7164  08E4                     u5290:
  7165  08E4                     l3214:
  7166  08E4  0874               	movf	__div_to_l_@f2,w
  7167  08E5  02F0               	subwf	__div_to_l_@f1,f
  7168  08E6  0875               	movf	__div_to_l_@f2+1,w
  7169  08E7  1C03               	skipc
  7170  08E8  0F75               	incfsz	__div_to_l_@f2+1,w
  7171  08E9  02F1               	subwf	__div_to_l_@f1+1,f
  7172  08EA  0876               	movf	__div_to_l_@f2+2,w
  7173  08EB  1C03               	skipc
  7174  08EC  0F76               	incfsz	__div_to_l_@f2+2,w
  7175  08ED  02F2               	subwf	__div_to_l_@f1+2,f
  7176  08EE  0877               	movf	__div_to_l_@f2+3,w
  7177  08EF  1C03               	skipc
  7178  08F0  0F77               	incfsz	__div_to_l_@f2+3,w
  7179  08F1  02F3               	subwf	__div_to_l_@f1+3,f
  7180  08F2                     l3216:
  7181  08F2  1420               	bsf	__div_to_l_@quot,0
  7182  08F3                     l3218:
  7183  08F3  3001               	movlw	1
  7184  08F4  00F8               	movwf	??__div_to_l_
  7185  08F5                     u5305:
  7186  08F5  1003               	clrc
  7187  08F6  0DF0               	rlf	__div_to_l_@f1,f
  7188  08F7  0DF1               	rlf	__div_to_l_@f1+1,f
  7189  08F8  0DF2               	rlf	__div_to_l_@f1+2,f
  7190  08F9  0DF3               	rlf	__div_to_l_@f1+3,f
  7191  08FA  0BF8               	decfsz	??__div_to_l_,f
  7192  08FB  28F5               	goto	u5305
  7193  08FC                     l3220:
  7194  08FC  3001               	movlw	1
  7195  08FD  02A4               	subwf	__div_to_l_@cntr,f
  7196  08FE  1D03               	btfss	3,2
  7197  08FF  2901               	goto	u5311
  7198  0900  2902               	goto	u5310
  7199  0901                     u5311:
  7200  0901  28C9               	goto	l3210
  7201  0902                     u5310:
  7202  0902                     l830:
  7203  0902  1FA5               	btfss	__div_to_l_@exp1,7
  7204  0903  2905               	goto	u5321
  7205  0904  2906               	goto	u5320
  7206  0905                     u5321:
  7207  0905  2920               	goto	l3230
  7208  0906                     u5320:
  7209  0906                     l3222:
  7210  0906  0825               	movf	__div_to_l_@exp1,w
  7211  0907  3A80               	xorlw	128
  7212  0908  3E9F               	addlw	159
  7213  0909  1803               	skipnc
  7214  090A  290C               	goto	u5331
  7215  090B  290D               	goto	u5330
  7216  090C                     u5331:
  7217  090C  290E               	goto	l3228
  7218  090D                     u5330:
  7219  090D  288F               	goto	l3192
  7220  090E                     l3228:
  7221  090E  3001               	movlw	1
  7222  090F                     u5345:
  7223  090F  1003               	clrc
  7224  0910  0CA3               	rrf	__div_to_l_@quot+3,f
  7225  0911  0CA2               	rrf	__div_to_l_@quot+2,f
  7226  0912  0CA1               	rrf	__div_to_l_@quot+1,f
  7227  0913  0CA0               	rrf	__div_to_l_@quot,f
  7228  0914  3EFF               	addlw	-1
  7229  0915  1D03               	skipz
  7230  0916  290F               	goto	u5345
  7231  0917  3001               	movlw	1
  7232  0918  00F8               	movwf	??__div_to_l_
  7233  0919  0878               	movf	??__div_to_l_,w
  7234  091A  07A5               	addwf	__div_to_l_@exp1,f
  7235  091B  1D03               	btfss	3,2
  7236  091C  291E               	goto	u5351
  7237  091D  291F               	goto	u5350
  7238  091E                     u5351:
  7239  091E  290E               	goto	l3228
  7240  091F                     u5350:
  7241  091F  2937               	goto	l3238
  7242  0920                     l3230:
  7243  0920  3020               	movlw	32
  7244  0921  0225               	subwf	__div_to_l_@exp1,w
  7245  0922  1C03               	skipc
  7246  0923  2925               	goto	u5361
  7247  0924  2926               	goto	u5360
  7248  0925                     u5361:
  7249  0925  2932               	goto	l837
  7250  0926                     u5360:
  7251  0926  288F               	goto	l3192
  7252  0927                     l3236:
  7253  0927  3001               	movlw	1
  7254  0928  00F8               	movwf	??__div_to_l_
  7255  0929                     u5375:
  7256  0929  1003               	clrc
  7257  092A  0DA0               	rlf	__div_to_l_@quot,f
  7258  092B  0DA1               	rlf	__div_to_l_@quot+1,f
  7259  092C  0DA2               	rlf	__div_to_l_@quot+2,f
  7260  092D  0DA3               	rlf	__div_to_l_@quot+3,f
  7261  092E  0BF8               	decfsz	??__div_to_l_,f
  7262  092F  2929               	goto	u5375
  7263  0930  3001               	movlw	1
  7264  0931  02A5               	subwf	__div_to_l_@exp1,f
  7265  0932                     l837:
  7266  0932  0825               	movf	__div_to_l_@exp1,w
  7267  0933  1D03               	btfss	3,2
  7268  0934  2936               	goto	u5381
  7269  0935  2937               	goto	u5380
  7270  0936                     u5381:
  7271  0936  2927               	goto	l3236
  7272  0937                     u5380:
  7273  0937                     l3238:
  7274  0937  0823               	movf	__div_to_l_@quot+3,w
  7275  0938  00F3               	movwf	?__div_to_l_+3
  7276  0939  0822               	movf	__div_to_l_@quot+2,w
  7277  093A  00F2               	movwf	?__div_to_l_+2
  7278  093B  0821               	movf	__div_to_l_@quot+1,w
  7279  093C  00F1               	movwf	?__div_to_l_+1
  7280  093D  0820               	movf	__div_to_l_@quot,w
  7281  093E  00F0               	movwf	?__div_to_l_
  7282  093F                     l826:
  7283  093F  0008               	return
  7284  0940                     __end_of__div_to_l_:
  7285                           
  7286                           	psect	text17
  7287  1017                     __ptext17:	
  7288 ;; *************** function ___xxtofl *****************
  7289 ;; Defined at:
  7290 ;;		line 10 in file "C:\Program Files\Microchip\xc8\v2.36\pic\sources\c90\common\xxtofl.c"
  7291 ;; Parameters:    Size  Location     Type
  7292 ;;  sign            1    wreg     unsigned char 
  7293 ;;  val             4    4[COMMON] long 
  7294 ;; Auto vars:     Size  Location     Type
  7295 ;;  sign            1    0[BANK0 ] unsigned char 
  7296 ;;  arg             4    2[BANK0 ] unsigned long 
  7297 ;;  exp             1    1[BANK0 ] unsigned char 
  7298 ;; Return value:  Size  Location     Type
  7299 ;;                  4    4[COMMON] unsigned char 
  7300 ;; Registers used:
  7301 ;;		wreg, status,2, status,0
  7302 ;; Tracked objects:
  7303 ;;		On entry : 0/0
  7304 ;;		On exit  : 0/0
  7305 ;;		Unchanged: 0/0
  7306 ;; Data sizes:     COMMON   BANK0   BANK1   BANK3   BANK2
  7307 ;;      Params:         4       0       0       0       0
  7308 ;;      Locals:         0       6       0       0       0
  7309 ;;      Temps:          4       0       0       0       0
  7310 ;;      Totals:         8       6       0       0       0
  7311 ;;Total ram usage:       14 bytes
  7312 ;; Hardware stack levels used: 1
  7313 ;; This function calls:
  7314 ;;		Nothing
  7315 ;; This function is called by:
  7316 ;;		_main
  7317 ;;		__doprnt
  7318 ;; This function uses a non-reentrant model
  7319 ;;
  7320                           
  7321  1017                     ___xxtofl:	
  7322                           ;psect for function ___xxtofl
  7323                           
  7324                           
  7325                           ;incstack = 0
  7326                           ; Regs used in ___xxtofl: [wreg+status,2+status,0]
  7327                           ;___xxtofl@sign stored from wreg
  7328  1017  1283               	bcf	3,5	;RP0=0, select bank0
  7329  1018  1303               	bcf	3,6	;RP1=0, select bank0
  7330  1019  00A0               	movwf	___xxtofl@sign
  7331  101A                     l3024:
  7332  101A  0820               	movf	___xxtofl@sign,w
  7333  101B  1903               	btfsc	3,2
  7334  101C  281E               	goto	u4721
  7335  101D  281F               	goto	u4720
  7336  101E                     u4721:
  7337  101E  2833               	goto	l3030
  7338  101F                     u4720:
  7339  101F                     l3026:
  7340  101F  1FF7               	btfss	___xxtofl@val+3,7
  7341  1020  2822               	goto	u4731
  7342  1021  2823               	goto	u4730
  7343  1022                     u4731:
  7344  1022  2833               	goto	l3030
  7345  1023                     u4730:
  7346  1023                     l3028:
  7347  1023  0974               	comf	___xxtofl@val,w
  7348  1024  00A2               	movwf	___xxtofl@arg
  7349  1025  0975               	comf	___xxtofl@val+1,w
  7350  1026  00A3               	movwf	___xxtofl@arg+1
  7351  1027  0976               	comf	___xxtofl@val+2,w
  7352  1028  00A4               	movwf	___xxtofl@arg+2
  7353  1029  0977               	comf	___xxtofl@val+3,w
  7354  102A  00A5               	movwf	___xxtofl@arg+3
  7355  102B  0AA2               	incf	___xxtofl@arg,f
  7356  102C  1903               	skipnz
  7357  102D  0AA3               	incf	___xxtofl@arg+1,f
  7358  102E  1903               	skipnz
  7359  102F  0AA4               	incf	___xxtofl@arg+2,f
  7360  1030  1903               	skipnz
  7361  1031  0AA5               	incf	___xxtofl@arg+3,f
  7362  1032  283B               	goto	l675
  7363  1033                     l3030:
  7364  1033  0877               	movf	___xxtofl@val+3,w
  7365  1034  00A5               	movwf	___xxtofl@arg+3
  7366  1035  0876               	movf	___xxtofl@val+2,w
  7367  1036  00A4               	movwf	___xxtofl@arg+2
  7368  1037  0875               	movf	___xxtofl@val+1,w
  7369  1038  00A3               	movwf	___xxtofl@arg+1
  7370  1039  0874               	movf	___xxtofl@val,w
  7371  103A  00A2               	movwf	___xxtofl@arg
  7372  103B                     l675:
  7373  103B  0877               	movf	___xxtofl@val+3,w
  7374  103C  0476               	iorwf	___xxtofl@val+2,w
  7375  103D  0475               	iorwf	___xxtofl@val+1,w
  7376  103E  0474               	iorwf	___xxtofl@val,w
  7377  103F  1D03               	skipz
  7378  1040  2842               	goto	u4741
  7379  1041  2843               	goto	u4740
  7380  1042                     u4741:
  7381  1042  284C               	goto	l3036
  7382  1043                     u4740:
  7383  1043                     l3032:
  7384  1043  3000               	movlw	0
  7385  1044  00F7               	movwf	?___xxtofl+3
  7386  1045  3000               	movlw	0
  7387  1046  00F6               	movwf	?___xxtofl+2
  7388  1047  3000               	movlw	0
  7389  1048  00F5               	movwf	?___xxtofl+1
  7390  1049  3000               	movlw	0
  7391  104A  00F4               	movwf	?___xxtofl
  7392  104B  28D2               	goto	l677
  7393  104C                     l3036:
  7394  104C  3096               	movlw	150
  7395  104D  00F8               	movwf	??___xxtofl
  7396  104E  0878               	movf	??___xxtofl,w
  7397  104F  00A1               	movwf	___xxtofl@exp
  7398  1050  285E               	goto	l3040
  7399  1051                     l3038:
  7400  1051  3001               	movlw	1
  7401  1052  00F8               	movwf	??___xxtofl
  7402  1053  0878               	movf	??___xxtofl,w
  7403  1054  07A1               	addwf	___xxtofl@exp,f
  7404  1055  3001               	movlw	1
  7405  1056                     u4755:
  7406  1056  1003               	clrc
  7407  1057  0CA5               	rrf	___xxtofl@arg+3,f
  7408  1058  0CA4               	rrf	___xxtofl@arg+2,f
  7409  1059  0CA3               	rrf	___xxtofl@arg+1,f
  7410  105A  0CA2               	rrf	___xxtofl@arg,f
  7411  105B  3EFF               	addlw	-1
  7412  105C  1D03               	skipz
  7413  105D  2856               	goto	u4755
  7414  105E                     l3040:
  7415  105E  30FE               	movlw	254
  7416  105F  0525               	andwf	___xxtofl@arg+3,w
  7417  1060  1D03               	btfss	3,2
  7418  1061  2863               	goto	u4761
  7419  1062  2864               	goto	u4760
  7420  1063                     u4761:
  7421  1063  2851               	goto	l3038
  7422  1064                     u4760:
  7423  1064  2880               	goto	l681
  7424  1065                     l3042:
  7425  1065  3001               	movlw	1
  7426  1066  00F8               	movwf	??___xxtofl
  7427  1067  0878               	movf	??___xxtofl,w
  7428  1068  07A1               	addwf	___xxtofl@exp,f
  7429  1069                     l3044:
  7430  1069  3001               	movlw	1
  7431  106A  07A2               	addwf	___xxtofl@arg,f
  7432  106B  3000               	movlw	0
  7433  106C  1803               	skipnc
  7434  106D  3001               	movlw	1
  7435  106E  07A3               	addwf	___xxtofl@arg+1,f
  7436  106F  3000               	movlw	0
  7437  1070  1803               	skipnc
  7438  1071  3001               	movlw	1
  7439  1072  07A4               	addwf	___xxtofl@arg+2,f
  7440  1073  3000               	movlw	0
  7441  1074  1803               	skipnc
  7442  1075  3001               	movlw	1
  7443  1076  07A5               	addwf	___xxtofl@arg+3,f
  7444  1077                     l3046:
  7445  1077  3001               	movlw	1
  7446  1078                     u4775:
  7447  1078  1003               	clrc
  7448  1079  0CA5               	rrf	___xxtofl@arg+3,f
  7449  107A  0CA4               	rrf	___xxtofl@arg+2,f
  7450  107B  0CA3               	rrf	___xxtofl@arg+1,f
  7451  107C  0CA2               	rrf	___xxtofl@arg,f
  7452  107D  3EFF               	addlw	-1
  7453  107E  1D03               	skipz
  7454  107F  2878               	goto	u4775
  7455  1080                     l681:
  7456  1080  30FF               	movlw	255
  7457  1081  0525               	andwf	___xxtofl@arg+3,w
  7458  1082  1D03               	btfss	3,2
  7459  1083  2885               	goto	u4781
  7460  1084  2886               	goto	u4780
  7461  1085                     u4781:
  7462  1085  2865               	goto	l3042
  7463  1086                     u4780:
  7464  1086  2892               	goto	l3050
  7465  1087                     l3048:
  7466  1087  3001               	movlw	1
  7467  1088  02A1               	subwf	___xxtofl@exp,f
  7468  1089  3001               	movlw	1
  7469  108A  00F8               	movwf	??___xxtofl
  7470  108B                     u4795:
  7471  108B  1003               	clrc
  7472  108C  0DA2               	rlf	___xxtofl@arg,f
  7473  108D  0DA3               	rlf	___xxtofl@arg+1,f
  7474  108E  0DA4               	rlf	___xxtofl@arg+2,f
  7475  108F  0DA5               	rlf	___xxtofl@arg+3,f
  7476  1090  0BF8               	decfsz	??___xxtofl,f
  7477  1091  288B               	goto	u4795
  7478  1092                     l3050:
  7479  1092  1BA4               	btfsc	___xxtofl@arg+2,7
  7480  1093  2895               	goto	u4801
  7481  1094  2896               	goto	u4800
  7482  1095                     u4801:
  7483  1095  289C               	goto	l688
  7484  1096                     u4800:
  7485  1096                     l3052:
  7486  1096  3002               	movlw	2
  7487  1097  0221               	subwf	___xxtofl@exp,w
  7488  1098  1803               	skipnc
  7489  1099  289B               	goto	u4811
  7490  109A  289C               	goto	u4810
  7491  109B                     u4811:
  7492  109B  2887               	goto	l3048
  7493  109C                     u4810:
  7494  109C                     l688:
  7495  109C  1821               	btfsc	___xxtofl@exp,0
  7496  109D  289F               	goto	u4821
  7497  109E  28A0               	goto	u4820
  7498  109F                     u4821:
  7499  109F  28A8               	goto	l689
  7500  10A0                     u4820:
  7501  10A0                     l3054:
  7502  10A0  30FF               	movlw	255
  7503  10A1  05A2               	andwf	___xxtofl@arg,f
  7504  10A2  30FF               	movlw	255
  7505  10A3  05A3               	andwf	___xxtofl@arg+1,f
  7506  10A4  307F               	movlw	127
  7507  10A5  05A4               	andwf	___xxtofl@arg+2,f
  7508  10A6  30FF               	movlw	255
  7509  10A7  05A5               	andwf	___xxtofl@arg+3,f
  7510  10A8                     l689:
  7511  10A8  1003               	clrc
  7512  10A9  0CA1               	rrf	___xxtofl@exp,f
  7513  10AA                     l3056:
  7514  10AA  0821               	movf	___xxtofl@exp,w
  7515  10AB  00F8               	movwf	??___xxtofl
  7516  10AC  01F9               	clrf	??___xxtofl+1
  7517  10AD  01FA               	clrf	??___xxtofl+2
  7518  10AE  01FB               	clrf	??___xxtofl+3
  7519  10AF  3018               	movlw	24
  7520  10B0                     u4835:
  7521  10B0  1003               	clrc
  7522  10B1  0DF8               	rlf	??___xxtofl,f
  7523  10B2  0DF9               	rlf	??___xxtofl+1,f
  7524  10B3  0DFA               	rlf	??___xxtofl+2,f
  7525  10B4  0DFB               	rlf	??___xxtofl+3,f
  7526  10B5                     u4830:
  7527  10B5  3EFF               	addlw	-1
  7528  10B6  1D03               	skipz
  7529  10B7  28B0               	goto	u4835
  7530  10B8  0878               	movf	??___xxtofl,w
  7531  10B9  04A2               	iorwf	___xxtofl@arg,f
  7532  10BA  0879               	movf	??___xxtofl+1,w
  7533  10BB  04A3               	iorwf	___xxtofl@arg+1,f
  7534  10BC  087A               	movf	??___xxtofl+2,w
  7535  10BD  04A4               	iorwf	___xxtofl@arg+2,f
  7536  10BE  087B               	movf	??___xxtofl+3,w
  7537  10BF  04A5               	iorwf	___xxtofl@arg+3,f
  7538  10C0                     l3058:
  7539  10C0  0820               	movf	___xxtofl@sign,w
  7540  10C1  1903               	btfsc	3,2
  7541  10C2  28C4               	goto	u4841
  7542  10C3  28C5               	goto	u4840
  7543  10C4                     u4841:
  7544  10C4  28CA               	goto	l3064
  7545  10C5                     u4840:
  7546  10C5                     l3060:
  7547  10C5  1FF7               	btfss	___xxtofl@val+3,7
  7548  10C6  28C8               	goto	u4851
  7549  10C7  28C9               	goto	u4850
  7550  10C8                     u4851:
  7551  10C8  28CA               	goto	l3064
  7552  10C9                     u4850:
  7553  10C9                     l3062:
  7554  10C9  17A5               	bsf	___xxtofl@arg+3,7
  7555  10CA                     l3064:
  7556  10CA  0825               	movf	___xxtofl@arg+3,w
  7557  10CB  00F7               	movwf	?___xxtofl+3
  7558  10CC  0824               	movf	___xxtofl@arg+2,w
  7559  10CD  00F6               	movwf	?___xxtofl+2
  7560  10CE  0823               	movf	___xxtofl@arg+1,w
  7561  10CF  00F5               	movwf	?___xxtofl+1
  7562  10D0  0822               	movf	___xxtofl@arg,w
  7563  10D1  00F4               	movwf	?___xxtofl
  7564  10D2                     l677:
  7565  10D2  0008               	return
  7566  10D3                     __end_of___xxtofl:
  7567                           
  7568                           	psect	text18
  7569  1BFC                     __ptext18:	
  7570 ;; *************** function ___wmul *****************
  7571 ;; Defined at:
  7572 ;;		line 15 in file "C:\Program Files\Microchip\xc8\v2.36\pic\sources\c90\common\Umul16.c"
  7573 ;; Parameters:    Size  Location     Type
  7574 ;;  multiplier      2    0[COMMON] unsigned int 
  7575 ;;  multiplicand    2    2[COMMON] unsigned int 
  7576 ;; Auto vars:     Size  Location     Type
  7577 ;;  product         2    4[COMMON] unsigned int 
  7578 ;; Return value:  Size  Location     Type
  7579 ;;                  2    0[COMMON] unsigned int 
  7580 ;; Registers used:
  7581 ;;		wreg, status,2, status,0
  7582 ;; Tracked objects:
  7583 ;;		On entry : 0/0
  7584 ;;		On exit  : 0/0
  7585 ;;		Unchanged: 0/0
  7586 ;; Data sizes:     COMMON   BANK0   BANK1   BANK3   BANK2
  7587 ;;      Params:         4       0       0       0       0
  7588 ;;      Locals:         2       0       0       0       0
  7589 ;;      Temps:          0       0       0       0       0
  7590 ;;      Totals:         6       0       0       0       0
  7591 ;;Total ram usage:        6 bytes
  7592 ;; Hardware stack levels used: 1
  7593 ;; This function calls:
  7594 ;;		Nothing
  7595 ;; This function is called by:
  7596 ;;		__doprnt
  7597 ;; This function uses a non-reentrant model
  7598 ;;
  7599                           
  7600  1BFC                     ___wmul:	
  7601                           ;psect for function ___wmul
  7602                           
  7603  1BFC                     l2884:	
  7604                           ;incstack = 0
  7605                           ; Regs used in ___wmul: [wreg+status,2+status,0]
  7606                           
  7607  1BFC  01F4               	clrf	___wmul@product
  7608  1BFD  01F5               	clrf	___wmul@product+1
  7609  1BFE                     l2886:
  7610  1BFE  1C70               	btfss	___wmul@multiplier,0
  7611  1BFF  2C01               	goto	u4341
  7612  1C00  2C02               	goto	u4340
  7613  1C01                     u4341:
  7614  1C01  2C08               	goto	l242
  7615  1C02                     u4340:
  7616  1C02                     l2888:
  7617  1C02  0872               	movf	___wmul@multiplicand,w
  7618  1C03  07F4               	addwf	___wmul@product,f
  7619  1C04  1803               	skipnc
  7620  1C05  0AF5               	incf	___wmul@product+1,f
  7621  1C06  0873               	movf	___wmul@multiplicand+1,w
  7622  1C07  07F5               	addwf	___wmul@product+1,f
  7623  1C08                     l242:
  7624  1C08  3001               	movlw	1
  7625  1C09                     u4355:
  7626  1C09  1003               	clrc
  7627  1C0A  0DF2               	rlf	___wmul@multiplicand,f
  7628  1C0B  0DF3               	rlf	___wmul@multiplicand+1,f
  7629  1C0C  3EFF               	addlw	-1
  7630  1C0D  1D03               	skipz
  7631  1C0E  2C09               	goto	u4355
  7632  1C0F                     l2890:
  7633  1C0F  3001               	movlw	1
  7634  1C10                     u4365:
  7635  1C10  1003               	clrc
  7636  1C11  0CF1               	rrf	___wmul@multiplier+1,f
  7637  1C12  0CF0               	rrf	___wmul@multiplier,f
  7638  1C13  3EFF               	addlw	-1
  7639  1C14  1D03               	skipz
  7640  1C15  2C10               	goto	u4365
  7641  1C16                     l2892:
  7642  1C16  0870               	movf	___wmul@multiplier,w
  7643  1C17  0471               	iorwf	___wmul@multiplier+1,w
  7644  1C18  1D03               	btfss	3,2
  7645  1C19  2C1B               	goto	u4371
  7646  1C1A  2C1C               	goto	u4370
  7647  1C1B                     u4371:
  7648  1C1B  2BFE               	goto	l2886
  7649  1C1C                     u4370:
  7650  1C1C                     l2894:
  7651  1C1C  0875               	movf	___wmul@product+1,w
  7652  1C1D  00F1               	movwf	?___wmul+1
  7653  1C1E  0874               	movf	___wmul@product,w
  7654  1C1F  00F0               	movwf	?___wmul
  7655  1C20                     l244:
  7656  1C20  0008               	return
  7657  1C21                     __end_of___wmul:
  7658                           
  7659                           	psect	text19
  7660  1DF0                     __ptext19:	
  7661 ;; *************** function ___llmod *****************
  7662 ;; Defined at:
  7663 ;;		line 5 in file "C:\Program Files\Microchip\xc8\v2.36\pic\sources\c90\common\llmod.c"
  7664 ;; Parameters:    Size  Location     Type
  7665 ;;  divisor         4    0[COMMON] unsigned long 
  7666 ;;  dividend        4    4[COMMON] unsigned long 
  7667 ;; Auto vars:     Size  Location     Type
  7668 ;;  counter         1    9[COMMON] unsigned char 
  7669 ;; Return value:  Size  Location     Type
  7670 ;;                  4    0[COMMON] unsigned long 
  7671 ;; Registers used:
  7672 ;;		wreg, status,2, status,0
  7673 ;; Tracked objects:
  7674 ;;		On entry : 0/0
  7675 ;;		On exit  : 0/0
  7676 ;;		Unchanged: 0/0
  7677 ;; Data sizes:     COMMON   BANK0   BANK1   BANK3   BANK2
  7678 ;;      Params:         8       0       0       0       0
  7679 ;;      Locals:         1       0       0       0       0
  7680 ;;      Temps:          1       0       0       0       0
  7681 ;;      Totals:        10       0       0       0       0
  7682 ;;Total ram usage:       10 bytes
  7683 ;; Hardware stack levels used: 1
  7684 ;; This function calls:
  7685 ;;		Nothing
  7686 ;; This function is called by:
  7687 ;;		__doprnt
  7688 ;; This function uses a non-reentrant model
  7689 ;;
  7690                           
  7691  1DF0                     ___llmod:	
  7692                           ;psect for function ___llmod
  7693                           
  7694  1DF0                     l2998:	
  7695                           ;incstack = 0
  7696                           ; Regs used in ___llmod: [wreg+status,2+status,0]
  7697                           
  7698  1DF0  0873               	movf	___llmod@divisor+3,w
  7699  1DF1  0472               	iorwf	___llmod@divisor+2,w
  7700  1DF2  0471               	iorwf	___llmod@divisor+1,w
  7701  1DF3  0470               	iorwf	___llmod@divisor,w
  7702  1DF4  1903               	skipnz
  7703  1DF5  2DF7               	goto	u4661
  7704  1DF6  2DF8               	goto	u4660
  7705  1DF7                     u4661:
  7706  1DF7  2E3B               	goto	l3014
  7707  1DF8                     u4660:
  7708  1DF8                     l3000:
  7709  1DF8  01F9               	clrf	___llmod@counter
  7710  1DF9  0AF9               	incf	___llmod@counter,f
  7711  1DFA  2E08               	goto	l3004
  7712  1DFB                     l3002:
  7713  1DFB  3001               	movlw	1
  7714  1DFC  00F8               	movwf	??___llmod
  7715  1DFD                     u4675:
  7716  1DFD  1003               	clrc
  7717  1DFE  0DF0               	rlf	___llmod@divisor,f
  7718  1DFF  0DF1               	rlf	___llmod@divisor+1,f
  7719  1E00  0DF2               	rlf	___llmod@divisor+2,f
  7720  1E01  0DF3               	rlf	___llmod@divisor+3,f
  7721  1E02  0BF8               	decfsz	??___llmod,f
  7722  1E03  2DFD               	goto	u4675
  7723  1E04  3001               	movlw	1
  7724  1E05  00F8               	movwf	??___llmod
  7725  1E06  0878               	movf	??___llmod,w
  7726  1E07  07F9               	addwf	___llmod@counter,f
  7727  1E08                     l3004:
  7728  1E08  1FF3               	btfss	___llmod@divisor+3,7
  7729  1E09  2E0B               	goto	u4681
  7730  1E0A  2E0C               	goto	u4680
  7731  1E0B                     u4681:
  7732  1E0B  2DFB               	goto	l3002
  7733  1E0C                     u4680:
  7734  1E0C                     l3006:
  7735  1E0C  0873               	movf	___llmod@divisor+3,w
  7736  1E0D  0277               	subwf	___llmod@dividend+3,w
  7737  1E0E  1D03               	skipz
  7738  1E0F  2E1A               	goto	u4695
  7739  1E10  0872               	movf	___llmod@divisor+2,w
  7740  1E11  0276               	subwf	___llmod@dividend+2,w
  7741  1E12  1D03               	skipz
  7742  1E13  2E1A               	goto	u4695
  7743  1E14  0871               	movf	___llmod@divisor+1,w
  7744  1E15  0275               	subwf	___llmod@dividend+1,w
  7745  1E16  1D03               	skipz
  7746  1E17  2E1A               	goto	u4695
  7747  1E18  0870               	movf	___llmod@divisor,w
  7748  1E19  0274               	subwf	___llmod@dividend,w
  7749  1E1A                     u4695:
  7750  1E1A  1C03               	skipc
  7751  1E1B  2E1D               	goto	u4691
  7752  1E1C  2E1E               	goto	u4690
  7753  1E1D                     u4691:
  7754  1E1D  2E2C               	goto	l3010
  7755  1E1E                     u4690:
  7756  1E1E                     l3008:
  7757  1E1E  0870               	movf	___llmod@divisor,w
  7758  1E1F  02F4               	subwf	___llmod@dividend,f
  7759  1E20  0871               	movf	___llmod@divisor+1,w
  7760  1E21  1C03               	skipc
  7761  1E22  0F71               	incfsz	___llmod@divisor+1,w
  7762  1E23  02F5               	subwf	___llmod@dividend+1,f
  7763  1E24  0872               	movf	___llmod@divisor+2,w
  7764  1E25  1C03               	skipc
  7765  1E26  0F72               	incfsz	___llmod@divisor+2,w
  7766  1E27  02F6               	subwf	___llmod@dividend+2,f
  7767  1E28  0873               	movf	___llmod@divisor+3,w
  7768  1E29  1C03               	skipc
  7769  1E2A  0F73               	incfsz	___llmod@divisor+3,w
  7770  1E2B  02F7               	subwf	___llmod@dividend+3,f
  7771  1E2C                     l3010:
  7772  1E2C  3001               	movlw	1
  7773  1E2D                     u4705:
  7774  1E2D  1003               	clrc
  7775  1E2E  0CF3               	rrf	___llmod@divisor+3,f
  7776  1E2F  0CF2               	rrf	___llmod@divisor+2,f
  7777  1E30  0CF1               	rrf	___llmod@divisor+1,f
  7778  1E31  0CF0               	rrf	___llmod@divisor,f
  7779  1E32  3EFF               	addlw	-1
  7780  1E33  1D03               	skipz
  7781  1E34  2E2D               	goto	u4705
  7782  1E35                     l3012:
  7783  1E35  3001               	movlw	1
  7784  1E36  02F9               	subwf	___llmod@counter,f
  7785  1E37  1D03               	btfss	3,2
  7786  1E38  2E3A               	goto	u4711
  7787  1E39  2E3B               	goto	u4710
  7788  1E3A                     u4711:
  7789  1E3A  2E0C               	goto	l3006
  7790  1E3B                     u4710:
  7791  1E3B                     l3014:
  7792  1E3B  0877               	movf	___llmod@dividend+3,w
  7793  1E3C  00F3               	movwf	?___llmod+3
  7794  1E3D  0876               	movf	___llmod@dividend+2,w
  7795  1E3E  00F2               	movwf	?___llmod+2
  7796  1E3F  0875               	movf	___llmod@dividend+1,w
  7797  1E40  00F1               	movwf	?___llmod+1
  7798  1E41  0874               	movf	___llmod@dividend,w
  7799  1E42  00F0               	movwf	?___llmod
  7800  1E43                     l464:
  7801  1E43  0008               	return
  7802  1E44                     __end_of___llmod:
  7803                           
  7804                           	psect	text20
  7805  1E9D                     __ptext20:	
  7806 ;; *************** function ___lldiv *****************
  7807 ;; Defined at:
  7808 ;;		line 5 in file "C:\Program Files\Microchip\xc8\v2.36\pic\sources\c90\common\__lldiv.c"
  7809 ;; Parameters:    Size  Location     Type
  7810 ;;  divisor         4    0[COMMON] unsigned long 
  7811 ;;  dividend        4    4[COMMON] unsigned long 
  7812 ;; Auto vars:     Size  Location     Type
  7813 ;;  quotient        4    9[COMMON] unsigned long 
  7814 ;;  counter         1   13[COMMON] unsigned char 
  7815 ;; Return value:  Size  Location     Type
  7816 ;;                  4    0[COMMON] unsigned long 
  7817 ;; Registers used:
  7818 ;;		wreg, status,2, status,0
  7819 ;; Tracked objects:
  7820 ;;		On entry : 0/0
  7821 ;;		On exit  : 0/0
  7822 ;;		Unchanged: 0/0
  7823 ;; Data sizes:     COMMON   BANK0   BANK1   BANK3   BANK2
  7824 ;;      Params:         8       0       0       0       0
  7825 ;;      Locals:         5       0       0       0       0
  7826 ;;      Temps:          1       0       0       0       0
  7827 ;;      Totals:        14       0       0       0       0
  7828 ;;Total ram usage:       14 bytes
  7829 ;; Hardware stack levels used: 1
  7830 ;; This function calls:
  7831 ;;		Nothing
  7832 ;; This function is called by:
  7833 ;;		__doprnt
  7834 ;; This function uses a non-reentrant model
  7835 ;;
  7836                           
  7837  1E9D                     ___lldiv:	
  7838                           ;psect for function ___lldiv
  7839                           
  7840  1E9D                     l2898:	
  7841                           ;incstack = 0
  7842                           ; Regs used in ___lldiv: [wreg+status,2+status,0]
  7843                           
  7844  1E9D  3000               	movlw	0
  7845  1E9E  00FC               	movwf	___lldiv@quotient+3
  7846  1E9F  3000               	movlw	0
  7847  1EA0  00FB               	movwf	___lldiv@quotient+2
  7848  1EA1  3000               	movlw	0
  7849  1EA2  00FA               	movwf	___lldiv@quotient+1
  7850  1EA3  3000               	movlw	0
  7851  1EA4  00F9               	movwf	___lldiv@quotient
  7852  1EA5  0873               	movf	___lldiv@divisor+3,w
  7853  1EA6  0472               	iorwf	___lldiv@divisor+2,w
  7854  1EA7  0471               	iorwf	___lldiv@divisor+1,w
  7855  1EA8  0470               	iorwf	___lldiv@divisor,w
  7856  1EA9  1903               	skipnz
  7857  1EAA  2EAC               	goto	u4381
  7858  1EAB  2EAD               	goto	u4380
  7859  1EAC                     u4381:
  7860  1EAC  2EFA               	goto	l2918
  7861  1EAD                     u4380:
  7862  1EAD                     l2900:
  7863  1EAD  01FD               	clrf	___lldiv@counter
  7864  1EAE  0AFD               	incf	___lldiv@counter,f
  7865  1EAF  2EBD               	goto	l2904
  7866  1EB0                     l2902:
  7867  1EB0  3001               	movlw	1
  7868  1EB1  00F8               	movwf	??___lldiv
  7869  1EB2                     u4395:
  7870  1EB2  1003               	clrc
  7871  1EB3  0DF0               	rlf	___lldiv@divisor,f
  7872  1EB4  0DF1               	rlf	___lldiv@divisor+1,f
  7873  1EB5  0DF2               	rlf	___lldiv@divisor+2,f
  7874  1EB6  0DF3               	rlf	___lldiv@divisor+3,f
  7875  1EB7  0BF8               	decfsz	??___lldiv,f
  7876  1EB8  2EB2               	goto	u4395
  7877  1EB9  3001               	movlw	1
  7878  1EBA  00F8               	movwf	??___lldiv
  7879  1EBB  0878               	movf	??___lldiv,w
  7880  1EBC  07FD               	addwf	___lldiv@counter,f
  7881  1EBD                     l2904:
  7882  1EBD  1FF3               	btfss	___lldiv@divisor+3,7
  7883  1EBE  2EC0               	goto	u4401
  7884  1EBF  2EC1               	goto	u4400
  7885  1EC0                     u4401:
  7886  1EC0  2EB0               	goto	l2902
  7887  1EC1                     u4400:
  7888  1EC1                     l2906:
  7889  1EC1  3001               	movlw	1
  7890  1EC2  00F8               	movwf	??___lldiv
  7891  1EC3                     u4415:
  7892  1EC3  1003               	clrc
  7893  1EC4  0DF9               	rlf	___lldiv@quotient,f
  7894  1EC5  0DFA               	rlf	___lldiv@quotient+1,f
  7895  1EC6  0DFB               	rlf	___lldiv@quotient+2,f
  7896  1EC7  0DFC               	rlf	___lldiv@quotient+3,f
  7897  1EC8  0BF8               	decfsz	??___lldiv,f
  7898  1EC9  2EC3               	goto	u4415
  7899  1ECA                     l2908:
  7900  1ECA  0873               	movf	___lldiv@divisor+3,w
  7901  1ECB  0277               	subwf	___lldiv@dividend+3,w
  7902  1ECC  1D03               	skipz
  7903  1ECD  2ED8               	goto	u4425
  7904  1ECE  0872               	movf	___lldiv@divisor+2,w
  7905  1ECF  0276               	subwf	___lldiv@dividend+2,w
  7906  1ED0  1D03               	skipz
  7907  1ED1  2ED8               	goto	u4425
  7908  1ED2  0871               	movf	___lldiv@divisor+1,w
  7909  1ED3  0275               	subwf	___lldiv@dividend+1,w
  7910  1ED4  1D03               	skipz
  7911  1ED5  2ED8               	goto	u4425
  7912  1ED6  0870               	movf	___lldiv@divisor,w
  7913  1ED7  0274               	subwf	___lldiv@dividend,w
  7914  1ED8                     u4425:
  7915  1ED8  1C03               	skipc
  7916  1ED9  2EDB               	goto	u4421
  7917  1EDA  2EDC               	goto	u4420
  7918  1EDB                     u4421:
  7919  1EDB  2EEB               	goto	l2914
  7920  1EDC                     u4420:
  7921  1EDC                     l2910:
  7922  1EDC  0870               	movf	___lldiv@divisor,w
  7923  1EDD  02F4               	subwf	___lldiv@dividend,f
  7924  1EDE  0871               	movf	___lldiv@divisor+1,w
  7925  1EDF  1C03               	skipc
  7926  1EE0  0F71               	incfsz	___lldiv@divisor+1,w
  7927  1EE1  02F5               	subwf	___lldiv@dividend+1,f
  7928  1EE2  0872               	movf	___lldiv@divisor+2,w
  7929  1EE3  1C03               	skipc
  7930  1EE4  0F72               	incfsz	___lldiv@divisor+2,w
  7931  1EE5  02F6               	subwf	___lldiv@dividend+2,f
  7932  1EE6  0873               	movf	___lldiv@divisor+3,w
  7933  1EE7  1C03               	skipc
  7934  1EE8  0F73               	incfsz	___lldiv@divisor+3,w
  7935  1EE9  02F7               	subwf	___lldiv@dividend+3,f
  7936  1EEA                     l2912:
  7937  1EEA  1479               	bsf	___lldiv@quotient,0
  7938  1EEB                     l2914:
  7939  1EEB  3001               	movlw	1
  7940  1EEC                     u4435:
  7941  1EEC  1003               	clrc
  7942  1EED  0CF3               	rrf	___lldiv@divisor+3,f
  7943  1EEE  0CF2               	rrf	___lldiv@divisor+2,f
  7944  1EEF  0CF1               	rrf	___lldiv@divisor+1,f
  7945  1EF0  0CF0               	rrf	___lldiv@divisor,f
  7946  1EF1  3EFF               	addlw	-1
  7947  1EF2  1D03               	skipz
  7948  1EF3  2EEC               	goto	u4435
  7949  1EF4                     l2916:
  7950  1EF4  3001               	movlw	1
  7951  1EF5  02FD               	subwf	___lldiv@counter,f
  7952  1EF6  1D03               	btfss	3,2
  7953  1EF7  2EF9               	goto	u4441
  7954  1EF8  2EFA               	goto	u4440
  7955  1EF9                     u4441:
  7956  1EF9  2EC1               	goto	l2906
  7957  1EFA                     u4440:
  7958  1EFA                     l2918:
  7959  1EFA  087C               	movf	___lldiv@quotient+3,w
  7960  1EFB  00F3               	movwf	?___lldiv+3
  7961  1EFC  087B               	movf	___lldiv@quotient+2,w
  7962  1EFD  00F2               	movwf	?___lldiv+2
  7963  1EFE  087A               	movf	___lldiv@quotient+1,w
  7964  1EFF  00F1               	movwf	?___lldiv+1
  7965  1F00  0879               	movf	___lldiv@quotient,w
  7966  1F01  00F0               	movwf	?___lldiv
  7967  1F02                     l278:
  7968  1F02  0008               	return
  7969  1F03                     __end_of___lldiv:
  7970                           
  7971                           	psect	text21
  7972  0806                     __ptext21:	
  7973 ;; *************** function ___fltol *****************
  7974 ;; Defined at:
  7975 ;;		line 43 in file "C:\Program Files\Microchip\xc8\v2.36\pic\sources\c90\common\fltol.c"
  7976 ;; Parameters:    Size  Location     Type
  7977 ;;  f1              4   49[BANK0 ] unsigned long 
  7978 ;; Auto vars:     Size  Location     Type
  7979 ;;  exp1            1   59[BANK0 ] unsigned char 
  7980 ;;  sign1           1   58[BANK0 ] unsigned char 
  7981 ;; Return value:  Size  Location     Type
  7982 ;;                  4   49[BANK0 ] long 
  7983 ;; Registers used:
  7984 ;;		wreg, status,2, status,0
  7985 ;; Tracked objects:
  7986 ;;		On entry : 0/0
  7987 ;;		On exit  : 0/0
  7988 ;;		Unchanged: 0/0
  7989 ;; Data sizes:     COMMON   BANK0   BANK1   BANK3   BANK2
  7990 ;;      Params:         0       4       0       0       0
  7991 ;;      Locals:         0       2       0       0       0
  7992 ;;      Temps:          0       5       0       0       0
  7993 ;;      Totals:         0      11       0       0       0
  7994 ;;Total ram usage:       11 bytes
  7995 ;; Hardware stack levels used: 1
  7996 ;; This function calls:
  7997 ;;		Nothing
  7998 ;; This function is called by:
  7999 ;;		__doprnt
  8000 ;; This function uses a non-reentrant model
  8001 ;;
  8002                           
  8003  0806                     ___fltol:	
  8004                           ;psect for function ___fltol
  8005                           
  8006  0806                     l2962:	
  8007                           ;incstack = 0
  8008                           ; Regs used in ___fltol: [wreg+status,2+status,0]
  8009                           
  8010  0806  1003               	clrc
  8011  0807  1283               	bcf	3,5	;RP0=0, select bank0
  8012  0808  1303               	bcf	3,6	;RP1=0, select bank0
  8013  0809  0D53               	rlf	___fltol@f1+2,w
  8014  080A  0D54               	rlf	___fltol@f1+3,w
  8015  080B  00D5               	movwf	??___fltol
  8016  080C  0855               	movf	??___fltol,w
  8017  080D  00DB               	movwf	___fltol@exp1
  8018  080E  085B               	movf	___fltol@exp1,w
  8019  080F  1D03               	btfss	3,2
  8020  0810  2812               	goto	u4561
  8021  0811  2813               	goto	u4560
  8022  0812                     u4561:
  8023  0812  281C               	goto	l2968
  8024  0813                     u4560:
  8025  0813                     l2964:
  8026  0813  3000               	movlw	0
  8027  0814  00D4               	movwf	?___fltol+3
  8028  0815  3000               	movlw	0
  8029  0816  00D3               	movwf	?___fltol+2
  8030  0817  3000               	movlw	0
  8031  0818  00D2               	movwf	?___fltol+1
  8032  0819  3000               	movlw	0
  8033  081A  00D1               	movwf	?___fltol
  8034  081B  2881               	goto	l428
  8035  081C                     l2968:
  8036  081C  0851               	movf	___fltol@f1,w
  8037  081D  00D5               	movwf	??___fltol
  8038  081E  0852               	movf	___fltol@f1+1,w
  8039  081F  00D6               	movwf	??___fltol+1
  8040  0820  0853               	movf	___fltol@f1+2,w
  8041  0821  00D7               	movwf	??___fltol+2
  8042  0822  0854               	movf	___fltol@f1+3,w
  8043  0823  00D8               	movwf	??___fltol+3
  8044  0824  301F               	movlw	31
  8045  0825                     u4575:
  8046  0825  1003               	clrc
  8047  0826  0CD8               	rrf	??___fltol+3,f
  8048  0827  0CD7               	rrf	??___fltol+2,f
  8049  0828  0CD6               	rrf	??___fltol+1,f
  8050  0829  0CD5               	rrf	??___fltol,f
  8051  082A                     u4570:
  8052  082A  3EFF               	addlw	-1
  8053  082B  1D03               	skipz
  8054  082C  2825               	goto	u4575
  8055  082D  0855               	movf	??___fltol,w
  8056  082E  00D9               	movwf	??___fltol+4
  8057  082F  0859               	movf	??___fltol+4,w
  8058  0830  00DA               	movwf	___fltol@sign1
  8059  0831                     l2970:
  8060  0831  17D3               	bsf	___fltol@f1+2,7
  8061  0832                     l2972:
  8062  0832  30FF               	movlw	255
  8063  0833  05D1               	andwf	___fltol@f1,f
  8064  0834  30FF               	movlw	255
  8065  0835  05D2               	andwf	___fltol@f1+1,f
  8066  0836  30FF               	movlw	255
  8067  0837  05D3               	andwf	___fltol@f1+2,f
  8068  0838  3000               	movlw	0
  8069  0839  05D4               	andwf	___fltol@f1+3,f
  8070  083A                     l2974:
  8071  083A  3096               	movlw	150
  8072  083B  02DB               	subwf	___fltol@exp1,f
  8073  083C                     l2976:
  8074  083C  1FDB               	btfss	___fltol@exp1,7
  8075  083D  283F               	goto	u4581
  8076  083E  2840               	goto	u4580
  8077  083F                     u4581:
  8078  083F  285A               	goto	l2986
  8079  0840                     u4580:
  8080  0840                     l2978:
  8081  0840  085B               	movf	___fltol@exp1,w
  8082  0841  3A80               	xorlw	128
  8083  0842  3E97               	addlw	151
  8084  0843  1803               	skipnc
  8085  0844  2846               	goto	u4591
  8086  0845  2847               	goto	u4590
  8087  0846                     u4591:
  8088  0846  2848               	goto	l2984
  8089  0847                     u4590:
  8090  0847  2813               	goto	l2964
  8091  0848                     l2984:
  8092  0848  3001               	movlw	1
  8093  0849                     u4605:
  8094  0849  1003               	clrc
  8095  084A  0CD4               	rrf	___fltol@f1+3,f
  8096  084B  0CD3               	rrf	___fltol@f1+2,f
  8097  084C  0CD2               	rrf	___fltol@f1+1,f
  8098  084D  0CD1               	rrf	___fltol@f1,f
  8099  084E  3EFF               	addlw	-1
  8100  084F  1D03               	skipz
  8101  0850  2849               	goto	u4605
  8102  0851  3001               	movlw	1
  8103  0852  00D5               	movwf	??___fltol
  8104  0853  0855               	movf	??___fltol,w
  8105  0854  07DB               	addwf	___fltol@exp1,f
  8106  0855  1D03               	btfss	3,2
  8107  0856  2858               	goto	u4611
  8108  0857  2859               	goto	u4610
  8109  0858                     u4611:
  8110  0858  2848               	goto	l2984
  8111  0859                     u4610:
  8112  0859  2871               	goto	l2994
  8113  085A                     l2986:
  8114  085A  3020               	movlw	32
  8115  085B  025B               	subwf	___fltol@exp1,w
  8116  085C  1C03               	skipc
  8117  085D  285F               	goto	u4621
  8118  085E  2860               	goto	u4620
  8119  085F                     u4621:
  8120  085F  286C               	goto	l435
  8121  0860                     u4620:
  8122  0860  2813               	goto	l2964
  8123  0861                     l2992:
  8124  0861  3001               	movlw	1
  8125  0862  00D5               	movwf	??___fltol
  8126  0863                     u4635:
  8127  0863  1003               	clrc
  8128  0864  0DD1               	rlf	___fltol@f1,f
  8129  0865  0DD2               	rlf	___fltol@f1+1,f
  8130  0866  0DD3               	rlf	___fltol@f1+2,f
  8131  0867  0DD4               	rlf	___fltol@f1+3,f
  8132  0868  0BD5               	decfsz	??___fltol,f
  8133  0869  2863               	goto	u4635
  8134  086A  3001               	movlw	1
  8135  086B  02DB               	subwf	___fltol@exp1,f
  8136  086C                     l435:
  8137  086C  085B               	movf	___fltol@exp1,w
  8138  086D  1D03               	btfss	3,2
  8139  086E  2870               	goto	u4641
  8140  086F  2871               	goto	u4640
  8141  0870                     u4641:
  8142  0870  2861               	goto	l2992
  8143  0871                     u4640:
  8144  0871                     l2994:
  8145  0871  085A               	movf	___fltol@sign1,w
  8146  0872  1903               	btfsc	3,2
  8147  0873  2875               	goto	u4651
  8148  0874  2876               	goto	u4650
  8149  0875                     u4651:
  8150  0875  2881               	goto	l438
  8151  0876                     u4650:
  8152  0876                     l2996:
  8153  0876  09D1               	comf	___fltol@f1,f
  8154  0877  09D2               	comf	___fltol@f1+1,f
  8155  0878  09D3               	comf	___fltol@f1+2,f
  8156  0879  09D4               	comf	___fltol@f1+3,f
  8157  087A  0AD1               	incf	___fltol@f1,f
  8158  087B  1903               	skipnz
  8159  087C  0AD2               	incf	___fltol@f1+1,f
  8160  087D  1903               	skipnz
  8161  087E  0AD3               	incf	___fltol@f1+2,f
  8162  087F  1903               	skipnz
  8163  0880  0AD4               	incf	___fltol@f1+3,f
  8164  0881                     l438:
  8165  0881                     l428:
  8166  0881  0008               	return
  8167  0882                     __end_of___fltol:
  8168                           
  8169                           	psect	text22
  8170  1BB3                     __ptext22:	
  8171 ;; *************** function ___flsub *****************
  8172 ;; Defined at:
  8173 ;;		line 242 in file "C:\Program Files\Microchip\xc8\v2.36\pic\sources\c90\common\sprcadd.c"
  8174 ;; Parameters:    Size  Location     Type
  8175 ;;  a               4   70[BANK0 ] long 
  8176 ;;  b               4   74[BANK0 ] long 
  8177 ;; Auto vars:     Size  Location     Type
  8178 ;;		None
  8179 ;; Return value:  Size  Location     Type
  8180 ;;                  4   70[BANK0 ] long 
  8181 ;; Registers used:
  8182 ;;		wreg, status,2, status,0, btemp+1, pclath, cstack
  8183 ;; Tracked objects:
  8184 ;;		On entry : 0/0
  8185 ;;		On exit  : 0/0
  8186 ;;		Unchanged: 0/0
  8187 ;; Data sizes:     COMMON   BANK0   BANK1   BANK3   BANK2
  8188 ;;      Params:         0       8       0       0       0
  8189 ;;      Locals:         0       0       0       0       0
  8190 ;;      Temps:          0       0       0       0       0
  8191 ;;      Totals:         0       8       0       0       0
  8192 ;;Total ram usage:        8 bytes
  8193 ;; Hardware stack levels used: 1
  8194 ;; Hardware stack levels required when called: 1
  8195 ;; This function calls:
  8196 ;;		___fladd
  8197 ;; This function is called by:
  8198 ;;		__doprnt
  8199 ;; This function uses a non-reentrant model
  8200 ;;
  8201                           
  8202  1BB3                     ___flsub:	
  8203                           ;psect for function ___flsub
  8204                           
  8205  1BB3                     l3018:	
  8206                           ;incstack = 0
  8207                           ; Regs used in ___flsub: [wreg+status,2+status,0+btemp+1+pclath+cstack]
  8208                           
  8209  1BB3  3080               	movlw	128
  8210  1BB4  1283               	bcf	3,5	;RP0=0, select bank0
  8211  1BB5  1303               	bcf	3,6	;RP1=0, select bank0
  8212  1BB6  06E9               	xorwf	___flsub@a+3,f
  8213  1BB7                     l3020:
  8214  1BB7  086D               	movf	___flsub@b+3,w
  8215  1BB8  00D5               	movwf	___fladd@b+3
  8216  1BB9  086C               	movf	___flsub@b+2,w
  8217  1BBA  00D4               	movwf	___fladd@b+2
  8218  1BBB  086B               	movf	___flsub@b+1,w
  8219  1BBC  00D3               	movwf	___fladd@b+1
  8220  1BBD  086A               	movf	___flsub@b,w
  8221  1BBE  00D2               	movwf	___fladd@b
  8222  1BBF  0869               	movf	___flsub@a+3,w
  8223  1BC0  00D9               	movwf	___fladd@a+3
  8224  1BC1  0868               	movf	___flsub@a+2,w
  8225  1BC2  00D8               	movwf	___fladd@a+2
  8226  1BC3  0867               	movf	___flsub@a+1,w
  8227  1BC4  00D7               	movwf	___fladd@a+1
  8228  1BC5  0866               	movf	___flsub@a,w
  8229  1BC6  00D6               	movwf	___fladd@a
  8230  1BC7  160A  118A  2578  160A  158A  	fcall	___fladd
  8231  1BCC  1283               	bcf	3,5	;RP0=0, select bank0
  8232  1BCD  1303               	bcf	3,6	;RP1=0, select bank0
  8233  1BCE  0855               	movf	?___fladd+3,w
  8234  1BCF  00E9               	movwf	?___flsub+3
  8235  1BD0  0854               	movf	?___fladd+2,w
  8236  1BD1  00E8               	movwf	?___flsub+2
  8237  1BD2  0853               	movf	?___fladd+1,w
  8238  1BD3  00E7               	movwf	?___flsub+1
  8239  1BD4  0852               	movf	?___fladd,w
  8240  1BD5  00E6               	movwf	?___flsub
  8241  1BD6                     l581:
  8242  1BD6  0008               	return
  8243  1BD7                     __end_of___flsub:
  8244                           
  8245                           	psect	text23
  8246  1578                     __ptext23:	
  8247 ;; *************** function ___fladd *****************
  8248 ;; Defined at:
  8249 ;;		line 10 in file "C:\Program Files\Microchip\xc8\v2.36\pic\sources\c90\common\sprcadd.c"
  8250 ;; Parameters:    Size  Location     Type
  8251 ;;  b               4   50[BANK0 ] long 
  8252 ;;  a               4   54[BANK0 ] long 
  8253 ;; Auto vars:     Size  Location     Type
  8254 ;;  grs             1   69[BANK0 ] unsigned char 
  8255 ;;  bexp            1   68[BANK0 ] unsigned char 
  8256 ;;  aexp            1   67[BANK0 ] unsigned char 
  8257 ;;  signs           1   66[BANK0 ] unsigned char 
  8258 ;; Return value:  Size  Location     Type
  8259 ;;                  4   50[BANK0 ] unsigned char 
  8260 ;; Registers used:
  8261 ;;		wreg, status,2, status,0, btemp+1
  8262 ;; Tracked objects:
  8263 ;;		On entry : 0/0
  8264 ;;		On exit  : 0/0
  8265 ;;		Unchanged: 0/0
  8266 ;; Data sizes:     COMMON   BANK0   BANK1   BANK3   BANK2
  8267 ;;      Params:         0       8       0       0       0
  8268 ;;      Locals:         0       4       0       0       0
  8269 ;;      Temps:          0       8       0       0       0
  8270 ;;      Totals:         0      20       0       0       0
  8271 ;;Total ram usage:       20 bytes
  8272 ;; Hardware stack levels used: 1
  8273 ;; This function calls:
  8274 ;;		Nothing
  8275 ;; This function is called by:
  8276 ;;		___flsub
  8277 ;;		__doprnt
  8278 ;; This function uses a non-reentrant model
  8279 ;;
  8280                           
  8281  1578                     ___fladd:	
  8282                           ;psect for function ___fladd
  8283                           
  8284  1578                     l2532:	
  8285                           ;incstack = 0
  8286                           ; Regs used in ___fladd: [wreg+status,2+status,0+btemp+1]
  8287                           
  8288  1578  1283               	bcf	3,5	;RP0=0, select bank0
  8289  1579  1303               	bcf	3,6	;RP1=0, select bank0
  8290  157A  0855               	movf	___fladd@b+3,w
  8291  157B  3980               	andlw	128
  8292  157C  00DA               	movwf	??___fladd
  8293  157D  085A               	movf	??___fladd,w
  8294  157E  00E2               	movwf	___fladd@signs
  8295  157F                     l2534:
  8296  157F  0855               	movf	___fladd@b+3,w
  8297  1580  00DA               	movwf	??___fladd
  8298  1581  075A               	addwf	??___fladd,w
  8299  1582  00DB               	movwf	??___fladd+1
  8300  1583  085B               	movf	??___fladd+1,w
  8301  1584  00E4               	movwf	___fladd@bexp
  8302  1585                     l2536:
  8303  1585  1FD4               	btfss	___fladd@b+2,7
  8304  1586  2D88               	goto	u3491
  8305  1587  2D89               	goto	u3490
  8306  1588                     u3491:
  8307  1588  2D8A               	goto	l2540
  8308  1589                     u3490:
  8309  1589                     l2538:
  8310  1589  1464               	bsf	___fladd@bexp,0
  8311  158A                     l2540:
  8312  158A  0864               	movf	___fladd@bexp,w
  8313  158B  1903               	btfsc	3,2
  8314  158C  2D8E               	goto	u3501
  8315  158D  2D8F               	goto	u3500
  8316  158E                     u3501:
  8317  158E  2D9F               	goto	l2550
  8318  158F                     u3500:
  8319  158F                     l2542:
  8320  158F  0A64               	incf	___fladd@bexp,w
  8321  1590  1D03               	btfss	3,2
  8322  1591  2D93               	goto	u3511
  8323  1592  2D94               	goto	u3510
  8324  1593                     u3511:
  8325  1593  2D9C               	goto	l2546
  8326  1594                     u3510:
  8327  1594                     l2544:
  8328  1594  3000               	movlw	0
  8329  1595  00D5               	movwf	___fladd@b+3
  8330  1596  3000               	movlw	0
  8331  1597  00D4               	movwf	___fladd@b+2
  8332  1598  3000               	movlw	0
  8333  1599  00D3               	movwf	___fladd@b+1
  8334  159A  3000               	movlw	0
  8335  159B  00D2               	movwf	___fladd@b
  8336  159C                     l2546:
  8337  159C  17D4               	bsf	___fladd@b+2,7
  8338  159D                     l2548:
  8339  159D  01D5               	clrf	___fladd@b+3
  8340  159E  2DA7               	goto	l2552
  8341  159F                     l2550:
  8342  159F  3000               	movlw	0
  8343  15A0  00D5               	movwf	___fladd@b+3
  8344  15A1  3000               	movlw	0
  8345  15A2  00D4               	movwf	___fladd@b+2
  8346  15A3  3000               	movlw	0
  8347  15A4  00D3               	movwf	___fladd@b+1
  8348  15A5  3000               	movlw	0
  8349  15A6  00D2               	movwf	___fladd@b
  8350  15A7                     l2552:
  8351  15A7  0859               	movf	___fladd@a+3,w
  8352  15A8  3980               	andlw	128
  8353  15A9  00DA               	movwf	??___fladd
  8354  15AA  085A               	movf	??___fladd,w
  8355  15AB  00E3               	movwf	___fladd@aexp
  8356  15AC                     l2554:
  8357  15AC  0863               	movf	___fladd@aexp,w
  8358  15AD  0662               	xorwf	___fladd@signs,w
  8359  15AE  1903               	skipnz
  8360  15AF  2DB1               	goto	u3521
  8361  15B0  2DB2               	goto	u3520
  8362  15B1                     u3521:
  8363  15B1  2DB3               	goto	l2558
  8364  15B2                     u3520:
  8365  15B2                     l2556:
  8366  15B2  1762               	bsf	___fladd@signs,6
  8367  15B3                     l2558:
  8368  15B3  0859               	movf	___fladd@a+3,w
  8369  15B4  00DA               	movwf	??___fladd
  8370  15B5  075A               	addwf	??___fladd,w
  8371  15B6  00DB               	movwf	??___fladd+1
  8372  15B7  085B               	movf	??___fladd+1,w
  8373  15B8  00E3               	movwf	___fladd@aexp
  8374  15B9                     l2560:
  8375  15B9  1FD8               	btfss	___fladd@a+2,7
  8376  15BA  2DBC               	goto	u3531
  8377  15BB  2DBD               	goto	u3530
  8378  15BC                     u3531:
  8379  15BC  2DBE               	goto	l2564
  8380  15BD                     u3530:
  8381  15BD                     l2562:
  8382  15BD  1463               	bsf	___fladd@aexp,0
  8383  15BE                     l2564:
  8384  15BE  0863               	movf	___fladd@aexp,w
  8385  15BF  1903               	btfsc	3,2
  8386  15C0  2DC2               	goto	u3541
  8387  15C1  2DC3               	goto	u3540
  8388  15C2                     u3541:
  8389  15C2  2DD3               	goto	l2574
  8390  15C3                     u3540:
  8391  15C3                     l2566:
  8392  15C3  0A63               	incf	___fladd@aexp,w
  8393  15C4  1D03               	btfss	3,2
  8394  15C5  2DC7               	goto	u3551
  8395  15C6  2DC8               	goto	u3550
  8396  15C7                     u3551:
  8397  15C7  2DD0               	goto	l2570
  8398  15C8                     u3550:
  8399  15C8                     l2568:
  8400  15C8  3000               	movlw	0
  8401  15C9  00D9               	movwf	___fladd@a+3
  8402  15CA  3000               	movlw	0
  8403  15CB  00D8               	movwf	___fladd@a+2
  8404  15CC  3000               	movlw	0
  8405  15CD  00D7               	movwf	___fladd@a+1
  8406  15CE  3000               	movlw	0
  8407  15CF  00D6               	movwf	___fladd@a
  8408  15D0                     l2570:
  8409  15D0  17D8               	bsf	___fladd@a+2,7
  8410  15D1                     l2572:
  8411  15D1  01D9               	clrf	___fladd@a+3
  8412  15D2  2DDB               	goto	l535
  8413  15D3                     l2574:
  8414  15D3  3000               	movlw	0
  8415  15D4  00D9               	movwf	___fladd@a+3
  8416  15D5  3000               	movlw	0
  8417  15D6  00D8               	movwf	___fladd@a+2
  8418  15D7  3000               	movlw	0
  8419  15D8  00D7               	movwf	___fladd@a+1
  8420  15D9  3000               	movlw	0
  8421  15DA  00D6               	movwf	___fladd@a
  8422  15DB                     l535:
  8423  15DB  0864               	movf	___fladd@bexp,w
  8424  15DC  0263               	subwf	___fladd@aexp,w
  8425  15DD  1803               	skipnc
  8426  15DE  2DE0               	goto	u3561
  8427  15DF  2DE1               	goto	u3560
  8428  15E0                     u3561:
  8429  15E0  2E25               	goto	l2610
  8430  15E1                     u3560:
  8431  15E1                     l2576:
  8432  15E1  1F62               	btfss	___fladd@signs,6
  8433  15E2  2DE4               	goto	u3571
  8434  15E3  2DE5               	goto	u3570
  8435  15E4                     u3571:
  8436  15E4  2DE9               	goto	l2580
  8437  15E5                     u3570:
  8438  15E5                     l2578:
  8439  15E5  3080               	movlw	128
  8440  15E6  00DA               	movwf	??___fladd
  8441  15E7  085A               	movf	??___fladd,w
  8442  15E8  06E2               	xorwf	___fladd@signs,f
  8443  15E9                     l2580:
  8444  15E9  0864               	movf	___fladd@bexp,w
  8445  15EA  00DA               	movwf	??___fladd
  8446  15EB  085A               	movf	??___fladd,w
  8447  15EC  00E5               	movwf	___fladd@grs
  8448  15ED                     l2582:
  8449  15ED  0863               	movf	___fladd@aexp,w
  8450  15EE  00DA               	movwf	??___fladd
  8451  15EF  085A               	movf	??___fladd,w
  8452  15F0  00E4               	movwf	___fladd@bexp
  8453  15F1                     l2584:
  8454  15F1  0865               	movf	___fladd@grs,w
  8455  15F2  00DA               	movwf	??___fladd
  8456  15F3  085A               	movf	??___fladd,w
  8457  15F4  00E3               	movwf	___fladd@aexp
  8458  15F5                     l2586:
  8459  15F5  0852               	movf	___fladd@b,w
  8460  15F6  00DA               	movwf	??___fladd
  8461  15F7  085A               	movf	??___fladd,w
  8462  15F8  00E5               	movwf	___fladd@grs
  8463  15F9                     l2588:
  8464  15F9  0856               	movf	___fladd@a,w
  8465  15FA  00DA               	movwf	??___fladd
  8466  15FB  085A               	movf	??___fladd,w
  8467  15FC  00D2               	movwf	___fladd@b
  8468  15FD                     l2590:
  8469  15FD  0865               	movf	___fladd@grs,w
  8470  15FE  00DA               	movwf	??___fladd
  8471  15FF  085A               	movf	??___fladd,w
  8472  1600  00D6               	movwf	___fladd@a
  8473  1601                     l2592:
  8474  1601  0853               	movf	___fladd@b+1,w
  8475  1602  00DA               	movwf	??___fladd
  8476  1603  085A               	movf	??___fladd,w
  8477  1604  00E5               	movwf	___fladd@grs
  8478  1605                     l2594:
  8479  1605  0857               	movf	___fladd@a+1,w
  8480  1606  00DA               	movwf	??___fladd
  8481  1607  085A               	movf	??___fladd,w
  8482  1608  00D3               	movwf	___fladd@b+1
  8483  1609                     l2596:
  8484  1609  0865               	movf	___fladd@grs,w
  8485  160A  00DA               	movwf	??___fladd
  8486  160B  085A               	movf	??___fladd,w
  8487  160C  00D7               	movwf	___fladd@a+1
  8488  160D                     l2598:
  8489  160D  0854               	movf	___fladd@b+2,w
  8490  160E  00DA               	movwf	??___fladd
  8491  160F  085A               	movf	??___fladd,w
  8492  1610  00E5               	movwf	___fladd@grs
  8493  1611                     l2600:
  8494  1611  0858               	movf	___fladd@a+2,w
  8495  1612  00DA               	movwf	??___fladd
  8496  1613  085A               	movf	??___fladd,w
  8497  1614  00D4               	movwf	___fladd@b+2
  8498  1615                     l2602:
  8499  1615  0865               	movf	___fladd@grs,w
  8500  1616  00DA               	movwf	??___fladd
  8501  1617  085A               	movf	??___fladd,w
  8502  1618  00D8               	movwf	___fladd@a+2
  8503  1619                     l2604:
  8504  1619  0855               	movf	___fladd@b+3,w
  8505  161A  00DA               	movwf	??___fladd
  8506  161B  085A               	movf	??___fladd,w
  8507  161C  00E5               	movwf	___fladd@grs
  8508  161D                     l2606:
  8509  161D  0859               	movf	___fladd@a+3,w
  8510  161E  00DA               	movwf	??___fladd
  8511  161F  085A               	movf	??___fladd,w
  8512  1620  00D5               	movwf	___fladd@b+3
  8513  1621                     l2608:
  8514  1621  0865               	movf	___fladd@grs,w
  8515  1622  00DA               	movwf	??___fladd
  8516  1623  085A               	movf	??___fladd,w
  8517  1624  00D9               	movwf	___fladd@a+3
  8518  1625                     l2610:
  8519  1625  01E5               	clrf	___fladd@grs
  8520  1626                     l2612:
  8521  1626  0863               	movf	___fladd@aexp,w
  8522  1627  00DA               	movwf	??___fladd
  8523  1628  01DB               	clrf	??___fladd+1
  8524  1629  085B               	movf	??___fladd+1,w
  8525  162A  00DD               	movwf	??___fladd+3
  8526  162B  0864               	movf	___fladd@bexp,w
  8527  162C  025A               	subwf	??___fladd,w
  8528  162D  00DC               	movwf	??___fladd+2
  8529  162E  1C03               	skipc
  8530  162F  03DD               	decf	??___fladd+3,f
  8531  1630  085D               	movf	??___fladd+3,w
  8532  1631  3A80               	xorlw	128
  8533  1632  00FF               	movwf	btemp+1
  8534  1633  3080               	movlw	128
  8535  1634  027F               	subwf	btemp+1,w
  8536  1635  1D03               	skipz
  8537  1636  2E39               	goto	u3585
  8538  1637  301A               	movlw	26
  8539  1638  025C               	subwf	??___fladd+2,w
  8540  1639                     u3585:
  8541  1639  1C03               	skipc
  8542  163A  2E3C               	goto	u3581
  8543  163B  2E3D               	goto	u3580
  8544  163C                     u3581:
  8545  163C  2E7A               	goto	l2628
  8546  163D                     u3580:
  8547  163D                     l2614:
  8548  163D  1283               	bcf	3,5	;RP0=0, select bank0
  8549  163E  1303               	bcf	3,6	;RP1=0, select bank0
  8550  163F  0855               	movf	___fladd@b+3,w
  8551  1640  0454               	iorwf	___fladd@b+2,w
  8552  1641  0453               	iorwf	___fladd@b+1,w
  8553  1642  0452               	iorwf	___fladd@b,w
  8554  1643  1D03               	skipz
  8555  1644  2E46               	goto	u3591
  8556  1645  2E48               	goto	u3590
  8557  1646                     u3591:
  8558  1646  3001               	movlw	1
  8559  1647  2E49               	goto	u3600
  8560  1648                     u3590:
  8561  1648  3000               	movlw	0
  8562  1649                     u3600:
  8563  1649  00DA               	movwf	??___fladd
  8564  164A  085A               	movf	??___fladd,w
  8565  164B  00E5               	movwf	___fladd@grs
  8566  164C  3000               	movlw	0
  8567  164D  00D5               	movwf	___fladd@b+3
  8568  164E  3000               	movlw	0
  8569  164F  00D4               	movwf	___fladd@b+2
  8570  1650  3000               	movlw	0
  8571  1651  00D3               	movwf	___fladd@b+1
  8572  1652  3000               	movlw	0
  8573  1653  00D2               	movwf	___fladd@b
  8574  1654  0863               	movf	___fladd@aexp,w
  8575  1655  00DA               	movwf	??___fladd
  8576  1656  085A               	movf	??___fladd,w
  8577  1657  00E4               	movwf	___fladd@bexp
  8578  1658  2E82               	goto	l539
  8579  1659                     l541:
  8580  1659  1C65               	btfss	___fladd@grs,0
  8581  165A  2E5C               	goto	u3611
  8582  165B  2E5D               	goto	u3610
  8583  165C                     u3611:
  8584  165C  2E66               	goto	l2618
  8585  165D                     u3610:
  8586  165D                     l2616:
  8587  165D  0865               	movf	___fladd@grs,w
  8588  165E  00DA               	movwf	??___fladd
  8589  165F  1003               	clrc
  8590  1660  0C5A               	rrf	??___fladd,w
  8591  1661  3801               	iorlw	1
  8592  1662  00DB               	movwf	??___fladd+1
  8593  1663  085B               	movf	??___fladd+1,w
  8594  1664  00E5               	movwf	___fladd@grs
  8595  1665  2E68               	goto	l2620
  8596  1666                     l2618:
  8597  1666  1003               	clrc
  8598  1667  0CE5               	rrf	___fladd@grs,f
  8599  1668                     l2620:
  8600  1668  1C52               	btfss	___fladd@b,0
  8601  1669  2E6B               	goto	u3621
  8602  166A  2E6C               	goto	u3620
  8603  166B                     u3621:
  8604  166B  2E6D               	goto	l2624
  8605  166C                     u3620:
  8606  166C                     l2622:
  8607  166C  17E5               	bsf	___fladd@grs,7
  8608  166D                     l2624:
  8609  166D  3001               	movlw	1
  8610  166E  00DA               	movwf	??___fladd
  8611  166F                     u3635:
  8612  166F  0D55               	rlf	___fladd@b+3,w
  8613  1670  0CD5               	rrf	___fladd@b+3,f
  8614  1671  0CD4               	rrf	___fladd@b+2,f
  8615  1672  0CD3               	rrf	___fladd@b+1,f
  8616  1673  0CD2               	rrf	___fladd@b,f
  8617  1674  0BDA               	decfsz	??___fladd& (0+127),f
  8618  1675  2E6F               	goto	u3635
  8619  1676                     l2626:
  8620  1676  3001               	movlw	1
  8621  1677  00DA               	movwf	??___fladd
  8622  1678  085A               	movf	??___fladd,w
  8623  1679  07E4               	addwf	___fladd@bexp,f
  8624  167A                     l2628:
  8625  167A  1283               	bcf	3,5	;RP0=0, select bank0
  8626  167B  1303               	bcf	3,6	;RP1=0, select bank0
  8627  167C  0863               	movf	___fladd@aexp,w
  8628  167D  0264               	subwf	___fladd@bexp,w
  8629  167E  1C03               	skipc
  8630  167F  2E81               	goto	u3641
  8631  1680  2E82               	goto	u3640
  8632  1681                     u3641:
  8633  1681  2E59               	goto	l541
  8634  1682                     u3640:
  8635  1682                     l539:
  8636  1682  1B62               	btfsc	___fladd@signs,6
  8637  1683  2E85               	goto	u3651
  8638  1684  2E86               	goto	u3650
  8639  1685                     u3651:
  8640  1685  2ED1               	goto	l2654
  8641  1686                     u3650:
  8642  1686                     l2630:
  8643  1686  0864               	movf	___fladd@bexp,w
  8644  1687  1D03               	btfss	3,2
  8645  1688  2E8A               	goto	u3661
  8646  1689  2E8B               	goto	u3660
  8647  168A                     u3661:
  8648  168A  2E94               	goto	l2636
  8649  168B                     u3660:
  8650  168B                     l2632:
  8651  168B  3000               	movlw	0
  8652  168C  00D5               	movwf	?___fladd+3
  8653  168D  3000               	movlw	0
  8654  168E  00D4               	movwf	?___fladd+2
  8655  168F  3000               	movlw	0
  8656  1690  00D3               	movwf	?___fladd+1
  8657  1691  3000               	movlw	0
  8658  1692  00D2               	movwf	?___fladd
  8659  1693  2FFF               	goto	l548
  8660  1694                     l2636:
  8661  1694  0856               	movf	___fladd@a,w
  8662  1695  07D2               	addwf	___fladd@b,f
  8663  1696  0857               	movf	___fladd@a+1,w
  8664  1697  1103               	clrz
  8665  1698  1803               	skipnc
  8666  1699  3E01               	addlw	1
  8667  169A  1903               	skipnz
  8668  169B  2E9D               	goto	u3671
  8669  169C  07D3               	addwf	___fladd@b+1,f
  8670  169D                     u3671:
  8671  169D  0858               	movf	___fladd@a+2,w
  8672  169E  1103               	clrz
  8673  169F  1803               	skipnc
  8674  16A0  3E01               	addlw	1
  8675  16A1  1903               	skipnz
  8676  16A2  2EA4               	goto	u3672
  8677  16A3  07D4               	addwf	___fladd@b+2,f
  8678  16A4                     u3672:
  8679  16A4  0859               	movf	___fladd@a+3,w
  8680  16A5  1103               	clrz
  8681  16A6  1803               	skipnc
  8682  16A7  3E01               	addlw	1
  8683  16A8  1903               	skipnz
  8684  16A9  2EAB               	goto	u3673
  8685  16AA  07D5               	addwf	___fladd@b+3,f
  8686  16AB                     u3673:
  8687  16AB                     l2638:
  8688  16AB  1C55               	btfss	___fladd@b+3,0
  8689  16AC  2EAE               	goto	u3681
  8690  16AD  2EAF               	goto	u3680
  8691  16AE                     u3681:
  8692  16AE  2F85               	goto	l2688
  8693  16AF                     u3680:
  8694  16AF                     l2640:
  8695  16AF  1C65               	btfss	___fladd@grs,0
  8696  16B0  2EB2               	goto	u3691
  8697  16B1  2EB3               	goto	u3690
  8698  16B2                     u3691:
  8699  16B2  2EBC               	goto	l2644
  8700  16B3                     u3690:
  8701  16B3                     l2642:
  8702  16B3  0865               	movf	___fladd@grs,w
  8703  16B4  00DA               	movwf	??___fladd
  8704  16B5  1003               	clrc
  8705  16B6  0C5A               	rrf	??___fladd,w
  8706  16B7  3801               	iorlw	1
  8707  16B8  00DB               	movwf	??___fladd+1
  8708  16B9  085B               	movf	??___fladd+1,w
  8709  16BA  00E5               	movwf	___fladd@grs
  8710  16BB  2EBE               	goto	l2646
  8711  16BC                     l2644:
  8712  16BC  1003               	clrc
  8713  16BD  0CE5               	rrf	___fladd@grs,f
  8714  16BE                     l2646:
  8715  16BE  1C52               	btfss	___fladd@b,0
  8716  16BF  2EC1               	goto	u3701
  8717  16C0  2EC2               	goto	u3700
  8718  16C1                     u3701:
  8719  16C1  2EC3               	goto	l2650
  8720  16C2                     u3700:
  8721  16C2                     l2648:
  8722  16C2  17E5               	bsf	___fladd@grs,7
  8723  16C3                     l2650:
  8724  16C3  3001               	movlw	1
  8725  16C4  00DA               	movwf	??___fladd
  8726  16C5                     u3715:
  8727  16C5  0D55               	rlf	___fladd@b+3,w
  8728  16C6  0CD5               	rrf	___fladd@b+3,f
  8729  16C7  0CD4               	rrf	___fladd@b+2,f
  8730  16C8  0CD3               	rrf	___fladd@b+1,f
  8731  16C9  0CD2               	rrf	___fladd@b,f
  8732  16CA  0BDA               	decfsz	??___fladd& (0+127),f
  8733  16CB  2EC5               	goto	u3715
  8734  16CC                     l2652:
  8735  16CC  3001               	movlw	1
  8736  16CD  00DA               	movwf	??___fladd
  8737  16CE  085A               	movf	??___fladd,w
  8738  16CF  07E4               	addwf	___fladd@bexp,f
  8739  16D0  2F85               	goto	l2688
  8740  16D1                     l2654:
  8741  16D1  0855               	movf	___fladd@b+3,w
  8742  16D2  3A80               	xorlw	128
  8743  16D3  00FF               	movwf	btemp+1
  8744  16D4  0859               	movf	___fladd@a+3,w
  8745  16D5  3A80               	xorlw	128
  8746  16D6  027F               	subwf	btemp+1,w
  8747  16D7  1D03               	skipz
  8748  16D8  2EE3               	goto	u3723
  8749  16D9  0858               	movf	___fladd@a+2,w
  8750  16DA  0254               	subwf	___fladd@b+2,w
  8751  16DB  1D03               	skipz
  8752  16DC  2EE3               	goto	u3723
  8753  16DD  0857               	movf	___fladd@a+1,w
  8754  16DE  0253               	subwf	___fladd@b+1,w
  8755  16DF  1D03               	skipz
  8756  16E0  2EE3               	goto	u3723
  8757  16E1  0856               	movf	___fladd@a,w
  8758  16E2  0252               	subwf	___fladd@b,w
  8759  16E3                     u3723:
  8760  16E3  1803               	skipnc
  8761  16E4  2EE6               	goto	u3721
  8762  16E5  2EE7               	goto	u3720
  8763  16E6                     u3721:
  8764  16E6  2F3F               	goto	l2664
  8765  16E7                     u3720:
  8766  16E7                     l2656:
  8767  16E7  30FF               	movlw	255
  8768  16E8  00DA               	movwf	??___fladd
  8769  16E9  30FF               	movlw	255
  8770  16EA  00DB               	movwf	??___fladd+1
  8771  16EB  30FF               	movlw	255
  8772  16EC  00DC               	movwf	??___fladd+2
  8773  16ED  30FF               	movlw	255
  8774  16EE  00DD               	movwf	??___fladd+3
  8775  16EF  0856               	movf	___fladd@a,w
  8776  16F0  00DE               	movwf	??___fladd+4
  8777  16F1  0857               	movf	___fladd@a+1,w
  8778  16F2  00DF               	movwf	??___fladd+5
  8779  16F3  0858               	movf	___fladd@a+2,w
  8780  16F4  00E0               	movwf	??___fladd+6
  8781  16F5  0859               	movf	___fladd@a+3,w
  8782  16F6  00E1               	movwf	??___fladd+7
  8783  16F7  0852               	movf	___fladd@b,w
  8784  16F8  02DE               	subwf	??___fladd+4,f
  8785  16F9  0853               	movf	___fladd@b+1,w
  8786  16FA  1C03               	skipc
  8787  16FB  0F53               	incfsz	___fladd@b+1,w
  8788  16FC  2EFE               	goto	u3731
  8789  16FD  2EFF               	goto	u3732
  8790  16FE                     u3731:
  8791  16FE  02DF               	subwf	??___fladd+5,f
  8792  16FF                     u3732:
  8793  16FF  0854               	movf	___fladd@b+2,w
  8794  1700  1C03               	skipc
  8795  1701  0F54               	incfsz	___fladd@b+2,w
  8796  1702  2F04               	goto	u3733
  8797  1703  2F05               	goto	u3734
  8798  1704                     u3733:
  8799  1704  02E0               	subwf	??___fladd+6,f
  8800  1705                     u3734:
  8801  1705  0855               	movf	___fladd@b+3,w
  8802  1706  1C03               	skipc
  8803  1707  0F55               	incfsz	___fladd@b+3,w
  8804  1708  2F0A               	goto	u3735
  8805  1709  2F0B               	goto	u3736
  8806  170A                     u3735:
  8807  170A  02E1               	subwf	??___fladd+7,f
  8808  170B                     u3736:
  8809  170B  085E               	movf	??___fladd+4,w
  8810  170C  07DA               	addwf	??___fladd,f
  8811  170D  085F               	movf	??___fladd+5,w
  8812  170E  1803               	skipnc
  8813  170F  0F5F               	incfsz	??___fladd+5,w
  8814  1710  2F12               	goto	u3740
  8815  1711  2F13               	goto	u3741
  8816  1712                     u3740:
  8817  1712  07DB               	addwf	??___fladd+1,f
  8818  1713                     u3741:
  8819  1713  0860               	movf	??___fladd+6,w
  8820  1714  1803               	skipnc
  8821  1715  0F60               	incfsz	??___fladd+6,w
  8822  1716  2F18               	goto	u3742
  8823  1717  2F19               	goto	u3743
  8824  1718                     u3742:
  8825  1718  07DC               	addwf	??___fladd+2,f
  8826  1719                     u3743:
  8827  1719  0861               	movf	??___fladd+7,w
  8828  171A  1803               	skipnc
  8829  171B  0A61               	incf	??___fladd+7,w
  8830  171C  07DD               	addwf	??___fladd+3,f
  8831  171D  085D               	movf	??___fladd+3,w
  8832  171E  00D5               	movwf	___fladd@b+3
  8833  171F  085C               	movf	??___fladd+2,w
  8834  1720  00D4               	movwf	___fladd@b+2
  8835  1721  085B               	movf	??___fladd+1,w
  8836  1722  00D3               	movwf	___fladd@b+1
  8837  1723  085A               	movf	??___fladd,w
  8838  1724  00D2               	movwf	___fladd@b
  8839  1725                     l2658:
  8840  1725  3080               	movlw	128
  8841  1726  00DA               	movwf	??___fladd
  8842  1727  085A               	movf	??___fladd,w
  8843  1728  06E2               	xorwf	___fladd@signs,f
  8844  1729  09E5               	comf	___fladd@grs,f
  8845  172A  0AE5               	incf	___fladd@grs,f
  8846  172B                     l2660:
  8847  172B  0865               	movf	___fladd@grs,w
  8848  172C  1D03               	btfss	3,2
  8849  172D  2F2F               	goto	u3751
  8850  172E  2F30               	goto	u3750
  8851  172F                     u3751:
  8852  172F  2F4D               	goto	l556
  8853  1730                     u3750:
  8854  1730                     l2662:
  8855  1730  3001               	movlw	1
  8856  1731  07D2               	addwf	___fladd@b,f
  8857  1732  3000               	movlw	0
  8858  1733  1803               	skipnc
  8859  1734  3001               	movlw	1
  8860  1735  07D3               	addwf	___fladd@b+1,f
  8861  1736  3000               	movlw	0
  8862  1737  1803               	skipnc
  8863  1738  3001               	movlw	1
  8864  1739  07D4               	addwf	___fladd@b+2,f
  8865  173A  3000               	movlw	0
  8866  173B  1803               	skipnc
  8867  173C  3001               	movlw	1
  8868  173D  07D5               	addwf	___fladd@b+3,f
  8869  173E  2F4D               	goto	l556
  8870  173F                     l2664:
  8871  173F  0856               	movf	___fladd@a,w
  8872  1740  02D2               	subwf	___fladd@b,f
  8873  1741  0857               	movf	___fladd@a+1,w
  8874  1742  1C03               	skipc
  8875  1743  0F57               	incfsz	___fladd@a+1,w
  8876  1744  02D3               	subwf	___fladd@b+1,f
  8877  1745  0858               	movf	___fladd@a+2,w
  8878  1746  1C03               	skipc
  8879  1747  0F58               	incfsz	___fladd@a+2,w
  8880  1748  02D4               	subwf	___fladd@b+2,f
  8881  1749  0859               	movf	___fladd@a+3,w
  8882  174A  1C03               	skipc
  8883  174B  0F59               	incfsz	___fladd@a+3,w
  8884  174C  02D5               	subwf	___fladd@b+3,f
  8885  174D                     l556:
  8886  174D  0855               	movf	___fladd@b+3,w
  8887  174E  0454               	iorwf	___fladd@b+2,w
  8888  174F  0453               	iorwf	___fladd@b+1,w
  8889  1750  0452               	iorwf	___fladd@b,w
  8890  1751  1D03               	skipz
  8891  1752  2F54               	goto	u3761
  8892  1753  2F55               	goto	u3760
  8893  1754                     u3761:
  8894  1754  2F81               	goto	l2686
  8895  1755                     u3760:
  8896  1755                     l2666:
  8897  1755  0865               	movf	___fladd@grs,w
  8898  1756  1D03               	btfss	3,2
  8899  1757  2F59               	goto	u3771
  8900  1758  2F5A               	goto	u3770
  8901  1759                     u3771:
  8902  1759  2F81               	goto	l2686
  8903  175A                     u3770:
  8904  175A                     l2668:
  8905  175A  3000               	movlw	0
  8906  175B  00D5               	movwf	?___fladd+3
  8907  175C  3000               	movlw	0
  8908  175D  00D4               	movwf	?___fladd+2
  8909  175E  3000               	movlw	0
  8910  175F  00D3               	movwf	?___fladd+1
  8911  1760  3000               	movlw	0
  8912  1761  00D2               	movwf	?___fladd
  8913  1762  2FFF               	goto	l548
  8914  1763                     l2672:
  8915  1763  3001               	movlw	1
  8916  1764  00DA               	movwf	??___fladd
  8917  1765                     u3785:
  8918  1765  1003               	clrc
  8919  1766  0DD2               	rlf	___fladd@b,f
  8920  1767  0DD3               	rlf	___fladd@b+1,f
  8921  1768  0DD4               	rlf	___fladd@b+2,f
  8922  1769  0DD5               	rlf	___fladd@b+3,f
  8923  176A  0BDA               	decfsz	??___fladd,f
  8924  176B  2F65               	goto	u3785
  8925  176C                     l2674:
  8926  176C  1FE5               	btfss	___fladd@grs,7
  8927  176D  2F6F               	goto	u3791
  8928  176E  2F70               	goto	u3790
  8929  176F                     u3791:
  8930  176F  2F71               	goto	l560
  8931  1770                     u3790:
  8932  1770                     l2676:
  8933  1770  1452               	bsf	___fladd@b,0
  8934  1771                     l560:
  8935  1771  1C65               	btfss	___fladd@grs,0
  8936  1772  2F74               	goto	u3801
  8937  1773  2F75               	goto	u3800
  8938  1774                     u3801:
  8939  1774  2F78               	goto	l2680
  8940  1775                     u3800:
  8941  1775                     l2678:
  8942  1775  1403               	setc
  8943  1776  0DE5               	rlf	___fladd@grs,f
  8944  1777  2F7A               	goto	l2682
  8945  1778                     l2680:
  8946  1778  1003               	clrc
  8947  1779  0DE5               	rlf	___fladd@grs,f
  8948  177A                     l2682:
  8949  177A  0864               	movf	___fladd@bexp,w
  8950  177B  1903               	btfsc	3,2
  8951  177C  2F7E               	goto	u3811
  8952  177D  2F7F               	goto	u3810
  8953  177E                     u3811:
  8954  177E  2F81               	goto	l2686
  8955  177F                     u3810:
  8956  177F                     l2684:
  8957  177F  3001               	movlw	1
  8958  1780  02E4               	subwf	___fladd@bexp,f
  8959  1781                     l2686:
  8960  1781  1FD4               	btfss	___fladd@b+2,7
  8961  1782  2F84               	goto	u3821
  8962  1783  2F85               	goto	u3820
  8963  1784                     u3821:
  8964  1784  2F63               	goto	l2672
  8965  1785                     u3820:
  8966  1785                     l2688:
  8967  1785  01E3               	clrf	___fladd@aexp
  8968  1786                     l2690:
  8969  1786  1FE5               	btfss	___fladd@grs,7
  8970  1787  2F89               	goto	u3831
  8971  1788  2F8A               	goto	u3830
  8972  1789                     u3831:
  8973  1789  2F98               	goto	l2698
  8974  178A                     u3830:
  8975  178A                     l2692:
  8976  178A  0865               	movf	___fladd@grs,w
  8977  178B  397F               	andlw	127
  8978  178C  1903               	btfsc	3,2
  8979  178D  2F8F               	goto	u3841
  8980  178E  2F90               	goto	u3840
  8981  178F                     u3841:
  8982  178F  2F93               	goto	l566
  8983  1790                     u3840:
  8984  1790                     l2694:
  8985  1790  01E3               	clrf	___fladd@aexp
  8986  1791  0AE3               	incf	___fladd@aexp,f
  8987  1792  2F98               	goto	l2698
  8988  1793                     l566:
  8989  1793  1C52               	btfss	___fladd@b,0
  8990  1794  2F96               	goto	u3851
  8991  1795  2F97               	goto	u3850
  8992  1796                     u3851:
  8993  1796  2F98               	goto	l2698
  8994  1797                     u3850:
  8995  1797  2F90               	goto	l2694
  8996  1798                     l2698:
  8997  1798  0863               	movf	___fladd@aexp,w
  8998  1799  1903               	btfsc	3,2
  8999  179A  2F9C               	goto	u3861
  9000  179B  2F9D               	goto	u3860
  9001  179C                     u3861:
  9002  179C  2FD1               	goto	l569
  9003  179D                     u3860:
  9004  179D                     l2700:
  9005  179D  3001               	movlw	1
  9006  179E  07D2               	addwf	___fladd@b,f
  9007  179F  3000               	movlw	0
  9008  17A0  1803               	skipnc
  9009  17A1  3001               	movlw	1
  9010  17A2  07D3               	addwf	___fladd@b+1,f
  9011  17A3  3000               	movlw	0
  9012  17A4  1803               	skipnc
  9013  17A5  3001               	movlw	1
  9014  17A6  07D4               	addwf	___fladd@b+2,f
  9015  17A7  3000               	movlw	0
  9016  17A8  1803               	skipnc
  9017  17A9  3001               	movlw	1
  9018  17AA  07D5               	addwf	___fladd@b+3,f
  9019  17AB                     l2702:
  9020  17AB  1C55               	btfss	___fladd@b+3,0
  9021  17AC  2FAE               	goto	u3871
  9022  17AD  2FAF               	goto	u3870
  9023  17AE                     u3871:
  9024  17AE  2FD1               	goto	l569
  9025  17AF                     u3870:
  9026  17AF                     l2704:
  9027  17AF  0852               	movf	___fladd@b,w
  9028  17B0  00DA               	movwf	??___fladd
  9029  17B1  0853               	movf	___fladd@b+1,w
  9030  17B2  00DB               	movwf	??___fladd+1
  9031  17B3  0854               	movf	___fladd@b+2,w
  9032  17B4  00DC               	movwf	??___fladd+2
  9033  17B5  0855               	movf	___fladd@b+3,w
  9034  17B6  00DD               	movwf	??___fladd+3
  9035  17B7  3001               	movlw	1
  9036  17B8  00DE               	movwf	??___fladd+4
  9037  17B9                     u3885:
  9038  17B9  0D5D               	rlf	??___fladd+3,w
  9039  17BA  0CDD               	rrf	??___fladd+3,f
  9040  17BB  0CDC               	rrf	??___fladd+2,f
  9041  17BC  0CDB               	rrf	??___fladd+1,f
  9042  17BD  0CDA               	rrf	??___fladd,f
  9043  17BE                     u3880:
  9044  17BE  0BDE               	decfsz	??___fladd+4,f
  9045  17BF  2FB9               	goto	u3885
  9046  17C0  085D               	movf	??___fladd+3,w
  9047  17C1  00D5               	movwf	___fladd@b+3
  9048  17C2  085C               	movf	??___fladd+2,w
  9049  17C3  00D4               	movwf	___fladd@b+2
  9050  17C4  085B               	movf	??___fladd+1,w
  9051  17C5  00D3               	movwf	___fladd@b+1
  9052  17C6  085A               	movf	??___fladd,w
  9053  17C7  00D2               	movwf	___fladd@b
  9054  17C8  0A64               	incf	___fladd@bexp,w
  9055  17C9  1903               	btfsc	3,2
  9056  17CA  2FCC               	goto	u3891
  9057  17CB  2FCD               	goto	u3890
  9058  17CC                     u3891:
  9059  17CC  2FD1               	goto	l569
  9060  17CD                     u3890:
  9061  17CD                     l2706:
  9062  17CD  3001               	movlw	1
  9063  17CE  00DA               	movwf	??___fladd
  9064  17CF  085A               	movf	??___fladd,w
  9065  17D0  07E4               	addwf	___fladd@bexp,f
  9066  17D1                     l569:
  9067  17D1  0A64               	incf	___fladd@bexp,w
  9068  17D2  1903               	btfsc	3,2
  9069  17D3  2FD5               	goto	u3901
  9070  17D4  2FD6               	goto	u3900
  9071  17D5                     u3901:
  9072  17D5  2FDB               	goto	l2710
  9073  17D6                     u3900:
  9074  17D6                     l2708:
  9075  17D6  0864               	movf	___fladd@bexp,w
  9076  17D7  1D03               	btfss	3,2
  9077  17D8  2FDA               	goto	u3911
  9078  17D9  2FDB               	goto	u3910
  9079  17DA                     u3911:
  9080  17DA  2FE9               	goto	l2716
  9081  17DB                     u3910:
  9082  17DB                     l2710:
  9083  17DB  3000               	movlw	0
  9084  17DC  00D5               	movwf	___fladd@b+3
  9085  17DD  3000               	movlw	0
  9086  17DE  00D4               	movwf	___fladd@b+2
  9087  17DF  3000               	movlw	0
  9088  17E0  00D3               	movwf	___fladd@b+1
  9089  17E1  3000               	movlw	0
  9090  17E2  00D2               	movwf	___fladd@b
  9091  17E3                     l2712:
  9092  17E3  0864               	movf	___fladd@bexp,w
  9093  17E4  1D03               	btfss	3,2
  9094  17E5  2FE7               	goto	u3921
  9095  17E6  2FE8               	goto	u3920
  9096  17E7                     u3921:
  9097  17E7  2FE9               	goto	l2716
  9098  17E8                     u3920:
  9099  17E8                     l2714:
  9100  17E8  01E2               	clrf	___fladd@signs
  9101  17E9                     l2716:
  9102  17E9  1C64               	btfss	___fladd@bexp,0
  9103  17EA  2FEC               	goto	u3931
  9104  17EB  2FED               	goto	u3930
  9105  17EC                     u3931:
  9106  17EC  2FEF               	goto	l2720
  9107  17ED                     u3930:
  9108  17ED                     l2718:
  9109  17ED  17D4               	bsf	___fladd@b+2,7
  9110  17EE  2FF3               	goto	l577
  9111  17EF                     l2720:
  9112  17EF  307F               	movlw	127
  9113  17F0  00DA               	movwf	??___fladd
  9114  17F1  085A               	movf	??___fladd,w
  9115  17F2  05D4               	andwf	___fladd@b+2,f
  9116  17F3                     l577:
  9117  17F3  0864               	movf	___fladd@bexp,w
  9118  17F4  00DA               	movwf	??___fladd
  9119  17F5  1003               	clrc
  9120  17F6  0C5A               	rrf	??___fladd,w
  9121  17F7  00DB               	movwf	??___fladd+1
  9122  17F8  085B               	movf	??___fladd+1,w
  9123  17F9  00D5               	movwf	___fladd@b+3
  9124  17FA                     l2722:
  9125  17FA  1FE2               	btfss	___fladd@signs,7
  9126  17FB  2FFD               	goto	u3941
  9127  17FC  2FFE               	goto	u3940
  9128  17FD                     u3941:
  9129  17FD  2FFF               	goto	l578
  9130  17FE                     u3940:
  9131  17FE                     l2724:
  9132  17FE  17D5               	bsf	___fladd@b+3,7
  9133  17FF                     l578:
  9134  17FF                     l548:
  9135  17FF  0008               	return
  9136  1800                     __end_of___fladd:
  9137                           
  9138                           	psect	text24
  9139  1B12                     __ptext24:	
  9140 ;; *************** function ___flneg *****************
  9141 ;; Defined at:
  9142 ;;		line 15 in file "C:\Program Files\Microchip\xc8\v2.36\pic\sources\c90\common\flneg.c"
  9143 ;; Parameters:    Size  Location     Type
  9144 ;;  f1              4    0[COMMON] unsigned char 
  9145 ;; Auto vars:     Size  Location     Type
  9146 ;;		None
  9147 ;; Return value:  Size  Location     Type
  9148 ;;                  4    0[COMMON] unsigned char 
  9149 ;; Registers used:
  9150 ;;		wreg
  9151 ;; Tracked objects:
  9152 ;;		On entry : 0/0
  9153 ;;		On exit  : 0/0
  9154 ;;		Unchanged: 0/0
  9155 ;; Data sizes:     COMMON   BANK0   BANK1   BANK3   BANK2
  9156 ;;      Params:         4       0       0       0       0
  9157 ;;      Locals:         0       0       0       0       0
  9158 ;;      Temps:          0       0       0       0       0
  9159 ;;      Totals:         4       0       0       0       0
  9160 ;;Total ram usage:        4 bytes
  9161 ;; Hardware stack levels used: 1
  9162 ;; This function calls:
  9163 ;;		Nothing
  9164 ;; This function is called by:
  9165 ;;		__doprnt
  9166 ;; This function uses a non-reentrant model
  9167 ;;
  9168                           
  9169  1B12                     ___flneg:	
  9170                           ;psect for function ___flneg
  9171                           
  9172  1B12                     l2954:	
  9173                           ;incstack = 0
  9174                           ; Regs used in ___flneg: [wreg]
  9175                           
  9176  1B12  0873               	movf	___flneg@f1+3,w
  9177  1B13  0472               	iorwf	___flneg@f1+2,w
  9178  1B14  0471               	iorwf	___flneg@f1+1,w
  9179  1B15  0470               	iorwf	___flneg@f1,w
  9180  1B16  1903               	skipnz
  9181  1B17  2B19               	goto	u4551
  9182  1B18  2B1A               	goto	u4550
  9183  1B19                     u4551:
  9184  1B19  2B1C               	goto	l2958
  9185  1B1A                     u4550:
  9186  1B1A                     l2956:
  9187  1B1A  3080               	movlw	128
  9188  1B1B  06F3               	xorwf	___flneg@f1+3,f
  9189  1B1C                     l2958:
  9190  1B1C                     l424:
  9191  1B1C  0008               	return
  9192  1B1D                     __end_of___flneg:
  9193                           
  9194                           	psect	text25
  9195  000F                     __ptext25:	
  9196 ;; *************** function ___flge *****************
  9197 ;; Defined at:
  9198 ;;		line 4 in file "C:\Program Files\Microchip\xc8\v2.36\pic\sources\c90\common\flge.c"
  9199 ;; Parameters:    Size  Location     Type
  9200 ;;  ff1             4    0[COMMON] unsigned char 
  9201 ;;  ff2             4    4[COMMON] unsigned char 
  9202 ;; Auto vars:     Size  Location     Type
  9203 ;;		None
  9204 ;; Return value:  Size  Location     Type
  9205 ;;		None               void
  9206 ;; Registers used:
  9207 ;;		wreg, status,2, status,0
  9208 ;; Tracked objects:
  9209 ;;		On entry : 0/0
  9210 ;;		On exit  : 0/0
  9211 ;;		Unchanged: 0/0
  9212 ;; Data sizes:     COMMON   BANK0   BANK1   BANK3   BANK2
  9213 ;;      Params:         8       0       0       0       0
  9214 ;;      Locals:         0       0       0       0       0
  9215 ;;      Temps:          4       0       0       0       0
  9216 ;;      Totals:        12       0       0       0       0
  9217 ;;Total ram usage:       12 bytes
  9218 ;; Hardware stack levels used: 1
  9219 ;; This function calls:
  9220 ;;		Nothing
  9221 ;; This function is called by:
  9222 ;;		__doprnt
  9223 ;; This function uses a non-reentrant model
  9224 ;;
  9225                           
  9226  000F                     ___flge:	
  9227                           ;psect for function ___flge
  9228                           
  9229  000F                     l2934:	
  9230                           ;incstack = 0
  9231                           ; Regs used in ___flge: [wreg+status,2+status,0]
  9232                           
  9233  000F  3000               	movlw	0
  9234  0010  0570               	andwf	___flge@ff1,w
  9235  0011  00F8               	movwf	??___flge
  9236  0012  3000               	movlw	0
  9237  0013  0571               	andwf	___flge@ff1+1,w
  9238  0014  00F9               	movwf	??___flge+1
  9239  0015  3080               	movlw	128
  9240  0016  0572               	andwf	___flge@ff1+2,w
  9241  0017  00FA               	movwf	??___flge+2
  9242  0018  307F               	movlw	127
  9243  0019  0573               	andwf	___flge@ff1+3,w
  9244  001A  00FB               	movwf	??___flge+3
  9245  001B  087B               	movf	??___flge+3,w
  9246  001C  047A               	iorwf	??___flge+2,w
  9247  001D  0479               	iorwf	??___flge+1,w
  9248  001E  0478               	iorwf	??___flge,w
  9249  001F  1D03               	skipz
  9250  0020  2822               	goto	u4481
  9251  0021  2823               	goto	u4480
  9252  0022                     u4481:
  9253  0022  282B               	goto	l416
  9254  0023                     u4480:
  9255  0023                     l2936:
  9256  0023  3000               	movlw	0
  9257  0024  00F3               	movwf	___flge@ff1+3
  9258  0025  3000               	movlw	0
  9259  0026  00F2               	movwf	___flge@ff1+2
  9260  0027  3000               	movlw	0
  9261  0028  00F1               	movwf	___flge@ff1+1
  9262  0029  3000               	movlw	0
  9263  002A  00F0               	movwf	___flge@ff1
  9264  002B                     l416:
  9265  002B  3000               	movlw	0
  9266  002C  0574               	andwf	___flge@ff2,w
  9267  002D  00F8               	movwf	??___flge
  9268  002E  3000               	movlw	0
  9269  002F  0575               	andwf	___flge@ff2+1,w
  9270  0030  00F9               	movwf	??___flge+1
  9271  0031  3080               	movlw	128
  9272  0032  0576               	andwf	___flge@ff2+2,w
  9273  0033  00FA               	movwf	??___flge+2
  9274  0034  307F               	movlw	127
  9275  0035  0577               	andwf	___flge@ff2+3,w
  9276  0036  00FB               	movwf	??___flge+3
  9277  0037  087B               	movf	??___flge+3,w
  9278  0038  047A               	iorwf	??___flge+2,w
  9279  0039  0479               	iorwf	??___flge+1,w
  9280  003A  0478               	iorwf	??___flge,w
  9281  003B  1D03               	skipz
  9282  003C  283E               	goto	u4491
  9283  003D  283F               	goto	u4490
  9284  003E                     u4491:
  9285  003E  2847               	goto	l2940
  9286  003F                     u4490:
  9287  003F                     l2938:
  9288  003F  3000               	movlw	0
  9289  0040  00F7               	movwf	___flge@ff2+3
  9290  0041  3000               	movlw	0
  9291  0042  00F6               	movwf	___flge@ff2+2
  9292  0043  3000               	movlw	0
  9293  0044  00F5               	movwf	___flge@ff2+1
  9294  0045  3000               	movlw	0
  9295  0046  00F4               	movwf	___flge@ff2
  9296  0047                     l2940:
  9297  0047  1FF3               	btfss	___flge@ff1+3,7
  9298  0048  284A               	goto	u4501
  9299  0049  284B               	goto	u4500
  9300  004A                     u4501:
  9301  004A  286F               	goto	l2944
  9302  004B                     u4500:
  9303  004B                     l2942:
  9304  004B  3000               	movlw	0
  9305  004C  00F8               	movwf	??___flge
  9306  004D  3000               	movlw	0
  9307  004E  00F9               	movwf	??___flge+1
  9308  004F  3000               	movlw	0
  9309  0050  00FA               	movwf	??___flge+2
  9310  0051  3080               	movlw	128
  9311  0052  00FB               	movwf	??___flge+3
  9312  0053  0870               	movf	___flge@ff1,w
  9313  0054  02F8               	subwf	??___flge,f
  9314  0055  0871               	movf	___flge@ff1+1,w
  9315  0056  1C03               	skipc
  9316  0057  0F71               	incfsz	___flge@ff1+1,w
  9317  0058  285A               	goto	u4511
  9318  0059  285B               	goto	u4512
  9319  005A                     u4511:
  9320  005A  02F9               	subwf	??___flge+1,f
  9321  005B                     u4512:
  9322  005B  0872               	movf	___flge@ff1+2,w
  9323  005C  1C03               	skipc
  9324  005D  0F72               	incfsz	___flge@ff1+2,w
  9325  005E  2860               	goto	u4513
  9326  005F  2861               	goto	u4514
  9327  0060                     u4513:
  9328  0060  02FA               	subwf	??___flge+2,f
  9329  0061                     u4514:
  9330  0061  0873               	movf	___flge@ff1+3,w
  9331  0062  1C03               	skipc
  9332  0063  0F73               	incfsz	___flge@ff1+3,w
  9333  0064  2866               	goto	u4515
  9334  0065  2867               	goto	u4516
  9335  0066                     u4515:
  9336  0066  02FB               	subwf	??___flge+3,f
  9337  0067                     u4516:
  9338  0067  087B               	movf	??___flge+3,w
  9339  0068  00F3               	movwf	___flge@ff1+3
  9340  0069  087A               	movf	??___flge+2,w
  9341  006A  00F2               	movwf	___flge@ff1+2
  9342  006B  0879               	movf	??___flge+1,w
  9343  006C  00F1               	movwf	___flge@ff1+1
  9344  006D  0878               	movf	??___flge,w
  9345  006E  00F0               	movwf	___flge@ff1
  9346  006F                     l2944:
  9347  006F  1FF7               	btfss	___flge@ff2+3,7
  9348  0070  2872               	goto	u4521
  9349  0071  2873               	goto	u4520
  9350  0072                     u4521:
  9351  0072  2897               	goto	l419
  9352  0073                     u4520:
  9353  0073                     l2946:
  9354  0073  3000               	movlw	0
  9355  0074  00F8               	movwf	??___flge
  9356  0075  3000               	movlw	0
  9357  0076  00F9               	movwf	??___flge+1
  9358  0077  3000               	movlw	0
  9359  0078  00FA               	movwf	??___flge+2
  9360  0079  3080               	movlw	128
  9361  007A  00FB               	movwf	??___flge+3
  9362  007B  0874               	movf	___flge@ff2,w
  9363  007C  02F8               	subwf	??___flge,f
  9364  007D  0875               	movf	___flge@ff2+1,w
  9365  007E  1C03               	skipc
  9366  007F  0F75               	incfsz	___flge@ff2+1,w
  9367  0080  2882               	goto	u4531
  9368  0081  2883               	goto	u4532
  9369  0082                     u4531:
  9370  0082  02F9               	subwf	??___flge+1,f
  9371  0083                     u4532:
  9372  0083  0876               	movf	___flge@ff2+2,w
  9373  0084  1C03               	skipc
  9374  0085  0F76               	incfsz	___flge@ff2+2,w
  9375  0086  2888               	goto	u4533
  9376  0087  2889               	goto	u4534
  9377  0088                     u4533:
  9378  0088  02FA               	subwf	??___flge+2,f
  9379  0089                     u4534:
  9380  0089  0877               	movf	___flge@ff2+3,w
  9381  008A  1C03               	skipc
  9382  008B  0F77               	incfsz	___flge@ff2+3,w
  9383  008C  288E               	goto	u4535
  9384  008D  288F               	goto	u4536
  9385  008E                     u4535:
  9386  008E  02FB               	subwf	??___flge+3,f
  9387  008F                     u4536:
  9388  008F  087B               	movf	??___flge+3,w
  9389  0090  00F7               	movwf	___flge@ff2+3
  9390  0091  087A               	movf	??___flge+2,w
  9391  0092  00F6               	movwf	___flge@ff2+2
  9392  0093  0879               	movf	??___flge+1,w
  9393  0094  00F5               	movwf	___flge@ff2+1
  9394  0095  0878               	movf	??___flge,w
  9395  0096  00F4               	movwf	___flge@ff2
  9396  0097                     l419:
  9397  0097  3080               	movlw	128
  9398  0098  06F3               	xorwf	___flge@ff1+3,f
  9399  0099  3080               	movlw	128
  9400  009A  06F7               	xorwf	___flge@ff2+3,f
  9401  009B  0877               	movf	___flge@ff2+3,w
  9402  009C  0273               	subwf	___flge@ff1+3,w
  9403  009D  1D03               	skipz
  9404  009E  28A9               	goto	u4545
  9405  009F  0876               	movf	___flge@ff2+2,w
  9406  00A0  0272               	subwf	___flge@ff1+2,w
  9407  00A1  1D03               	skipz
  9408  00A2  28A9               	goto	u4545
  9409  00A3  0875               	movf	___flge@ff2+1,w
  9410  00A4  0271               	subwf	___flge@ff1+1,w
  9411  00A5  1D03               	skipz
  9412  00A6  28A9               	goto	u4545
  9413  00A7  0874               	movf	___flge@ff2,w
  9414  00A8  0270               	subwf	___flge@ff1,w
  9415  00A9                     u4545:
  9416  00A9  1803               	skipnc
  9417  00AA  28AC               	goto	u4541
  9418  00AB  28AD               	goto	u4540
  9419  00AC                     u4541:
  9420  00AC  28AF               	goto	l2950
  9421  00AD                     u4540:
  9422  00AD                     l2948:
  9423  00AD  1003               	clrc
  9424  00AE  28B0               	goto	l420
  9425  00AF                     l2950:
  9426  00AF  1403               	setc
  9427  00B0                     l420:
  9428  00B0  0008               	return
  9429  00B1                     __end_of___flge:
  9430                           
  9431                           	psect	text26
  9432  1DA2                     __ptext26:	
  9433 ;; *************** function ___fleq *****************
  9434 ;; Defined at:
  9435 ;;		line 4 in file "C:\Program Files\Microchip\xc8\v2.36\pic\sources\c90\common\fleq.c"
  9436 ;; Parameters:    Size  Location     Type
  9437 ;;  ff1             4    0[COMMON] unsigned char 
  9438 ;;  ff2             4    4[COMMON] unsigned char 
  9439 ;; Auto vars:     Size  Location     Type
  9440 ;;		None
  9441 ;; Return value:  Size  Location     Type
  9442 ;;		None               void
  9443 ;; Registers used:
  9444 ;;		wreg, status,2, status,0
  9445 ;; Tracked objects:
  9446 ;;		On entry : 0/0
  9447 ;;		On exit  : 0/0
  9448 ;;		Unchanged: 0/0
  9449 ;; Data sizes:     COMMON   BANK0   BANK1   BANK3   BANK2
  9450 ;;      Params:         8       0       0       0       0
  9451 ;;      Locals:         0       0       0       0       0
  9452 ;;      Temps:          4       0       0       0       0
  9453 ;;      Totals:        12       0       0       0       0
  9454 ;;Total ram usage:       12 bytes
  9455 ;; Hardware stack levels used: 1
  9456 ;; This function calls:
  9457 ;;		Nothing
  9458 ;; This function is called by:
  9459 ;;		__doprnt
  9460 ;; This function uses a non-reentrant model
  9461 ;;
  9462                           
  9463  1DA2                     ___fleq:	
  9464                           ;psect for function ___fleq
  9465                           
  9466  1DA2                     l2922:	
  9467                           ;incstack = 0
  9468                           ; Regs used in ___fleq: [wreg+status,2+status,0]
  9469                           
  9470  1DA2  3000               	movlw	0
  9471  1DA3  0570               	andwf	___fleq@ff1,w
  9472  1DA4  00F8               	movwf	??___fleq
  9473  1DA5  3000               	movlw	0
  9474  1DA6  0571               	andwf	___fleq@ff1+1,w
  9475  1DA7  00F9               	movwf	??___fleq+1
  9476  1DA8  3080               	movlw	128
  9477  1DA9  0572               	andwf	___fleq@ff1+2,w
  9478  1DAA  00FA               	movwf	??___fleq+2
  9479  1DAB  307F               	movlw	127
  9480  1DAC  0573               	andwf	___fleq@ff1+3,w
  9481  1DAD  00FB               	movwf	??___fleq+3
  9482  1DAE  087B               	movf	??___fleq+3,w
  9483  1DAF  047A               	iorwf	??___fleq+2,w
  9484  1DB0  0479               	iorwf	??___fleq+1,w
  9485  1DB1  0478               	iorwf	??___fleq,w
  9486  1DB2  1D03               	skipz
  9487  1DB3  2DB5               	goto	u4451
  9488  1DB4  2DB6               	goto	u4450
  9489  1DB5                     u4451:
  9490  1DB5  2DBE               	goto	l411
  9491  1DB6                     u4450:
  9492  1DB6                     l2924:
  9493  1DB6  3000               	movlw	0
  9494  1DB7  00F3               	movwf	___fleq@ff1+3
  9495  1DB8  3000               	movlw	0
  9496  1DB9  00F2               	movwf	___fleq@ff1+2
  9497  1DBA  3000               	movlw	0
  9498  1DBB  00F1               	movwf	___fleq@ff1+1
  9499  1DBC  3000               	movlw	0
  9500  1DBD  00F0               	movwf	___fleq@ff1
  9501  1DBE                     l411:
  9502  1DBE  3000               	movlw	0
  9503  1DBF  0574               	andwf	___fleq@ff2,w
  9504  1DC0  00F8               	movwf	??___fleq
  9505  1DC1  3000               	movlw	0
  9506  1DC2  0575               	andwf	___fleq@ff2+1,w
  9507  1DC3  00F9               	movwf	??___fleq+1
  9508  1DC4  3080               	movlw	128
  9509  1DC5  0576               	andwf	___fleq@ff2+2,w
  9510  1DC6  00FA               	movwf	??___fleq+2
  9511  1DC7  307F               	movlw	127
  9512  1DC8  0577               	andwf	___fleq@ff2+3,w
  9513  1DC9  00FB               	movwf	??___fleq+3
  9514  1DCA  087B               	movf	??___fleq+3,w
  9515  1DCB  047A               	iorwf	??___fleq+2,w
  9516  1DCC  0479               	iorwf	??___fleq+1,w
  9517  1DCD  0478               	iorwf	??___fleq,w
  9518  1DCE  1D03               	skipz
  9519  1DCF  2DD1               	goto	u4461
  9520  1DD0  2DD2               	goto	u4460
  9521  1DD1                     u4461:
  9522  1DD1  2DDA               	goto	l412
  9523  1DD2                     u4460:
  9524  1DD2                     l2926:
  9525  1DD2  3000               	movlw	0
  9526  1DD3  00F7               	movwf	___fleq@ff2+3
  9527  1DD4  3000               	movlw	0
  9528  1DD5  00F6               	movwf	___fleq@ff2+2
  9529  1DD6  3000               	movlw	0
  9530  1DD7  00F5               	movwf	___fleq@ff2+1
  9531  1DD8  3000               	movlw	0
  9532  1DD9  00F4               	movwf	___fleq@ff2
  9533  1DDA                     l412:
  9534  1DDA  0877               	movf	___fleq@ff2+3,w
  9535  1DDB  0673               	xorwf	___fleq@ff1+3,w
  9536  1DDC  1D03               	skipz
  9537  1DDD  2DE8               	goto	u4475
  9538  1DDE  0876               	movf	___fleq@ff2+2,w
  9539  1DDF  0672               	xorwf	___fleq@ff1+2,w
  9540  1DE0  1D03               	skipz
  9541  1DE1  2DE8               	goto	u4475
  9542  1DE2  0875               	movf	___fleq@ff2+1,w
  9543  1DE3  0671               	xorwf	___fleq@ff1+1,w
  9544  1DE4  1D03               	skipz
  9545  1DE5  2DE8               	goto	u4475
  9546  1DE6  0874               	movf	___fleq@ff2,w
  9547  1DE7  0670               	xorwf	___fleq@ff1,w
  9548  1DE8                     u4475:
  9549  1DE8  1903               	skipnz
  9550  1DE9  2DEB               	goto	u4471
  9551  1DEA  2DEC               	goto	u4470
  9552  1DEB                     u4471:
  9553  1DEB  2DEE               	goto	l2930
  9554  1DEC                     u4470:
  9555  1DEC                     l2928:
  9556  1DEC  1003               	clrc
  9557  1DED  2DEF               	goto	l413
  9558  1DEE                     l2930:
  9559  1DEE  1403               	setc
  9560  1DEF                     l413:
  9561  1DEF  0008               	return
  9562  1DF0                     __end_of___fleq:
  9563                           
  9564                           	psect	text27
  9565  1BD7                     __ptext27:	
  9566 ;; *************** function _get_val *****************
  9567 ;; Defined at:
  9568 ;;		line 81 in file "newmain.c"
  9569 ;; Parameters:    Size  Location     Type
  9570 ;;		None
  9571 ;; Auto vars:     Size  Location     Type
  9572 ;;		None
  9573 ;; Return value:  Size  Location     Type
  9574 ;;                  2    0[COMMON] unsigned int 
  9575 ;; Registers used:
  9576 ;;		wreg
  9577 ;; Tracked objects:
  9578 ;;		On entry : 0/0
  9579 ;;		On exit  : 0/0
  9580 ;;		Unchanged: 0/0
  9581 ;; Data sizes:     COMMON   BANK0   BANK1   BANK3   BANK2
  9582 ;;      Params:         2       0       0       0       0
  9583 ;;      Locals:         0       0       0       0       0
  9584 ;;      Temps:          2       0       0       0       0
  9585 ;;      Totals:         4       0       0       0       0
  9586 ;;Total ram usage:        4 bytes
  9587 ;; Hardware stack levels used: 1
  9588 ;; This function calls:
  9589 ;;		Nothing
  9590 ;; This function is called by:
  9591 ;;		_main
  9592 ;; This function uses a non-reentrant model
  9593 ;;
  9594                           
  9595  1BD7                     _get_val:	
  9596                           ;psect for function _get_val
  9597                           
  9598  1BD7                     l3524:	
  9599                           ;incstack = 0
  9600                           ; Regs used in _get_val: [wreg]
  9601                           
  9602                           
  9603                           ;newmain.c: 83:     ADCON0bits.ADON = 1;
  9604  1BD7  1283               	bcf	3,5	;RP0=0, select bank0
  9605  1BD8  1303               	bcf	3,6	;RP1=0, select bank0
  9606  1BD9  141F               	bsf	31,0	;volatile
  9607  1BDA                     l3526:
  9608                           
  9609                           ;newmain.c: 84:     _delay((unsigned long)((10)*(8000000/4000.0)));
  9610  1BDA  301A               	movlw	26
  9611  1BDB  00F3               	movwf	??_get_val+1
  9612  1BDC  30F8               	movlw	248
  9613  1BDD  00F2               	movwf	??_get_val
  9614  1BDE                     u6237:
  9615  1BDE  0BF2               	decfsz	??_get_val,f
  9616  1BDF  2BDE               	goto	u6237
  9617  1BE0  0BF3               	decfsz	??_get_val+1,f
  9618  1BE1  2BDE               	goto	u6237
  9619  1BE2  0000               	nop
  9620  1BE3                     l3528:
  9621                           
  9622                           ;newmain.c: 85:     ADCON0bits.GO_nDONE = 1;
  9623  1BE3  1283               	bcf	3,5	;RP0=0, select bank0
  9624  1BE4  1303               	bcf	3,6	;RP1=0, select bank0
  9625  1BE5  149F               	bsf	31,1	;volatile
  9626                           
  9627                           ;newmain.c: 86:     _delay((unsigned long)((10)*(8000000/4000.0)));
  9628  1BE6  301A               	movlw	26
  9629  1BE7  00F3               	movwf	??_get_val+1
  9630  1BE8  30F8               	movlw	248
  9631  1BE9  00F2               	movwf	??_get_val
  9632  1BEA                     u6247:
  9633  1BEA  0BF2               	decfsz	??_get_val,f
  9634  1BEB  2BEA               	goto	u6247
  9635  1BEC  0BF3               	decfsz	??_get_val+1,f
  9636  1BED  2BEA               	goto	u6247
  9637  1BEE  0000               	nop
  9638  1BEF                     l90:	
  9639                           ;newmain.c: 87:     while(ADCON0bits.GO_nDONE);
  9640                           
  9641  1BEF  1283               	bcf	3,5	;RP0=0, select bank0
  9642  1BF0  1303               	bcf	3,6	;RP1=0, select bank0
  9643  1BF1  189F               	btfsc	31,1	;volatile
  9644  1BF2  2BF4               	goto	u5841
  9645  1BF3  2BF5               	goto	u5840
  9646  1BF4                     u5841:
  9647  1BF4  2BEF               	goto	l90
  9648  1BF5                     u5840:
  9649  1BF5                     l3530:
  9650                           
  9651                           ;newmain.c: 89:     return ((ADRESH<<8)+ADRESL);
  9652  1BF5  081E               	movf	30,w	;volatile
  9653  1BF6  00F1               	movwf	?_get_val+1
  9654  1BF7  1683               	bsf	3,5	;RP0=1, select bank1
  9655  1BF8  1303               	bcf	3,6	;RP1=0, select bank1
  9656  1BF9  081E               	movf	30,w	;volatile
  9657  1BFA  00F0               	movwf	?_get_val
  9658  1BFB                     l93:
  9659  1BFB  0008               	return
  9660  1BFC                     __end_of_get_val:
  9661                           
  9662                           	psect	text28
  9663  1190                     __ptext28:	
  9664 ;; *************** function ___fldiv *****************
  9665 ;; Defined at:
  9666 ;;		line 8 in file "C:\Program Files\Microchip\xc8\v2.36\pic\sources\c90\common\sprcdiv.c"
  9667 ;; Parameters:    Size  Location     Type
  9668 ;;  a               4    6[BANK0 ] unsigned int 
  9669 ;;  b               4   10[BANK0 ] unsigned int 
  9670 ;; Auto vars:     Size  Location     Type
  9671 ;;  grs             4   26[BANK0 ] unsigned long 
  9672 ;;  rem             4   19[BANK0 ] unsigned long 
  9673 ;;  new_exp         2   24[BANK0 ] int 
  9674 ;;  aexp            1   31[BANK0 ] unsigned char 
  9675 ;;  bexp            1   30[BANK0 ] unsigned char 
  9676 ;;  sign            1   23[BANK0 ] unsigned char 
  9677 ;; Return value:  Size  Location     Type
  9678 ;;                  4    6[BANK0 ] unsigned char 
  9679 ;; Registers used:
  9680 ;;		wreg, status,2, status,0, btemp+1
  9681 ;; Tracked objects:
  9682 ;;		On entry : 0/0
  9683 ;;		On exit  : 0/0
  9684 ;;		Unchanged: 0/0
  9685 ;; Data sizes:     COMMON   BANK0   BANK1   BANK3   BANK2
  9686 ;;      Params:         0       8       0       0       0
  9687 ;;      Locals:         0      13       0       0       0
  9688 ;;      Temps:          0       5       0       0       0
  9689 ;;      Totals:         0      26       0       0       0
  9690 ;;Total ram usage:       26 bytes
  9691 ;; Hardware stack levels used: 1
  9692 ;; This function calls:
  9693 ;;		Nothing
  9694 ;; This function is called by:
  9695 ;;		_main
  9696 ;; This function uses a non-reentrant model
  9697 ;;
  9698                           
  9699  1190                     ___fldiv:	
  9700                           ;psect for function ___fldiv
  9701                           
  9702  1190                     l3594:	
  9703                           ;incstack = 0
  9704                           ; Regs used in ___fldiv: [wreg+status,2+status,0+btemp+1]
  9705                           
  9706  1190  1283               	bcf	3,5	;RP0=0, select bank0
  9707  1191  1303               	bcf	3,6	;RP1=0, select bank0
  9708  1192  082D               	movf	___fldiv@b+3,w
  9709  1193  3980               	andlw	128
  9710  1194  00AE               	movwf	??___fldiv
  9711  1195  082E               	movf	??___fldiv,w
  9712  1196  00B7               	movwf	___fldiv@sign
  9713  1197                     l3596:
  9714  1197  082D               	movf	___fldiv@b+3,w
  9715  1198  00AE               	movwf	??___fldiv
  9716  1199  072E               	addwf	??___fldiv,w
  9717  119A  00AF               	movwf	??___fldiv+1
  9718  119B  082F               	movf	??___fldiv+1,w
  9719  119C  00BE               	movwf	___fldiv@bexp
  9720  119D                     l3598:
  9721  119D  1FAC               	btfss	___fldiv@b+2,7
  9722  119E  29A0               	goto	u5891
  9723  119F  29A1               	goto	u5890
  9724  11A0                     u5891:
  9725  11A0  29A2               	goto	l3602
  9726  11A1                     u5890:
  9727  11A1                     l3600:
  9728  11A1  143E               	bsf	___fldiv@bexp,0
  9729  11A2                     l3602:
  9730  11A2  083E               	movf	___fldiv@bexp,w
  9731  11A3  1903               	btfsc	3,2
  9732  11A4  29A6               	goto	u5901
  9733  11A5  29A7               	goto	u5900
  9734  11A6                     u5901:
  9735  11A6  29B7               	goto	l3612
  9736  11A7                     u5900:
  9737  11A7                     l3604:
  9738  11A7  0A3E               	incf	___fldiv@bexp,w
  9739  11A8  1D03               	btfss	3,2
  9740  11A9  29AB               	goto	u5911
  9741  11AA  29AC               	goto	u5910
  9742  11AB                     u5911:
  9743  11AB  29B4               	goto	l3608
  9744  11AC                     u5910:
  9745  11AC                     l3606:
  9746  11AC  3000               	movlw	0
  9747  11AD  00AD               	movwf	___fldiv@b+3
  9748  11AE  3000               	movlw	0
  9749  11AF  00AC               	movwf	___fldiv@b+2
  9750  11B0  3000               	movlw	0
  9751  11B1  00AB               	movwf	___fldiv@b+1
  9752  11B2  3000               	movlw	0
  9753  11B3  00AA               	movwf	___fldiv@b
  9754  11B4                     l3608:
  9755  11B4  17AC               	bsf	___fldiv@b+2,7
  9756  11B5                     l3610:
  9757  11B5  01AD               	clrf	___fldiv@b+3
  9758  11B6  29BF               	goto	l3614
  9759  11B7                     l3612:
  9760  11B7  3000               	movlw	0
  9761  11B8  00AD               	movwf	___fldiv@b+3
  9762  11B9  3000               	movlw	0
  9763  11BA  00AC               	movwf	___fldiv@b+2
  9764  11BB  3000               	movlw	0
  9765  11BC  00AB               	movwf	___fldiv@b+1
  9766  11BD  3000               	movlw	0
  9767  11BE  00AA               	movwf	___fldiv@b
  9768  11BF                     l3614:
  9769  11BF  0829               	movf	___fldiv@a+3,w
  9770  11C0  3980               	andlw	128
  9771  11C1  00AE               	movwf	??___fldiv
  9772  11C2  082E               	movf	??___fldiv,w
  9773  11C3  06B7               	xorwf	___fldiv@sign,f
  9774  11C4                     l3616:
  9775  11C4  0829               	movf	___fldiv@a+3,w
  9776  11C5  00AE               	movwf	??___fldiv
  9777  11C6  072E               	addwf	??___fldiv,w
  9778  11C7  00AF               	movwf	??___fldiv+1
  9779  11C8  082F               	movf	??___fldiv+1,w
  9780  11C9  00BF               	movwf	___fldiv@aexp
  9781  11CA                     l3618:
  9782  11CA  1FA8               	btfss	___fldiv@a+2,7
  9783  11CB  29CD               	goto	u5921
  9784  11CC  29CE               	goto	u5920
  9785  11CD                     u5921:
  9786  11CD  29CF               	goto	l3622
  9787  11CE                     u5920:
  9788  11CE                     l3620:
  9789  11CE  143F               	bsf	___fldiv@aexp,0
  9790  11CF                     l3622:
  9791  11CF  083F               	movf	___fldiv@aexp,w
  9792  11D0  1903               	btfsc	3,2
  9793  11D1  29D3               	goto	u5931
  9794  11D2  29D4               	goto	u5930
  9795  11D3                     u5931:
  9796  11D3  29E4               	goto	l3632
  9797  11D4                     u5930:
  9798  11D4                     l3624:
  9799  11D4  0A3F               	incf	___fldiv@aexp,w
  9800  11D5  1D03               	btfss	3,2
  9801  11D6  29D8               	goto	u5941
  9802  11D7  29D9               	goto	u5940
  9803  11D8                     u5941:
  9804  11D8  29E1               	goto	l3628
  9805  11D9                     u5940:
  9806  11D9                     l3626:
  9807  11D9  3000               	movlw	0
  9808  11DA  00A9               	movwf	___fldiv@a+3
  9809  11DB  3000               	movlw	0
  9810  11DC  00A8               	movwf	___fldiv@a+2
  9811  11DD  3000               	movlw	0
  9812  11DE  00A7               	movwf	___fldiv@a+1
  9813  11DF  3000               	movlw	0
  9814  11E0  00A6               	movwf	___fldiv@a
  9815  11E1                     l3628:
  9816  11E1  17A8               	bsf	___fldiv@a+2,7
  9817  11E2                     l3630:
  9818  11E2  01A9               	clrf	___fldiv@a+3
  9819  11E3  29EC               	goto	l591
  9820  11E4                     l3632:
  9821  11E4  3000               	movlw	0
  9822  11E5  00A9               	movwf	___fldiv@a+3
  9823  11E6  3000               	movlw	0
  9824  11E7  00A8               	movwf	___fldiv@a+2
  9825  11E8  3000               	movlw	0
  9826  11E9  00A7               	movwf	___fldiv@a+1
  9827  11EA  3000               	movlw	0
  9828  11EB  00A6               	movwf	___fldiv@a
  9829  11EC                     l591:
  9830  11EC  0829               	movf	___fldiv@a+3,w
  9831  11ED  0428               	iorwf	___fldiv@a+2,w
  9832  11EE  0427               	iorwf	___fldiv@a+1,w
  9833  11EF  0426               	iorwf	___fldiv@a,w
  9834  11F0  1D03               	skipz
  9835  11F1  29F3               	goto	u5951
  9836  11F2  29F4               	goto	u5950
  9837  11F3                     u5951:
  9838  11F3  2A0D               	goto	l3642
  9839  11F4                     u5950:
  9840  11F4                     l3634:
  9841  11F4  3000               	movlw	0
  9842  11F5  00AD               	movwf	___fldiv@b+3
  9843  11F6  3000               	movlw	0
  9844  11F7  00AC               	movwf	___fldiv@b+2
  9845  11F8  3000               	movlw	0
  9846  11F9  00AB               	movwf	___fldiv@b+1
  9847  11FA  3000               	movlw	0
  9848  11FB  00AA               	movwf	___fldiv@b
  9849  11FC  3080               	movlw	128
  9850  11FD  04AC               	iorwf	___fldiv@b+2,f
  9851  11FE  307F               	movlw	127
  9852  11FF  04AD               	iorwf	___fldiv@b+3,f
  9853  1200                     l3636:
  9854  1200  0837               	movf	___fldiv@sign,w
  9855  1201  00AE               	movwf	??___fldiv
  9856  1202  082E               	movf	??___fldiv,w
  9857  1203  04AD               	iorwf	___fldiv@b+3,f
  9858  1204                     l3638:
  9859  1204  082D               	movf	___fldiv@b+3,w
  9860  1205  00A9               	movwf	?___fldiv+3
  9861  1206  082C               	movf	___fldiv@b+2,w
  9862  1207  00A8               	movwf	?___fldiv+2
  9863  1208  082B               	movf	___fldiv@b+1,w
  9864  1209  00A7               	movwf	?___fldiv+1
  9865  120A  082A               	movf	___fldiv@b,w
  9866  120B  00A6               	movwf	?___fldiv
  9867  120C  2B6C               	goto	l593
  9868  120D                     l3642:
  9869  120D  083E               	movf	___fldiv@bexp,w
  9870  120E  1D03               	btfss	3,2
  9871  120F  2A11               	goto	u5961
  9872  1210  2A12               	goto	u5960
  9873  1211                     u5961:
  9874  1211  2A1B               	goto	l3648
  9875  1212                     u5960:
  9876  1212                     l3644:
  9877  1212  3000               	movlw	0
  9878  1213  00A9               	movwf	?___fldiv+3
  9879  1214  3000               	movlw	0
  9880  1215  00A8               	movwf	?___fldiv+2
  9881  1216  3000               	movlw	0
  9882  1217  00A7               	movwf	?___fldiv+1
  9883  1218  3000               	movlw	0
  9884  1219  00A6               	movwf	?___fldiv
  9885  121A  2B6C               	goto	l593
  9886  121B                     l3648:
  9887  121B  083E               	movf	___fldiv@bexp,w
  9888  121C  00AE               	movwf	??___fldiv
  9889  121D  01AF               	clrf	??___fldiv+1
  9890  121E  082F               	movf	??___fldiv+1,w
  9891  121F  00B1               	movwf	??___fldiv+3
  9892  1220  083F               	movf	___fldiv@aexp,w
  9893  1221  022E               	subwf	??___fldiv,w
  9894  1222  00B0               	movwf	??___fldiv+2
  9895  1223  1C03               	skipc
  9896  1224  03B1               	decf	??___fldiv+3,f
  9897  1225  0830               	movf	??___fldiv+2,w
  9898  1226  3E7F               	addlw	127
  9899  1227  00B8               	movwf	___fldiv@new_exp
  9900  1228  0831               	movf	??___fldiv+3,w
  9901  1229  1803               	skipnc
  9902  122A  3E01               	addlw	1
  9903  122B  3E00               	addlw	0
  9904  122C  00B9               	movwf	___fldiv@new_exp+1
  9905  122D                     l3650:
  9906  122D  082D               	movf	___fldiv@b+3,w
  9907  122E  00B6               	movwf	___fldiv@rem+3
  9908  122F  082C               	movf	___fldiv@b+2,w
  9909  1230  00B5               	movwf	___fldiv@rem+2
  9910  1231  082B               	movf	___fldiv@b+1,w
  9911  1232  00B4               	movwf	___fldiv@rem+1
  9912  1233  082A               	movf	___fldiv@b,w
  9913  1234  00B3               	movwf	___fldiv@rem
  9914  1235                     l3652:
  9915  1235  3000               	movlw	0
  9916  1236  00AD               	movwf	___fldiv@b+3
  9917  1237  3000               	movlw	0
  9918  1238  00AC               	movwf	___fldiv@b+2
  9919  1239  3000               	movlw	0
  9920  123A  00AB               	movwf	___fldiv@b+1
  9921  123B  3000               	movlw	0
  9922  123C  00AA               	movwf	___fldiv@b
  9923  123D                     l3654:
  9924  123D  3000               	movlw	0
  9925  123E  00BD               	movwf	___fldiv@grs+3
  9926  123F  3000               	movlw	0
  9927  1240  00BC               	movwf	___fldiv@grs+2
  9928  1241  3000               	movlw	0
  9929  1242  00BB               	movwf	___fldiv@grs+1
  9930  1243  3000               	movlw	0
  9931  1244  00BA               	movwf	___fldiv@grs
  9932  1245                     l3656:
  9933  1245  01BF               	clrf	___fldiv@aexp
  9934  1246  2A91               	goto	l3676
  9935  1247                     l3658:
  9936  1247  083F               	movf	___fldiv@aexp,w
  9937  1248  1903               	btfsc	3,2
  9938  1249  2A4B               	goto	u5971
  9939  124A  2A4C               	goto	u5970
  9940  124B                     u5971:
  9941  124B  2A6C               	goto	l3668
  9942  124C                     u5970:
  9943  124C                     l3660:
  9944  124C  3001               	movlw	1
  9945  124D  00AE               	movwf	??___fldiv
  9946  124E                     u5985:
  9947  124E  1003               	clrc
  9948  124F  0DB3               	rlf	___fldiv@rem,f
  9949  1250  0DB4               	rlf	___fldiv@rem+1,f
  9950  1251  0DB5               	rlf	___fldiv@rem+2,f
  9951  1252  0DB6               	rlf	___fldiv@rem+3,f
  9952  1253  0BAE               	decfsz	??___fldiv,f
  9953  1254  2A4E               	goto	u5985
  9954  1255  3001               	movlw	1
  9955  1256  00AE               	movwf	??___fldiv
  9956  1257                     u5995:
  9957  1257  1003               	clrc
  9958  1258  0DAA               	rlf	___fldiv@b,f
  9959  1259  0DAB               	rlf	___fldiv@b+1,f
  9960  125A  0DAC               	rlf	___fldiv@b+2,f
  9961  125B  0DAD               	rlf	___fldiv@b+3,f
  9962  125C  0BAE               	decfsz	??___fldiv,f
  9963  125D  2A57               	goto	u5995
  9964  125E                     l3662:
  9965  125E  1FBD               	btfss	___fldiv@grs+3,7
  9966  125F  2A61               	goto	u6001
  9967  1260  2A62               	goto	u6000
  9968  1261                     u6001:
  9969  1261  2A63               	goto	l3666
  9970  1262                     u6000:
  9971  1262                     l3664:
  9972  1262  142A               	bsf	___fldiv@b,0
  9973  1263                     l3666:
  9974  1263  3001               	movlw	1
  9975  1264  00AE               	movwf	??___fldiv
  9976  1265                     u6015:
  9977  1265  1003               	clrc
  9978  1266  0DBA               	rlf	___fldiv@grs,f
  9979  1267  0DBB               	rlf	___fldiv@grs+1,f
  9980  1268  0DBC               	rlf	___fldiv@grs+2,f
  9981  1269  0DBD               	rlf	___fldiv@grs+3,f
  9982  126A  0BAE               	decfsz	??___fldiv,f
  9983  126B  2A65               	goto	u6015
  9984  126C                     l3668:
  9985  126C  0829               	movf	___fldiv@a+3,w
  9986  126D  0236               	subwf	___fldiv@rem+3,w
  9987  126E  1D03               	skipz
  9988  126F  2A7A               	goto	u6025
  9989  1270  0828               	movf	___fldiv@a+2,w
  9990  1271  0235               	subwf	___fldiv@rem+2,w
  9991  1272  1D03               	skipz
  9992  1273  2A7A               	goto	u6025
  9993  1274  0827               	movf	___fldiv@a+1,w
  9994  1275  0234               	subwf	___fldiv@rem+1,w
  9995  1276  1D03               	skipz
  9996  1277  2A7A               	goto	u6025
  9997  1278  0826               	movf	___fldiv@a,w
  9998  1279  0233               	subwf	___fldiv@rem,w
  9999  127A                     u6025:
 10000  127A  1C03               	skipc
 10001  127B  2A7D               	goto	u6021
 10002  127C  2A7E               	goto	u6020
 10003  127D                     u6021:
 10004  127D  2A8D               	goto	l3674
 10005  127E                     u6020:
 10006  127E                     l3670:
 10007  127E  173D               	bsf	___fldiv@grs+3,6
 10008  127F                     l3672:
 10009  127F  0826               	movf	___fldiv@a,w
 10010  1280  02B3               	subwf	___fldiv@rem,f
 10011  1281  0827               	movf	___fldiv@a+1,w
 10012  1282  1C03               	skipc
 10013  1283  0F27               	incfsz	___fldiv@a+1,w
 10014  1284  02B4               	subwf	___fldiv@rem+1,f
 10015  1285  0828               	movf	___fldiv@a+2,w
 10016  1286  1C03               	skipc
 10017  1287  0F28               	incfsz	___fldiv@a+2,w
 10018  1288  02B5               	subwf	___fldiv@rem+2,f
 10019  1289  0829               	movf	___fldiv@a+3,w
 10020  128A  1C03               	skipc
 10021  128B  0F29               	incfsz	___fldiv@a+3,w
 10022  128C  02B6               	subwf	___fldiv@rem+3,f
 10023  128D                     l3674:
 10024  128D  3001               	movlw	1
 10025  128E  00AE               	movwf	??___fldiv
 10026  128F  082E               	movf	??___fldiv,w
 10027  1290  07BF               	addwf	___fldiv@aexp,f
 10028  1291                     l3676:
 10029  1291  301A               	movlw	26
 10030  1292  023F               	subwf	___fldiv@aexp,w
 10031  1293  1C03               	skipc
 10032  1294  2A96               	goto	u6031
 10033  1295  2A97               	goto	u6030
 10034  1296                     u6031:
 10035  1296  2A47               	goto	l3658
 10036  1297                     u6030:
 10037  1297                     l3678:
 10038  1297  0836               	movf	___fldiv@rem+3,w
 10039  1298  0435               	iorwf	___fldiv@rem+2,w
 10040  1299  0434               	iorwf	___fldiv@rem+1,w
 10041  129A  0433               	iorwf	___fldiv@rem,w
 10042  129B  1903               	skipnz
 10043  129C  2A9E               	goto	u6041
 10044  129D  2A9F               	goto	u6040
 10045  129E                     u6041:
 10046  129E  2ABE               	goto	l3692
 10047  129F                     u6040:
 10048  129F                     l3680:
 10049  129F  143A               	bsf	___fldiv@grs,0
 10050  12A0  2ABE               	goto	l3692
 10051  12A1                     l3682:
 10052  12A1  3001               	movlw	1
 10053  12A2  00AE               	movwf	??___fldiv
 10054  12A3                     u6055:
 10055  12A3  1003               	clrc
 10056  12A4  0DAA               	rlf	___fldiv@b,f
 10057  12A5  0DAB               	rlf	___fldiv@b+1,f
 10058  12A6  0DAC               	rlf	___fldiv@b+2,f
 10059  12A7  0DAD               	rlf	___fldiv@b+3,f
 10060  12A8  0BAE               	decfsz	??___fldiv,f
 10061  12A9  2AA3               	goto	u6055
 10062  12AA                     l3684:
 10063  12AA  1FBD               	btfss	___fldiv@grs+3,7
 10064  12AB  2AAD               	goto	u6061
 10065  12AC  2AAE               	goto	u6060
 10066  12AD                     u6061:
 10067  12AD  2AAF               	goto	l3688
 10068  12AE                     u6060:
 10069  12AE                     l3686:
 10070  12AE  142A               	bsf	___fldiv@b,0
 10071  12AF                     l3688:
 10072  12AF  3001               	movlw	1
 10073  12B0  00AE               	movwf	??___fldiv
 10074  12B1                     u6075:
 10075  12B1  1003               	clrc
 10076  12B2  0DBA               	rlf	___fldiv@grs,f
 10077  12B3  0DBB               	rlf	___fldiv@grs+1,f
 10078  12B4  0DBC               	rlf	___fldiv@grs+2,f
 10079  12B5  0DBD               	rlf	___fldiv@grs+3,f
 10080  12B6  0BAE               	decfsz	??___fldiv,f
 10081  12B7  2AB1               	goto	u6075
 10082  12B8                     l3690:
 10083  12B8  30FF               	movlw	255
 10084  12B9  07B8               	addwf	___fldiv@new_exp,f
 10085  12BA  1803               	skipnc
 10086  12BB  0AB9               	incf	___fldiv@new_exp+1,f
 10087  12BC  30FF               	movlw	255
 10088  12BD  07B9               	addwf	___fldiv@new_exp+1,f
 10089  12BE                     l3692:
 10090  12BE  1FAC               	btfss	___fldiv@b+2,7
 10091  12BF  2AC1               	goto	u6081
 10092  12C0  2AC2               	goto	u6080
 10093  12C1                     u6081:
 10094  12C1  2AA1               	goto	l3682
 10095  12C2                     u6080:
 10096  12C2                     l3694:
 10097  12C2  01BF               	clrf	___fldiv@aexp
 10098  12C3                     l3696:
 10099  12C3  1FBD               	btfss	___fldiv@grs+3,7
 10100  12C4  2AC6               	goto	u6091
 10101  12C5  2AC7               	goto	u6090
 10102  12C6                     u6091:
 10103  12C6  2AE3               	goto	l3704
 10104  12C7                     u6090:
 10105  12C7                     l3698:
 10106  12C7  30FF               	movlw	255
 10107  12C8  053A               	andwf	___fldiv@grs,w
 10108  12C9  00AE               	movwf	??___fldiv
 10109  12CA  30FF               	movlw	255
 10110  12CB  053B               	andwf	___fldiv@grs+1,w
 10111  12CC  00AF               	movwf	??___fldiv+1
 10112  12CD  30FF               	movlw	255
 10113  12CE  053C               	andwf	___fldiv@grs+2,w
 10114  12CF  00B0               	movwf	??___fldiv+2
 10115  12D0  307F               	movlw	127
 10116  12D1  053D               	andwf	___fldiv@grs+3,w
 10117  12D2  00B1               	movwf	??___fldiv+3
 10118  12D3  0831               	movf	??___fldiv+3,w
 10119  12D4  0430               	iorwf	??___fldiv+2,w
 10120  12D5  042F               	iorwf	??___fldiv+1,w
 10121  12D6  042E               	iorwf	??___fldiv,w
 10122  12D7  1903               	skipnz
 10123  12D8  2ADA               	goto	u6101
 10124  12D9  2ADB               	goto	u6100
 10125  12DA                     u6101:
 10126  12DA  2ADE               	goto	l607
 10127  12DB                     u6100:
 10128  12DB                     l3700:
 10129  12DB  01BF               	clrf	___fldiv@aexp
 10130  12DC  0ABF               	incf	___fldiv@aexp,f
 10131  12DD  2AE3               	goto	l3704
 10132  12DE                     l607:
 10133  12DE  1C2A               	btfss	___fldiv@b,0
 10134  12DF  2AE1               	goto	u6111
 10135  12E0  2AE2               	goto	u6110
 10136  12E1                     u6111:
 10137  12E1  2AE3               	goto	l3704
 10138  12E2                     u6110:
 10139  12E2  2ADB               	goto	l3700
 10140  12E3                     l3704:
 10141  12E3  083F               	movf	___fldiv@aexp,w
 10142  12E4  1903               	btfsc	3,2
 10143  12E5  2AE7               	goto	u6121
 10144  12E6  2AE8               	goto	u6120
 10145  12E7                     u6121:
 10146  12E7  2B19               	goto	l3714
 10147  12E8                     u6120:
 10148  12E8                     l3706:
 10149  12E8  3001               	movlw	1
 10150  12E9  07AA               	addwf	___fldiv@b,f
 10151  12EA  3000               	movlw	0
 10152  12EB  1803               	skipnc
 10153  12EC  3001               	movlw	1
 10154  12ED  07AB               	addwf	___fldiv@b+1,f
 10155  12EE  3000               	movlw	0
 10156  12EF  1803               	skipnc
 10157  12F0  3001               	movlw	1
 10158  12F1  07AC               	addwf	___fldiv@b+2,f
 10159  12F2  3000               	movlw	0
 10160  12F3  1803               	skipnc
 10161  12F4  3001               	movlw	1
 10162  12F5  07AD               	addwf	___fldiv@b+3,f
 10163  12F6                     l3708:
 10164  12F6  1C2D               	btfss	___fldiv@b+3,0
 10165  12F7  2AF9               	goto	u6131
 10166  12F8  2AFA               	goto	u6130
 10167  12F9                     u6131:
 10168  12F9  2B19               	goto	l3714
 10169  12FA                     u6130:
 10170  12FA                     l3710:
 10171  12FA  082A               	movf	___fldiv@b,w
 10172  12FB  00AE               	movwf	??___fldiv
 10173  12FC  082B               	movf	___fldiv@b+1,w
 10174  12FD  00AF               	movwf	??___fldiv+1
 10175  12FE  082C               	movf	___fldiv@b+2,w
 10176  12FF  00B0               	movwf	??___fldiv+2
 10177  1300  082D               	movf	___fldiv@b+3,w
 10178  1301  00B1               	movwf	??___fldiv+3
 10179  1302  3001               	movlw	1
 10180  1303  00B2               	movwf	??___fldiv+4
 10181  1304                     u6145:
 10182  1304  0D31               	rlf	??___fldiv+3,w
 10183  1305  0CB1               	rrf	??___fldiv+3,f
 10184  1306  0CB0               	rrf	??___fldiv+2,f
 10185  1307  0CAF               	rrf	??___fldiv+1,f
 10186  1308  0CAE               	rrf	??___fldiv,f
 10187  1309                     u6140:
 10188  1309  0BB2               	decfsz	??___fldiv+4,f
 10189  130A  2B04               	goto	u6145
 10190  130B  0831               	movf	??___fldiv+3,w
 10191  130C  00AD               	movwf	___fldiv@b+3
 10192  130D  0830               	movf	??___fldiv+2,w
 10193  130E  00AC               	movwf	___fldiv@b+2
 10194  130F  082F               	movf	??___fldiv+1,w
 10195  1310  00AB               	movwf	___fldiv@b+1
 10196  1311  082E               	movf	??___fldiv,w
 10197  1312  00AA               	movwf	___fldiv@b
 10198  1313                     l3712:
 10199  1313  3001               	movlw	1
 10200  1314  07B8               	addwf	___fldiv@new_exp,f
 10201  1315  1803               	skipnc
 10202  1316  0AB9               	incf	___fldiv@new_exp+1,f
 10203  1317  3000               	movlw	0
 10204  1318  07B9               	addwf	___fldiv@new_exp+1,f
 10205  1319                     l3714:
 10206  1319  0839               	movf	___fldiv@new_exp+1,w
 10207  131A  3A80               	xorlw	128
 10208  131B  00FF               	movwf	btemp+1
 10209  131C  3080               	movlw	128
 10210  131D  027F               	subwf	btemp+1,w
 10211  131E  1D03               	skipz
 10212  131F  2B22               	goto	u6155
 10213  1320  30FF               	movlw	255
 10214  1321  0238               	subwf	___fldiv@new_exp,w
 10215  1322                     u6155:
 10216  1322  1C03               	skipc
 10217  1323  2B25               	goto	u6151
 10218  1324  2B26               	goto	u6150
 10219  1325                     u6151:
 10220  1325  2B34               	goto	l3718
 10221  1326                     u6150:
 10222  1326                     l3716:
 10223  1326  30FF               	movlw	255
 10224  1327  1283               	bcf	3,5	;RP0=0, select bank0
 10225  1328  1303               	bcf	3,6	;RP1=0, select bank0
 10226  1329  00B8               	movwf	___fldiv@new_exp
 10227  132A  3000               	movlw	0
 10228  132B  00B9               	movwf	___fldiv@new_exp+1
 10229  132C  3000               	movlw	0
 10230  132D  00AD               	movwf	___fldiv@b+3
 10231  132E  3000               	movlw	0
 10232  132F  00AC               	movwf	___fldiv@b+2
 10233  1330  3000               	movlw	0
 10234  1331  00AB               	movwf	___fldiv@b+1
 10235  1332  3000               	movlw	0
 10236  1333  00AA               	movwf	___fldiv@b
 10237  1334                     l3718:
 10238  1334  1283               	bcf	3,5	;RP0=0, select bank0
 10239  1335  1303               	bcf	3,6	;RP1=0, select bank0
 10240  1336  0839               	movf	___fldiv@new_exp+1,w
 10241  1337  3A80               	xorlw	128
 10242  1338  00FF               	movwf	btemp+1
 10243  1339  3080               	movlw	128
 10244  133A  027F               	subwf	btemp+1,w
 10245  133B  1D03               	skipz
 10246  133C  2B3F               	goto	u6165
 10247  133D  3001               	movlw	1
 10248  133E  0238               	subwf	___fldiv@new_exp,w
 10249  133F                     u6165:
 10250  133F  1803               	skipnc
 10251  1340  2B42               	goto	u6161
 10252  1341  2B43               	goto	u6160
 10253  1342                     u6161:
 10254  1342  2B50               	goto	l613
 10255  1343                     u6160:
 10256  1343                     l3720:
 10257  1343  1283               	bcf	3,5	;RP0=0, select bank0
 10258  1344  1303               	bcf	3,6	;RP1=0, select bank0
 10259  1345  01B8               	clrf	___fldiv@new_exp
 10260  1346  01B9               	clrf	___fldiv@new_exp+1
 10261  1347                     l3722:
 10262  1347  3000               	movlw	0
 10263  1348  00AD               	movwf	___fldiv@b+3
 10264  1349  3000               	movlw	0
 10265  134A  00AC               	movwf	___fldiv@b+2
 10266  134B  3000               	movlw	0
 10267  134C  00AB               	movwf	___fldiv@b+1
 10268  134D  3000               	movlw	0
 10269  134E  00AA               	movwf	___fldiv@b
 10270  134F                     l3724:
 10271  134F  01B7               	clrf	___fldiv@sign
 10272  1350                     l613:
 10273  1350  1283               	bcf	3,5	;RP0=0, select bank0
 10274  1351  1303               	bcf	3,6	;RP1=0, select bank0
 10275  1352  0838               	movf	___fldiv@new_exp,w
 10276  1353  00AE               	movwf	??___fldiv
 10277  1354  082E               	movf	??___fldiv,w
 10278  1355  00BE               	movwf	___fldiv@bexp
 10279  1356                     l3726:
 10280  1356  1C3E               	btfss	___fldiv@bexp,0
 10281  1357  2B59               	goto	u6171
 10282  1358  2B5A               	goto	u6170
 10283  1359                     u6171:
 10284  1359  2B5C               	goto	l3730
 10285  135A                     u6170:
 10286  135A                     l3728:
 10287  135A  17AC               	bsf	___fldiv@b+2,7
 10288  135B  2B60               	goto	l615
 10289  135C                     l3730:
 10290  135C  307F               	movlw	127
 10291  135D  00AE               	movwf	??___fldiv
 10292  135E  082E               	movf	??___fldiv,w
 10293  135F  05AC               	andwf	___fldiv@b+2,f
 10294  1360                     l615:
 10295  1360  083E               	movf	___fldiv@bexp,w
 10296  1361  00AE               	movwf	??___fldiv
 10297  1362  1003               	clrc
 10298  1363  0C2E               	rrf	??___fldiv,w
 10299  1364  00AF               	movwf	??___fldiv+1
 10300  1365  082F               	movf	??___fldiv+1,w
 10301  1366  00AD               	movwf	___fldiv@b+3
 10302  1367  0837               	movf	___fldiv@sign,w
 10303  1368  00AE               	movwf	??___fldiv
 10304  1369  082E               	movf	??___fldiv,w
 10305  136A  04AD               	iorwf	___fldiv@b+3,f
 10306  136B  2A04               	goto	l3638
 10307  136C                     l593:
 10308  136C  0008               	return
 10309  136D                     __end_of___fldiv:
 10310                           
 10311                           	psect	text29
 10312  1CF4                     __ptext29:	
 10313 ;; *************** function _LCD_Initialize *****************
 10314 ;; Defined at:
 10315 ;;		line 45 in file "lcd.c"
 10316 ;; Parameters:    Size  Location     Type
 10317 ;;		None
 10318 ;; Auto vars:     Size  Location     Type
 10319 ;;		None
 10320 ;; Return value:  Size  Location     Type
 10321 ;;                  1    wreg      void 
 10322 ;; Registers used:
 10323 ;;		wreg, status,2, status,0, pclath, cstack
 10324 ;; Tracked objects:
 10325 ;;		On entry : 0/0
 10326 ;;		On exit  : 0/0
 10327 ;;		Unchanged: 0/0
 10328 ;; Data sizes:     COMMON   BANK0   BANK1   BANK3   BANK2
 10329 ;;      Params:         0       0       0       0       0
 10330 ;;      Locals:         0       0       0       0       0
 10331 ;;      Temps:          2       0       0       0       0
 10332 ;;      Totals:         2       0       0       0       0
 10333 ;;Total ram usage:        2 bytes
 10334 ;; Hardware stack levels used: 1
 10335 ;; Hardware stack levels required when called: 2
 10336 ;; This function calls:
 10337 ;;		_LCDPutCmd
 10338 ;; This function is called by:
 10339 ;;		_main
 10340 ;; This function uses a non-reentrant model
 10341 ;;
 10342                           
 10343  1CF4                     _LCD_Initialize:	
 10344                           ;psect for function _LCD_Initialize
 10345                           
 10346  1CF4                     l3534:	
 10347                           ;incstack = 0
 10348                           ; Regs used in _LCD_Initialize: [wreg+status,2+status,0+pclath+cstack]
 10349                           
 10350                           
 10351                           ;lcd.c: 48:     PORTD = 0;
 10352  1CF4  1283               	bcf	3,5	;RP0=0, select bank0
 10353  1CF5  1303               	bcf	3,6	;RP1=0, select bank0
 10354  1CF6  0188               	clrf	8	;volatile
 10355                           
 10356                           ;lcd.c: 50:     TRISD = 0x00;
 10357  1CF7  1683               	bsf	3,5	;RP0=1, select bank1
 10358  1CF8  1303               	bcf	3,6	;RP1=0, select bank1
 10359  1CF9  0188               	clrf	8	;volatile
 10360  1CFA                     l3536:
 10361                           
 10362                           ;lcd.c: 53:     PORTDbits.RD7 = 1;
 10363  1CFA  1283               	bcf	3,5	;RP0=0, select bank0
 10364  1CFB  1303               	bcf	3,6	;RP1=0, select bank0
 10365  1CFC  1788               	bsf	8,7	;volatile
 10366  1CFD                     l3538:
 10367                           
 10368                           ;lcd.c: 56:     _delay((unsigned long)((15)*(8000000/4000.0)));
 10369  1CFD  3027               	movlw	39
 10370  1CFE  00F8               	movwf	??_LCD_Initialize+1
 10371  1CFF  30F5               	movlw	245
 10372  1D00  00F7               	movwf	??_LCD_Initialize
 10373  1D01                     u6257:
 10374  1D01  0BF7               	decfsz	??_LCD_Initialize,f
 10375  1D02  2D01               	goto	u6257
 10376  1D03  0BF8               	decfsz	??_LCD_Initialize+1,f
 10377  1D04  2D01               	goto	u6257
 10378  1D05                     l3540:
 10379                           
 10380                           ;lcd.c: 59:     LCDPutCmd(0x32);
 10381  1D05  3032               	movlw	50
 10382  1D06  160A  158A  24C5  160A  158A  	fcall	_LCDPutCmd
 10383  1D0B                     l3542:
 10384                           
 10385                           ;lcd.c: 62:     LCDPutCmd(0x28);
 10386  1D0B  3028               	movlw	40
 10387  1D0C  160A  158A  24C5  160A  158A  	fcall	_LCDPutCmd
 10388  1D11                     l3544:
 10389                           
 10390                           ;lcd.c: 65:     LCDPutCmd(0x0C);
 10391  1D11  300C               	movlw	12
 10392  1D12  160A  158A  24C5  160A  158A  	fcall	_LCDPutCmd
 10393  1D17                     l3546:
 10394                           
 10395                           ;lcd.c: 67:     LCDPutCmd(0x01);
 10396  1D17  3001               	movlw	1
 10397  1D18  160A  158A  24C5  160A  158A  	fcall	_LCDPutCmd
 10398  1D1D                     l3548:
 10399                           
 10400                           ;lcd.c: 70:     LCDPutCmd(0x06);
 10401  1D1D  3006               	movlw	6
 10402  1D1E  160A  158A  24C5  160A  158A  	fcall	_LCDPutCmd
 10403  1D23                     l118:
 10404  1D23  0008               	return
 10405  1D24                     __end_of_LCD_Initialize:
 10406                           
 10407                           	psect	text30
 10408  1B51                     __ptext30:	
 10409 ;; *************** function _LCDPutStr *****************
 10410 ;; Defined at:
 10411 ;;		line 134 in file "lcd.c"
 10412 ;; Parameters:    Size  Location     Type
 10413 ;;  str             1    wreg     PTR const unsigned char 
 10414 ;;		 -> buffer(20), 
 10415 ;; Auto vars:     Size  Location     Type
 10416 ;;  str             1    8[COMMON] PTR const unsigned char 
 10417 ;;		 -> buffer(20), 
 10418 ;;  i               1    9[COMMON] unsigned char 
 10419 ;; Return value:  Size  Location     Type
 10420 ;;                  1    wreg      void 
 10421 ;; Registers used:
 10422 ;;		wreg, fsr0l, fsr0h, status,2, status,0, pclath, cstack
 10423 ;; Tracked objects:
 10424 ;;		On entry : 0/0
 10425 ;;		On exit  : 0/0
 10426 ;;		Unchanged: 0/0
 10427 ;; Data sizes:     COMMON   BANK0   BANK1   BANK3   BANK2
 10428 ;;      Params:         0       0       0       0       0
 10429 ;;      Locals:         2       0       0       0       0
 10430 ;;      Temps:          1       0       0       0       0
 10431 ;;      Totals:         3       0       0       0       0
 10432 ;;Total ram usage:        3 bytes
 10433 ;; Hardware stack levels used: 1
 10434 ;; Hardware stack levels required when called: 2
 10435 ;; This function calls:
 10436 ;;		_LCDPutChar
 10437 ;; This function is called by:
 10438 ;;		_main
 10439 ;; This function uses a non-reentrant model
 10440 ;;
 10441                           
 10442  1B51                     _LCDPutStr:	
 10443                           ;psect for function _LCDPutStr
 10444                           
 10445                           
 10446                           ;incstack = 0
 10447                           ; Regs used in _LCDPutStr: [wreg-fsr0h+status,2+status,0+pclath+cstack]
 10448                           ;LCDPutStr@str stored from wreg
 10449  1B51  00F8               	movwf	LCDPutStr@str
 10450  1B52                     l3576:
 10451                           
 10452                           ;lcd.c: 134: void LCDPutStr(const char *str);lcd.c: 135: {;lcd.c: 136:     uint8_t i=0;
 10453  1B52  01F9               	clrf	LCDPutStr@i
 10454                           
 10455                           ;lcd.c: 139:     while (str[i])
 10456  1B53  2B63               	goto	l3582
 10457  1B54                     l3578:
 10458                           
 10459                           ;lcd.c: 140:     {;lcd.c: 142:         LCDPutChar(str[i++]);
 10460  1B54  0879               	movf	LCDPutStr@i,w
 10461  1B55  0778               	addwf	LCDPutStr@str,w
 10462  1B56  00F7               	movwf	??_LCDPutStr
 10463  1B57  0877               	movf	??_LCDPutStr,w
 10464  1B58  0084               	movwf	4
 10465  1B59  0800               	movf	0,w
 10466  1B5A  160A  158A  246F  160A  158A  	fcall	_LCDPutChar
 10467  1B5F                     l3580:
 10468  1B5F  3001               	movlw	1
 10469  1B60  00F7               	movwf	??_LCDPutStr
 10470  1B61  0877               	movf	??_LCDPutStr,w
 10471  1B62  07F9               	addwf	LCDPutStr@i,f
 10472  1B63                     l3582:
 10473                           
 10474                           ;lcd.c: 139:     while (str[i])
 10475  1B63  0879               	movf	LCDPutStr@i,w
 10476  1B64  0778               	addwf	LCDPutStr@str,w
 10477  1B65  00F7               	movwf	??_LCDPutStr
 10478  1B66  0877               	movf	??_LCDPutStr,w
 10479  1B67  0084               	movwf	4
 10480  1B68  1383               	bcf	3,7	;select IRP bank0
 10481  1B69  0800               	movf	0,w
 10482  1B6A  1D03               	btfss	3,2
 10483  1B6B  2B6D               	goto	u5881
 10484  1B6C  2B6E               	goto	u5880
 10485  1B6D                     u5881:
 10486  1B6D  2B54               	goto	l3578
 10487  1B6E                     u5880:
 10488  1B6E                     l133:
 10489  1B6E  0008               	return
 10490  1B6F                     __end_of_LCDPutStr:
 10491                           
 10492                           	psect	text31
 10493  1C6F                     __ptext31:	
 10494 ;; *************** function _LCDPutChar *****************
 10495 ;; Defined at:
 10496 ;;		line 102 in file "lcd.c"
 10497 ;; Parameters:    Size  Location     Type
 10498 ;;  ch              1    wreg     unsigned char 
 10499 ;; Auto vars:     Size  Location     Type
 10500 ;;  ch              1    6[COMMON] unsigned char 
 10501 ;; Return value:  Size  Location     Type
 10502 ;;                  1    wreg      void 
 10503 ;; Registers used:
 10504 ;;		wreg, status,2, status,0, pclath, cstack
 10505 ;; Tracked objects:
 10506 ;;		On entry : 0/0
 10507 ;;		On exit  : 0/0
 10508 ;;		Unchanged: 0/0
 10509 ;; Data sizes:     COMMON   BANK0   BANK1   BANK3   BANK2
 10510 ;;      Params:         0       0       0       0       0
 10511 ;;      Locals:         1       0       0       0       0
 10512 ;;      Temps:          2       0       0       0       0
 10513 ;;      Totals:         3       0       0       0       0
 10514 ;;Total ram usage:        3 bytes
 10515 ;; Hardware stack levels used: 1
 10516 ;; Hardware stack levels required when called: 1
 10517 ;; This function calls:
 10518 ;;		_LCDWriteNibble
 10519 ;; This function is called by:
 10520 ;;		_LCDPutStr
 10521 ;;		_LCDPutStr2
 10522 ;; This function uses a non-reentrant model
 10523 ;;
 10524                           
 10525  1C6F                     _LCDPutChar:	
 10526                           ;psect for function _LCDPutChar
 10527                           
 10528                           
 10529                           ;incstack = 0
 10530                           ; Regs used in _LCDPutChar: [wreg+status,2+status,0+pclath+cstack]
 10531                           ;LCDPutChar@ch stored from wreg
 10532  1C6F  00F6               	movwf	LCDPutChar@ch
 10533  1C70                     l3252:
 10534                           
 10535                           ;lcd.c: 102: void LCDPutChar(uint8_t ch);lcd.c: 103: {;lcd.c: 104:     _delay((unsigned 
      +                          long)((5)*(8000000/4000.0)));
 10536  1C70  300D               	movlw	13
 10537  1C71  00F5               	movwf	??_LCDPutChar+1
 10538  1C72  30FB               	movlw	251
 10539  1C73  00F4               	movwf	??_LCDPutChar
 10540  1C74                     u6267:
 10541  1C74  0BF4               	decfsz	??_LCDPutChar,f
 10542  1C75  2C74               	goto	u6267
 10543  1C76  0BF5               	decfsz	??_LCDPutChar+1,f
 10544  1C77  2C74               	goto	u6267
 10545  1C78  2C79               	nop2
 10546  1C79                     l3254:
 10547                           
 10548                           ;lcd.c: 107:     LCDWriteNibble(ch,1);
 10549  1C79  01F0               	clrf	LCDWriteNibble@rs
 10550  1C7A  0AF0               	incf	LCDWriteNibble@rs,f
 10551  1C7B  0876               	movf	LCDPutChar@ch,w
 10552  1C7C  160A  158A  2390  160A  158A  	fcall	_LCDWriteNibble
 10553  1C81                     l3256:
 10554                           
 10555                           ;lcd.c: 110:     ch = (ch << 4);
 10556  1C81  0876               	movf	LCDPutChar@ch,w
 10557  1C82  00F4               	movwf	??_LCDPutChar
 10558  1C83  3003               	movlw	3
 10559  1C84                     u5405:
 10560  1C84  1003               	clrc
 10561  1C85  0DF4               	rlf	??_LCDPutChar,f
 10562  1C86  3EFF               	addlw	-1
 10563  1C87  1D03               	skipz
 10564  1C88  2C84               	goto	u5405
 10565  1C89  1003               	clrc
 10566  1C8A  0D74               	rlf	??_LCDPutChar,w
 10567  1C8B  00F5               	movwf	??_LCDPutChar+1
 10568  1C8C  0875               	movf	??_LCDPutChar+1,w
 10569  1C8D  00F6               	movwf	LCDPutChar@ch
 10570  1C8E                     l3258:
 10571                           
 10572                           ;lcd.c: 113:     LCDWriteNibble(ch,1);
 10573  1C8E  01F0               	clrf	LCDWriteNibble@rs
 10574  1C8F  0AF0               	incf	LCDWriteNibble@rs,f
 10575  1C90  0876               	movf	LCDPutChar@ch,w
 10576  1C91  160A  158A  2390  160A  158A  	fcall	_LCDWriteNibble
 10577  1C96                     l124:
 10578  1C96  0008               	return
 10579  1C97                     __end_of_LCDPutChar:
 10580                           
 10581                           	psect	text32
 10582  1C97                     __ptext32:	
 10583 ;; *************** function _LCDGoto *****************
 10584 ;; Defined at:
 10585 ;;		line 146 in file "lcd.c"
 10586 ;; Parameters:    Size  Location     Type
 10587 ;;  pos             1    wreg     unsigned char 
 10588 ;;  ln              1    7[COMMON] unsigned char 
 10589 ;; Auto vars:     Size  Location     Type
 10590 ;;  pos             1   12[COMMON] unsigned char 
 10591 ;; Return value:  Size  Location     Type
 10592 ;;                  1    wreg      void 
 10593 ;; Registers used:
 10594 ;;		wreg, status,2, status,0, pclath, cstack
 10595 ;; Tracked objects:
 10596 ;;		On entry : 0/0
 10597 ;;		On exit  : 0/0
 10598 ;;		Unchanged: 0/0
 10599 ;; Data sizes:     COMMON   BANK0   BANK1   BANK3   BANK2
 10600 ;;      Params:         1       0       0       0       0
 10601 ;;      Locals:         3       0       0       0       0
 10602 ;;      Temps:          2       0       0       0       0
 10603 ;;      Totals:         6       0       0       0       0
 10604 ;;Total ram usage:        6 bytes
 10605 ;; Hardware stack levels used: 1
 10606 ;; Hardware stack levels required when called: 2
 10607 ;; This function calls:
 10608 ;;		_LCDPutCmd
 10609 ;; This function is called by:
 10610 ;;		_main
 10611 ;; This function uses a non-reentrant model
 10612 ;;
 10613                           
 10614  1C97                     _LCDGoto:	
 10615                           ;psect for function _LCDGoto
 10616                           
 10617                           
 10618                           ;incstack = 0
 10619                           ; Regs used in _LCDGoto: [wreg+status,2+status,0+pclath+cstack]
 10620                           ;LCDGoto@pos stored from wreg
 10621  1C97  00FC               	movwf	LCDGoto@pos
 10622  1C98                     l3550:
 10623                           
 10624                           ;lcd.c: 146: void LCDGoto(uint8_t pos,uint8_t ln);lcd.c: 147: {;lcd.c: 149:     if ((ln 
      +                          > (2 -1)) || (pos > (16 -1)))
 10625  1C98  3002               	movlw	2
 10626  1C99  0277               	subwf	LCDGoto@ln,w
 10627  1C9A  1803               	skipnc
 10628  1C9B  2C9D               	goto	u5851
 10629  1C9C  2C9E               	goto	u5850
 10630  1C9D                     u5851:
 10631  1C9D  2CC4               	goto	l139
 10632  1C9E                     u5850:
 10633  1C9E                     l3552:
 10634  1C9E  3010               	movlw	16
 10635  1C9F  027C               	subwf	LCDGoto@pos,w
 10636  1CA0  1C03               	skipc
 10637  1CA1  2CA3               	goto	u5861
 10638  1CA2  2CA4               	goto	u5860
 10639  1CA3                     u5861:
 10640  1CA3  2CA5               	goto	l3554
 10641  1CA4                     u5860:
 10642  1CA4  2CC4               	goto	l139
 10643  1CA5                     l3554:
 10644                           
 10645                           ;lcd.c: 156:     LCDPutCmd((ln == 1) ? (0xC0 | pos) : (0x80 | pos));
 10646  1CA5  0377               	decf	LCDGoto@ln,w
 10647  1CA6  1903               	btfsc	3,2
 10648  1CA7  2CA9               	goto	u5871
 10649  1CA8  2CAA               	goto	u5870
 10650  1CA9                     u5871:
 10651  1CA9  2CB0               	goto	l3558
 10652  1CAA                     u5870:
 10653  1CAA                     l3556:
 10654  1CAA  3080               	movlw	128
 10655  1CAB  047C               	iorwf	LCDGoto@pos,w
 10656  1CAC  00FA               	movwf	_LCDGoto$230
 10657  1CAD  3000               	movlw	0
 10658  1CAE  00FB               	movwf	_LCDGoto$230+1
 10659  1CAF  2CB5               	goto	l3560
 10660  1CB0                     l3558:
 10661  1CB0  30C0               	movlw	192
 10662  1CB1  047C               	iorwf	LCDGoto@pos,w
 10663  1CB2  00FA               	movwf	_LCDGoto$230
 10664  1CB3  3000               	movlw	0
 10665  1CB4  00FB               	movwf	_LCDGoto$230+1
 10666  1CB5                     l3560:
 10667  1CB5  087A               	movf	_LCDGoto$230,w
 10668  1CB6  160A  158A  24C5  160A  158A  	fcall	_LCDPutCmd
 10669  1CBB                     l3562:
 10670                           
 10671                           ;lcd.c: 159:     _delay((unsigned long)((5)*(8000000/4000.0)));
 10672  1CBB  300D               	movlw	13
 10673  1CBC  00F9               	movwf	??_LCDGoto+1
 10674  1CBD  30FB               	movlw	251
 10675  1CBE  00F8               	movwf	??_LCDGoto
 10676  1CBF                     u6277:
 10677  1CBF  0BF8               	decfsz	??_LCDGoto,f
 10678  1CC0  2CBF               	goto	u6277
 10679  1CC1  0BF9               	decfsz	??_LCDGoto+1,f
 10680  1CC2  2CBF               	goto	u6277
 10681  1CC3  2CC4               	nop2
 10682  1CC4                     l139:
 10683  1CC4  0008               	return
 10684  1CC5                     __end_of_LCDGoto:
 10685                           
 10686                           	psect	text33
 10687  1CC5                     __ptext33:	
 10688 ;; *************** function _LCDPutCmd *****************
 10689 ;; Defined at:
 10690 ;;		line 117 in file "lcd.c"
 10691 ;; Parameters:    Size  Location     Type
 10692 ;;  ch              1    wreg     unsigned char 
 10693 ;; Auto vars:     Size  Location     Type
 10694 ;;  ch              1    6[COMMON] unsigned char 
 10695 ;; Return value:  Size  Location     Type
 10696 ;;                  1    wreg      void 
 10697 ;; Registers used:
 10698 ;;		wreg, status,2, status,0, pclath, cstack
 10699 ;; Tracked objects:
 10700 ;;		On entry : 0/0
 10701 ;;		On exit  : 0/0
 10702 ;;		Unchanged: 0/0
 10703 ;; Data sizes:     COMMON   BANK0   BANK1   BANK3   BANK2
 10704 ;;      Params:         0       0       0       0       0
 10705 ;;      Locals:         1       0       0       0       0
 10706 ;;      Temps:          2       0       0       0       0
 10707 ;;      Totals:         3       0       0       0       0
 10708 ;;Total ram usage:        3 bytes
 10709 ;; Hardware stack levels used: 1
 10710 ;; Hardware stack levels required when called: 1
 10711 ;; This function calls:
 10712 ;;		_LCDWriteNibble
 10713 ;; This function is called by:
 10714 ;;		_LCD_Initialize
 10715 ;;		_LCDGoto
 10716 ;;		_LCDPutStr2
 10717 ;; This function uses a non-reentrant model
 10718 ;;
 10719                           
 10720  1CC5                     _LCDPutCmd:	
 10721                           ;psect for function _LCDPutCmd
 10722                           
 10723                           
 10724                           ;incstack = 0
 10725                           ; Regs used in _LCDPutCmd: [wreg+status,2+status,0+pclath+cstack]
 10726                           ;LCDPutCmd@ch stored from wreg
 10727  1CC5  00F6               	movwf	LCDPutCmd@ch
 10728  1CC6                     l3242:
 10729                           
 10730                           ;lcd.c: 117: void LCDPutCmd(uint8_t ch);lcd.c: 118: {;lcd.c: 119:     _delay((unsigned l
      +                          ong)((5)*(8000000/4000.0)));
 10731  1CC6  300D               	movlw	13
 10732  1CC7  00F5               	movwf	??_LCDPutCmd+1
 10733  1CC8  30FB               	movlw	251
 10734  1CC9  00F4               	movwf	??_LCDPutCmd
 10735  1CCA                     u6287:
 10736  1CCA  0BF4               	decfsz	??_LCDPutCmd,f
 10737  1CCB  2CCA               	goto	u6287
 10738  1CCC  0BF5               	decfsz	??_LCDPutCmd+1,f
 10739  1CCD  2CCA               	goto	u6287
 10740  1CCE  2CCF               	nop2
 10741  1CCF                     l3244:
 10742                           
 10743                           ;lcd.c: 122:     LCDWriteNibble(ch,0);
 10744  1CCF  01F0               	clrf	LCDWriteNibble@rs
 10745  1CD0  0876               	movf	LCDPutCmd@ch,w
 10746  1CD1  160A  158A  2390  160A  158A  	fcall	_LCDWriteNibble
 10747  1CD6                     l3246:
 10748                           
 10749                           ;lcd.c: 125:     ch = (ch << 4);
 10750  1CD6  0876               	movf	LCDPutCmd@ch,w
 10751  1CD7  00F4               	movwf	??_LCDPutCmd
 10752  1CD8  3003               	movlw	3
 10753  1CD9                     u5395:
 10754  1CD9  1003               	clrc
 10755  1CDA  0DF4               	rlf	??_LCDPutCmd,f
 10756  1CDB  3EFF               	addlw	-1
 10757  1CDC  1D03               	skipz
 10758  1CDD  2CD9               	goto	u5395
 10759  1CDE  1003               	clrc
 10760  1CDF  0D74               	rlf	??_LCDPutCmd,w
 10761  1CE0  00F5               	movwf	??_LCDPutCmd+1
 10762  1CE1  0875               	movf	??_LCDPutCmd+1,w
 10763  1CE2  00F6               	movwf	LCDPutCmd@ch
 10764  1CE3                     l3248:
 10765                           
 10766                           ;lcd.c: 127:     _delay((unsigned long)((1)*(8000000/4000.0)));
 10767  1CE3  3003               	movlw	3
 10768  1CE4  00F5               	movwf	??_LCDPutCmd+1
 10769  1CE5  3097               	movlw	151
 10770  1CE6  00F4               	movwf	??_LCDPutCmd
 10771  1CE7                     u6297:
 10772  1CE7  0BF4               	decfsz	??_LCDPutCmd,f
 10773  1CE8  2CE7               	goto	u6297
 10774  1CE9  0BF5               	decfsz	??_LCDPutCmd+1,f
 10775  1CEA  2CE7               	goto	u6297
 10776  1CEB  2CEC               	nop2
 10777  1CEC                     l3250:
 10778                           
 10779                           ;lcd.c: 130:     LCDWriteNibble(ch,0);
 10780  1CEC  01F0               	clrf	LCDWriteNibble@rs
 10781  1CED  0876               	movf	LCDPutCmd@ch,w
 10782  1CEE  160A  158A  2390  160A  158A  	fcall	_LCDWriteNibble
 10783  1CF3                     l127:
 10784  1CF3  0008               	return
 10785  1CF4                     __end_of_LCDPutCmd:
 10786                           
 10787                           	psect	text34
 10788  1B90                     __ptext34:	
 10789 ;; *************** function _LCDWriteNibble *****************
 10790 ;; Defined at:
 10791 ;;		line 75 in file "lcd.c"
 10792 ;; Parameters:    Size  Location     Type
 10793 ;;  ch              1    wreg     unsigned char 
 10794 ;;  rs              1    0[COMMON] unsigned char 
 10795 ;; Auto vars:     Size  Location     Type
 10796 ;;  ch              1    3[COMMON] unsigned char 
 10797 ;; Return value:  Size  Location     Type
 10798 ;;                  1    wreg      void 
 10799 ;; Registers used:
 10800 ;;		wreg, status,2, status,0
 10801 ;; Tracked objects:
 10802 ;;		On entry : 0/0
 10803 ;;		On exit  : 0/0
 10804 ;;		Unchanged: 0/0
 10805 ;; Data sizes:     COMMON   BANK0   BANK1   BANK3   BANK2
 10806 ;;      Params:         1       0       0       0       0
 10807 ;;      Locals:         1       0       0       0       0
 10808 ;;      Temps:          2       0       0       0       0
 10809 ;;      Totals:         4       0       0       0       0
 10810 ;;Total ram usage:        4 bytes
 10811 ;; Hardware stack levels used: 1
 10812 ;; This function calls:
 10813 ;;		Nothing
 10814 ;; This function is called by:
 10815 ;;		_LCDPutChar
 10816 ;;		_LCDPutCmd
 10817 ;; This function uses a non-reentrant model
 10818 ;;
 10819                           
 10820  1B90                     _LCDWriteNibble:	
 10821                           ;psect for function _LCDWriteNibble
 10822                           
 10823                           
 10824                           ;incstack = 0
 10825                           ; Regs used in _LCDWriteNibble: [wreg+status,2+status,0]
 10826                           ;LCDWriteNibble@ch stored from wreg
 10827  1B90  00F3               	movwf	LCDWriteNibble@ch
 10828  1B91                     l2870:
 10829                           
 10830                           ;lcd.c: 75: void LCDWriteNibble(uint8_t ch,uint8_t rs);lcd.c: 76: {;lcd.c: 78:     ch = 
      +                          (ch >> 4);
 10831  1B91  0873               	movf	LCDWriteNibble@ch,w
 10832  1B92  00F1               	movwf	??_LCDWriteNibble
 10833  1B93  3004               	movlw	4
 10834  1B94                     u4335:
 10835  1B94  1003               	clrc
 10836  1B95  0CF1               	rrf	??_LCDWriteNibble,f
 10837  1B96  3EFF               	addlw	-1
 10838  1B97  1D03               	skipz
 10839  1B98  2B94               	goto	u4335
 10840  1B99  0871               	movf	??_LCDWriteNibble,w
 10841  1B9A  00F2               	movwf	??_LCDWriteNibble+1
 10842  1B9B  0872               	movf	??_LCDWriteNibble+1,w
 10843  1B9C  00F3               	movwf	LCDWriteNibble@ch
 10844  1B9D                     l2872:
 10845                           
 10846                           ;lcd.c: 81:     ch = (ch & 0x0F);
 10847  1B9D  0873               	movf	LCDWriteNibble@ch,w
 10848  1B9E  390F               	andlw	15
 10849  1B9F  00F1               	movwf	??_LCDWriteNibble
 10850  1BA0  0871               	movf	??_LCDWriteNibble,w
 10851  1BA1  00F3               	movwf	LCDWriteNibble@ch
 10852  1BA2                     l2874:
 10853                           
 10854                           ;lcd.c: 84:     PORTD = (PORTD & 0xF0);
 10855  1BA2  1283               	bcf	3,5	;RP0=0, select bank0
 10856  1BA3  1303               	bcf	3,6	;RP1=0, select bank0
 10857  1BA4  0808               	movf	8,w	;volatile
 10858  1BA5  39F0               	andlw	240
 10859  1BA6  0088               	movwf	8	;volatile
 10860                           
 10861                           ;lcd.c: 87:     PORTD = (PORTD | ch);
 10862  1BA7  0808               	movf	8,w	;volatile
 10863  1BA8  0473               	iorwf	LCDWriteNibble@ch,w
 10864  1BA9  0088               	movwf	8	;volatile
 10865  1BAA                     l2876:
 10866                           
 10867                           ;lcd.c: 90:     PORTDbits.RD4 = rs;
 10868  1BAA  0C70               	rrf	LCDWriteNibble@rs,w
 10869  1BAB  1C03               	skipc
 10870  1BAC  1208               	bcf	8,4	;volatile
 10871  1BAD  1803               	skipnc
 10872  1BAE  1608               	bsf	8,4	;volatile
 10873  1BAF                     l2878:
 10874                           
 10875                           ;lcd.c: 93:     PORTDbits.RD5 = 0;
 10876  1BAF  1288               	bcf	8,5	;volatile
 10877  1BB0                     l2880:
 10878                           
 10879                           ;lcd.c: 96:     PORTDbits.RD6 = 1;
 10880  1BB0  1708               	bsf	8,6	;volatile
 10881  1BB1                     l2882:
 10882                           
 10883                           ;lcd.c: 99:     PORTDbits.RD6 = 0;
 10884  1BB1  1308               	bcf	8,6	;volatile
 10885  1BB2                     l121:
 10886  1BB2  0008               	return
 10887  1BB3                     __end_of_LCDWriteNibble:
 10888                           
 10889                           	psect	text35
 10890  1B39                     __ptext35:	
 10891 ;; *************** function _Initialize_UART *****************
 10892 ;; Defined at:
 10893 ;;		line 31 in file "newmain.c"
 10894 ;; Parameters:    Size  Location     Type
 10895 ;;		None
 10896 ;; Auto vars:     Size  Location     Type
 10897 ;;		None
 10898 ;; Return value:  Size  Location     Type
 10899 ;;                  1    wreg      void 
 10900 ;; Registers used:
 10901 ;;		wreg
 10902 ;; Tracked objects:
 10903 ;;		On entry : 0/0
 10904 ;;		On exit  : 0/0
 10905 ;;		Unchanged: 0/0
 10906 ;; Data sizes:     COMMON   BANK0   BANK1   BANK3   BANK2
 10907 ;;      Params:         0       0       0       0       0
 10908 ;;      Locals:         0       0       0       0       0
 10909 ;;      Temps:          0       0       0       0       0
 10910 ;;      Totals:         0       0       0       0       0
 10911 ;;Total ram usage:        0 bytes
 10912 ;; Hardware stack levels used: 1
 10913 ;; This function calls:
 10914 ;;		Nothing
 10915 ;; This function is called by:
 10916 ;;		_main
 10917 ;; This function uses a non-reentrant model
 10918 ;;
 10919                           
 10920  1B39                     _Initialize_UART:	
 10921                           ;psect for function _Initialize_UART
 10922                           
 10923  1B39                     l3496:	
 10924                           ;incstack = 0
 10925                           ; Regs used in _Initialize_UART: [wreg]
 10926                           
 10927                           
 10928                           ;newmain.c: 33:     TRISC6 = 0;
 10929  1B39  1683               	bsf	3,5	;RP0=1, select bank1
 10930  1B3A  1303               	bcf	3,6	;RP1=0, select bank1
 10931  1B3B  1307               	bcf	7,6	;volatile
 10932                           
 10933                           ;newmain.c: 34:     TRISC7 = 1;
 10934  1B3C  1787               	bsf	7,7	;volatile
 10935  1B3D                     l3498:
 10936                           
 10937                           ;newmain.c: 35:     SPBRG = ((8000000/16)/9600) - 1;
 10938  1B3D  3033               	movlw	51
 10939  1B3E  0099               	movwf	25	;volatile
 10940  1B3F                     l3500:
 10941                           
 10942                           ;newmain.c: 36:     BRGH = 1;
 10943  1B3F  1518               	bsf	24,2	;volatile
 10944  1B40                     l3502:
 10945                           
 10946                           ;newmain.c: 37:     SYNC = 0;
 10947  1B40  1218               	bcf	24,4	;volatile
 10948  1B41                     l3504:
 10949                           
 10950                           ;newmain.c: 38:     SPEN = 1;
 10951  1B41  1283               	bcf	3,5	;RP0=0, select bank0
 10952  1B42  1303               	bcf	3,6	;RP1=0, select bank0
 10953  1B43  1798               	bsf	24,7	;volatile
 10954  1B44                     l3506:
 10955                           
 10956                           ;newmain.c: 39:     TXEN = 1;
 10957  1B44  1683               	bsf	3,5	;RP0=1, select bank1
 10958  1B45  1303               	bcf	3,6	;RP1=0, select bank1
 10959  1B46  1698               	bsf	24,5	;volatile
 10960  1B47                     l3508:
 10961                           
 10962                           ;newmain.c: 40:     CREN = 1;
 10963  1B47  1283               	bcf	3,5	;RP0=0, select bank0
 10964  1B48  1303               	bcf	3,6	;RP1=0, select bank0
 10965  1B49  1618               	bsf	24,4	;volatile
 10966  1B4A                     l3510:
 10967                           
 10968                           ;newmain.c: 41:     TX9 = 0;
 10969  1B4A  1683               	bsf	3,5	;RP0=1, select bank1
 10970  1B4B  1303               	bcf	3,6	;RP1=0, select bank1
 10971  1B4C  1318               	bcf	24,6	;volatile
 10972  1B4D                     l3512:
 10973                           
 10974                           ;newmain.c: 42:     RX9 = 0;
 10975  1B4D  1283               	bcf	3,5	;RP0=0, select bank0
 10976  1B4E  1303               	bcf	3,6	;RP1=0, select bank0
 10977  1B4F  1318               	bcf	24,6	;volatile
 10978  1B50                     l59:
 10979  1B50  0008               	return
 10980  1B51                     __end_of_Initialize_UART:
 10981                           
 10982                           	psect	text36
 10983  1B2A                     __ptext36:	
 10984 ;; *************** function _ADCInit *****************
 10985 ;; Defined at:
 10986 ;;		line 69 in file "newmain.c"
 10987 ;; Parameters:    Size  Location     Type
 10988 ;;		None
 10989 ;; Auto vars:     Size  Location     Type
 10990 ;;		None
 10991 ;; Return value:  Size  Location     Type
 10992 ;;                  1    wreg      void 
 10993 ;; Registers used:
 10994 ;;		wreg, status,2
 10995 ;; Tracked objects:
 10996 ;;		On entry : 0/0
 10997 ;;		On exit  : 0/0
 10998 ;;		Unchanged: 0/0
 10999 ;; Data sizes:     COMMON   BANK0   BANK1   BANK3   BANK2
 11000 ;;      Params:         0       0       0       0       0
 11001 ;;      Locals:         0       0       0       0       0
 11002 ;;      Temps:          0       0       0       0       0
 11003 ;;      Totals:         0       0       0       0       0
 11004 ;;Total ram usage:        0 bytes
 11005 ;; Hardware stack levels used: 1
 11006 ;; This function calls:
 11007 ;;		Nothing
 11008 ;; This function is called by:
 11009 ;;		_main
 11010 ;; This function uses a non-reentrant model
 11011 ;;
 11012                           
 11013  1B2A                     _ADCInit:	
 11014                           ;psect for function _ADCInit
 11015                           
 11016  1B2A                     l3514:	
 11017                           ;incstack = 0
 11018                           ; Regs used in _ADCInit: [wreg+status,2]
 11019                           
 11020                           
 11021                           ;newmain.c: 71:     ANSELbits.ANS0 = 1;
 11022  1B2A  1683               	bsf	3,5	;RP0=1, select bank3
 11023  1B2B  1703               	bsf	3,6	;RP1=1, select bank3
 11024  1B2C  1408               	bsf	8,0	;volatile
 11025  1B2D                     l3516:
 11026                           
 11027                           ;newmain.c: 76:     ADCON0 = 0x00;
 11028  1B2D  1283               	bcf	3,5	;RP0=0, select bank0
 11029  1B2E  1303               	bcf	3,6	;RP1=0, select bank0
 11030  1B2F  019F               	clrf	31	;volatile
 11031  1B30                     l3518:
 11032                           
 11033                           ;newmain.c: 77:     ADCON1 = 0x80;
 11034  1B30  3080               	movlw	128
 11035  1B31  1683               	bsf	3,5	;RP0=1, select bank1
 11036  1B32  1303               	bcf	3,6	;RP1=0, select bank1
 11037  1B33  009F               	movwf	31	;volatile
 11038  1B34                     l3520:
 11039                           
 11040                           ;newmain.c: 78:     ADRESL = 0;
 11041  1B34  019E               	clrf	30	;volatile
 11042  1B35                     l3522:
 11043                           
 11044                           ;newmain.c: 79:     ADRESH = 0;
 11045  1B35  1283               	bcf	3,5	;RP0=0, select bank0
 11046  1B36  1303               	bcf	3,6	;RP1=0, select bank0
 11047  1B37  019E               	clrf	30	;volatile
 11048  1B38                     l87:
 11049  1B38  0008               	return
 11050  1B39                     __end_of_ADCInit:
 11051  0002                     
 11052                           	psect	functab
 11053  0003                     __pfunctab:
 11054  0003                     __fptable:
 11055  0003                     fptable:
 11056  0003  00FF               	movwf	(btemp+1)& (0+127)
 11057  0004  3000               	movlw	high fptable
 11058  0005  008A               	movwf	10
 11059  0006  087F               	movf	(btemp+1)& (0+127),w
 11060  0007  0782               	addwf	2,f
 11061  0008                     fpbase:
 11062  0008  2808               	goto	fpbase	; Call via a null pointer and you will get stuck here.
 11063  0009                     fp__putch:
 11064  0009  160A  158A  2B1D   	ljmp	_putch
 11065  000C                     __end_of__fptable:
 11066  007E                     btemp	set	126	;btemp
 11067  007E                     wtemp0	set	126
 11068                           
 11069                           	psect	idloc
 11070                           
 11071                           ;Config register IDLOC0 @ 0x2000
 11072                           ;	unspecified, using default values
 11073  2000                     	org	8192
 11074  2000  3FFF               	dw	16383
 11075                           
 11076                           ;Config register IDLOC1 @ 0x2001
 11077                           ;	unspecified, using default values
 11078  2001                     	org	8193
 11079  2001  3FFF               	dw	16383
 11080                           
 11081                           ;Config register IDLOC2 @ 0x2002
 11082                           ;	unspecified, using default values
 11083  2002                     	org	8194
 11084  2002  3FFF               	dw	16383
 11085                           
 11086                           ;Config register IDLOC3 @ 0x2003
 11087                           ;	unspecified, using default values
 11088  2003                     	org	8195
 11089  2003  3FFF               	dw	16383
 11090                           
 11091                           	psect	config
 11092                           
 11093                           ;Config register CONFIG1 @ 0x2007
 11094                           ;	Oscillator Selection bits
 11095                           ;	FOSC = INTRC_NOCLKOUT, INTOSCIO oscillator: I/O function on RA6/OSC2/CLKOUT pin, I/O f
      +                          unction on RA7/OSC1/CLKIN
 11096                           ;	Watchdog Timer Enable bit
 11097                           ;	WDTE = OFF, WDT disabled and can be enabled by SWDTEN bit of the WDTCON register
 11098                           ;	Power-up Timer Enable bit
 11099                           ;	PWRTE = OFF, PWRT disabled
 11100                           ;	RE3/MCLR pin function select bit
 11101                           ;	MCLRE = OFF, RE3/MCLR pin function is digital input, MCLR internally tied to VDD
 11102                           ;	Code Protection bit
 11103                           ;	CP = OFF, Program memory code protection is disabled
 11104                           ;	Data Code Protection bit
 11105                           ;	CPD = OFF, Data memory code protection is disabled
 11106                           ;	Brown Out Reset Selection bits
 11107                           ;	BOREN = OFF, BOR disabled
 11108                           ;	Internal External Switchover bit
 11109                           ;	IESO = OFF, Internal/External Switchover mode is disabled
 11110                           ;	Fail-Safe Clock Monitor Enabled bit
 11111                           ;	FCMEN = OFF, Fail-Safe Clock Monitor is disabled
 11112                           ;	Low Voltage Programming Enable bit
 11113                           ;	LVP = OFF, RB3 pin has digital I/O, HV on MCLR must be used for programming
 11114                           ;	In-Circuit Debugger Mode bit
 11115                           ;	DEBUG = 0x1, unprogrammed default
 11116  2007                     	org	8199
 11117  2007  20D4               	dw	8404
 11118                           
 11119                           ;Config register CONFIG2 @ 0x2008
 11120                           ;	Brown-out Reset Selection bit
 11121                           ;	BOR4V = BOR40V, Brown-out Reset set to 4.0V
 11122                           ;	Flash Program Memory Self Write Enable bits
 11123                           ;	WRT = OFF, Write protection off
 11124  2008                     	org	8200
 11125  2008  3FFF               	dw	16383

Data Sizes:
    Strings     29
    Constant    144
    Data        0
    BSS         24
    Persistent  0
    Stack       0

Auto Spaces:
    Space          Size  Autos    Used
    COMMON           14     14      14
    BANK0            80     80      80
    BANK1            80     44      68
    BANK3            96      0       0
    BANK2            96      0       0

Pointer List with Targets:

    sprintf@f	PTR const unsigned char  size(1) Largest target is 18
		 -> STR_1(CODE[18]), 

    sprintf@ap	PTR void [1] size(1) Largest target is 2
		 -> ?_sprintf(BANK1[2]), ?_printf(BANK1[2]), 

    sprintf@wh	PTR unsigned char  size(1) Largest target is 20
		 -> buffer(BANK1[20]), 

    pb.func	PTR FTN(unsigned char ,)void  size(1) Largest target is 1
		 -> Absolute function(), putch(), 

    pb.ptr	PTR unsigned char  size(1) Largest target is 20
		 -> NULL(NULL[0]), buffer(BANK1[20]), 

    _doprnt@ap	PTR PTR void  size(1) Largest target is 1
		 -> sprintf@ap(BANK1[1]), printf@ap(BANK1[1]), 

    _doprnt@f	PTR const unsigned char  size(1) Largest target is 18
		 -> STR_2(CODE[11]), STR_1(CODE[18]), 

    _doprnt@pb.func	PTR FTN(unsigned char ,)void  size(1) Largest target is 1
		 -> Absolute function(), putch(), 

    _doprnt@pb.ptr	PTR unsigned char  size(1) Largest target is 20
		 -> NULL(NULL[0]), buffer(BANK1[20]), 

    _doprnt@pb	PTR struct __prbuf size(1) Largest target is 3
		 -> sprintf@pb(BANK1[2]), printf@pb(BANK1[2]), 

    printf@f	PTR const unsigned char  size(1) Largest target is 11
		 -> STR_2(CODE[11]), 

    printf@ap	PTR void [1] size(1) Largest target is 2
		 -> ?_sprintf(BANK1[2]), ?_printf(BANK1[2]), 

    S679__prbuf$func	PTR FTN(unsigned char ,)void  size(1) Largest target is 1
		 -> Absolute function(), putch(), 

    pb.func	PTR FTN(unsigned char ,)void  size(1) Largest target is 1
		 -> Absolute function(), putch(), 

    S679__prbuf$ptr	PTR unsigned char  size(1) Largest target is 20
		 -> NULL(NULL[0]), buffer(BANK1[20]), 

    pb.ptr	PTR unsigned char  size(1) Largest target is 20
		 -> NULL(NULL[0]), buffer(BANK1[20]), 

    LCDPutStr@str	PTR const unsigned char  size(1) Largest target is 20
		 -> buffer(BANK1[20]), 


Critical Paths under _main in COMMON

    __doprnt->___lldiv
    ___awdiv->___awmod
    _putch->_UART_send_char
    _fround->___lwdiv
    ___lwdiv->___lwmod
    ___flmul->___lwdiv
    ___xxtofl->_get_val
    ___fldiv->___xxtofl
    _LCD_Initialize->_LCDPutCmd
    _LCDPutStr->_LCDPutChar
    _LCDPutChar->_LCDWriteNibble
    _LCDGoto->_LCDPutCmd
    _LCDPutCmd->_LCDWriteNibble

Critical Paths under _main in BANK0

    _sprintf->__doprnt
    _printf->__doprnt
    __doprnt->___flsub
    _scale->___flmul
    _fround->___flmul
    ___flmul->___awdiv
    ___fltol->_scale
    ___flsub->___fladd
    ___fladd->_fround
    ___fldiv->___xxtofl

Critical Paths under _main in BANK1

    _main->_sprintf
    _sprintf->__doprnt
    _printf->__doprnt

Critical Paths under _main in BANK3

    None.

Critical Paths under _main in BANK2

    None.

Call Graph Tables:

 ---------------------------------------------------------------------------------
 (Depth) Function   	        Calls       Base Space   Used Autos Params    Refs
 ---------------------------------------------------------------------------------
 (0) _main                                                 4     4      0   67507
                                             40 BANK1      4     4      0
                            _ADCInit
                    _Initialize_UART
                            _LCDGoto
                          _LCDPutStr
                     _LCD_Initialize
                            ___fldiv
                           ___xxtofl
                            _get_val
                             _printf
                            _sprintf
 ---------------------------------------------------------------------------------
 (1) _sprintf                                             11     6      5   32088
                                             29 BANK1     11     6      5
                            __doprnt
 ---------------------------------------------------------------------------------
 (1) _printf                                              10     6      4   31956
                                             29 BANK1     10     6      4
                            __doprnt
 ---------------------------------------------------------------------------------
 (2) __doprnt                                             38    36      2   31789
                                             78 BANK0      2     0      2
                                              0 BANK1     29    29      0
                   Absolute function *
                            ___awdiv
                            ___fladd
                             ___fleq
                             ___flge
                            ___flmul
                            ___flneg
                            ___flsub
                            ___fltol
                            ___lldiv
                            ___llmod
                             ___wmul
                           ___xxtofl
                         __div_to_l_
                        __tdiv_to_l_
                             _fround
                            _isdigit
                              _putch *
                              _scale
 ---------------------------------------------------------------------------------
 (3) _scale                                               19    15      4    7408
                                             30 BANK0     19    15      4
                            ___awdiv
                            ___awmod
                            ___flmul
 ---------------------------------------------------------------------------------
 (4) ___awmod                                              7     3      4    1208
                                              0 COMMON     7     3      4
 ---------------------------------------------------------------------------------
 (4) ___awdiv                                              9     5      4    1364
                                              7 COMMON     5     1      4
                                              0 BANK0      4     4      0
                            ___awmod (ARG)
 ---------------------------------------------------------------------------------
 (3) _putch                                                1     0      1     468
                                              1 COMMON     1     0      1
                     _UART_send_char
 ---------------------------------------------------------------------------------
 (4) _UART_send_char                                       1     1      0      22
                                              0 COMMON     1     1      0
 ---------------------------------------------------------------------------------
 (3) _isdigit                                              2     2      0      68
                                              0 COMMON     2     2      0
 ---------------------------------------------------------------------------------
 (3) _fround                                              20    16      4    5871
                                             30 BANK0     20    16      4
                            ___flmul
                            ___lwdiv
                            ___lwmod
 ---------------------------------------------------------------------------------
 (4) ___lwmod                                              6     2      4     615
                                              0 COMMON     6     2      4
 ---------------------------------------------------------------------------------
 (4) ___lwdiv                                              8     4      4     618
                                              6 COMMON     8     4      4
                            ___lwmod (ARG)
 ---------------------------------------------------------------------------------
 (4) ___flmul                                             26    18      8    4393
                                              4 BANK0     26    18      8
                          __Umul8_16
                            ___awdiv (ARG)
                            ___awmod (ARG)
                            ___lwdiv (ARG)
                            ___lwmod (ARG)
 ---------------------------------------------------------------------------------
 (5) __Umul8_16                                            9     7      2     799
                                              0 COMMON     9     7      2
 ---------------------------------------------------------------------------------
 (3) __tdiv_to_l_                                         18    10      8     455
                                              0 COMMON    12     4      8
                                              0 BANK0      6     6      0
 ---------------------------------------------------------------------------------
 (3) __div_to_l_                                          15     7      8     455
                                              0 COMMON     9     1      8
                                              0 BANK0      6     6      0
 ---------------------------------------------------------------------------------
 (3) ___xxtofl                                            14    10      4     474
                                              4 COMMON     8     4      4
                                              0 BANK0      6     6      0
                            _get_val (ARG)
 ---------------------------------------------------------------------------------
 (3) ___wmul                                               6     2      4     396
                                              0 COMMON     6     2      4
 ---------------------------------------------------------------------------------
 (3) ___llmod                                             10     2      8     615
                                              0 COMMON    10     2      8
 ---------------------------------------------------------------------------------
 (3) ___lldiv                                             14     6      8     466
                                              0 COMMON    14     6      8
 ---------------------------------------------------------------------------------
 (3) ___fltol                                             11     7      4     457
                                             49 BANK0     11     7      4
                            ___flmul (ARG)
                              _scale (ARG)
 ---------------------------------------------------------------------------------
 (3) ___flsub                                              8     0      8    2485
                                             70 BANK0      8     0      8
                            ___fladd
                           ___xxtofl (ARG)
 ---------------------------------------------------------------------------------
 (4) ___fladd                                             20    12      8    2288
                                             50 BANK0     20    12      8
                             _fround (ARG)
 ---------------------------------------------------------------------------------
 (3) ___flneg                                              4     0      4     121
                                              0 COMMON     4     0      4
 ---------------------------------------------------------------------------------
 (3) ___flge                                              12     4      8     790
                                              0 COMMON    12     4      8
 ---------------------------------------------------------------------------------
 (3) ___fleq                                              12     4      8     394
                                              0 COMMON    12     4      8
 ---------------------------------------------------------------------------------
 (3) Absolute function(Fake)                               1     0      1       0
 ---------------------------------------------------------------------------------
 (1) _get_val                                              4     2      2       0
                                              0 COMMON     4     2      2
 ---------------------------------------------------------------------------------
 (1) ___fldiv                                             26    18      8    1273
                                              6 BANK0     26    18      8
                           ___xxtofl (ARG)
                            _get_val (ARG)
 ---------------------------------------------------------------------------------
 (1) _LCD_Initialize                                       2     2      0     461
                                              7 COMMON     2     2      0
                          _LCDPutCmd
 ---------------------------------------------------------------------------------
 (1) _LCDPutStr                                            3     3      0     584
                                              7 COMMON     3     3      0
                         _LCDPutChar
 ---------------------------------------------------------------------------------
 (2) _LCDPutChar                                           3     3      0     461
                                              4 COMMON     3     3      0
                     _LCDWriteNibble
 ---------------------------------------------------------------------------------
 (1) _LCDGoto                                              6     5      1     671
                                              7 COMMON     6     5      1
                          _LCDPutCmd
 ---------------------------------------------------------------------------------
 (2) _LCDPutCmd                                            3     3      0     461
                                              4 COMMON     3     3      0
                     _LCDWriteNibble
 ---------------------------------------------------------------------------------
 (3) _LCDWriteNibble                                       4     3      1     394
                                              0 COMMON     4     3      1
 ---------------------------------------------------------------------------------
 (1) _Initialize_UART                                      0     0      0       0
 ---------------------------------------------------------------------------------
 (1) _ADCInit                                              0     0      0       0
 ---------------------------------------------------------------------------------
 Estimated maximum stack depth 5
 ---------------------------------------------------------------------------------

 Call Graph Graphs:

 _main (ROOT)
   _ADCInit
   _Initialize_UART
   _LCDGoto
     _LCDPutCmd
       _LCDWriteNibble
   _LCDPutStr
     _LCDPutChar
       _LCDWriteNibble
   _LCD_Initialize
     _LCDPutCmd
   ___fldiv
     ___xxtofl (ARG)
       _get_val (ARG)
     _get_val (ARG)
   ___xxtofl
   _get_val
   _printf
     __doprnt
       Absolute function(Fake) *
       ___awdiv *
         ___awmod (ARG)
       ___fladd *
         _fround (ARG)
           ___flmul
             __Umul8_16
             ___awdiv (ARG)
             ___awmod (ARG)
             ___lwdiv (ARG)
               ___lwmod (ARG)
             ___lwmod (ARG)
           ___lwdiv
           ___lwmod
       ___fleq *
       ___flge *
       ___flmul *
       ___flneg *
       ___flsub *
         ___fladd
         ___xxtofl (ARG)
       ___fltol *
         ___flmul (ARG)
         _scale (ARG)
           ___awdiv
           ___awmod
           ___flmul
       ___lldiv *
       ___llmod *
       ___wmul *
       ___xxtofl *
       __div_to_l_ *
       __tdiv_to_l_ *
       _fround *
       _isdigit *
       _putch *
         _UART_send_char
       _scale *
   _sprintf
     __doprnt

 Address spaces:
Name               Size   Autos  Total    Cost      Usage
BITCOMMON            E      0       0       0        0.0%
EEDATA             100      0       0       0        0.0%
NULL                 0      0       0       0        0.0%
CODE                 0      0       0       0        0.0%
COMMON               E      E       E       1      100.0%
BITSFR0              0      0       0       1        0.0%
SFR0                 0      0       0       1        0.0%
BITSFR1              0      0       0       2        0.0%
SFR1                 0      0       0       2        0.0%
STACK                0      0       0       2        0.0%
ABS                  0      0      A2       3        0.0%
BITBANK0            50      0       0       4        0.0%
BITSFR3              0      0       0       4        0.0%
SFR3                 0      0       0       4        0.0%
BANK0               50     50      50       5      100.0%
BITSFR2              0      0       0       5        0.0%
SFR2                 0      0       0       5        0.0%
BITBANK1            50      0       0       6        0.0%
BANK1               50     2C      44       7       85.0%
BITBANK3            60      0       0       8        0.0%
BANK3               60      0       0       9        0.0%
BITBANK2            60      0       0      10        0.0%
BANK2               60      0       0      11        0.0%
DATA                 0      0      A2      12        0.0%


Microchip Technology PIC Macro Assembler V2.36 build 20220127204148 
Symbol Table                                                                                   Thu Jun 16 11:50:24 2022

           ___fldiv@aexp 003F             ___fldiv@bexp 003E           _LCD_Initialize 1CF4  
                      pc 0002             ___fldiv@sign 0037              ?_LCDPutChar 0070  
                     l62 1B09                       l65 1B11                       l81 1B1D  
                     l90 1BEF                       l59 1B50                       l84 1B29  
                     l93 1BFB                       l87 1B38             ___awdiv@sign 0021  
                     fsr 0004      ___wmul@multiplicand 0072      __Umul8_16@word_mpld 0076  
                    l121 1BB2                      l124 1C96                      l133 1B6E  
                    l118 1D23                      l127 1CF3                      l242 1C08  
                    l139 1CC4                      l411 1DBE                      l412 1DDA  
                    l420 00B0                      l244 1C20                      l413 1DEF  
                    l416 002B                      l424 1B1C                      l408 1E9C  
                    l514 1DA1                      l419 0097                      l435 086C  
                    l428 0881                      l524 1D5D                      l613 1350  
                    l541 1659                      l438 0881                      l278 1F02  
                    l615 1360                      l607 12DE                      l535 15DB  
                    l631 0FFF                      l560 1771                      l464 1E43  
                    l650 1C35                      l539 1682                      l643 0FF3  
                    l395 1F6B                      l556 174D                      l548 17FF  
                    l652 1C47                      l724 0C9E                      l812 078C  
                    l581 1BD6                      l637 0F6B                      l717 1577  
                    l805 0771                      l566 1793                      l830 0902  
                    l822 07F2                      l591 11EC                      l593 136C  
                    l577 17F3                      l569 17D1                      l681 1080  
                    l578 17FF                      l826 093F                      l675 103B  
                    l827 08A4                      l843 118F                      l747 0149  
                    l844 1101                      l677 10D2                      l837 0932  
                    l861 1016                      l854 1182                      l847 1152  
                    l688 109C                      l792 05D6                      l872 1C6E  
                    l689 10A8                      l699 1B8F                      _RX9 00C6  
                    _TX9 04C6                      fsr0 0004          __end_of_ADCInit 1B39  
                    indf 0000             ___awmod@sign 0076             ___flmul@aexp 0036  
           ___flmul@bexp 0037             ___flmul@sign 0031             ___flmul@temp 003C  
           ___flmul@prod 0038          __end_of_LCDGoto 1CC5             ___fltol@exp1 005B  
                   l3000 1DF8                     l3010 1E2C                     l3002 1DFB  
                   l3020 1BB7                     l3012 1E35                     l3004 1E08  
                   l3100 0A3F                     l3006 1E0C                     l3014 1E3B  
                   l3030 1033                     l3110 0AFB                     l3008 1E1E  
                   l3040 105E                     l3032 1043                     l3024 101A  
                   l2400 1B0F                     l3104 0AC7                     l3018 1BB3  
                   l3050 1092                     l3042 1065                     l3026 101F  
                   l3210 08C9                     l3202 08A5                     l3130 100D  
                   l2410 1F11                     l2402 1F03                     l3122 0C72  
                   l3060 10C5                     l3052 1096                     l3044 1069  
                   l3036 104C                     l3028 1023                     l3220 08FC  
                   l3212 08D2                     l3204 08AD                     l3140 10E6  
                   l2500 1D8F                     l3132 1013                     l2420 1F26  
                   l2412 1F15                     l2404 1F06                     l3116 0BE3  
                   l3108 0AF4                     l3300 0175                     l3062 10C9  
                   l3054 10A0                     l3046 1077                     l3038 1051  
                   l3222 0906                     l3230 0920                     l3214 08E4  
                   l3206 08BE                     l3150 1102                     l2502 1D90  
                   l2510 1D24                     l3070 1376                     l3134 1015  
                   l3126 1006                     l2430 1F49                     l2422 1F29  
                   l2414 1F1A                     l2406 1F0A                     l3118 0BEA  
                   l3310 01C7                     l3302 0179                     l2600 1611  
                   l3064 10CA                     l3056 10AA                     l3048 1087  
                   l3216 08F2                     l3208 08C0                     l3160 112B  
                   l3152 1108                     l3144 10EF                     l2504 1D97  
                   l2520 1D3C                     l2512 1D2A                     l3128 1007  
                   l2440 1F62                     l2432 1F4F                     l2424 1F30  
                   l2416 1F1E                     l2408 1F0F                     l3400 0559  
                   l3320 01F9                     l3312 01CB                     l3304 017D  
                   l3250 1CEC                     l3242 1CC6                     l2602 1615  
                   l2610 1625                     l3058 10C0                     l3218 08F3  
                   l3170 1156                     l3162 1139                     l3154 1117  
                   l3138 10D3                     l2506 1D9D                     l2522 1D46  
                   l2514 1D2D                     l3082 1534                     l2442 1F67  
                   l2434 1F50                     l2426 1F34                     l2418 1F20  
                   l2450 1E49                     l3090 0949                     l3410 0597  
                   l3402 0567                     l3330 0248                     l3322 020C  
                   l3314 01CF                     l3306 0195                     l3500 1B3F  
                   l3244 1CCF                     l3252 1C70                     l2700 179D  
                   l2620 1668                     l2612 1626                     l2604 1619  
                   l2540 158A                     l2532 1578                     l3236 0927  
                   l3228 090E                     l3164 1143                     l3156 1119  
                   l2524 1D4C                     l2516 1D34                     l3076 1483  
                   l3068 1370                     l2436 1F57                     l2428 1F38  
                   l2460 1E5F                     l2452 1E4E                     l3092 0950  
                   l3420 05C9                     l3412 059F                     l3404 0576  
                   l3332 0293                     l3324 021F                     l3316 01E8  
                   l3340 02D8                     l3308 01AE                     l3260 00B4  
                   l3510 1B4A                     l3502 1B40                     l3246 1CD6  
                   l3254 1C79                     l2710 17DB                     l2702 17AB  
                   l2630 1686                     l2622 166C                     l2614 163D  
                   l2606 161D                     l2542 158F                     l2550 159F  
                   l2534 157F                     l3238 0937                     l3190 0882  
                   l3166 1144                     l3158 1122                     l2390 1C2F  
                   l2526 1D53                     l2518 1D38                     l3078 1489  
                   l2438 1F5D                     l2470 1E7B                     l2462 1E62  
                   l2454 1E50                     l2446 1E44                     l3086 0943  
                   l3430 05F9                     l3422 05D0                     l3414 05A5  
                   l3406 0580                     l3350 037F                     l3342 02E7  
                   l3334 02AC                     l3326 0223                     l3318 01F3  
                   l3270 00DA                     l3262 00B5                     l3520 1B34  
                   l3512 1B4D                     l3504 1B41                     l3248 1CE3  
                   l3256 1C81                     l3600 11A1                     l2720 17EF  
                   l2712 17E3                     l2704 17AF                     l2640 16AF  
                   l2632 168B                     l2624 166D                     l2616 165D  
                   l2608 1621                     l2560 15B9                     l2552 15A7  
                   l2544 1594                     l2536 1585                     l3192 088F  
                   l3184 1177                     l3176 115E                     l3168 114C  
                   l2392 1C3E                     l2384 1C22                     l2800 0E8C  
                   l2528 1D59                     l2480 1E98                     l2472 1E81  
                   l2464 1E69                     l2456 1E54                     l2448 1E45  
                   l3088 0947                     l3440 06BD                     l3432 0601  
                   l3424 05DF                     l3408 058A                     l3416 05AD  
                   l3360 03D8                     l3352 038E                     l3344 032E  
                   l3336 02B5                     l3328 0229                     l3280 00FA  
                   l3264 00BB                     l3272 00E1                     l3522 1B35  
                   l3514 1B2A                     l3506 1B44                     l3258 1C8E  
                   l3610 11B5                     l3602 11A2                     l3530 1BF5  
                   l2722 17FA                     l2714 17E8                     l2706 17CD  
                   l2650 16C3                     l2642 16B3                     l2626 1676  
                   l2618 1666                     l2570 15D0                     l2562 15BD  
                   l2554 15AC                     l2546 159C                     l2538 1589  
                   l3186 1187                     l3178 1170                     l2394 1C43  
                   l2386 1C24                     l2810 0F20                     l2802 0E9C  
                   l2730 0CAC                     l2490 1D69                     l2474 1E88  
                   l2466 1E6D                     l2458 1E59                     l3098 0A38  
                   l3442 06DC                     l3450 073E                     l3426 05E4  
                   l3434 0607                     l3418 05BA                     l3370 0482  
                   l3354 03A9                     l3346 033D                     l3338 02D0  
                   l3282 00FF                     l3290 0143                     l3274 00E3  
                   l3266 00C3                     l3516 1B2D                     l3508 1B47  
                   l3540 1D05                     l3700 12DB                     l3620 11CE  
                   l3604 11A7                     l3612 11B7                     l3524 1BD7  
                   l2724 17FE                     l2716 17E9                     l2708 17D6  
                   l2660 172B                     l2652 16CC                     l2644 16BC  
                   l2636 1694                     l2628 167A                     l2580 15E9  
                   l2572 15D1                     l2564 15BE                     l2556 15B2  
                   l2548 159D                     l2900 1EAD                     l3196 0898  
                   l2388 1C2B                     l2820 0F45                     l2812 0F2E  
                   l2804 0EC9                     l2740 0CC3                     l2732 0CB0  
                   l2492 1D70                     l2484 1D5E                     l2468 1E71  
                   l2476 1E8E                     l3460 0769                     l3452 0746  
                   l3444 06E4                     l3436 0627                     l3428 05EC  
                   l3372 0484                     l3364 03F7                     l3356 03B2  
                   l3348 0358                     l3292 0147                     l3284 0114  
                   l3276 00F1                     l3268 00D2                     l3518 1B30  
                   l3550 1C98                     l3542 1D0B                     l3534 1CF4  
                   l3710 12FA                     l3630 11E2                     l3622 11CF  
                   l3614 11BF                     l3606 11AC                     l3526 1BDA  
                   l2718 17ED                     l2662 1730                     l2646 16BE  
                   l2638 16AB                     l2654 16D1                     l2590 15FD  
                   l2582 15ED                     l2566 15C3                     l2574 15D3  
                   l2558 15B3                     l2910 1EDC                     l2902 1EB0  
                   l2830 0F68                     l2814 0F37                     l2822 0F4B  
                   l2806 0EEF                     l2750 0CDC                     l2742 0CC5  
                   l2734 0CB1                     l2726 0C9F                     l2494 1D74  
                   l2486 1D60                     l2398 1B09                     l2478 1E93  
                   l3470 0798                     l3454 074E                     l3446 06F2  
                   l3438 0682                     l3390 04E8                     l3382 04BD  
                   l3358 03BA                     l3366 0400                     l3462 0778  
                   l3286 012B                     l3278 00F4                     l3560 1CB5  
                   l3552 1C9E                     l3544 1D11                     l3536 1CFA  
                   l3720 1343                     l3712 1313                     l3704 12E3  
                   l3624 11D4                     l3632 11E4                     l3616 11C4  
                   l3608 11B4                     l3528 1BE3                     l2680 1778  
                   l2672 1763                     l2656 16E7                     l2664 173F  
                   l2648 16C2                     l2592 1601                     l2584 15F1  
                   l2576 15E1                     l2568 15C8                     l2912 1EEA  
                   l2904 1EBD                     l2840 0F87                     l2824 0F4F  
                   l2816 0F3B                     l2808 0F17                     l2760 0CF1  
                   l2752 0CDD                     l2744 0CCD                     l2736 0CB6  
                   l2728 0CA6                     l2496 1D78                     l2488 1D66  
                   l3480 07CA                     l3472 07A7                     l3464 077E  
                   l3456 075B                     l3448 0701                     l3392 04F0  
                   l3384 04C7                     l3368 0435                     l3296 014B  
                   l3288 0131                     l3562 1CBB                     l3554 1CA5  
                   l3546 1D17                     l3538 1CFD                     l3730 135C  
                   l3722 1347                     l3706 12E8                     l3714 1319  
                   l3650 122D                     l3634 11F4                     l3642 120D  
                   l3626 11D9                     l3618 11CA                     l2930 1DEE  
                   l2922 1DA2                     l2690 1786                     l2682 177A  
                   l2674 176C                     l2666 1755                     l2658 1725  
                   l2594 1605                     l2586 15F5                     l2578 15E5  
                   l2914 1EEB                     l2906 1EC1                     l2850 0FCD  
                   l2842 0FA0                     l2834 0F70                     l2826 0F50  
                   l2818 0F3C                     l2770 0D0C                     l2762 0CF9  
                   l2754 0CE2                     l2746 0CD2                     l2738 0CBB  
                   l2498 1D89                     l3482 07D2                     l3474 07A7  
                   l3466 0786                     l3458 0763                     l3394 04F7  
                   l3386 04D3                     l3378 0486                     l3810 0161  
                   l3298 0169                     l3570 1C54                     l3556 1CAA  
                   l3580 1B5F                     l3548 1D1D                     l3724 134F  
                   l3716 1326                     l3708 12F6                     l3660 124C  
                   l3652 1235                     l3644 1212                     l3636 1200  
                   l3628 11E1                     l2924 1DB6                     l2940 0047  
                   l2692 178A                     l2684 177F                     l2676 1770  
                   l2668 175A                     l2596 1609                     l2588 15F9  
                   l2916 1EF4                     l2908 1ECA                     l2860 0FEC  
                   l2852 0FD7                     l2836 0F75                     l2844 0FA6  
                   l2828 0F54                     l2780 0D8E                     l2772 0D1C  
                   l2764 0CFE                     l2756 0CE7                     l2748 0CD8  
                   l3476 07B5                     l3468 0797                     l3396 0532  
                   l3388 04DB                     l3484 07D8                     l3572 1C68  
                   l3564 1C4B                     l2870 1B91                     l3558 1CB0  
                   l3582 1B63                     l3726 1356                     l3718 1334  
                   l3670 127E                     l3662 125E                     l3654 123D  
                   l3638 1204                     l2926 1DD2                     l2950 00AF  
                   l2942 004B                     l2934 000F                     l2694 1790  
                   l2678 1775                     l2686 1781                     l2598 160D  
                   l2918 1EFA                     l2862 0FF7                     l2854 0FD9  
                   l2846 0FB3                     l2838 0F83                     l2790 0DFC  
                   l2782 0DAA                     l2774 0D29                     l2766 0D03  
                   l2758 0CEF                     l3478 07BD                     l3398 0551  
                   l3486 07EE                     l3590 1B7B                     l3566 1C4F  
                   l3750 1FCA                     l3496 1B39                     l2880 1BB0  
                   l2872 1B9D                     l3576 1B52                     l3728 135A  
                   l3680 129F                     l3672 127F                     l3664 1262  
                   l3656 1245                     l3648 121B                     l2928 1DEC  
                   l2944 006F                     l2936 0023                     l2688 1785  
                   l2856 0FE7                     l2848 0FBE                     l2792 0E0C  
                   l2784 0DC6                     l2776 0D46                     l3584 1B72  
                   l3568 1C50                     l3752 1FD2                     l3744 1F6C  
                   l3498 1B3D                     l2882 1BB1                     l2874 1BA2  
                   l3578 1B54                     l3690 12B8                     l3682 12A1  
                   l3674 128D                     l3666 1263                     l3658 1247  
                   l3594 1190                     l2946 0073                     l2938 003F  
                   l2954 1B12                     l2698 1798                     l2970 0831  
                   l2962 0806                     l2890 1C0F                     l2858 0FEB  
                   l2794 0E29                     l2786 0DCF                     l2778 0D62  
                   l2866 1B1D                     l3586 1B73                     l3754 1FE6  
                   l3746 1F7B                     l2876 1BAA                     l3684 12AA  
                   l3692 12BE                     l3668 126C                     l3676 1291  
                   l3596 1197                     l2948 00AD                     l2956 1B1A  
                   l2972 0832                     l2964 0813                     l2892 1C16  
                   l2884 1BFC                     l2796 0E42                     l2788 0DDF  
                   l2868 1B23                     l3588 1B77                     l3756 1FEC  
                   l3748 1F7E                     l2878 1BAF                     l3694 12C2  
                   l3686 12AE                     l3678 1297                     l3598 119D  
                   l2958 1B1C                     l2974 083A                     l2894 1C1C  
                   l2886 1BFE                     l2798 0E5F                     l3696 12C3  
                   l3688 12AF                     l2992 0861                     l2984 0848  
                   l2976 083C                     l2968 081C                     l2888 1C02  
                   l3698 12C7                     l2994 0871                     l2978 0840  
                   l2986 085A                     l2898 1E9D                     l2996 0876  
                   l2998 1DF0                     STR_1 1896                     STR_2 18A8  
                   _BRGH 04C2                     _CREN 00C4                     u4000 0CE7  
                   u4001 0CE6                     u3130 1C2F                     u4010 0CFE  
                   u3210 1F38                     u3131 1C2E                     u4011 0CFD  
                   u3211 1F37                     u4020 0D03                     u4021 0D02  
                   u3205 1F2A                     u3150 1C43                     u3230 1F49  
                   u3310 1E71                     u3151 1C42                     u4111 0E51  
                   u4031 0D54                     u3231 1F48                     u3311 1E70  
                   u4200 0F3B                     u4112 0E58                     u4032 0D5B  
                   u3400 1D89                     u3160 1B0F                     u3320 1E7B  
                   u3145 1C36                     u4201 0F3A                     u4121 0E7E  
                   u4113 0E5F                     u4105 0E2B                     u4041 0D70  
                   u4033 0D62                     u3401 1D88                     u3161 1B0E  
                   u3225 1F39                     u3321 1E7A                     u3305 1E63  
                   u4122 0E85                     u4042 0D77                     u3250 1F5D  
                   u3170 1F0A                     u4131 0EAB                     u4123 0E8C  
                   u4051 0D9C                     u4043 0D7E                     u3251 1F5C  
                   u3235 1F45                     u3171 1F09                     u3500 158F  
                   u4300 0FCD                     u4220 0F4F                     u4140 0ED5  
                   u4132 0EB2                     u4052 0DA3                     u3420 1D9D  
                   u3260 1F62                     u3180 1F15                     u3340 1E8E  
                   u3501 158E                     u4301 0FCC                     u4221 0F4E  
                   u4133 0EB9                     u4061 0DB8                     u4053 0DAA  
                   u3421 1D9C                     u3405 1D85                     u3261 1F61  
                   u3245 1F51                     u3181 1F14                     u3341 1E8D  
                   u3325 1E77                     u5005 0A52                     u3510 1594  
                   u4310 0FEB                     u4230 0F54                     u4062 0DBF  
                   u3430 1D2A                     u5110 100D                     u3190 1F26  
                   u3350 1E93                     u3270 1E49                     u5030 0AFB  
                   u3511 1593                     u4311 0FEA                     u4231 0F53  
                   u4215 0F3E                     u4151 0EE1                     u4063 0DC6  
                   u3415 1D91                     u3431 1D29                     u5111 100C  
                   u3191 1F25                     u3351 1E92                     u3335 1E82  
                   u3271 1E48                     u5031 0AFA                     u5015 0A8E  
                   u6000 1262                     u3600 1649                     u3520 15B2  
                   u4400 1EC1                     u5200 115D                     u4240 0F68  
                   u4160 0EFD                     u4152 0EE8                     u3360 1D66  
                   u5120 1013                     u4320 1B23                     u3280 1E54  
                   u6001 1261                     u3521 15B1                     u4401 1EC0  
                   u5201 115C                     u4305 0FC9                     u4241 0F67  
                   u4153 0EEF                     u4145 0ED0                     u4081 0DEE  
                   u3361 1D65                     u5121 1012                     u4321 1B22  
                   u3281 1E53                     u5105 0C75                     u5025 0ACA  
                   u3610 165D                     u3530 15BD                     u5130 10E6  
                   u4250 0F6F                     u4082 0DF5                     u3450 1D3C  
                   u3290 1E5F                     u3611 165C                     u3531 15BC  
                   u5131 10E5                     u4251 0F6E                     u4171 0F09  
                   u4091 0E1B                     u4083 0DFC                     u4075 0DC8  
                   u3451 1D3B                     u3291 1E5E                     u6100 12DB  
                   u6020 127E                     u4500 004B                     u3700 16C2  
                   u3620 166C                     u3540 15C3                     u4420 1EDC  
                   u4340 1C02                     u5220 116F                     u5140 1100  
                   u4260 0F75                     u4172 0F10                     u4092 0E22  
                   u3380 1D78                     u3460 1D46                     u6101 12DA  
                   u6021 127D                     u4501 004A                     u3701 16C1  
                   u3621 166B                     u3541 15C2                     u4421 1EDB  
                   u4341 1C01                     u5221 116E                     u5141 10FF  
                   u4261 0F74                     u4173 0F17                     u4165 0EF8  
                   u4093 0E29                     u3381 1D77                     u3461 1D45  
                   u3445 1D2E                     u5045 0B1B                     u6110 12E2  
                   u6030 1297                     u3550 15C8                     u5310 0902  
                   u5230 1176                     u4270 0F87                     u5070 0BEA  
                   u4335 1B94                     u6111 12E1                     u6031 1296  
                   u6015 1265                     u4511 005A                     u3551 15C7  
                   u4415 1EC3                     u5311 0901                     u5231 1175  
                   u5215 115F                     u4271 0F86                     u3375 1D6A  
                   u5071 0BE9                     u5055 0B57                     u6120 12E8  
                   u6040 129F                     u4520 0073                     u4512 005B  
                   u3800 1775                     u3720 16E7                     u3640 1682  
                   u3560 15E1                     u4440 1EFA                     u5320 0906  
                   u5160 1139                     u4280 0F96                     u3480 1D59  
                   u6121 12E7                     u6041 129E                     u6025 127A  
                   u4521 0072                     u4513 0060                     u3801 1774  
                   u3721 16E6                     u3641 1681                     u3561 15E0  
                   u4441 1EF9                     u4425 1ED8                     u5321 0905  
                   u5305 08F5                     u5161 1138                     u4185 0F19  
                   u3481 1D58                     u3465 1D42                     u5065 0BA2  
                   u6130 12FA                     u4450 1DB6                     u4514 0061  
                   u3810 177F                     u3650 1686                     u3570 15E5  
                   u3490 1589                     u4610 0859                     u4370 1C1C  
                   u5330 090D                     u5250 1187                     u4290 0FB3  
                   u5410 00BB                     u6131 12F9                     u4451 1DB5  
                   u4531 0082                     u4515 0066                     u3811 177E  
                   u3731 16FE                     u3723 16E3                     u3715 16C5  
                   u3651 1685                     u3635 166F                     u3571 15E4  
                   u3491 1588                     u4611 0858                     u4435 1EEC  
                   u4371 1C1B                     u4355 1C09                     u5331 090C  
                   u5251 1186                     u5155 1124                     u4291 0FB2  
                   u4195 0F30                     u3395 1D79                     u3475 1D4D  
                   u5411 00BA                     u6140 1309                     u6060 12AE  
                   u4460 1DD2                     u4540 00AD                     u4532 0083  
                   u4516 0067                     u3900 17D6                     u3820 1785  
                   u3740 1712                     u3732 16FF                     u3660 168B  
                   u3580 163D                     u4620 0860                     u4380 1EAD  
                   u5260 088F                     u5180 1152                     u5500 02AC  
                   u5420 00C3                     u5405 1C84                     u6061 12AD  
                   u4461 1DD1                     u4541 00AC                     u4533 0088  
                   u3901 17D5                     u3821 1784                     u3741 1713  
                   u3733 1704                     u3661 168A                     u3581 163C  
                   u4621 085F                     u4605 0849                     u4381 1EAC  
                   u4365 1C10                     u5261 088E                     u5245 1179  
                   u5181 1151                     u5165 1135                     u4285 0F91  
                   u5085 0BFD                     u5501 02AB                     u5421 00C2  
                   u6150 1326                     u4470 1DEC                     u4534 0089  
                   u4550 1B1A                     u3910 17DB                     u3830 178A  
                   u3750 1730                     u3742 1718                     u3734 1705  
                   u3590 1648                     u4710 1E3B                     u5350 091F  
                   u5270 08A3                     u5190 1156                     u5510 02D0  
                   u5430 00F1                     u6151 1325                     u6055 12A3  
                   u4471 1DEB                     u4535 008E                     u4551 1B19  
                   u3911 17DA                     u3831 1789                     u3751 172F  
                   u3743 1719                     u3735 170A                     u3671 169D  
                   u3591 1646                     u4711 1E3A                     u5351 091E  
                   u5271 08A2                     u5191 1155                     u5175 1145  
                   u4295 0FAF                     u5095 0C39                     u5511 02CF  
                   u5431 00F0                     u6160 1343                     u6080 12C2  
                   u4536 008F                     u4480 0023                     u3920 17E8  
                   u3840 1790                     u3760 1755                     u3736 170B  
                   u3680 16AF                     u3672 16A4                     u4640 0871  
                   u4560 0813                     u4800 1096                     u4720 101F  
                   u5360 0926                     u5600 04C7                     u5520 02E7  
                   u5440 0142                     u6161 1342                     u6145 1304  
                   u6081 12C1                     u4545 00A9                     u4481 0022  
                   u3921 17E7                     u3841 178F                     u3761 1754  
                   u3681 16AE                     u3673 16AB                     u3585 1639  
                   u4641 0870                     u4561 0812                     u4705 1E2D  
                   u4801 1095                     u4721 101E                     u5361 0925  
                   u5345 090F                     u5601 04C6                     u5521 02E6  
                   u5441 0141                     u6170 135A                     u6090 12C7  
                   u4490 003F                     u3930 17ED                     u3850 1797  
                   u3770 175A                     u3690 16B3                     u4650 0876  
                   u4570 082A                     u4810 109C                     u4730 1023  
                   u5290 08E4                     u5610 04D3                     u5530 033D  
                   u5450 0175                     u6171 1359                     u6155 1322  
                   u6091 12C6                     u6075 12B1                     u4475 1DE8  
                   u4491 003E                     u3931 17EC                     u3851 1796  
                   u3771 1759                     u3691 16B2                     u4651 0875  
                   u4635 0863                     u4395 1EB2                     u4811 109B  
                   u4731 1022                     u5291 08E3                     u5611 04D2  
                   u5531 033C                     u5451 0174                     u3940 17FE  
                   u3860 179D                     u4580 0840                     u4660 1DF8  
                   u4820 10A0                     u4740 1043                     u5380 0937  
                   u4900 1489                     u5700 05EC                     u5620 04DB  
                   u5540 0358                     u5460 0179                     _RCIF 0065  
                   u6165 133F                     u6237 1BDE                     u3941 17FD  
                   u3861 179C                     u4581 083F                     u4661 1DF7  
                   u4821 109F                     u4741 1042                     u5381 0936  
                   u5285 08CB                     u4901 1488                     u5701 05EB  
                   u5621 04DA                     u5541 0357                     u5525 02E3  
                   u5461 0178                     u3870 17AF                     u3790 1770  
                   u4590 0847                     u4830 10B5                     u3950 0CB0  
                   u5550 037F                     u5470 01AE                     u6247 1BEA  
                   u3871 17AE                     u3791 176F                     u4591 0846  
                   u4575 0825                     u5375 0929                     u5295 08E0  
                   u3951 0CAF                     u5551 037E                     u5535 0339  
                   u5471 01AD                     u3880 17BE                     u4680 1E0C  
                   u4840 10C5                     u4760 1064                     u3960 0CB6  
                   u5800 07A7                     u5720 06E4                     u5640 0559  
                   u5560 038E                     u5480 01E8                     u6257 1D01  
                   u3785 1765                     u4681 1E0B                     u4841 10C4  
                   u4761 1063                     u3961 0CB5                     u5801 07A6  
                   u5721 06E3                     u5641 0558                     u5561 038D  
                   u5481 01E7                     u3890 17CD                     u4690 1E1E  
                   u4850 10C9                     u3970 0CBB                     u5810 07B5  
                   u5650 057F                     u5570 03A9                     u5490 0223  
                   u5395 1CD9                     u6267 1C74                     u3891 17CC  
                   u4691 1E1D                     u4675 1DFD                     u4851 10C8  
                   u4835 10B0                     u4755 1056                     u3971 0CBA  
                   u4915 14A6                     u5811 07B4                     u5715 0685  
                   u5651 057E                     u5635 04FA                     u5571 03A8  
                   u5491 0222                     u5900 11A7                     u4780 1086  
                   u3980 0CDC                     u4860 1376                     u4940 0947  
                   u5820 07BD                     u5740 0745                     u5660 058A  
                   u6277 1CBF                     u5901 11A6                     u3885 17B9  
                   u4781 1085                     u3981 0CDB                     u4925 14F3  
                   u4861 1375                     u4941 0946                     u5821 07BC  
                   u5805 07A3                     u5741 0744                     u5661 0589  
                   u5565 038A                     u5910 11AC                     u3990 0CE2  
                   u4950 0950                     u5830 07EE                     u5750 074E  
                   u5670 05BA                     u5590 04BC                     u6287 1CCA  
                   u5911 11AB                     u4695 1E1A                     u4775 1078  
                   u3991 0CE1                     u4935 153F                     u4951 094F  
                   u5831 07ED                     u5751 074D                     u5735 0706  
                   u5671 05B9                     u5591 04BB                     u5920 11CE  
                   u5840 1BF5                     u5760 0777                     u5680 05C9  
                   u6297 1CE7                     u5921 11CD                     u5841 1BF4  
                   u5761 0776                     u5681 05C8                     u5585 0489  
                   u5850 1C9E                     u5930 11D4                     u5770 077E  
                   u5690 05E4                     _OERR 00C1                     u5851 1C9D  
                   u5931 11D3                     u4795 108B                     u4875 1393  
                   u5771 077D                     u5691 05E3                     u5675 05B6  
                   u5595 04B8                     u5860 1CA4                     u5940 11D9  
                   u5780 0786                     u5861 1CA3                     u5941 11D8  
                   u4885 13ED                     u4965 0970                     u5781 0785  
                   u5685 05C5                     u5870 1CAA                     u5950 11F4  
                   u4990 0A3F                     u5790 0797                     u5871 1CA9  
                   u5951 11F3                     u4895 1442                     u4991 0A3E  
                   u4975 09AC                     u5791 0796                     u5880 1B6E  
                   u5960 1212                     u5881 1B6D                     u5961 1211  
                   u4985 09F7                     u5970 124C                     u5890 11A1  
                   u5971 124B                     u5891 11A0                     u5795 0793  
                   u5985 124E                     u5995 1257                     _SPEN 00C7  
                   _TXEN 04C5                     _TXIF 0064                     _SYNC 04C4  
                   _main 1F6C                     _temp 00CC                     btemp 007E  
                   start 0000          ___fldiv@new_exp 0038   __end_of_LCD_Initialize 1D24  
            LCDPutCmd@ch 0076            ___fltol@sign1 005A          __end_of___fladd 1800  
                  ?_main 0070          __end_of___fldiv 136D          __end_of___awdiv 1F6C  
        __end_of___flneg 1B1D          __end_of___awmod 1E9D          __end_of___flmul 1000  
        __end_of___flsub 1BD7          __end_of___fltol 0882          __end_of___lldiv 1F03  
        ___awdiv@divisor 0077          __end_of___llmod 1E44          __end_of___lwdiv 1DA2  
        __end_of___lwmod 1D5E          ___awdiv@counter 0020                    _RCREG 001A  
                  _SPBRG 0099                    _PORTD 0008          __end_of__doprnt 07F3  
                  _TRISD 0088                    _TXREG 0019          __end_of_get_val 1BFC  
        __end_of_dpowers 1896                    _scale 0940          __end_of_isdigit 1017  
                  _putch 1B1D                    fpbase 0008                    pclath 000A  
                  status 0003                    wtemp0 007E          __end_of_sprintf 1C6F  
        ?_LCD_Initialize 0070          __initialization 07F3             __end_of_main 2000  
              ??_ADCInit 0070                   ??_main 00C8                ??_LCDGoto 0078  
      __end_of_LCDPutCmd 1CF4             LCDPutChar@ch 0076        __end_of_LCDPutStr 1B6F  
                 _ADCON0 001F                   _ADCON1 009F         ___llmod@dividend 0074  
                 ?_scale 003E                   _ADRESH 001E                   _ADRESL 009E  
       ___awdiv@dividend 0079                   ?_putch 0071             LCDPutStr@str 0078  
                 _TRISC6 043E                   _TRISC7 043F         __end_of__fptable 000C  
       __end_of___xxtofl 10D3           _LCDWriteNibble 1B90             __doprnt$1004 00A5  
       __end_of__powers_ 183A                   ___flge 000F                   ___fleq 1DA2  
              ??___fladd 005A                   ___wmul 1BFC                ??___fldiv 002E  
              ??___awdiv 007B                ??___flneg 0074                ??___awmod 0074  
              ??___flmul 002C                ??___flsub 007E                ??___fltol 0055  
              ??___lldiv 0078                ??___llmod 0078                ??___lwdiv 007A  
              ??___lwmod 0074                   _buffer 00D0                ??__doprnt 00A0  
                 _fround 136D         ___awdiv@quotient 0022          ___awmod@divisor 0070  
           __doprnt@flag 00A9          ___awmod@counter 0075                   _printf 1B6F  
           __doprnt@eexp 00AF             __doprnt@fval 00B7             __doprnt@prec 00B1  
              ??_get_val 0072                   fptable 0003                   fptotal 0002  
              ??_isdigit 0070                   putch@x 0071                ??_sprintf 00C2  
             ___flge@ff1 0070               ___flge@ff2 0074             ___xxtofl@arg 0022  
           ___xxtofl@exp 0021             ___xxtofl@val 0074               ___fleq@ff1 0070  
             ___fleq@ff2 0074   __end_of_LCDWriteNibble 1BB3  __end_of__initialization 07FC  
             ___flneg@f1 0070               ___fltol@f1 0051                LCDGoto@ln 0077  
         __pcstackCOMMON 0070            __end_of_scale 0C9F             ??_LCDPutChar 0074  
          __end_of_putch 1B2A               __div_to_l_ 0882               __doprnt@ap 006F  
             __doprnt@pb 00BC          __div_to_l_@exp1 0025          __div_to_l_@cntr 0024  
                ??_scale 0042          __div_to_l_@quot 0020                  ??_putch 0072  
             __pbssBANK1 00CC          ?_LCDWriteNibble 0070       __end_of_LCDPutChar 1C97  
          __div_to_l_@f1 0070            __div_to_l_@f2 0074        __end_of__Umul8_16 1C48  
             __pmaintext 1F6C                  ?___flge 0070                  ?___fleq 0070  
                ?___wmul 0070                  ?_fround 003E                  _ADCInit 1B2A  
                ?_printf 00BD                  _LCDGoto 1C97                ?___xxtofl 0074  
             __stringtab 1800         ??_LCD_Initialize 0077        __end_of__npowers_ 186E  
             _scale$1003 004C                  ___fladd 1578                  ___fldiv 1190  
                ___awdiv 1F03                  ___flneg 1B12                  ___awmod 1E44  
                ___flmul 0C9F                  ___flsub 1BB3                  ___fltol 0806  
                ___lldiv 1E9D                  ___llmod 1DF0                  ___lwdiv 1D5E  
                ___lwmod 1D24                  __doprnt 00B1                _ANSELbits 0188  
                __ptext1 1C48                  __ptext2 1B6F                  __ptext3 00B1  
                __ptext4 0940                  __ptext5 1E44                  __ptext6 1F03  
                __ptext7 1B1D                  __ptext8 1B08                  __ptext9 1005  
                _get_val 1BD7              ?__div_to_l_ 0070                  _dpowers 186E  
      ??_Initialize_UART 0070                  _isdigit 1005               ??___xxtofl 0078  
       ___awmod@dividend 0072                _LCDPutCmd 1CC5                  _sprintf 1C48  
                clrloop0 1B01                _LCDPutStr 1B51     end_of_initialization 07FC  
        ___lldiv@divisor 0070          ___lldiv@counter 007D                  printf@f 00C3  
         __tdiv_to_l_@f1 0070           __tdiv_to_l_@f2 0074            ??__tdiv_to_l_ 0078  
              _PORTDbits 0008              ___fladd@grs 0065            ___xxtofl@sign 0020  
            ___fldiv@grs 003A              ___fldiv@rem 0033               ?_LCDPutCmd 0070  
             ?_LCDPutStr 0070              ___flmul@grs 0032               LCDGoto@pos 007C  
         __end_of___flge 00B1           __end_of___fleq 1DF0               LCDPutStr@i 0079  
         __end_of___wmul 1C21           __end_of_fround 1578           __end_of_printf 1B90  
    start_initialization 07F3           _UART_send_char 1B08      __end_of__tdiv_to_l_ 1190  
       ??_LCDWriteNibble 0071          ___llmod@divisor 0070          ___llmod@counter 0079  
               ??___flge 0078                 ??___fleq 0078                 ??___wmul 0074  
              __Umul8_16 1C21              __doprnt@val 00AB                 ??_fround 0042  
               ?_ADCInit 0070                 ??_printf 00C1                ___fladd@a 0056  
              ___fladd@b 0052   __end_of_UART_send_char 1B12               fround@prec 0051  
               ?_LCDGoto 0077                ___fldiv@a 0026                ___fldiv@b 002A  
              ___flmul@a 0028                ___flmul@b 0024                ___flsub@a 0066  
              ___flsub@b 006A                ___latbits 0002            __pcstackBANK0 0020  
          __pcstackBANK1 00A0        __size_of__fptable 0009              ??_LCDPutCmd 0074  
            ??_LCDPutStr 0077                __doprnt@c 00BB                __doprnt@f 006E  
       ___lwdiv@dividend 0078                __pfunctab 0003          _Initialize_UART 1B39  
               ?___fladd 0052                 ?___fldiv 0026                 ?___awdiv 0077  
               ?___flneg 0070                 ?___awmod 0070                 ?___flmul 0024  
               ?___flsub 0066                 ?___fltol 0051                 ?___lldiv 0070  
               ?___llmod 0070                __npowers_ 183A               ?__Umul8_16 0070  
               ?___lwdiv 0076                 ?___lwmod 0070                 ?__doprnt 006E  
       LCDWriteNibble@ch 0073         LCDWriteNibble@rs 0070         UART_send_char@bt 0070  
              __pstrings 1800              __tdiv_to_l_ 10D3                 ?_get_val 0070  
           ??__div_to_l_ 0078          ?_UART_send_char 0070                 ?_isdigit 0070  
       ___lwdiv@quotient 007B                 ?_sprintf 00BD           ___wmul@product 0074  
              clear_ram0 1B00              _LCDGoto$230 007A       __end_of__div_to_l_ 0940  
             _ADCON0bits 001F              __stringbase 1805        ___wmul@multiplier 0070  
__end_of_Initialize_UART 1B51              ??__Umul8_16 0072              _fround$1001 004D  
            _fround$1002 0049       __end_of__stringtab 1806              _isdigit$793 0070  
               __fptable 0003                 ___xxtofl 1017          ___lwdiv@divisor 0076  
        ___lwdiv@counter 007D                 __ptext10 136D                 __ptext11 1D24  
               __ptext20 1E9D                 __ptext12 1D5E                 __ptext21 0806  
               __ptext13 0C9F                 __ptext30 1B51                 __ptext22 1BB3  
               __ptext14 1C21                 __ptext31 1C6F                 __ptext23 1578  
               __ptext15 10D3                 __ptext32 1C97                 __ptext24 1B12  
               __ptext16 0882                 __ptext33 1CC5                 __ptext25 000F  
               __ptext17 1017                 __ptext34 1B90                 __ptext26 1DA2  
               __ptext18 1BFC                 __ptext35 1B39                 __ptext27 1BD7  
               __ptext19 1DF0                 __ptext36 1B2A                 __ptext28 1190  
               __ptext29 1CF4                 __powers_ 1806               _LCDPutChar 1C6F  
               fp__putch 0009           __doprnt@tmpval 00B3                 isdigit@c 0071  
               scale@scl 0050                sprintf@ap 00C5                sprintf@pb 00C6  
       __tdiv_to_l_@exp1 0025         __tdiv_to_l_@cntr 0024                sprintf@wh 00C4  
       __tdiv_to_l_@quot 0020         ___lwmod@dividend 0072         ___lldiv@dividend 0074  
       ?_Initialize_UART 0070                stringcode 1800                 printf@ap 00C4  
               printf@pb 00C5         ??_UART_send_char 0070             ?__tdiv_to_l_ 0070  
 __Umul8_16@multiplicand 0070                 sprintf@f 00BD         ___lldiv@quotient 0079  
        ___lwmod@divisor 0070          ___lwmod@counter 0075                 stringdir 1800  
               stringtab 1800            ___fladd@signs 0062             ___fladd@aexp 0063  
           ___fladd@bexp 0064     __Umul8_16@multiplier 0078        __Umul8_16@product 0074  
