

Microchip MPLAB XC8 Assembler V2.36 build 20220127204148 
                                                                                               Sun Nov 06 07:56:22 2022

Microchip MPLAB XC8 C Compiler v2.36 (Free license) build 20220127204148 Og1 
     1                           	processor	16F887
     2                           	pagewidth 120
     3                           	opt	flic
     4                           	psect	strings,global,class=STRING,delta=2,noexec
     5                           	psect	cinit,global,class=CODE,merge=1,delta=2
     6                           	psect	bssBANK0,global,class=BANK0,space=1,delta=1,noexec
     7                           	psect	cstackBANK1,global,class=BANK1,space=1,delta=1,noexec
     8                           	psect	cstackCOMMON,global,class=COMMON,space=1,delta=1,noexec
     9                           	psect	cstackBANK0,global,class=BANK0,space=1,delta=1,noexec
    10                           	psect	maintext,global,class=CODE,split=1,delta=2
    11                           	psect	text1,local,class=CODE,merge=1,delta=2
    12                           	psect	text2,local,class=CODE,merge=1,delta=2
    13                           	psect	text3,local,class=CODE,merge=1,delta=2
    14                           	psect	text4,local,class=CODE,merge=1,delta=2
    15                           	psect	text5,local,class=CODE,merge=1,delta=2
    16                           	psect	text6,local,class=CODE,merge=1,delta=2
    17                           	psect	text7,local,class=CODE,merge=1,delta=2
    18                           	psect	text8,local,class=CODE,merge=1,delta=2
    19                           	psect	intentry,global,class=CODE,delta=2
    20                           	psect	text9,local,class=CODE,merge=1,delta=2
    21                           	psect	text10,local,class=CODE,merge=1,delta=2,group=1
    22                           	psect	text11,local,class=CODE,merge=1,delta=2,group=1
    23                           	psect	text12,local,class=CODE,merge=1,delta=2,group=1
    24                           	psect	text13,local,class=CODE,merge=1,delta=2,group=1
    25                           	psect	text14,local,class=CODE,merge=1,delta=2,group=1
    26                           	psect	text15,local,class=CODE,merge=1,delta=2,group=1
    27                           	psect	idloc,global,abs,ovrld,class=IDLOC,space=5,delta=2,noexec
    28                           	psect	config,global,abs,ovrld,class=CONFIG,space=4,delta=2,noexec
    29                           	dabs	1,0x7E,2
    30  0000                     
    31                           ; Version 2.40
    32                           ; Generated 17/11/2021 GMT
    33                           ; 
    34                           ; Copyright © 2021, Microchip Technology Inc. and its subsidiaries ("Microchip")
    35                           ; All rights reserved.
    36                           ; 
    37                           ; This software is developed by Microchip Technology Inc. and its subsidiaries ("Microch
      +                          ip").
    38                           ; 
    39                           ; Redistribution and use in source and binary forms, with or without modification, are
    40                           ; permitted provided that the following conditions are met:
    41                           ; 
    42                           ;     1. Redistributions of source code must retain the above copyright notice, this lis
      +                          t of
    43                           ;        conditions and the following disclaimer.
    44                           ; 
    45                           ;     2. Redistributions in binary form must reproduce the above copyright notice, this 
      +                          list
    46                           ;        of conditions and the following disclaimer in the documentation and/or other
    47                           ;        materials provided with the distribution. Publication is not required when
    48                           ;        this file is used in an embedded application.
    49                           ; 
    50                           ;     3. Microchip's name may not be used to endorse or promote products derived from th
      +                          is
    51                           ;        software without specific prior written permission.
    52                           ; 
    53                           ; THIS SOFTWARE IS PROVIDED BY MICROCHIP "AS IS" AND ANY EXPRESS OR IMPLIED WARRANTIES,
    54                           ; INCLUDING, BUT NOT LIMITED TO, THE IMPLIED WARRANTIES OF MERCHANTABILITY AND FITNESS F
      +                          OR
    55                           ; PURPOSE ARE DISCLAIMED.  IN NO EVENT SHALL MICROCHIP BE LIABLE FOR ANY DIRECT, INDIREC
      +                          T,
    56                           ; INCIDENTAL, SPECIAL, EXEMPLARY, OR CONSEQUENTIAL DAMAGES (INCLUDING BUT NOT LIMITED TO
    57                           ; PROCUREMENT OF SUBSTITUTE GOODS OR SERVICES; LOSS OF USE, DATA OR PROFITS; OR BUSINESS
    58                           ; INTERRUPTION) HOWSOEVER CAUSED AND ON ANY THEORY OF LIABILITY, WHETHER IN CONTRACT, ST
      +                          RICT
    59                           ; LIABILITY, OR TORT (INCLUDING NEGLIGENCE OR OTHERWISE) ARISING IN ANY WAY OUT OF THE U
      +                          SE OF
    60                           ; THIS SOFTWARE, EVEN IF ADVISED OF THE POSSIBILITY OF SUCH DAMAGE.
    61                           ; 
    62                           ; 
    63                           ; Code-generator required, PIC16F887 Definitions
    64                           ; 
    65                           ; SFR Addresses
    66  0000                     	;# 
    67  0001                     	;# 
    68  0002                     	;# 
    69  0003                     	;# 
    70  0004                     	;# 
    71  0005                     	;# 
    72  0006                     	;# 
    73  0007                     	;# 
    74  0008                     	;# 
    75  0009                     	;# 
    76  000A                     	;# 
    77  000B                     	;# 
    78  000C                     	;# 
    79  000D                     	;# 
    80  000E                     	;# 
    81  000E                     	;# 
    82  000F                     	;# 
    83  0010                     	;# 
    84  0011                     	;# 
    85  0012                     	;# 
    86  0013                     	;# 
    87  0014                     	;# 
    88  0015                     	;# 
    89  0015                     	;# 
    90  0016                     	;# 
    91  0017                     	;# 
    92  0018                     	;# 
    93  0019                     	;# 
    94  001A                     	;# 
    95  001B                     	;# 
    96  001B                     	;# 
    97  001C                     	;# 
    98  001D                     	;# 
    99  001E                     	;# 
   100  001F                     	;# 
   101  0081                     	;# 
   102  0085                     	;# 
   103  0086                     	;# 
   104  0087                     	;# 
   105  0088                     	;# 
   106  0089                     	;# 
   107  008C                     	;# 
   108  008D                     	;# 
   109  008E                     	;# 
   110  008F                     	;# 
   111  0090                     	;# 
   112  0091                     	;# 
   113  0092                     	;# 
   114  0093                     	;# 
   115  0093                     	;# 
   116  0093                     	;# 
   117  0094                     	;# 
   118  0095                     	;# 
   119  0096                     	;# 
   120  0097                     	;# 
   121  0098                     	;# 
   122  0099                     	;# 
   123  009A                     	;# 
   124  009B                     	;# 
   125  009C                     	;# 
   126  009D                     	;# 
   127  009E                     	;# 
   128  009F                     	;# 
   129  0105                     	;# 
   130  0107                     	;# 
   131  0108                     	;# 
   132  0109                     	;# 
   133  010C                     	;# 
   134  010C                     	;# 
   135  010D                     	;# 
   136  010E                     	;# 
   137  010F                     	;# 
   138  0185                     	;# 
   139  0187                     	;# 
   140  0188                     	;# 
   141  0189                     	;# 
   142  018C                     	;# 
   143  018D                     	;# 
   144  0000                     	;# 
   145  0001                     	;# 
   146  0002                     	;# 
   147  0003                     	;# 
   148  0004                     	;# 
   149  0005                     	;# 
   150  0006                     	;# 
   151  0007                     	;# 
   152  0008                     	;# 
   153  0009                     	;# 
   154  000A                     	;# 
   155  000B                     	;# 
   156  000C                     	;# 
   157  000D                     	;# 
   158  000E                     	;# 
   159  000E                     	;# 
   160  000F                     	;# 
   161  0010                     	;# 
   162  0011                     	;# 
   163  0012                     	;# 
   164  0013                     	;# 
   165  0014                     	;# 
   166  0015                     	;# 
   167  0015                     	;# 
   168  0016                     	;# 
   169  0017                     	;# 
   170  0018                     	;# 
   171  0019                     	;# 
   172  001A                     	;# 
   173  001B                     	;# 
   174  001B                     	;# 
   175  001C                     	;# 
   176  001D                     	;# 
   177  001E                     	;# 
   178  001F                     	;# 
   179  0081                     	;# 
   180  0085                     	;# 
   181  0086                     	;# 
   182  0087                     	;# 
   183  0088                     	;# 
   184  0089                     	;# 
   185  008C                     	;# 
   186  008D                     	;# 
   187  008E                     	;# 
   188  008F                     	;# 
   189  0090                     	;# 
   190  0091                     	;# 
   191  0092                     	;# 
   192  0093                     	;# 
   193  0093                     	;# 
   194  0093                     	;# 
   195  0094                     	;# 
   196  0095                     	;# 
   197  0096                     	;# 
   198  0097                     	;# 
   199  0098                     	;# 
   200  0099                     	;# 
   201  009A                     	;# 
   202  009B                     	;# 
   203  009C                     	;# 
   204  009D                     	;# 
   205  009E                     	;# 
   206  009F                     	;# 
   207  0105                     	;# 
   208  0107                     	;# 
   209  0108                     	;# 
   210  0109                     	;# 
   211  010C                     	;# 
   212  010C                     	;# 
   213  010D                     	;# 
   214  010E                     	;# 
   215  010F                     	;# 
   216  0185                     	;# 
   217  0187                     	;# 
   218  0188                     	;# 
   219  0189                     	;# 
   220  018C                     	;# 
   221  018D                     	;# 
   222  0007                     _PORTCbits	set	7
   223  0015                     _CCPR1L	set	21
   224  0019                     _TXREG	set	25
   225  005F                     _GIE	set	95
   226  005E                     _PEIE	set	94
   227  0065                     _RCIF	set	101
   228  00BD                     _CCP1X	set	189
   229  00BC                     _CCP1Y	set	188
   230  0092                     _TMR2ON	set	146
   231  0091                     _T2CKPS1	set	145
   232  0090                     _T2CKPS0	set	144
   233  00BA                     _CCP1M2	set	186
   234  00BB                     _CCP1M3	set	187
   235  0064                     _TXIF	set	100
   236  00C4                     _CREN	set	196
   237  00C6                     _RX9	set	198
   238  00C7                     _SPEN	set	199
   239  0092                     _PR2	set	146
   240  0099                     _SPBRG	set	153
   241  009A                     _SPBRGH	set	154
   242  043C                     _TRISC4	set	1084
   243  043B                     _TRISC3	set	1083
   244  043F                     _TRISC7	set	1087
   245  043E                     _TRISC6	set	1086
   246  0465                     _RCIE	set	1125
   247  043A                     _TRISC2	set	1082
   248  04C5                     _TXEN	set	1221
   249  04C6                     _TX9	set	1222
   250  04C4                     _SYNC	set	1220
   251  04C2                     _BRGH	set	1218
   252  0189                     _ANSELH	set	393
   253  0188                     _ANSEL	set	392
   254  0C3B                     _BRG16	set	3131
   255                           
   256                           	psect	strings
   257  0800                     __pstrings:
   258  0800                     stringtab:
   259  0800                     __stringtab:
   260  0800                     stringcode:	
   261                           ;	String table - string pointers are 1 byte each
   262                           
   263  0800                     stringdir:
   264  0800  3008               	movlw	high stringdir
   265  0801  008A               	movwf	10
   266  0802  0804               	movf	4,w
   267  0803  0A84               	incf	4,f
   268  0804  0782               	addwf	2,f
   269  0805                     __stringbase:
   270  0805  3400               	retlw	0
   271  0806                     __end_of__stringtab:
   272  0806                     STR_1:
   273  0806  3447               	retlw	71	;'G'
   274  0807  3469               	retlw	105	;'i'
   275  0808  3461               	retlw	97	;'a'
   276  0809  346F               	retlw	111	;'o'
   277  080A  3420               	retlw	32	;' '
   278  080B  3474               	retlw	116	;'t'
   279  080C  3469               	retlw	105	;'i'
   280  080D  3465               	retlw	101	;'e'
   281  080E  3470               	retlw	112	;'p'
   282  080F  3420               	retlw	32	;' '
   283  0810  3455               	retlw	85	;'U'
   284  0811  3441               	retlw	65	;'A'
   285  0812  3452               	retlw	82	;'R'
   286  0813  3454               	retlw	84	;'T'
   287  0814  3420               	retlw	32	;' '
   288  0815  3464               	retlw	100	;'d'
   289  0816  3461               	retlw	97	;'a'
   290  0817  3420               	retlw	32	;' '
   291  0818  3464               	retlw	100	;'d'
   292  0819  3475               	retlw	117	;'u'
   293  081A  346F               	retlw	111	;'o'
   294  081B  3463               	retlw	99	;'c'
   295  081C  3420               	retlw	32	;' '
   296  081D  346B               	retlw	107	;'k'
   297  081E  3468               	retlw	104	;'h'
   298  081F  346F               	retlw	111	;'o'
   299  0820  3469               	retlw	105	;'i'
   300  0821  3420               	retlw	32	;' '
   301  0822  3474               	retlw	116	;'t'
   302  0823  3461               	retlw	97	;'a'
   303  0824  346F               	retlw	111	;'o'
   304  0825  3400               	retlw	0
   305                           
   306                           	psect	cinit
   307  0013                     start_initialization:	
   308                           ; #config settings
   309                           
   310  0013                     __initialization:
   311                           
   312                           ; Clear objects allocated to BANK0
   313  0013  1283               	bcf	3,5	;RP0=0, select bank0
   314  0014  1303               	bcf	3,6	;RP1=0, select bank0
   315  0015  01E4               	clrf	__pbssBANK0& (0+127)
   316  0016  01E5               	clrf	(__pbssBANK0+1)& (0+127)
   317  0017  01E6               	clrf	(__pbssBANK0+2)& (0+127)
   318  0018  01E7               	clrf	(__pbssBANK0+3)& (0+127)
   319  0019  01E8               	clrf	(__pbssBANK0+4)& (0+127)
   320  001A  01E9               	clrf	(__pbssBANK0+5)& (0+127)
   321  001B  01EA               	clrf	(__pbssBANK0+6)& (0+127)
   322  001C  01EB               	clrf	(__pbssBANK0+7)& (0+127)
   323  001D  01EC               	clrf	(__pbssBANK0+8)& (0+127)
   324  001E  01ED               	clrf	(__pbssBANK0+9)& (0+127)
   325  001F  01EE               	clrf	(__pbssBANK0+10)& (0+127)
   326  0020  01EF               	clrf	(__pbssBANK0+11)& (0+127)
   327  0021                     end_of_initialization:	
   328                           ;End of C runtime variable initialization code
   329                           
   330  0021                     __end_of__initialization:
   331  0021  0183               	clrf	3
   332  0022  120A  118A  2FE7   	ljmp	_main	;jump to C main() function
   333                           
   334                           	psect	bssBANK0
   335  0064                     __pbssBANK0:
   336  0064                     _val:
   337  0064                     	ds	4
   338  0068                     _lenh:
   339  0068                     	ds	3
   340  006B                     _dutyCycle:
   341  006B                     	ds	2
   342  006D                     _donvi:
   343  006D                     	ds	1
   344  006E                     _chuc:
   345  006E                     	ds	1
   346  006F                     _rxdata:
   347  006F                     	ds	1
   348                           
   349                           	psect	cstackBANK1
   350  00A0                     __pcstackBANK1:
   351  00A0                     ??_TX_Init:
   352  00A0                     ??_RX_Init:	
   353                           ; 1 bytes @ 0x0
   354                           
   355  00A0                     ??_UART_send_char:	
   356                           ; 1 bytes @ 0x0
   357                           
   358  00A0                     ??_PWM_Init:	
   359                           ; 1 bytes @ 0x0
   360                           
   361  00A0                     ?_PWM_Set_Duty:	
   362                           ; 1 bytes @ 0x0
   363                           
   364  00A0                     ??_config:	
   365                           ; 1 bytes @ 0x0
   366                           
   367  00A0                     UART_send_char@bt:	
   368                           ; 1 bytes @ 0x0
   369                           
   370  00A0                     PWM_Set_Duty@DC:	
   371                           ; 1 bytes @ 0x0
   372                           
   373                           
   374                           ; 2 bytes @ 0x0
   375  00A0                     	ds	1
   376  00A1                     ??_UART_send_string:
   377                           
   378                           ; 1 bytes @ 0x1
   379  00A1                     	ds	1
   380  00A2                     ??_PWM_Set_Duty:
   381  00A2                     UART_send_string@st_pt:	
   382                           ; 1 bytes @ 0x2
   383                           
   384                           
   385                           ; 1 bytes @ 0x2
   386  00A2                     	ds	2
   387  00A4                     ??_main:
   388                           
   389                           	psect	cstackCOMMON
   390  0070                     __pcstackCOMMON:	
   391                           ; 1 bytes @ 0x4
   392                           
   393  0070                     ?_TX_Init:
   394  0070                     ?_RX_Init:	
   395                           ; 1 bytes @ 0x0
   396                           
   397  0070                     ?_UART_send_char:	
   398                           ; 1 bytes @ 0x0
   399                           
   400  0070                     ?_UART_send_string:	
   401                           ; 1 bytes @ 0x0
   402                           
   403  0070                     ?_PWM_Init:	
   404                           ; 1 bytes @ 0x0
   405                           
   406  0070                     ?_config:	
   407                           ; 1 bytes @ 0x0
   408                           
   409  0070                     ?_main:	
   410                           ; 1 bytes @ 0x0
   411                           
   412  0070                     ?_ISR:	
   413                           ; 1 bytes @ 0x0
   414                           
   415  0070                     ?__Umul8_16:	
   416                           ; 1 bytes @ 0x0
   417                           
   418  0070                     ?___wmul:	
   419                           ; 2 bytes @ 0x0
   420                           
   421  0070                     __Umul8_16@multiplicand:	
   422                           ; 2 bytes @ 0x0
   423                           
   424  0070                     ___wmul@multiplier:	
   425                           ; 1 bytes @ 0x0
   426                           
   427                           
   428                           ; 2 bytes @ 0x0
   429  0070                     	ds	2
   430  0072                     ??__Umul8_16:
   431  0072                     ___wmul@multiplicand:	
   432                           ; 1 bytes @ 0x2
   433                           
   434                           
   435                           ; 2 bytes @ 0x2
   436  0072                     	ds	2
   437  0074                     ??___wmul:
   438  0074                     ___wmul@product:	
   439                           ; 1 bytes @ 0x4
   440                           
   441  0074                     __Umul8_16@product:	
   442                           ; 2 bytes @ 0x4
   443                           
   444                           
   445                           ; 2 bytes @ 0x4
   446  0074                     	ds	2
   447  0076                     ?___xxtofl:
   448  0076                     __Umul8_16@word_mpld:	
   449                           ; 4 bytes @ 0x6
   450                           
   451  0076                     ___xxtofl@val:	
   452                           ; 2 bytes @ 0x6
   453                           
   454                           
   455                           ; 4 bytes @ 0x6
   456  0076                     	ds	2
   457  0078                     __Umul8_16@multiplier:
   458                           
   459                           ; 1 bytes @ 0x8
   460  0078                     	ds	2
   461  007A                     ??___xxtofl:
   462                           
   463                           ; 1 bytes @ 0xA
   464  007A                     	ds	4
   465                           
   466                           	psect	cstackBANK0
   467  0020                     __pcstackBANK0:
   468  0020                     ___xxtofl@sign:
   469                           
   470                           ; 1 bytes @ 0x0
   471  0020                     	ds	1
   472  0021                     ___xxtofl@exp:
   473                           
   474                           ; 1 bytes @ 0x1
   475  0021                     	ds	1
   476  0022                     ___xxtofl@arg:
   477                           
   478                           ; 4 bytes @ 0x2
   479  0022                     	ds	4
   480  0026                     ?___flmul:
   481  0026                     ___flmul@b:	
   482                           ; 4 bytes @ 0x6
   483                           
   484                           
   485                           ; 4 bytes @ 0x6
   486  0026                     	ds	4
   487  002A                     ___flmul@a:
   488                           
   489                           ; 4 bytes @ 0xA
   490  002A                     	ds	4
   491  002E                     ??___flmul:
   492                           
   493                           ; 1 bytes @ 0xE
   494  002E                     	ds	5
   495  0033                     ___flmul@sign:
   496                           
   497                           ; 1 bytes @ 0x13
   498  0033                     	ds	1
   499  0034                     ___flmul@grs:
   500                           
   501                           ; 4 bytes @ 0x14
   502  0034                     	ds	4
   503  0038                     ___flmul@aexp:
   504                           
   505                           ; 1 bytes @ 0x18
   506  0038                     	ds	1
   507  0039                     ___flmul@bexp:
   508                           
   509                           ; 1 bytes @ 0x19
   510  0039                     	ds	1
   511  003A                     ___flmul@prod:
   512                           
   513                           ; 4 bytes @ 0x1A
   514  003A                     	ds	4
   515  003E                     ___flmul@temp:
   516                           
   517                           ; 2 bytes @ 0x1E
   518  003E                     	ds	2
   519  0040                     ?___fltol:
   520  0040                     ?___fldiv:	
   521                           ; 4 bytes @ 0x20
   522                           
   523  0040                     ___fltol@f1:	
   524                           ; 4 bytes @ 0x20
   525                           
   526  0040                     ___fldiv@a:	
   527                           ; 4 bytes @ 0x20
   528                           
   529                           
   530                           ; 4 bytes @ 0x20
   531  0040                     	ds	4
   532  0044                     ??___fltol:
   533  0044                     ___fldiv@b:	
   534                           ; 1 bytes @ 0x24
   535                           
   536                           
   537                           ; 4 bytes @ 0x24
   538  0044                     	ds	4
   539  0048                     ??___fldiv:
   540                           
   541                           ; 1 bytes @ 0x28
   542  0048                     	ds	1
   543  0049                     ___fltol@sign1:
   544                           
   545                           ; 1 bytes @ 0x29
   546  0049                     	ds	1
   547  004A                     ___fltol@exp1:
   548                           
   549                           ; 1 bytes @ 0x2A
   550  004A                     	ds	1
   551  004B                     ?i1_PWM_Set_Duty:
   552  004B                     i1PWM_Set_Duty@DC:	
   553                           ; 1 bytes @ 0x2B
   554                           
   555                           
   556                           ; 2 bytes @ 0x2B
   557  004B                     	ds	2
   558  004D                     ??i1_PWM_Set_Duty:
   559  004D                     ___fldiv@rem:	
   560                           ; 1 bytes @ 0x2D
   561                           
   562                           
   563                           ; 4 bytes @ 0x2D
   564  004D                     	ds	4
   565  0051                     ___fldiv@sign:
   566                           
   567                           ; 1 bytes @ 0x31
   568  0051                     	ds	1
   569  0052                     ___fldiv@new_exp:
   570                           
   571                           ; 2 bytes @ 0x32
   572  0052                     	ds	2
   573  0054                     ___fldiv@grs:
   574                           
   575                           ; 4 bytes @ 0x34
   576  0054                     	ds	4
   577  0058                     ___fldiv@bexp:
   578                           
   579                           ; 1 bytes @ 0x38
   580  0058                     	ds	1
   581  0059                     ___fldiv@aexp:
   582                           
   583                           ; 1 bytes @ 0x39
   584  0059                     	ds	1
   585  005A                     ??_ISR:
   586                           
   587                           ; 1 bytes @ 0x3A
   588  005A                     	ds	9
   589  0063                     ISR@i:
   590                           
   591                           ; 1 bytes @ 0x43
   592  0063                     	ds	1
   593                           
   594                           	psect	maintext
   595  07E7                     __pmaintext:	
   596 ;;
   597 ;;Main: autosize = 0, tempsize = 0, incstack = 0, save=0
   598 ;;
   599 ;; *************** function _main *****************
   600 ;; Defined at:
   601 ;;		line 113 in file "newmain.c"
   602 ;; Parameters:    Size  Location     Type
   603 ;;		None
   604 ;; Auto vars:     Size  Location     Type
   605 ;;		None
   606 ;; Return value:  Size  Location     Type
   607 ;;                  1    wreg      void 
   608 ;; Registers used:
   609 ;;		wreg, fsr0l, fsr0h, status,2, status,0, pclath, cstack
   610 ;; Tracked objects:
   611 ;;		On entry : B00/0
   612 ;;		On exit  : 0/0
   613 ;;		Unchanged: 0/0
   614 ;; Data sizes:     COMMON   BANK0   BANK1   BANK3   BANK2
   615 ;;      Params:         0       0       0       0       0
   616 ;;      Locals:         0       0       0       0       0
   617 ;;      Temps:          0       0       0       0       0
   618 ;;      Totals:         0       0       0       0       0
   619 ;;Total ram usage:        0 bytes
   620 ;; Hardware stack levels required when called: 5
   621 ;; This function calls:
   622 ;;		_PWM_Set_Duty
   623 ;;		_UART_send_string
   624 ;;		_config
   625 ;; This function is called by:
   626 ;;		Startup code after reset
   627 ;; This function uses a non-reentrant model
   628 ;;
   629                           
   630  07E7                     _main:	
   631                           ;psect for function _main
   632                           
   633  07E7                     l1692:	
   634                           ;incstack = 0
   635                           ; Regs used in _main: [wreg-fsr0h+status,2+status,0+pclath+cstack]
   636                           
   637                           
   638                           ;newmain.c: 114:     config();
   639  07E7  120A  158A  26F9  120A  118A  	fcall	_config
   640  07EC                     l1694:
   641                           
   642                           ;newmain.c: 115:     UART_send_string("Giao tiep UART da duoc khoi tao");
   643  07EC  3001               	movlw	(low ((STR_1-__stringbase)| (0+32768)))& (0+255)
   644  07ED  120A  158A  273C  120A  118A  	fcall	_UART_send_string
   645  07F2                     l1696:
   646                           
   647                           ;newmain.c: 116:     PWM_Set_Duty(0);
   648  07F2  3000               	movlw	0
   649  07F3  1683               	bsf	3,5	;RP0=1, select bank1
   650  07F4  1303               	bcf	3,6	;RP1=0, select bank1
   651  07F5  00A0               	movwf	PWM_Set_Duty@DC^(0+128)
   652  07F6  00A1               	movwf	(PWM_Set_Duty@DC+1)^(0+128)
   653  07F7  120A  118A  2799  120A  118A  	fcall	_PWM_Set_Duty
   654  07FC                     l111:	
   655                           ;newmain.c: 117:     while(1)
   656                           
   657  07FC                     l112:	
   658                           ;newmain.c: 118:     {;newmain.c: 119:     }
   659                           
   660  07FC  2FFC               	goto	l111
   661  07FD  120A  118A  2810   	ljmp	start
   662  0800                     __end_of_main:
   663                           
   664                           	psect	text1
   665  0EF9                     __ptext1:	
   666 ;; *************** function _config *****************
   667 ;; Defined at:
   668 ;;		line 97 in file "newmain.c"
   669 ;; Parameters:    Size  Location     Type
   670 ;;		None
   671 ;; Auto vars:     Size  Location     Type
   672 ;;		None
   673 ;; Return value:  Size  Location     Type
   674 ;;                  1    wreg      void 
   675 ;; Registers used:
   676 ;;		wreg, status,2, status,0, pclath, cstack
   677 ;; Tracked objects:
   678 ;;		On entry : 0/0
   679 ;;		On exit  : 0/0
   680 ;;		Unchanged: 0/0
   681 ;; Data sizes:     COMMON   BANK0   BANK1   BANK3   BANK2
   682 ;;      Params:         0       0       0       0       0
   683 ;;      Locals:         0       0       0       0       0
   684 ;;      Temps:          0       0       0       0       0
   685 ;;      Totals:         0       0       0       0       0
   686 ;;Total ram usage:        0 bytes
   687 ;; Hardware stack levels used: 1
   688 ;; Hardware stack levels required when called: 4
   689 ;; This function calls:
   690 ;;		_PWM_Init
   691 ;;		_RX_Init
   692 ;;		_TX_Init
   693 ;; This function is called by:
   694 ;;		_main
   695 ;; This function uses a non-reentrant model
   696 ;;
   697                           
   698  0EF9                     _config:	
   699                           ;psect for function _config
   700                           
   701  0EF9                     l1292:	
   702                           ;incstack = 0
   703                           ; Regs used in _config: [wreg+status,2+status,0+pclath+cstack]
   704                           
   705                           
   706                           ;newmain.c: 99:     PWM_Init();
   707  0EF9  120A  158A  26C2  120A  158A  	fcall	_PWM_Init
   708                           
   709                           ;newmain.c: 100:     RX_Init();
   710  0EFE  120A  158A  26D1  120A  158A  	fcall	_RX_Init
   711                           
   712                           ;newmain.c: 101:     TX_Init();
   713  0F03  120A  158A  26E4  120A  158A  	fcall	_TX_Init
   714  0F08                     l1294:
   715                           
   716                           ;newmain.c: 103:  RCIF=0;
   717  0F08  1283               	bcf	3,5	;RP0=0, select bank0
   718  0F09  1303               	bcf	3,6	;RP1=0, select bank0
   719  0F0A  128C               	bcf	12,5	;volatile
   720  0F0B                     l1296:
   721                           
   722                           ;newmain.c: 104:  RCIE=1;
   723  0F0B  1683               	bsf	3,5	;RP0=1, select bank1
   724  0F0C  1303               	bcf	3,6	;RP1=0, select bank1
   725  0F0D  168C               	bsf	12,5	;volatile
   726  0F0E                     l1298:
   727                           
   728                           ;newmain.c: 105:  PEIE=1;
   729  0F0E  170B               	bsf	11,6	;volatile
   730  0F0F                     l1300:
   731                           
   732                           ;newmain.c: 106:  GIE=1;
   733  0F0F  178B               	bsf	11,7	;volatile
   734  0F10                     l1302:
   735                           
   736                           ;newmain.c: 108:     TRISC6 = 0;
   737  0F10  1307               	bcf	7,6	;volatile
   738  0F11                     l1304:
   739                           
   740                           ;newmain.c: 109:     TRISC7 = 1;
   741  0F11  1787               	bsf	7,7	;volatile
   742  0F12                     l1306:
   743                           
   744                           ;newmain.c: 110:     TRISC3 = TRISC4 = 0;
   745  0F12  1207               	bcf	7,4	;volatile
   746  0F13  1187               	bcf	7,3	;volatile
   747  0F14                     l1308:
   748                           
   749                           ;newmain.c: 111:     ANSEL = ANSELH = 0;
   750  0F14  1683               	bsf	3,5	;RP0=1, select bank3
   751  0F15  1703               	bsf	3,6	;RP1=1, select bank3
   752  0F16  0189               	clrf	9	;volatile
   753  0F17  0188               	clrf	8	;volatile
   754  0F18                     l106:
   755  0F18  0008               	return
   756  0F19                     __end_of_config:
   757                           
   758                           	psect	text2
   759  0EE4                     __ptext2:	
   760 ;; *************** function _TX_Init *****************
   761 ;; Defined at:
   762 ;;		line 33 in file "newmain.c"
   763 ;; Parameters:    Size  Location     Type
   764 ;;		None
   765 ;; Auto vars:     Size  Location     Type
   766 ;;		None
   767 ;; Return value:  Size  Location     Type
   768 ;;                  1    wreg      void 
   769 ;; Registers used:
   770 ;;		wreg
   771 ;; Tracked objects:
   772 ;;		On entry : 0/0
   773 ;;		On exit  : 0/0
   774 ;;		Unchanged: 0/0
   775 ;; Data sizes:     COMMON   BANK0   BANK1   BANK3   BANK2
   776 ;;      Params:         0       0       0       0       0
   777 ;;      Locals:         0       0       0       0       0
   778 ;;      Temps:          0       0       0       0       0
   779 ;;      Totals:         0       0       0       0       0
   780 ;;Total ram usage:        0 bytes
   781 ;; Hardware stack levels used: 1
   782 ;; Hardware stack levels required when called: 3
   783 ;; This function calls:
   784 ;;		Nothing
   785 ;; This function is called by:
   786 ;;		_config
   787 ;; This function uses a non-reentrant model
   788 ;;
   789                           
   790  0EE4                     _TX_Init:	
   791                           ;psect for function _TX_Init
   792                           
   793  0EE4                     l1222:	
   794                           ;incstack = 0
   795                           ; Regs used in _TX_Init: [wreg]
   796                           
   797                           
   798                           ;newmain.c: 37:  SPBRGH = ((20000000 / 4) / 9600) - 1 >> 8;
   799  0EE4  3002               	movlw	2
   800  0EE5  1683               	bsf	3,5	;RP0=1, select bank1
   801  0EE6  1303               	bcf	3,6	;RP1=0, select bank1
   802  0EE7  009A               	movwf	26	;volatile
   803                           
   804                           ;newmain.c: 38:  SPBRG = ((20000000 / 4) / 9600) - 1;
   805  0EE8  3007               	movlw	7
   806  0EE9  0099               	movwf	25	;volatile
   807  0EEA                     l1224:
   808                           
   809                           ;newmain.c: 40:  BRGH=1;
   810  0EEA  1518               	bsf	24,2	;volatile
   811  0EEB                     l1226:
   812                           
   813                           ;newmain.c: 41:  BRG16= 1;
   814  0EEB  1683               	bsf	3,5	;RP0=1, select bank3
   815  0EEC  1703               	bsf	3,6	;RP1=1, select bank3
   816  0EED  1587               	bsf	7,3	;volatile
   817  0EEE                     l1228:
   818                           
   819                           ;newmain.c: 42:  SYNC=0;
   820  0EEE  1683               	bsf	3,5	;RP0=1, select bank1
   821  0EEF  1303               	bcf	3,6	;RP1=0, select bank1
   822  0EF0  1218               	bcf	24,4	;volatile
   823  0EF1                     l1230:
   824                           
   825                           ;newmain.c: 44:  SPEN=1;
   826  0EF1  1283               	bcf	3,5	;RP0=0, select bank0
   827  0EF2  1303               	bcf	3,6	;RP1=0, select bank0
   828  0EF3  1798               	bsf	24,7	;volatile
   829  0EF4                     l1232:
   830                           
   831                           ;newmain.c: 45:  TX9=0;
   832  0EF4  1683               	bsf	3,5	;RP0=1, select bank1
   833  0EF5  1303               	bcf	3,6	;RP1=0, select bank1
   834  0EF6  1318               	bcf	24,6	;volatile
   835  0EF7                     l1234:
   836                           
   837                           ;newmain.c: 47:  TXEN=1;
   838  0EF7  1698               	bsf	24,5	;volatile
   839  0EF8                     l81:
   840  0EF8  0008               	return
   841  0EF9                     __end_of_TX_Init:
   842                           
   843                           	psect	text3
   844  0ED1                     __ptext3:	
   845 ;; *************** function _RX_Init *****************
   846 ;; Defined at:
   847 ;;		line 49 in file "newmain.c"
   848 ;; Parameters:    Size  Location     Type
   849 ;;		None
   850 ;; Auto vars:     Size  Location     Type
   851 ;;		None
   852 ;; Return value:  Size  Location     Type
   853 ;;                  1    wreg      void 
   854 ;; Registers used:
   855 ;;		wreg
   856 ;; Tracked objects:
   857 ;;		On entry : 0/0
   858 ;;		On exit  : 0/0
   859 ;;		Unchanged: 0/0
   860 ;; Data sizes:     COMMON   BANK0   BANK1   BANK3   BANK2
   861 ;;      Params:         0       0       0       0       0
   862 ;;      Locals:         0       0       0       0       0
   863 ;;      Temps:          0       0       0       0       0
   864 ;;      Totals:         0       0       0       0       0
   865 ;;Total ram usage:        0 bytes
   866 ;; Hardware stack levels used: 1
   867 ;; Hardware stack levels required when called: 3
   868 ;; This function calls:
   869 ;;		Nothing
   870 ;; This function is called by:
   871 ;;		_config
   872 ;; This function uses a non-reentrant model
   873 ;;
   874                           
   875  0ED1                     _RX_Init:	
   876                           ;psect for function _RX_Init
   877                           
   878  0ED1                     l1236:	
   879                           ;incstack = 0
   880                           ; Regs used in _RX_Init: [wreg]
   881                           
   882                           
   883                           ;newmain.c: 51:  SPBRGH = ((20000000 / 4) / 9600) - 1 >> 8;
   884  0ED1  3002               	movlw	2
   885  0ED2  1683               	bsf	3,5	;RP0=1, select bank1
   886  0ED3  1303               	bcf	3,6	;RP1=0, select bank1
   887  0ED4  009A               	movwf	26	;volatile
   888                           
   889                           ;newmain.c: 52:  SPBRG = ((20000000 / 4) / 9600) - 1;
   890  0ED5  3007               	movlw	7
   891  0ED6  0099               	movwf	25	;volatile
   892  0ED7                     l1238:
   893                           
   894                           ;newmain.c: 53:  BRGH = 1;
   895  0ED7  1518               	bsf	24,2	;volatile
   896  0ED8                     l1240:
   897                           
   898                           ;newmain.c: 54:  BRG16 = 1;
   899  0ED8  1683               	bsf	3,5	;RP0=1, select bank3
   900  0ED9  1703               	bsf	3,6	;RP1=1, select bank3
   901  0EDA  1587               	bsf	7,3	;volatile
   902  0EDB                     l1242:
   903                           
   904                           ;newmain.c: 56:  SYNC=0;
   905  0EDB  1683               	bsf	3,5	;RP0=1, select bank1
   906  0EDC  1303               	bcf	3,6	;RP1=0, select bank1
   907  0EDD  1218               	bcf	24,4	;volatile
   908  0EDE                     l1244:
   909                           
   910                           ;newmain.c: 57:  SPEN=1;
   911  0EDE  1283               	bcf	3,5	;RP0=0, select bank0
   912  0EDF  1303               	bcf	3,6	;RP1=0, select bank0
   913  0EE0  1798               	bsf	24,7	;volatile
   914  0EE1                     l1246:
   915                           
   916                           ;newmain.c: 59:  RX9=0;
   917  0EE1  1318               	bcf	24,6	;volatile
   918  0EE2                     l1248:
   919                           
   920                           ;newmain.c: 61:  CREN=1;
   921  0EE2  1618               	bsf	24,4	;volatile
   922  0EE3                     l84:
   923  0EE3  0008               	return
   924  0EE4                     __end_of_RX_Init:
   925                           
   926                           	psect	text4
   927  0EC2                     __ptext4:	
   928 ;; *************** function _PWM_Init *****************
   929 ;; Defined at:
   930 ;;		line 73 in file "newmain.c"
   931 ;; Parameters:    Size  Location     Type
   932 ;;		None
   933 ;; Auto vars:     Size  Location     Type
   934 ;;		None
   935 ;; Return value:  Size  Location     Type
   936 ;;                  1    wreg      void 
   937 ;; Registers used:
   938 ;;		wreg
   939 ;; Tracked objects:
   940 ;;		On entry : 0/0
   941 ;;		On exit  : 0/0
   942 ;;		Unchanged: 0/0
   943 ;; Data sizes:     COMMON   BANK0   BANK1   BANK3   BANK2
   944 ;;      Params:         0       0       0       0       0
   945 ;;      Locals:         0       0       0       0       0
   946 ;;      Temps:          0       0       0       0       0
   947 ;;      Totals:         0       0       0       0       0
   948 ;;Total ram usage:        0 bytes
   949 ;; Hardware stack levels used: 1
   950 ;; Hardware stack levels required when called: 3
   951 ;; This function calls:
   952 ;;		Nothing
   953 ;; This function is called by:
   954 ;;		_config
   955 ;; This function uses a non-reentrant model
   956 ;;
   957                           
   958  0EC2                     _PWM_Init:	
   959                           ;psect for function _PWM_Init
   960                           
   961  0EC2                     l1254:	
   962                           ;incstack = 0
   963                           ; Regs used in _PWM_Init: [wreg]
   964                           
   965                           
   966                           ;newmain.c: 76:       CCP1M3 = 1;
   967  0EC2  1283               	bcf	3,5	;RP0=0, select bank0
   968  0EC3  1303               	bcf	3,6	;RP1=0, select bank0
   969  0EC4  1597               	bsf	23,3	;volatile
   970                           
   971                           ;newmain.c: 77:       CCP1M2 = 1;
   972  0EC5  1517               	bsf	23,2	;volatile
   973                           
   974                           ;newmain.c: 78:       TRISC2 = 0;
   975  0EC6  1683               	bsf	3,5	;RP0=1, select bank1
   976  0EC7  1303               	bcf	3,6	;RP1=0, select bank1
   977  0EC8  1107               	bcf	7,2	;volatile
   978  0EC9                     l1256:
   979                           
   980                           ;newmain.c: 80:       PR2 = 124;
   981  0EC9  307C               	movlw	124
   982  0ECA  0092               	movwf	18	;volatile
   983  0ECB                     l1258:
   984                           
   985                           ;newmain.c: 82:       T2CKPS0 = 1;
   986  0ECB  1283               	bcf	3,5	;RP0=0, select bank0
   987  0ECC  1303               	bcf	3,6	;RP1=0, select bank0
   988  0ECD  1412               	bsf	18,0	;volatile
   989  0ECE                     l1260:
   990                           
   991                           ;newmain.c: 83:       T2CKPS1 = 0;
   992  0ECE  1092               	bcf	18,1	;volatile
   993  0ECF                     l1262:
   994                           
   995                           ;newmain.c: 85:       TMR2ON = 1;
   996  0ECF  1512               	bsf	18,2	;volatile
   997  0ED0                     l99:
   998  0ED0  0008               	return
   999  0ED1                     __end_of_PWM_Init:
  1000                           
  1001                           	psect	text5
  1002  0F3C                     __ptext5:	
  1003 ;; *************** function _UART_send_string *****************
  1004 ;; Defined at:
  1005 ;;		line 68 in file "newmain.c"
  1006 ;; Parameters:    Size  Location     Type
  1007 ;;  st_pt           1    wreg     PTR unsigned char 
  1008 ;;		 -> STR_1(32), 
  1009 ;; Auto vars:     Size  Location     Type
  1010 ;;  st_pt           1    2[BANK1 ] PTR unsigned char 
  1011 ;;		 -> STR_1(32), 
  1012 ;; Return value:  Size  Location     Type
  1013 ;;                  1    wreg      void 
  1014 ;; Registers used:
  1015 ;;		wreg, fsr0l, fsr0h, status,2, status,0, pclath, cstack
  1016 ;; Tracked objects:
  1017 ;;		On entry : 0/0
  1018 ;;		On exit  : 0/0
  1019 ;;		Unchanged: 0/0
  1020 ;; Data sizes:     COMMON   BANK0   BANK1   BANK3   BANK2
  1021 ;;      Params:         0       0       0       0       0
  1022 ;;      Locals:         0       0       1       0       0
  1023 ;;      Temps:          0       0       1       0       0
  1024 ;;      Totals:         0       0       2       0       0
  1025 ;;Total ram usage:        2 bytes
  1026 ;; Hardware stack levels used: 1
  1027 ;; Hardware stack levels required when called: 4
  1028 ;; This function calls:
  1029 ;;		_UART_send_char
  1030 ;; This function is called by:
  1031 ;;		_main
  1032 ;; This function uses a non-reentrant model
  1033 ;;
  1034                           
  1035  0F3C                     _UART_send_string:	
  1036                           ;psect for function _UART_send_string
  1037                           
  1038                           
  1039                           ;incstack = 0
  1040                           ; Regs used in _UART_send_string: [wreg-fsr0h+status,2+status,0+pclath+cstack]
  1041                           ;UART_send_string@st_pt stored from wreg
  1042  0F3C  1683               	bsf	3,5	;RP0=1, select bank1
  1043  0F3D  1303               	bcf	3,6	;RP1=0, select bank1
  1044  0F3E  00A2               	movwf	UART_send_string@st_pt^(0+128)
  1045  0F3F                     l1278:
  1046                           
  1047                           ;newmain.c: 68: void UART_send_string(char* st_pt);newmain.c: 69: {;newmain.c: 70:     w
      +                          hile(*st_pt)
  1048  0F3F  2F52               	goto	l1284
  1049  0F40                     l1280:
  1050                           
  1051                           ;newmain.c: 71:         UART_send_char(*st_pt++);
  1052  0F40  0822               	movf	UART_send_string@st_pt^(0+128),w
  1053  0F41  0084               	movwf	4
  1054  0F42  120A  158A  2000  120A  158A  	fcall	stringdir
  1055  0F47  120A  158A  26B3  120A  158A  	fcall	_UART_send_char
  1056  0F4C                     l1282:
  1057  0F4C  3001               	movlw	1
  1058  0F4D  1683               	bsf	3,5	;RP0=1, select bank1
  1059  0F4E  1303               	bcf	3,6	;RP1=0, select bank1
  1060  0F4F  00A1               	movwf	??_UART_send_string^(0+128)
  1061  0F50  0821               	movf	??_UART_send_string^(0+128),w
  1062  0F51  07A2               	addwf	UART_send_string@st_pt^(0+128),f
  1063  0F52                     l1284:
  1064                           
  1065                           ;newmain.c: 70:     while(*st_pt)
  1066  0F52  0822               	movf	UART_send_string@st_pt^(0+128),w
  1067  0F53  0084               	movwf	4
  1068  0F54  120A  158A  2000  120A  158A  	fcall	stringdir
  1069  0F59  3A00               	xorlw	0
  1070  0F5A  1D03               	skipz
  1071  0F5B  2F5D               	goto	u1151
  1072  0F5C  2F5E               	goto	u1150
  1073  0F5D                     u1151:
  1074  0F5D  2F40               	goto	l1280
  1075  0F5E                     u1150:
  1076  0F5E                     l96:
  1077  0F5E  0008               	return
  1078  0F5F                     __end_of_UART_send_string:
  1079                           
  1080                           	psect	text6
  1081  0EB3                     __ptext6:	
  1082 ;; *************** function _UART_send_char *****************
  1083 ;; Defined at:
  1084 ;;		line 63 in file "newmain.c"
  1085 ;; Parameters:    Size  Location     Type
  1086 ;;  bt              1    wreg     unsigned char 
  1087 ;; Auto vars:     Size  Location     Type
  1088 ;;  bt              1    0[BANK1 ] unsigned char 
  1089 ;; Return value:  Size  Location     Type
  1090 ;;                  1    wreg      void 
  1091 ;; Registers used:
  1092 ;;		wreg
  1093 ;; Tracked objects:
  1094 ;;		On entry : 0/0
  1095 ;;		On exit  : 0/0
  1096 ;;		Unchanged: 0/0
  1097 ;; Data sizes:     COMMON   BANK0   BANK1   BANK3   BANK2
  1098 ;;      Params:         0       0       0       0       0
  1099 ;;      Locals:         0       0       1       0       0
  1100 ;;      Temps:          0       0       0       0       0
  1101 ;;      Totals:         0       0       1       0       0
  1102 ;;Total ram usage:        1 bytes
  1103 ;; Hardware stack levels used: 1
  1104 ;; Hardware stack levels required when called: 3
  1105 ;; This function calls:
  1106 ;;		Nothing
  1107 ;; This function is called by:
  1108 ;;		_UART_send_string
  1109 ;; This function uses a non-reentrant model
  1110 ;;
  1111                           
  1112  0EB3                     _UART_send_char:	
  1113                           ;psect for function _UART_send_char
  1114                           
  1115                           
  1116                           ;incstack = 0
  1117                           ; Regs used in _UART_send_char: [wreg]
  1118                           ;UART_send_char@bt stored from wreg
  1119  0EB3  1683               	bsf	3,5	;RP0=1, select bank1
  1120  0EB4  1303               	bcf	3,6	;RP1=0, select bank1
  1121  0EB5  00A0               	movwf	UART_send_char@bt^(0+128)
  1122  0EB6                     l1250:
  1123  0EB6                     l87:	
  1124                           ;newmain.c: 63: void UART_send_char(char bt);newmain.c: 64: {;newmain.c: 65:     while(!
      +                          TXIF);
  1125                           
  1126  0EB6  1283               	bcf	3,5	;RP0=0, select bank0
  1127  0EB7  1E0C               	btfss	12,4	;volatile
  1128  0EB8  2EBA               	goto	u1111
  1129  0EB9  2EBB               	goto	u1110
  1130  0EBA                     u1111:
  1131  0EBA  2EB6               	goto	l87
  1132  0EBB                     u1110:
  1133  0EBB                     l1252:
  1134                           
  1135                           ;newmain.c: 66:     TXREG = bt;
  1136  0EBB  1683               	bsf	3,5	;RP0=1, select bank1
  1137  0EBC  1303               	bcf	3,6	;RP1=0, select bank1
  1138  0EBD  0820               	movf	UART_send_char@bt^(0+128),w
  1139  0EBE  1283               	bcf	3,5	;RP0=0, select bank0
  1140  0EBF  1303               	bcf	3,6	;RP1=0, select bank0
  1141  0EC0  0099               	movwf	25	;volatile
  1142  0EC1                     l90:
  1143  0EC1  0008               	return
  1144  0EC2                     __end_of_UART_send_char:
  1145                           
  1146                           	psect	text7
  1147  0799                     __ptext7:	
  1148 ;; *************** function _PWM_Set_Duty *****************
  1149 ;; Defined at:
  1150 ;;		line 87 in file "newmain.c"
  1151 ;; Parameters:    Size  Location     Type
  1152 ;;  DC              2    0[BANK1 ] unsigned int 
  1153 ;; Auto vars:     Size  Location     Type
  1154 ;;		None
  1155 ;; Return value:  Size  Location     Type
  1156 ;;                  1    wreg      void 
  1157 ;; Registers used:
  1158 ;;		wreg, status,2, status,0
  1159 ;; Tracked objects:
  1160 ;;		On entry : 0/0
  1161 ;;		On exit  : 0/0
  1162 ;;		Unchanged: 0/0
  1163 ;; Data sizes:     COMMON   BANK0   BANK1   BANK3   BANK2
  1164 ;;      Params:         0       0       2       0       0
  1165 ;;      Locals:         0       0       0       0       0
  1166 ;;      Temps:          0       0       2       0       0
  1167 ;;      Totals:         0       0       4       0       0
  1168 ;;Total ram usage:        4 bytes
  1169 ;; Hardware stack levels used: 1
  1170 ;; Hardware stack levels required when called: 3
  1171 ;; This function calls:
  1172 ;;		Nothing
  1173 ;; This function is called by:
  1174 ;;		_main
  1175 ;; This function uses a non-reentrant model
  1176 ;;
  1177                           
  1178  0799                     _PWM_Set_Duty:	
  1179                           ;psect for function _PWM_Set_Duty
  1180                           
  1181  0799                     l1286:	
  1182                           ;incstack = 0
  1183                           ; Regs used in _PWM_Set_Duty: [wreg+status,2+status,0]
  1184                           
  1185                           
  1186                           ;newmain.c: 87: void PWM_Set_Duty(uint16_t DC);newmain.c: 88: {;newmain.c: 90:     if(DC
      +                          <1024)
  1187  0799  3004               	movlw	4
  1188  079A  1683               	bsf	3,5	;RP0=1, select bank1
  1189  079B  1303               	bcf	3,6	;RP1=0, select bank1
  1190  079C  0221               	subwf	(PWM_Set_Duty@DC+1)^(0+128),w
  1191  079D  3000               	movlw	0
  1192  079E  1903               	skipnz
  1193  079F  0220               	subwf	PWM_Set_Duty@DC^(0+128),w
  1194  07A0  1803               	skipnc
  1195  07A1  2FA3               	goto	u1161
  1196  07A2  2FA4               	goto	u1160
  1197  07A3                     u1161:
  1198  07A3  2FBF               	goto	l103
  1199  07A4                     u1160:
  1200  07A4                     l1288:
  1201                           
  1202                           ;newmain.c: 91:     {;newmain.c: 92:         CCP1Y = DC & 1;
  1203  07A4  1820               	btfsc	PWM_Set_Duty@DC^(0+128),0
  1204  07A5  2FA7               	goto	u1171
  1205  07A6  2FAB               	goto	u1170
  1206  07A7                     u1171:
  1207  07A7  1283               	bcf	3,5	;RP0=0, select bank0
  1208  07A8  1303               	bcf	3,6	;RP1=0, select bank0
  1209  07A9  1617               	bsf	23,4	;volatile
  1210  07AA  2FAE               	goto	u1184
  1211  07AB                     u1170:
  1212  07AB  1283               	bcf	3,5	;RP0=0, select bank0
  1213  07AC  1303               	bcf	3,6	;RP1=0, select bank0
  1214  07AD  1217               	bcf	23,4	;volatile
  1215  07AE                     u1184:
  1216                           
  1217                           ;newmain.c: 93:         CCP1X = DC & 2;
  1218  07AE  1297               	bcf	23,5	;volatile
  1219  07AF                     l1290:
  1220                           
  1221                           ;newmain.c: 94:         CCPR1L = DC >> 2;
  1222  07AF  1683               	bsf	3,5	;RP0=1, select bank1
  1223  07B0  1303               	bcf	3,6	;RP1=0, select bank1
  1224  07B1  0821               	movf	(PWM_Set_Duty@DC+1)^(0+128),w
  1225  07B2  00A3               	movwf	(??_PWM_Set_Duty^(0+128)+1)
  1226  07B3  0820               	movf	PWM_Set_Duty@DC^(0+128),w
  1227  07B4  00A2               	movwf	??_PWM_Set_Duty^(0+128)
  1228  07B5  1003               	clrc
  1229  07B6  0CA3               	rrf	(??_PWM_Set_Duty^(0+128)+1),f
  1230  07B7  0CA2               	rrf	??_PWM_Set_Duty^(0+128),f
  1231  07B8  1003               	clrc
  1232  07B9  0CA3               	rrf	(??_PWM_Set_Duty^(0+128)+1),f
  1233  07BA  0CA2               	rrf	??_PWM_Set_Duty^(0+128),f
  1234  07BB  0822               	movf	??_PWM_Set_Duty^(0+128),w
  1235  07BC  1283               	bcf	3,5	;RP0=0, select bank0
  1236  07BD  1303               	bcf	3,6	;RP1=0, select bank0
  1237  07BE  0095               	movwf	21	;volatile
  1238  07BF                     l103:
  1239  07BF  0008               	return
  1240  07C0                     __end_of_PWM_Set_Duty:
  1241                           
  1242                           	psect	text8
  1243  0563                     __ptext8:	
  1244 ;; *************** function _ISR *****************
  1245 ;; Defined at:
  1246 ;;		line 158 in file "newmain.c"
  1247 ;; Parameters:    Size  Location     Type
  1248 ;;		None
  1249 ;; Auto vars:     Size  Location     Type
  1250 ;;  i               1   67[BANK0 ] unsigned char 
  1251 ;; Return value:  Size  Location     Type
  1252 ;;                  1    wreg      void 
  1253 ;; Registers used:
  1254 ;;		wreg, status,2, status,0, btemp+1, pclath, cstack
  1255 ;; Tracked objects:
  1256 ;;		On entry : 0/0
  1257 ;;		On exit  : 0/0
  1258 ;;		Unchanged: 0/0
  1259 ;; Data sizes:     COMMON   BANK0   BANK1   BANK3   BANK2
  1260 ;;      Params:         0       0       0       0       0
  1261 ;;      Locals:         0       1       0       0       0
  1262 ;;      Temps:          0       9       0       0       0
  1263 ;;      Totals:         0      10       0       0       0
  1264 ;;Total ram usage:       10 bytes
  1265 ;; Hardware stack levels used: 1
  1266 ;; Hardware stack levels required when called: 2
  1267 ;; This function calls:
  1268 ;;		___fldiv
  1269 ;;		___flmul
  1270 ;;		___fltol
  1271 ;;		___wmul
  1272 ;;		___xxtofl
  1273 ;;		i1_PWM_Set_Duty
  1274 ;; This function is called by:
  1275 ;;		Interrupt level 1
  1276 ;; This function uses a non-reentrant model
  1277 ;;
  1278                           
  1279  0563                     _ISR:	
  1280                           ;psect for function _ISR
  1281                           
  1282  0563                     i1l1698:
  1283                           
  1284                           ;newmain.c: 160:     if(RCIE && RCIF)
  1285  0563  1683               	bsf	3,5	;RP0=1, select bank1
  1286  0564  1303               	bcf	3,6	;RP1=0, select bank1
  1287  0565  1E8C               	btfss	12,5	;volatile
  1288  0566  2D68               	goto	u216_21
  1289  0567  2D69               	goto	u216_20
  1290  0568                     u216_21:
  1291  0568  2ED2               	goto	i1l119
  1292  0569                     u216_20:
  1293  0569                     i1l1700:
  1294  0569  1283               	bcf	3,5	;RP0=0, select bank0
  1295  056A  1303               	bcf	3,6	;RP1=0, select bank0
  1296  056B  1E8C               	btfss	12,5	;volatile
  1297  056C  2D6E               	goto	u217_21
  1298  056D  2D6F               	goto	u217_20
  1299  056E                     u217_21:
  1300  056E  2ED2               	goto	i1l119
  1301  056F                     u217_20:
  1302  056F                     i1l1702:
  1303                           
  1304                           ;newmain.c: 161:     {;newmain.c: 162:         for(unsigned char i = 0; i < 3; i++)
  1305  056F  01E3               	clrf	ISR@i
  1306  0570                     i1l1708:
  1307                           
  1308                           ;newmain.c: 163:         {;newmain.c: 164:             if(lenh[0] == 'L')
  1309  0570  304C               	movlw	76
  1310  0571  0668               	xorwf	_lenh,w
  1311  0572  1D03               	btfss	3,2
  1312  0573  2D75               	goto	u218_21
  1313  0574  2D76               	goto	u218_20
  1314  0575                     u218_21:
  1315  0575  2E1A               	goto	i1l122
  1316  0576                     u218_20:
  1317  0576                     i1l1710:
  1318                           
  1319                           ;newmain.c: 165:             {;newmain.c: 166:                 PORTCbits.RC3 = 0; PORTCb
      +                          its.RC4 = 1;
  1320  0576  1187               	bcf	7,3	;volatile
  1321  0577  1607               	bsf	7,4	;volatile
  1322  0578                     i1l1712:
  1323                           
  1324                           ;newmain.c: 167:                 chuc = lenh[1] - 48;
  1325  0578  0869               	movf	_lenh+1,w
  1326  0579  3ED0               	addlw	208
  1327  057A  00DA               	movwf	??_ISR
  1328  057B  085A               	movf	??_ISR,w
  1329  057C  00EE               	movwf	_chuc
  1330                           
  1331                           ;newmain.c: 168:                 donvi = lenh[2] - 48;
  1332  057D  086A               	movf	_lenh+2,w
  1333  057E  3ED0               	addlw	208
  1334  057F  00DA               	movwf	??_ISR
  1335  0580  085A               	movf	??_ISR,w
  1336  0581  00ED               	movwf	_donvi
  1337  0582                     i1l1714:
  1338                           
  1339                           ;newmain.c: 169:                 val = ((lenh[1] - 48) * 10 + (lenh[0] - 48)) *1.0/ 100;
  1340  0582  3042               	movlw	66
  1341  0583  00C3               	movwf	___fldiv@a+3
  1342  0584  30C8               	movlw	200
  1343  0585  00C2               	movwf	___fldiv@a+2
  1344  0586  3000               	movlw	0
  1345  0587  00C1               	movwf	___fldiv@a+1
  1346  0588  3000               	movlw	0
  1347  0589  00C0               	movwf	___fldiv@a
  1348  058A  303F               	movlw	63
  1349  058B  00A9               	movwf	___flmul@b+3
  1350  058C  3080               	movlw	128
  1351  058D  00A8               	movwf	___flmul@b+2
  1352  058E  3000               	movlw	0
  1353  058F  00A7               	movwf	___flmul@b+1
  1354  0590  3000               	movlw	0
  1355  0591  00A6               	movwf	___flmul@b
  1356  0592  300A               	movlw	10
  1357  0593  00F2               	movwf	___wmul@multiplicand
  1358  0594  3000               	movlw	0
  1359  0595  00F3               	movwf	___wmul@multiplicand+1
  1360  0596  0869               	movf	_lenh+1,w
  1361  0597  00DA               	movwf	??_ISR
  1362  0598  01DB               	clrf	??_ISR+1
  1363  0599  085A               	movf	??_ISR,w
  1364  059A  00F0               	movwf	___wmul@multiplier
  1365  059B  085B               	movf	??_ISR+1,w
  1366  059C  00F1               	movwf	___wmul@multiplier+1
  1367  059D  120A  158A  275F  120A  118A  	fcall	___wmul
  1368  05A2  1283               	bcf	3,5	;RP0=0, select bank0
  1369  05A3  1303               	bcf	3,6	;RP1=0, select bank0
  1370  05A4  0868               	movf	_lenh,w
  1371  05A5  0770               	addwf	?___wmul,w
  1372  05A6  00DC               	movwf	??_ISR+2
  1373  05A7  3000               	movlw	0
  1374  05A8  1803               	skipnc
  1375  05A9  3001               	movlw	1
  1376  05AA  0771               	addwf	?___wmul+1,w
  1377  05AB  00DD               	movwf	??_ISR+3
  1378  05AC  085C               	movf	??_ISR+2,w
  1379  05AD  3EF0               	addlw	240
  1380  05AE  00DE               	movwf	??_ISR+4
  1381  05AF  085D               	movf	??_ISR+3,w
  1382  05B0  1803               	skipnc
  1383  05B1  3E01               	addlw	1
  1384  05B2  3EFD               	addlw	253
  1385  05B3  00DF               	movwf	??_ISR+5
  1386  05B4  085E               	movf	??_ISR+4,w
  1387  05B5  00F6               	movwf	___xxtofl@val
  1388  05B6  085F               	movf	??_ISR+5,w
  1389  05B7  00F7               	movwf	___xxtofl@val+1
  1390  05B8  3000               	movlw	0
  1391  05B9  1BF7               	btfsc	___xxtofl@val+1,7
  1392  05BA  30FF               	movlw	255
  1393  05BB  00F8               	movwf	___xxtofl@val+2
  1394  05BC  00F9               	movwf	___xxtofl@val+3
  1395  05BD  3001               	movlw	1
  1396  05BE  120A  118A  26DD  120A  118A  	fcall	___xxtofl
  1397  05C3  0879               	movf	?___xxtofl+3,w
  1398  05C4  1283               	bcf	3,5	;RP0=0, select bank0
  1399  05C5  1303               	bcf	3,6	;RP1=0, select bank0
  1400  05C6  00AD               	movwf	___flmul@a+3
  1401  05C7  0878               	movf	?___xxtofl+2,w
  1402  05C8  00AC               	movwf	___flmul@a+2
  1403  05C9  0877               	movf	?___xxtofl+1,w
  1404  05CA  00AB               	movwf	___flmul@a+1
  1405  05CB  0876               	movf	?___xxtofl,w
  1406  05CC  00AA               	movwf	___flmul@a
  1407  05CD  120A  118A  2025  120A  118A  	fcall	___flmul
  1408  05D2  1283               	bcf	3,5	;RP0=0, select bank0
  1409  05D3  1303               	bcf	3,6	;RP1=0, select bank0
  1410  05D4  0829               	movf	?___flmul+3,w
  1411  05D5  00C7               	movwf	___fldiv@b+3
  1412  05D6  0828               	movf	?___flmul+2,w
  1413  05D7  00C6               	movwf	___fldiv@b+2
  1414  05D8  0827               	movf	?___flmul+1,w
  1415  05D9  00C5               	movwf	___fldiv@b+1
  1416  05DA  0826               	movf	?___flmul,w
  1417  05DB  00C4               	movwf	___fldiv@b
  1418  05DC  120A  118A  2386  120A  118A  	fcall	___fldiv
  1419  05E1  1283               	bcf	3,5	;RP0=0, select bank0
  1420  05E2  1303               	bcf	3,6	;RP1=0, select bank0
  1421  05E3  0843               	movf	?___fldiv+3,w
  1422  05E4  00E7               	movwf	_val+3
  1423  05E5  0842               	movf	?___fldiv+2,w
  1424  05E6  00E6               	movwf	_val+2
  1425  05E7  0841               	movf	?___fldiv+1,w
  1426  05E8  00E5               	movwf	_val+1
  1427  05E9  0840               	movf	?___fldiv,w
  1428  05EA  00E4               	movwf	_val
  1429  05EB                     i1l1716:
  1430                           
  1431                           ;newmain.c: 170:                 PWM_Set_Duty(val * 500);
  1432  05EB  0867               	movf	_val+3,w
  1433  05EC  00AD               	movwf	___flmul@a+3
  1434  05ED  0866               	movf	_val+2,w
  1435  05EE  00AC               	movwf	___flmul@a+2
  1436  05EF  0865               	movf	_val+1,w
  1437  05F0  00AB               	movwf	___flmul@a+1
  1438  05F1  0864               	movf	_val,w
  1439  05F2  00AA               	movwf	___flmul@a
  1440  05F3  3043               	movlw	67
  1441  05F4  00A9               	movwf	___flmul@b+3
  1442  05F5  30FA               	movlw	250
  1443  05F6  00A8               	movwf	___flmul@b+2
  1444  05F7  3000               	movlw	0
  1445  05F8  00A7               	movwf	___flmul@b+1
  1446  05F9  3000               	movlw	0
  1447  05FA  00A6               	movwf	___flmul@b
  1448  05FB  120A  118A  2025  120A  118A  	fcall	___flmul
  1449  0600  1283               	bcf	3,5	;RP0=0, select bank0
  1450  0601  1303               	bcf	3,6	;RP1=0, select bank0
  1451  0602  0829               	movf	?___flmul+3,w
  1452  0603  00C3               	movwf	___fltol@f1+3
  1453  0604  0828               	movf	?___flmul+2,w
  1454  0605  00C2               	movwf	___fltol@f1+2
  1455  0606  0827               	movf	?___flmul+1,w
  1456  0607  00C1               	movwf	___fltol@f1+1
  1457  0608  0826               	movf	?___flmul,w
  1458  0609  00C0               	movwf	___fltol@f1
  1459  060A  120A  158A  2784  120A  118A  	fcall	___fltol
  1460  060F  1283               	bcf	3,5	;RP0=0, select bank0
  1461  0610  1303               	bcf	3,6	;RP1=0, select bank0
  1462  0611  0841               	movf	?___fltol+1,w
  1463  0612  00CC               	movwf	i1PWM_Set_Duty@DC+1
  1464  0613  0840               	movf	?___fltol,w
  1465  0614  00CB               	movwf	i1PWM_Set_Duty@DC
  1466  0615  120A  158A  2719  120A  118A  	fcall	i1_PWM_Set_Duty
  1467  061A                     i1l122:	
  1468                           ;newmain.c: 171:             }
  1469                           
  1470                           
  1471                           ;newmain.c: 172:             if(lenh[0] == 'R')
  1472  061A  3052               	movlw	82
  1473  061B  1283               	bcf	3,5	;RP0=0, select bank0
  1474  061C  1303               	bcf	3,6	;RP1=0, select bank0
  1475  061D  0668               	xorwf	_lenh,w
  1476  061E  1D03               	btfss	3,2
  1477  061F  2E21               	goto	u219_21
  1478  0620  2E22               	goto	u219_20
  1479  0621                     u219_21:
  1480  0621  2EC6               	goto	i1l123
  1481  0622                     u219_20:
  1482  0622                     i1l1718:
  1483                           
  1484                           ;newmain.c: 173:             {;newmain.c: 174:                 PORTCbits.RC3 = 1; PORTCb
      +                          its.RC4 = 0;
  1485  0622  1587               	bsf	7,3	;volatile
  1486  0623  1207               	bcf	7,4	;volatile
  1487  0624                     i1l1720:
  1488                           
  1489                           ;newmain.c: 175:                 chuc = lenh[1] - 48;
  1490  0624  0869               	movf	_lenh+1,w
  1491  0625  3ED0               	addlw	208
  1492  0626  00DA               	movwf	??_ISR
  1493  0627  085A               	movf	??_ISR,w
  1494  0628  00EE               	movwf	_chuc
  1495                           
  1496                           ;newmain.c: 176:                 donvi = lenh[2] - 48;
  1497  0629  086A               	movf	_lenh+2,w
  1498  062A  3ED0               	addlw	208
  1499  062B  00DA               	movwf	??_ISR
  1500  062C  085A               	movf	??_ISR,w
  1501  062D  00ED               	movwf	_donvi
  1502  062E                     i1l1722:
  1503                           
  1504                           ;newmain.c: 177:                 val = ((lenh[1] - 48) * 10 + (lenh[0] - 48)) *1.0/ 100;
  1505  062E  3042               	movlw	66
  1506  062F  00C3               	movwf	___fldiv@a+3
  1507  0630  30C8               	movlw	200
  1508  0631  00C2               	movwf	___fldiv@a+2
  1509  0632  3000               	movlw	0
  1510  0633  00C1               	movwf	___fldiv@a+1
  1511  0634  3000               	movlw	0
  1512  0635  00C0               	movwf	___fldiv@a
  1513  0636  303F               	movlw	63
  1514  0637  00A9               	movwf	___flmul@b+3
  1515  0638  3080               	movlw	128
  1516  0639  00A8               	movwf	___flmul@b+2
  1517  063A  3000               	movlw	0
  1518  063B  00A7               	movwf	___flmul@b+1
  1519  063C  3000               	movlw	0
  1520  063D  00A6               	movwf	___flmul@b
  1521  063E  300A               	movlw	10
  1522  063F  00F2               	movwf	___wmul@multiplicand
  1523  0640  3000               	movlw	0
  1524  0641  00F3               	movwf	___wmul@multiplicand+1
  1525  0642  0869               	movf	_lenh+1,w
  1526  0643  00DA               	movwf	??_ISR
  1527  0644  01DB               	clrf	??_ISR+1
  1528  0645  085A               	movf	??_ISR,w
  1529  0646  00F0               	movwf	___wmul@multiplier
  1530  0647  085B               	movf	??_ISR+1,w
  1531  0648  00F1               	movwf	___wmul@multiplier+1
  1532  0649  120A  158A  275F  120A  118A  	fcall	___wmul
  1533  064E  1283               	bcf	3,5	;RP0=0, select bank0
  1534  064F  1303               	bcf	3,6	;RP1=0, select bank0
  1535  0650  0868               	movf	_lenh,w
  1536  0651  0770               	addwf	?___wmul,w
  1537  0652  00DC               	movwf	??_ISR+2
  1538  0653  3000               	movlw	0
  1539  0654  1803               	skipnc
  1540  0655  3001               	movlw	1
  1541  0656  0771               	addwf	?___wmul+1,w
  1542  0657  00DD               	movwf	??_ISR+3
  1543  0658  085C               	movf	??_ISR+2,w
  1544  0659  3EF0               	addlw	240
  1545  065A  00DE               	movwf	??_ISR+4
  1546  065B  085D               	movf	??_ISR+3,w
  1547  065C  1803               	skipnc
  1548  065D  3E01               	addlw	1
  1549  065E  3EFD               	addlw	253
  1550  065F  00DF               	movwf	??_ISR+5
  1551  0660  085E               	movf	??_ISR+4,w
  1552  0661  00F6               	movwf	___xxtofl@val
  1553  0662  085F               	movf	??_ISR+5,w
  1554  0663  00F7               	movwf	___xxtofl@val+1
  1555  0664  3000               	movlw	0
  1556  0665  1BF7               	btfsc	___xxtofl@val+1,7
  1557  0666  30FF               	movlw	255
  1558  0667  00F8               	movwf	___xxtofl@val+2
  1559  0668  00F9               	movwf	___xxtofl@val+3
  1560  0669  3001               	movlw	1
  1561  066A  120A  118A  26DD  120A  118A  	fcall	___xxtofl
  1562  066F  0879               	movf	?___xxtofl+3,w
  1563  0670  1283               	bcf	3,5	;RP0=0, select bank0
  1564  0671  1303               	bcf	3,6	;RP1=0, select bank0
  1565  0672  00AD               	movwf	___flmul@a+3
  1566  0673  0878               	movf	?___xxtofl+2,w
  1567  0674  00AC               	movwf	___flmul@a+2
  1568  0675  0877               	movf	?___xxtofl+1,w
  1569  0676  00AB               	movwf	___flmul@a+1
  1570  0677  0876               	movf	?___xxtofl,w
  1571  0678  00AA               	movwf	___flmul@a
  1572  0679  120A  118A  2025  120A  118A  	fcall	___flmul
  1573  067E  1283               	bcf	3,5	;RP0=0, select bank0
  1574  067F  1303               	bcf	3,6	;RP1=0, select bank0
  1575  0680  0829               	movf	?___flmul+3,w
  1576  0681  00C7               	movwf	___fldiv@b+3
  1577  0682  0828               	movf	?___flmul+2,w
  1578  0683  00C6               	movwf	___fldiv@b+2
  1579  0684  0827               	movf	?___flmul+1,w
  1580  0685  00C5               	movwf	___fldiv@b+1
  1581  0686  0826               	movf	?___flmul,w
  1582  0687  00C4               	movwf	___fldiv@b
  1583  0688  120A  118A  2386  120A  118A  	fcall	___fldiv
  1584  068D  1283               	bcf	3,5	;RP0=0, select bank0
  1585  068E  1303               	bcf	3,6	;RP1=0, select bank0
  1586  068F  0843               	movf	?___fldiv+3,w
  1587  0690  00E7               	movwf	_val+3
  1588  0691  0842               	movf	?___fldiv+2,w
  1589  0692  00E6               	movwf	_val+2
  1590  0693  0841               	movf	?___fldiv+1,w
  1591  0694  00E5               	movwf	_val+1
  1592  0695  0840               	movf	?___fldiv,w
  1593  0696  00E4               	movwf	_val
  1594  0697                     i1l1724:
  1595                           
  1596                           ;newmain.c: 178:                 PWM_Set_Duty(val * 500);
  1597  0697  0867               	movf	_val+3,w
  1598  0698  00AD               	movwf	___flmul@a+3
  1599  0699  0866               	movf	_val+2,w
  1600  069A  00AC               	movwf	___flmul@a+2
  1601  069B  0865               	movf	_val+1,w
  1602  069C  00AB               	movwf	___flmul@a+1
  1603  069D  0864               	movf	_val,w
  1604  069E  00AA               	movwf	___flmul@a
  1605  069F  3043               	movlw	67
  1606  06A0  00A9               	movwf	___flmul@b+3
  1607  06A1  30FA               	movlw	250
  1608  06A2  00A8               	movwf	___flmul@b+2
  1609  06A3  3000               	movlw	0
  1610  06A4  00A7               	movwf	___flmul@b+1
  1611  06A5  3000               	movlw	0
  1612  06A6  00A6               	movwf	___flmul@b
  1613  06A7  120A  118A  2025  120A  118A  	fcall	___flmul
  1614  06AC  1283               	bcf	3,5	;RP0=0, select bank0
  1615  06AD  1303               	bcf	3,6	;RP1=0, select bank0
  1616  06AE  0829               	movf	?___flmul+3,w
  1617  06AF  00C3               	movwf	___fltol@f1+3
  1618  06B0  0828               	movf	?___flmul+2,w
  1619  06B1  00C2               	movwf	___fltol@f1+2
  1620  06B2  0827               	movf	?___flmul+1,w
  1621  06B3  00C1               	movwf	___fltol@f1+1
  1622  06B4  0826               	movf	?___flmul,w
  1623  06B5  00C0               	movwf	___fltol@f1
  1624  06B6  120A  158A  2784  120A  118A  	fcall	___fltol
  1625  06BB  1283               	bcf	3,5	;RP0=0, select bank0
  1626  06BC  1303               	bcf	3,6	;RP1=0, select bank0
  1627  06BD  0841               	movf	?___fltol+1,w
  1628  06BE  00CC               	movwf	i1PWM_Set_Duty@DC+1
  1629  06BF  0840               	movf	?___fltol,w
  1630  06C0  00CB               	movwf	i1PWM_Set_Duty@DC
  1631  06C1  120A  158A  2719  120A  118A  	fcall	i1_PWM_Set_Duty
  1632  06C6                     i1l123:	
  1633                           ;newmain.c: 179:             }
  1634                           
  1635                           
  1636                           ;newmain.c: 180:         }
  1637  06C6  3001               	movlw	1
  1638  06C7  1283               	bcf	3,5	;RP0=0, select bank0
  1639  06C8  1303               	bcf	3,6	;RP1=0, select bank0
  1640  06C9  00DA               	movwf	??_ISR
  1641  06CA  085A               	movf	??_ISR,w
  1642  06CB  07E3               	addwf	ISR@i,f
  1643  06CC                     i1l1726:
  1644  06CC  3003               	movlw	3
  1645  06CD  0263               	subwf	ISR@i,w
  1646  06CE  1C03               	skipc
  1647  06CF  2ED1               	goto	u220_21
  1648  06D0  2ED2               	goto	u220_20
  1649  06D1                     u220_21:
  1650  06D1  2D70               	goto	i1l1708
  1651  06D2                     u220_20:
  1652  06D2                     i1l119:	
  1653                           ;newmain.c: 181:     }
  1654                           
  1655                           
  1656                           ;newmain.c: 182:     RCIF=0;
  1657  06D2  1283               	bcf	3,5	;RP0=0, select bank0
  1658  06D3  128C               	bcf	12,5	;volatile
  1659  06D4                     i1l124:
  1660  06D4  0862               	movf	??_ISR+8,w
  1661  06D5  00FF               	movwf	btemp+1
  1662  06D6  0861               	movf	??_ISR+7,w
  1663  06D7  008A               	movwf	10
  1664  06D8  0E60               	swapf	??_ISR+6,w
  1665  06D9  0083               	movwf	3
  1666  06DA  0EFE               	swapf	btemp,f
  1667  06DB  0E7E               	swapf	btemp,w
  1668  06DC  0009               	retfie
  1669  06DD                     __end_of_ISR:
  1670                           
  1671                           	psect	intentry
  1672  0004                     __pintentry:	
  1673                           ;incstack = 0
  1674                           ; Regs used in _ISR: [wreg+status,2+status,0+btemp+1+pclath+cstack]
  1675                           
  1676  0004                     interrupt_function:
  1677  007E                     saved_w	set	btemp
  1678  0004  00FE               	movwf	btemp
  1679  0005  0E03               	swapf	3,w
  1680  0006  1283               	bcf	3,5	;RP0=0, select bank0
  1681  0007  1303               	bcf	3,6	;RP1=0, select bank0
  1682  0008  00E0               	movwf	??_ISR+6
  1683  0009  080A               	movf	10,w
  1684  000A  00E1               	movwf	??_ISR+7
  1685  000B  087F               	movf	btemp+1,w
  1686  000C  00E2               	movwf	??_ISR+8
  1687  000D  120A  118A  2D63   	ljmp	_ISR
  1688                           
  1689                           	psect	text9
  1690  0F19                     __ptext9:	
  1691 ;; *************** function i1_PWM_Set_Duty *****************
  1692 ;; Defined at:
  1693 ;;		line 87 in file "newmain.c"
  1694 ;; Parameters:    Size  Location     Type
  1695 ;;  DC              2   43[BANK0 ] unsigned int 
  1696 ;; Auto vars:     Size  Location     Type
  1697 ;;		None
  1698 ;; Return value:  Size  Location     Type
  1699 ;;                  1    wreg      void 
  1700 ;; Registers used:
  1701 ;;		wreg, status,2, status,0
  1702 ;; Tracked objects:
  1703 ;;		On entry : 0/0
  1704 ;;		On exit  : 0/0
  1705 ;;		Unchanged: 0/0
  1706 ;; Data sizes:     COMMON   BANK0   BANK1   BANK3   BANK2
  1707 ;;      Params:         0       2       0       0       0
  1708 ;;      Locals:         0       0       0       0       0
  1709 ;;      Temps:          0       2       0       0       0
  1710 ;;      Totals:         0       4       0       0       0
  1711 ;;Total ram usage:        4 bytes
  1712 ;; Hardware stack levels used: 1
  1713 ;; This function calls:
  1714 ;;		Nothing
  1715 ;; This function is called by:
  1716 ;;		_ISR
  1717 ;; This function uses a non-reentrant model
  1718 ;;
  1719                           
  1720  0F19                     i1_PWM_Set_Duty:	
  1721                           ;psect for function i1_PWM_Set_Duty
  1722                           
  1723  0F19                     i1l1686:	
  1724                           ;incstack = 0
  1725                           ; Regs used in i1_PWM_Set_Duty: [wreg+status,2+status,0]
  1726                           
  1727                           
  1728                           ;newmain.c: 87: void PWM_Set_Duty(uint16_t DC);newmain.c: 88: {;newmain.c: 90:     if(DC
      +                          <1024)
  1729  0F19  3004               	movlw	4
  1730  0F1A  1283               	bcf	3,5	;RP0=0, select bank0
  1731  0F1B  1303               	bcf	3,6	;RP1=0, select bank0
  1732  0F1C  024C               	subwf	i1PWM_Set_Duty@DC+1,w
  1733  0F1D  3000               	movlw	0
  1734  0F1E  1903               	skipnz
  1735  0F1F  024B               	subwf	i1PWM_Set_Duty@DC,w
  1736  0F20  1803               	skipnc
  1737  0F21  2F23               	goto	u213_21
  1738  0F22  2F24               	goto	u213_20
  1739  0F23                     u213_21:
  1740  0F23  2F3B               	goto	i1l103
  1741  0F24                     u213_20:
  1742  0F24                     i1l1688:
  1743                           
  1744                           ;newmain.c: 91:     {;newmain.c: 92:         CCP1Y = DC & 1;
  1745  0F24  184B               	btfsc	i1PWM_Set_Duty@DC,0
  1746  0F25  2F27               	goto	u214_21
  1747  0F26  2F2B               	goto	u214_20
  1748  0F27                     u214_21:
  1749  0F27  1283               	bcf	3,5	;RP0=0, select bank0
  1750  0F28  1303               	bcf	3,6	;RP1=0, select bank0
  1751  0F29  1617               	bsf	23,4	;volatile
  1752  0F2A  2F2E               	goto	u215_24
  1753  0F2B                     u214_20:
  1754  0F2B  1283               	bcf	3,5	;RP0=0, select bank0
  1755  0F2C  1303               	bcf	3,6	;RP1=0, select bank0
  1756  0F2D  1217               	bcf	23,4	;volatile
  1757  0F2E                     u215_24:
  1758                           
  1759                           ;newmain.c: 93:         CCP1X = DC & 2;
  1760  0F2E  1297               	bcf	23,5	;volatile
  1761  0F2F                     i1l1690:
  1762                           
  1763                           ;newmain.c: 94:         CCPR1L = DC >> 2;
  1764  0F2F  084C               	movf	i1PWM_Set_Duty@DC+1,w
  1765  0F30  00CE               	movwf	??i1_PWM_Set_Duty+1
  1766  0F31  084B               	movf	i1PWM_Set_Duty@DC,w
  1767  0F32  00CD               	movwf	??i1_PWM_Set_Duty
  1768  0F33  1003               	clrc
  1769  0F34  0CCE               	rrf	??i1_PWM_Set_Duty+1,f
  1770  0F35  0CCD               	rrf	??i1_PWM_Set_Duty,f
  1771  0F36  1003               	clrc
  1772  0F37  0CCE               	rrf	??i1_PWM_Set_Duty+1,f
  1773  0F38  0CCD               	rrf	??i1_PWM_Set_Duty,f
  1774  0F39  084D               	movf	??i1_PWM_Set_Duty,w
  1775  0F3A  0095               	movwf	21	;volatile
  1776  0F3B                     i1l103:
  1777  0F3B  0008               	return
  1778  0F3C                     __end_ofi1_PWM_Set_Duty:
  1779                           
  1780                           	psect	text10
  1781  06DD                     __ptext10:	
  1782 ;; *************** function ___xxtofl *****************
  1783 ;; Defined at:
  1784 ;;		line 10 in file "C:\Program Files\Microchip\xc8\v2.36\pic\sources\c90\common\xxtofl.c"
  1785 ;; Parameters:    Size  Location     Type
  1786 ;;  sign            1    wreg     unsigned char 
  1787 ;;  val             4    6[COMMON] long 
  1788 ;; Auto vars:     Size  Location     Type
  1789 ;;  sign            1    0[BANK0 ] unsigned char 
  1790 ;;  arg             4    2[BANK0 ] unsigned long 
  1791 ;;  exp             1    1[BANK0 ] unsigned char 
  1792 ;; Return value:  Size  Location     Type
  1793 ;;                  4    6[COMMON] unsigned char 
  1794 ;; Registers used:
  1795 ;;		wreg, status,2, status,0
  1796 ;; Tracked objects:
  1797 ;;		On entry : 0/0
  1798 ;;		On exit  : 0/0
  1799 ;;		Unchanged: 0/0
  1800 ;; Data sizes:     COMMON   BANK0   BANK1   BANK3   BANK2
  1801 ;;      Params:         4       0       0       0       0
  1802 ;;      Locals:         0       6       0       0       0
  1803 ;;      Temps:          4       0       0       0       0
  1804 ;;      Totals:         8       6       0       0       0
  1805 ;;Total ram usage:       14 bytes
  1806 ;; Hardware stack levels used: 1
  1807 ;; This function calls:
  1808 ;;		Nothing
  1809 ;; This function is called by:
  1810 ;;		_ISR
  1811 ;; This function uses a non-reentrant model
  1812 ;;
  1813                           
  1814  06DD                     ___xxtofl:	
  1815                           ;psect for function ___xxtofl
  1816                           
  1817                           
  1818                           ;incstack = 0
  1819                           ; Regs used in ___xxtofl: [wreg+status,2+status,0]
  1820                           ;___xxtofl@sign stored from wreg
  1821  06DD  1283               	bcf	3,5	;RP0=0, select bank0
  1822  06DE  1303               	bcf	3,6	;RP1=0, select bank0
  1823  06DF  00A0               	movwf	___xxtofl@sign
  1824  06E0                     i1l1642:
  1825  06E0  0820               	movf	___xxtofl@sign,w
  1826  06E1  1903               	btfsc	3,2
  1827  06E2  2EE4               	goto	u199_21
  1828  06E3  2EE5               	goto	u199_20
  1829  06E4                     u199_21:
  1830  06E4  2EF9               	goto	i1l1648
  1831  06E5                     u199_20:
  1832  06E5                     i1l1644:
  1833  06E5  1FF9               	btfss	___xxtofl@val+3,7
  1834  06E6  2EE8               	goto	u200_21
  1835  06E7  2EE9               	goto	u200_20
  1836  06E8                     u200_21:
  1837  06E8  2EF9               	goto	i1l1648
  1838  06E9                     u200_20:
  1839  06E9                     i1l1646:
  1840  06E9  0976               	comf	___xxtofl@val,w
  1841  06EA  00A2               	movwf	___xxtofl@arg
  1842  06EB  0977               	comf	___xxtofl@val+1,w
  1843  06EC  00A3               	movwf	___xxtofl@arg+1
  1844  06ED  0978               	comf	___xxtofl@val+2,w
  1845  06EE  00A4               	movwf	___xxtofl@arg+2
  1846  06EF  0979               	comf	___xxtofl@val+3,w
  1847  06F0  00A5               	movwf	___xxtofl@arg+3
  1848  06F1  0AA2               	incf	___xxtofl@arg,f
  1849  06F2  1903               	skipnz
  1850  06F3  0AA3               	incf	___xxtofl@arg+1,f
  1851  06F4  1903               	skipnz
  1852  06F5  0AA4               	incf	___xxtofl@arg+2,f
  1853  06F6  1903               	skipnz
  1854  06F7  0AA5               	incf	___xxtofl@arg+3,f
  1855  06F8  2F01               	goto	i1l643
  1856  06F9                     i1l1648:
  1857  06F9  0879               	movf	___xxtofl@val+3,w
  1858  06FA  00A5               	movwf	___xxtofl@arg+3
  1859  06FB  0878               	movf	___xxtofl@val+2,w
  1860  06FC  00A4               	movwf	___xxtofl@arg+2
  1861  06FD  0877               	movf	___xxtofl@val+1,w
  1862  06FE  00A3               	movwf	___xxtofl@arg+1
  1863  06FF  0876               	movf	___xxtofl@val,w
  1864  0700  00A2               	movwf	___xxtofl@arg
  1865  0701                     i1l643:
  1866  0701  0879               	movf	___xxtofl@val+3,w
  1867  0702  0478               	iorwf	___xxtofl@val+2,w
  1868  0703  0477               	iorwf	___xxtofl@val+1,w
  1869  0704  0476               	iorwf	___xxtofl@val,w
  1870  0705  1D03               	skipz
  1871  0706  2F08               	goto	u201_21
  1872  0707  2F09               	goto	u201_20
  1873  0708                     u201_21:
  1874  0708  2F12               	goto	i1l1654
  1875  0709                     u201_20:
  1876  0709                     i1l1650:
  1877  0709  3000               	movlw	0
  1878  070A  00F9               	movwf	?___xxtofl+3
  1879  070B  3000               	movlw	0
  1880  070C  00F8               	movwf	?___xxtofl+2
  1881  070D  3000               	movlw	0
  1882  070E  00F7               	movwf	?___xxtofl+1
  1883  070F  3000               	movlw	0
  1884  0710  00F6               	movwf	?___xxtofl
  1885  0711  2F98               	goto	i1l645
  1886  0712                     i1l1654:
  1887  0712  3096               	movlw	150
  1888  0713  00FA               	movwf	??___xxtofl
  1889  0714  087A               	movf	??___xxtofl,w
  1890  0715  00A1               	movwf	___xxtofl@exp
  1891  0716  2F24               	goto	i1l1658
  1892  0717                     i1l1656:
  1893  0717  3001               	movlw	1
  1894  0718  00FA               	movwf	??___xxtofl
  1895  0719  087A               	movf	??___xxtofl,w
  1896  071A  07A1               	addwf	___xxtofl@exp,f
  1897  071B  3001               	movlw	1
  1898  071C                     u202_25:
  1899  071C  1003               	clrc
  1900  071D  0CA5               	rrf	___xxtofl@arg+3,f
  1901  071E  0CA4               	rrf	___xxtofl@arg+2,f
  1902  071F  0CA3               	rrf	___xxtofl@arg+1,f
  1903  0720  0CA2               	rrf	___xxtofl@arg,f
  1904  0721  3EFF               	addlw	-1
  1905  0722  1D03               	skipz
  1906  0723  2F1C               	goto	u202_25
  1907  0724                     i1l1658:
  1908  0724  30FE               	movlw	254
  1909  0725  0525               	andwf	___xxtofl@arg+3,w
  1910  0726  1D03               	btfss	3,2
  1911  0727  2F29               	goto	u203_21
  1912  0728  2F2A               	goto	u203_20
  1913  0729                     u203_21:
  1914  0729  2F17               	goto	i1l1656
  1915  072A                     u203_20:
  1916  072A  2F46               	goto	i1l649
  1917  072B                     i1l1660:
  1918  072B  3001               	movlw	1
  1919  072C  00FA               	movwf	??___xxtofl
  1920  072D  087A               	movf	??___xxtofl,w
  1921  072E  07A1               	addwf	___xxtofl@exp,f
  1922  072F                     i1l1662:
  1923  072F  3001               	movlw	1
  1924  0730  07A2               	addwf	___xxtofl@arg,f
  1925  0731  3000               	movlw	0
  1926  0732  1803               	skipnc
  1927  0733  3001               	movlw	1
  1928  0734  07A3               	addwf	___xxtofl@arg+1,f
  1929  0735  3000               	movlw	0
  1930  0736  1803               	skipnc
  1931  0737  3001               	movlw	1
  1932  0738  07A4               	addwf	___xxtofl@arg+2,f
  1933  0739  3000               	movlw	0
  1934  073A  1803               	skipnc
  1935  073B  3001               	movlw	1
  1936  073C  07A5               	addwf	___xxtofl@arg+3,f
  1937  073D                     i1l1664:
  1938  073D  3001               	movlw	1
  1939  073E                     u204_25:
  1940  073E  1003               	clrc
  1941  073F  0CA5               	rrf	___xxtofl@arg+3,f
  1942  0740  0CA4               	rrf	___xxtofl@arg+2,f
  1943  0741  0CA3               	rrf	___xxtofl@arg+1,f
  1944  0742  0CA2               	rrf	___xxtofl@arg,f
  1945  0743  3EFF               	addlw	-1
  1946  0744  1D03               	skipz
  1947  0745  2F3E               	goto	u204_25
  1948  0746                     i1l649:
  1949  0746  30FF               	movlw	255
  1950  0747  0525               	andwf	___xxtofl@arg+3,w
  1951  0748  1D03               	btfss	3,2
  1952  0749  2F4B               	goto	u205_21
  1953  074A  2F4C               	goto	u205_20
  1954  074B                     u205_21:
  1955  074B  2F2B               	goto	i1l1660
  1956  074C                     u205_20:
  1957  074C  2F58               	goto	i1l1668
  1958  074D                     i1l1666:
  1959  074D  3001               	movlw	1
  1960  074E  02A1               	subwf	___xxtofl@exp,f
  1961  074F  3001               	movlw	1
  1962  0750  00FA               	movwf	??___xxtofl
  1963  0751                     u206_25:
  1964  0751  1003               	clrc
  1965  0752  0DA2               	rlf	___xxtofl@arg,f
  1966  0753  0DA3               	rlf	___xxtofl@arg+1,f
  1967  0754  0DA4               	rlf	___xxtofl@arg+2,f
  1968  0755  0DA5               	rlf	___xxtofl@arg+3,f
  1969  0756  0BFA               	decfsz	??___xxtofl,f
  1970  0757  2F51               	goto	u206_25
  1971  0758                     i1l1668:
  1972  0758  1BA4               	btfsc	___xxtofl@arg+2,7
  1973  0759  2F5B               	goto	u207_21
  1974  075A  2F5C               	goto	u207_20
  1975  075B                     u207_21:
  1976  075B  2F62               	goto	i1l656
  1977  075C                     u207_20:
  1978  075C                     i1l1670:
  1979  075C  3002               	movlw	2
  1980  075D  0221               	subwf	___xxtofl@exp,w
  1981  075E  1803               	skipnc
  1982  075F  2F61               	goto	u208_21
  1983  0760  2F62               	goto	u208_20
  1984  0761                     u208_21:
  1985  0761  2F4D               	goto	i1l1666
  1986  0762                     u208_20:
  1987  0762                     i1l656:
  1988  0762  1821               	btfsc	___xxtofl@exp,0
  1989  0763  2F65               	goto	u209_21
  1990  0764  2F66               	goto	u209_20
  1991  0765                     u209_21:
  1992  0765  2F6E               	goto	i1l657
  1993  0766                     u209_20:
  1994  0766                     i1l1672:
  1995  0766  30FF               	movlw	255
  1996  0767  05A2               	andwf	___xxtofl@arg,f
  1997  0768  30FF               	movlw	255
  1998  0769  05A3               	andwf	___xxtofl@arg+1,f
  1999  076A  307F               	movlw	127
  2000  076B  05A4               	andwf	___xxtofl@arg+2,f
  2001  076C  30FF               	movlw	255
  2002  076D  05A5               	andwf	___xxtofl@arg+3,f
  2003  076E                     i1l657:
  2004  076E  1003               	clrc
  2005  076F  0CA1               	rrf	___xxtofl@exp,f
  2006  0770                     i1l1674:
  2007  0770  0821               	movf	___xxtofl@exp,w
  2008  0771  00FA               	movwf	??___xxtofl
  2009  0772  01FB               	clrf	??___xxtofl+1
  2010  0773  01FC               	clrf	??___xxtofl+2
  2011  0774  01FD               	clrf	??___xxtofl+3
  2012  0775  3018               	movlw	24
  2013  0776                     u210_25:
  2014  0776  1003               	clrc
  2015  0777  0DFA               	rlf	??___xxtofl,f
  2016  0778  0DFB               	rlf	??___xxtofl+1,f
  2017  0779  0DFC               	rlf	??___xxtofl+2,f
  2018  077A  0DFD               	rlf	??___xxtofl+3,f
  2019  077B                     u210_20:
  2020  077B  3EFF               	addlw	-1
  2021  077C  1D03               	skipz
  2022  077D  2F76               	goto	u210_25
  2023  077E  087A               	movf	??___xxtofl,w
  2024  077F  04A2               	iorwf	___xxtofl@arg,f
  2025  0780  087B               	movf	??___xxtofl+1,w
  2026  0781  04A3               	iorwf	___xxtofl@arg+1,f
  2027  0782  087C               	movf	??___xxtofl+2,w
  2028  0783  04A4               	iorwf	___xxtofl@arg+2,f
  2029  0784  087D               	movf	??___xxtofl+3,w
  2030  0785  04A5               	iorwf	___xxtofl@arg+3,f
  2031  0786                     i1l1676:
  2032  0786  0820               	movf	___xxtofl@sign,w
  2033  0787  1903               	btfsc	3,2
  2034  0788  2F8A               	goto	u211_21
  2035  0789  2F8B               	goto	u211_20
  2036  078A                     u211_21:
  2037  078A  2F90               	goto	i1l1682
  2038  078B                     u211_20:
  2039  078B                     i1l1678:
  2040  078B  1FF9               	btfss	___xxtofl@val+3,7
  2041  078C  2F8E               	goto	u212_21
  2042  078D  2F8F               	goto	u212_20
  2043  078E                     u212_21:
  2044  078E  2F90               	goto	i1l1682
  2045  078F                     u212_20:
  2046  078F                     i1l1680:
  2047  078F  17A5               	bsf	___xxtofl@arg+3,7
  2048  0790                     i1l1682:
  2049  0790  0825               	movf	___xxtofl@arg+3,w
  2050  0791  00F9               	movwf	?___xxtofl+3
  2051  0792  0824               	movf	___xxtofl@arg+2,w
  2052  0793  00F8               	movwf	?___xxtofl+2
  2053  0794  0823               	movf	___xxtofl@arg+1,w
  2054  0795  00F7               	movwf	?___xxtofl+1
  2055  0796  0822               	movf	___xxtofl@arg,w
  2056  0797  00F6               	movwf	?___xxtofl
  2057  0798                     i1l645:
  2058  0798  0008               	return
  2059  0799                     __end_of___xxtofl:
  2060                           
  2061                           	psect	text11
  2062  0F5F                     __ptext11:	
  2063 ;; *************** function ___wmul *****************
  2064 ;; Defined at:
  2065 ;;		line 15 in file "C:\Program Files\Microchip\xc8\v2.36\pic\sources\c90\common\Umul16.c"
  2066 ;; Parameters:    Size  Location     Type
  2067 ;;  multiplier      2    0[COMMON] unsigned int 
  2068 ;;  multiplicand    2    2[COMMON] unsigned int 
  2069 ;; Auto vars:     Size  Location     Type
  2070 ;;  product         2    4[COMMON] unsigned int 
  2071 ;; Return value:  Size  Location     Type
  2072 ;;                  2    0[COMMON] unsigned int 
  2073 ;; Registers used:
  2074 ;;		wreg, status,2, status,0
  2075 ;; Tracked objects:
  2076 ;;		On entry : 0/0
  2077 ;;		On exit  : 0/0
  2078 ;;		Unchanged: 0/0
  2079 ;; Data sizes:     COMMON   BANK0   BANK1   BANK3   BANK2
  2080 ;;      Params:         4       0       0       0       0
  2081 ;;      Locals:         2       0       0       0       0
  2082 ;;      Temps:          0       0       0       0       0
  2083 ;;      Totals:         6       0       0       0       0
  2084 ;;Total ram usage:        6 bytes
  2085 ;; Hardware stack levels used: 1
  2086 ;; This function calls:
  2087 ;;		Nothing
  2088 ;; This function is called by:
  2089 ;;		_ISR
  2090 ;; This function uses a non-reentrant model
  2091 ;;
  2092                           
  2093  0F5F                     ___wmul:	
  2094                           ;psect for function ___wmul
  2095                           
  2096  0F5F                     i1l1310:	
  2097                           ;incstack = 0
  2098                           ; Regs used in ___wmul: [wreg+status,2+status,0]
  2099                           
  2100  0F5F  01F4               	clrf	___wmul@product
  2101  0F60  01F5               	clrf	___wmul@product+1
  2102  0F61                     i1l1312:
  2103  0F61  1C70               	btfss	___wmul@multiplier,0
  2104  0F62  2F64               	goto	u119_21
  2105  0F63  2F65               	goto	u119_20
  2106  0F64                     u119_21:
  2107  0F64  2F6B               	goto	i1l210
  2108  0F65                     u119_20:
  2109  0F65                     i1l1314:
  2110  0F65  0872               	movf	___wmul@multiplicand,w
  2111  0F66  07F4               	addwf	___wmul@product,f
  2112  0F67  1803               	skipnc
  2113  0F68  0AF5               	incf	___wmul@product+1,f
  2114  0F69  0873               	movf	___wmul@multiplicand+1,w
  2115  0F6A  07F5               	addwf	___wmul@product+1,f
  2116  0F6B                     i1l210:
  2117  0F6B  3001               	movlw	1
  2118  0F6C                     u120_25:
  2119  0F6C  1003               	clrc
  2120  0F6D  0DF2               	rlf	___wmul@multiplicand,f
  2121  0F6E  0DF3               	rlf	___wmul@multiplicand+1,f
  2122  0F6F  3EFF               	addlw	-1
  2123  0F70  1D03               	skipz
  2124  0F71  2F6C               	goto	u120_25
  2125  0F72                     i1l1316:
  2126  0F72  3001               	movlw	1
  2127  0F73                     u121_25:
  2128  0F73  1003               	clrc
  2129  0F74  0CF1               	rrf	___wmul@multiplier+1,f
  2130  0F75  0CF0               	rrf	___wmul@multiplier,f
  2131  0F76  3EFF               	addlw	-1
  2132  0F77  1D03               	skipz
  2133  0F78  2F73               	goto	u121_25
  2134  0F79                     i1l1318:
  2135  0F79  0870               	movf	___wmul@multiplier,w
  2136  0F7A  0471               	iorwf	___wmul@multiplier+1,w
  2137  0F7B  1D03               	btfss	3,2
  2138  0F7C  2F7E               	goto	u122_21
  2139  0F7D  2F7F               	goto	u122_20
  2140  0F7E                     u122_21:
  2141  0F7E  2F61               	goto	i1l1312
  2142  0F7F                     u122_20:
  2143  0F7F                     i1l1320:
  2144  0F7F  0875               	movf	___wmul@product+1,w
  2145  0F80  00F1               	movwf	?___wmul+1
  2146  0F81  0874               	movf	___wmul@product,w
  2147  0F82  00F0               	movwf	?___wmul
  2148  0F83                     i1l212:
  2149  0F83  0008               	return
  2150  0F84                     __end_of___wmul:
  2151                           
  2152                           	psect	text12
  2153  0F84                     __ptext12:	
  2154 ;; *************** function ___fltol *****************
  2155 ;; Defined at:
  2156 ;;		line 43 in file "C:\Program Files\Microchip\xc8\v2.36\pic\sources\c90\common\fltol.c"
  2157 ;; Parameters:    Size  Location     Type
  2158 ;;  f1              4   32[BANK0 ] unsigned int 
  2159 ;; Auto vars:     Size  Location     Type
  2160 ;;  exp1            1   42[BANK0 ] unsigned char 
  2161 ;;  sign1           1   41[BANK0 ] unsigned char 
  2162 ;; Return value:  Size  Location     Type
  2163 ;;                  4   32[BANK0 ] long 
  2164 ;; Registers used:
  2165 ;;		wreg, status,2, status,0
  2166 ;; Tracked objects:
  2167 ;;		On entry : 0/0
  2168 ;;		On exit  : 0/0
  2169 ;;		Unchanged: 0/0
  2170 ;; Data sizes:     COMMON   BANK0   BANK1   BANK3   BANK2
  2171 ;;      Params:         0       4       0       0       0
  2172 ;;      Locals:         0       2       0       0       0
  2173 ;;      Temps:          0       5       0       0       0
  2174 ;;      Totals:         0      11       0       0       0
  2175 ;;Total ram usage:       11 bytes
  2176 ;; Hardware stack levels used: 1
  2177 ;; This function calls:
  2178 ;;		Nothing
  2179 ;; This function is called by:
  2180 ;;		_ISR
  2181 ;; This function uses a non-reentrant model
  2182 ;;
  2183                           
  2184  0F84                     ___fltol:	
  2185                           ;psect for function ___fltol
  2186                           
  2187  0F84                     i1l1324:	
  2188                           ;incstack = 0
  2189                           ; Regs used in ___fltol: [wreg+status,2+status,0]
  2190                           
  2191  0F84  1003               	clrc
  2192  0F85  1283               	bcf	3,5	;RP0=0, select bank0
  2193  0F86  1303               	bcf	3,6	;RP1=0, select bank0
  2194  0F87  0D42               	rlf	___fltol@f1+2,w
  2195  0F88  0D43               	rlf	___fltol@f1+3,w
  2196  0F89  00C4               	movwf	??___fltol
  2197  0F8A  0844               	movf	??___fltol,w
  2198  0F8B  00CA               	movwf	___fltol@exp1
  2199  0F8C  084A               	movf	___fltol@exp1,w
  2200  0F8D  1D03               	btfss	3,2
  2201  0F8E  2F90               	goto	u123_21
  2202  0F8F  2F91               	goto	u123_20
  2203  0F90                     u123_21:
  2204  0F90  2F9A               	goto	i1l1330
  2205  0F91                     u123_20:
  2206  0F91                     i1l1326:
  2207  0F91  3000               	movlw	0
  2208  0F92  00C3               	movwf	?___fltol+3
  2209  0F93  3000               	movlw	0
  2210  0F94  00C2               	movwf	?___fltol+2
  2211  0F95  3000               	movlw	0
  2212  0F96  00C1               	movwf	?___fltol+1
  2213  0F97  3000               	movlw	0
  2214  0F98  00C0               	movwf	?___fltol
  2215  0F99  2FFF               	goto	i1l396
  2216  0F9A                     i1l1330:
  2217  0F9A  0840               	movf	___fltol@f1,w
  2218  0F9B  00C4               	movwf	??___fltol
  2219  0F9C  0841               	movf	___fltol@f1+1,w
  2220  0F9D  00C5               	movwf	??___fltol+1
  2221  0F9E  0842               	movf	___fltol@f1+2,w
  2222  0F9F  00C6               	movwf	??___fltol+2
  2223  0FA0  0843               	movf	___fltol@f1+3,w
  2224  0FA1  00C7               	movwf	??___fltol+3
  2225  0FA2  301F               	movlw	31
  2226  0FA3                     u124_25:
  2227  0FA3  1003               	clrc
  2228  0FA4  0CC7               	rrf	??___fltol+3,f
  2229  0FA5  0CC6               	rrf	??___fltol+2,f
  2230  0FA6  0CC5               	rrf	??___fltol+1,f
  2231  0FA7  0CC4               	rrf	??___fltol,f
  2232  0FA8                     u124_20:
  2233  0FA8  3EFF               	addlw	-1
  2234  0FA9  1D03               	skipz
  2235  0FAA  2FA3               	goto	u124_25
  2236  0FAB  0844               	movf	??___fltol,w
  2237  0FAC  00C8               	movwf	??___fltol+4
  2238  0FAD  0848               	movf	??___fltol+4,w
  2239  0FAE  00C9               	movwf	___fltol@sign1
  2240  0FAF                     i1l1332:
  2241  0FAF  17C2               	bsf	___fltol@f1+2,7
  2242  0FB0                     i1l1334:
  2243  0FB0  30FF               	movlw	255
  2244  0FB1  05C0               	andwf	___fltol@f1,f
  2245  0FB2  30FF               	movlw	255
  2246  0FB3  05C1               	andwf	___fltol@f1+1,f
  2247  0FB4  30FF               	movlw	255
  2248  0FB5  05C2               	andwf	___fltol@f1+2,f
  2249  0FB6  3000               	movlw	0
  2250  0FB7  05C3               	andwf	___fltol@f1+3,f
  2251  0FB8                     i1l1336:
  2252  0FB8  3096               	movlw	150
  2253  0FB9  02CA               	subwf	___fltol@exp1,f
  2254  0FBA                     i1l1338:
  2255  0FBA  1FCA               	btfss	___fltol@exp1,7
  2256  0FBB  2FBD               	goto	u125_21
  2257  0FBC  2FBE               	goto	u125_20
  2258  0FBD                     u125_21:
  2259  0FBD  2FD8               	goto	i1l1348
  2260  0FBE                     u125_20:
  2261  0FBE                     i1l1340:
  2262  0FBE  084A               	movf	___fltol@exp1,w
  2263  0FBF  3A80               	xorlw	128
  2264  0FC0  3E97               	addlw	151
  2265  0FC1  1803               	skipnc
  2266  0FC2  2FC4               	goto	u126_21
  2267  0FC3  2FC5               	goto	u126_20
  2268  0FC4                     u126_21:
  2269  0FC4  2FC6               	goto	i1l1346
  2270  0FC5                     u126_20:
  2271  0FC5  2F91               	goto	i1l1326
  2272  0FC6                     i1l1346:
  2273  0FC6  3001               	movlw	1
  2274  0FC7                     u127_25:
  2275  0FC7  1003               	clrc
  2276  0FC8  0CC3               	rrf	___fltol@f1+3,f
  2277  0FC9  0CC2               	rrf	___fltol@f1+2,f
  2278  0FCA  0CC1               	rrf	___fltol@f1+1,f
  2279  0FCB  0CC0               	rrf	___fltol@f1,f
  2280  0FCC  3EFF               	addlw	-1
  2281  0FCD  1D03               	skipz
  2282  0FCE  2FC7               	goto	u127_25
  2283  0FCF  3001               	movlw	1
  2284  0FD0  00C4               	movwf	??___fltol
  2285  0FD1  0844               	movf	??___fltol,w
  2286  0FD2  07CA               	addwf	___fltol@exp1,f
  2287  0FD3  1D03               	btfss	3,2
  2288  0FD4  2FD6               	goto	u128_21
  2289  0FD5  2FD7               	goto	u128_20
  2290  0FD6                     u128_21:
  2291  0FD6  2FC6               	goto	i1l1346
  2292  0FD7                     u128_20:
  2293  0FD7  2FEF               	goto	i1l1356
  2294  0FD8                     i1l1348:
  2295  0FD8  3020               	movlw	32
  2296  0FD9  024A               	subwf	___fltol@exp1,w
  2297  0FDA  1C03               	skipc
  2298  0FDB  2FDD               	goto	u129_21
  2299  0FDC  2FDE               	goto	u129_20
  2300  0FDD                     u129_21:
  2301  0FDD  2FEA               	goto	i1l403
  2302  0FDE                     u129_20:
  2303  0FDE  2F91               	goto	i1l1326
  2304  0FDF                     i1l1354:
  2305  0FDF  3001               	movlw	1
  2306  0FE0  00C4               	movwf	??___fltol
  2307  0FE1                     u130_25:
  2308  0FE1  1003               	clrc
  2309  0FE2  0DC0               	rlf	___fltol@f1,f
  2310  0FE3  0DC1               	rlf	___fltol@f1+1,f
  2311  0FE4  0DC2               	rlf	___fltol@f1+2,f
  2312  0FE5  0DC3               	rlf	___fltol@f1+3,f
  2313  0FE6  0BC4               	decfsz	??___fltol,f
  2314  0FE7  2FE1               	goto	u130_25
  2315  0FE8  3001               	movlw	1
  2316  0FE9  02CA               	subwf	___fltol@exp1,f
  2317  0FEA                     i1l403:
  2318  0FEA  084A               	movf	___fltol@exp1,w
  2319  0FEB  1D03               	btfss	3,2
  2320  0FEC  2FEE               	goto	u131_21
  2321  0FED  2FEF               	goto	u131_20
  2322  0FEE                     u131_21:
  2323  0FEE  2FDF               	goto	i1l1354
  2324  0FEF                     u131_20:
  2325  0FEF                     i1l1356:
  2326  0FEF  0849               	movf	___fltol@sign1,w
  2327  0FF0  1903               	btfsc	3,2
  2328  0FF1  2FF3               	goto	u132_21
  2329  0FF2  2FF4               	goto	u132_20
  2330  0FF3                     u132_21:
  2331  0FF3  2FFF               	goto	i1l406
  2332  0FF4                     u132_20:
  2333  0FF4                     i1l1358:
  2334  0FF4  09C0               	comf	___fltol@f1,f
  2335  0FF5  09C1               	comf	___fltol@f1+1,f
  2336  0FF6  09C2               	comf	___fltol@f1+2,f
  2337  0FF7  09C3               	comf	___fltol@f1+3,f
  2338  0FF8  0AC0               	incf	___fltol@f1,f
  2339  0FF9  1903               	skipnz
  2340  0FFA  0AC1               	incf	___fltol@f1+1,f
  2341  0FFB  1903               	skipnz
  2342  0FFC  0AC2               	incf	___fltol@f1+2,f
  2343  0FFD  1903               	skipnz
  2344  0FFE  0AC3               	incf	___fltol@f1+3,f
  2345  0FFF                     i1l406:
  2346  0FFF                     i1l396:
  2347  0FFF  0008               	return
  2348  1000                     __end_of___fltol:
  2349                           
  2350                           	psect	text13
  2351  0025                     __ptext13:	
  2352 ;; *************** function ___flmul *****************
  2353 ;; Defined at:
  2354 ;;		line 8 in file "C:\Program Files\Microchip\xc8\v2.36\pic\sources\c90\common\sprcmul.c"
  2355 ;; Parameters:    Size  Location     Type
  2356 ;;  b               4    6[BANK0 ] long 
  2357 ;;  a               4   10[BANK0 ] long 
  2358 ;; Auto vars:     Size  Location     Type
  2359 ;;  prod            4   26[BANK0 ] struct .
  2360 ;;  grs             4   20[BANK0 ] unsigned long 
  2361 ;;  temp            2   30[BANK0 ] struct .
  2362 ;;  bexp            1   25[BANK0 ] unsigned char 
  2363 ;;  aexp            1   24[BANK0 ] unsigned char 
  2364 ;;  sign            1   19[BANK0 ] unsigned char 
  2365 ;; Return value:  Size  Location     Type
  2366 ;;                  4    6[BANK0 ] unsigned char 
  2367 ;; Registers used:
  2368 ;;		wreg, status,2, status,0, btemp+1, pclath, cstack
  2369 ;; Tracked objects:
  2370 ;;		On entry : 0/0
  2371 ;;		On exit  : 0/0
  2372 ;;		Unchanged: 0/0
  2373 ;; Data sizes:     COMMON   BANK0   BANK1   BANK3   BANK2
  2374 ;;      Params:         0       8       0       0       0
  2375 ;;      Locals:         0      13       0       0       0
  2376 ;;      Temps:          0       5       0       0       0
  2377 ;;      Totals:         0      26       0       0       0
  2378 ;;Total ram usage:       26 bytes
  2379 ;; Hardware stack levels used: 1
  2380 ;; Hardware stack levels required when called: 1
  2381 ;; This function calls:
  2382 ;;		__Umul8_16
  2383 ;; This function is called by:
  2384 ;;		_ISR
  2385 ;; This function uses a non-reentrant model
  2386 ;;
  2387                           
  2388  0025                     ___flmul:	
  2389                           ;psect for function ___flmul
  2390                           
  2391  0025                     i1l1502:	
  2392                           ;incstack = 0
  2393                           ; Regs used in ___flmul: [wreg+status,2+status,0+btemp+1+pclath+cstack]
  2394                           
  2395  0025  1283               	bcf	3,5	;RP0=0, select bank0
  2396  0026  1303               	bcf	3,6	;RP1=0, select bank0
  2397  0027  0829               	movf	___flmul@b+3,w
  2398  0028  3980               	andlw	128
  2399  0029  00AE               	movwf	??___flmul
  2400  002A  082E               	movf	??___flmul,w
  2401  002B  00B3               	movwf	___flmul@sign
  2402  002C                     i1l1504:
  2403  002C  0829               	movf	___flmul@b+3,w
  2404  002D  00AE               	movwf	??___flmul
  2405  002E  072E               	addwf	??___flmul,w
  2406  002F  00AF               	movwf	??___flmul+1
  2407  0030  082F               	movf	??___flmul+1,w
  2408  0031  00B9               	movwf	___flmul@bexp
  2409  0032                     i1l1506:
  2410  0032  1FA8               	btfss	___flmul@b+2,7
  2411  0033  2835               	goto	u162_21
  2412  0034  2836               	goto	u162_20
  2413  0035                     u162_21:
  2414  0035  2837               	goto	i1l1510
  2415  0036                     u162_20:
  2416  0036                     i1l1508:
  2417  0036  1439               	bsf	___flmul@bexp,0
  2418  0037                     i1l1510:
  2419  0037  0839               	movf	___flmul@bexp,w
  2420  0038  1903               	btfsc	3,2
  2421  0039  283B               	goto	u163_21
  2422  003A  283C               	goto	u163_20
  2423  003B                     u163_21:
  2424  003B  284B               	goto	i1l1518
  2425  003C                     u163_20:
  2426  003C                     i1l1512:
  2427  003C  0A39               	incf	___flmul@bexp,w
  2428  003D  1D03               	btfss	3,2
  2429  003E  2840               	goto	u164_21
  2430  003F  2841               	goto	u164_20
  2431  0040                     u164_21:
  2432  0040  2849               	goto	i1l1516
  2433  0041                     u164_20:
  2434  0041                     i1l1514:
  2435  0041  3000               	movlw	0
  2436  0042  00A9               	movwf	___flmul@b+3
  2437  0043  3000               	movlw	0
  2438  0044  00A8               	movwf	___flmul@b+2
  2439  0045  3000               	movlw	0
  2440  0046  00A7               	movwf	___flmul@b+1
  2441  0047  3000               	movlw	0
  2442  0048  00A6               	movwf	___flmul@b
  2443  0049                     i1l1516:
  2444  0049  17A8               	bsf	___flmul@b+2,7
  2445  004A  2853               	goto	i1l1520
  2446  004B                     i1l1518:
  2447  004B  3000               	movlw	0
  2448  004C  00A9               	movwf	___flmul@b+3
  2449  004D  3000               	movlw	0
  2450  004E  00A8               	movwf	___flmul@b+2
  2451  004F  3000               	movlw	0
  2452  0050  00A7               	movwf	___flmul@b+1
  2453  0051  3000               	movlw	0
  2454  0052  00A6               	movwf	___flmul@b
  2455  0053                     i1l1520:
  2456  0053  082D               	movf	___flmul@a+3,w
  2457  0054  3980               	andlw	128
  2458  0055  00AE               	movwf	??___flmul
  2459  0056  082E               	movf	??___flmul,w
  2460  0057  06B3               	xorwf	___flmul@sign,f
  2461  0058                     i1l1522:
  2462  0058  082D               	movf	___flmul@a+3,w
  2463  0059  00AE               	movwf	??___flmul
  2464  005A  072E               	addwf	??___flmul,w
  2465  005B  00AF               	movwf	??___flmul+1
  2466  005C  082F               	movf	??___flmul+1,w
  2467  005D  00B8               	movwf	___flmul@aexp
  2468  005E                     i1l1524:
  2469  005E  1FAC               	btfss	___flmul@a+2,7
  2470  005F  2861               	goto	u165_21
  2471  0060  2862               	goto	u165_20
  2472  0061                     u165_21:
  2473  0061  2863               	goto	i1l1528
  2474  0062                     u165_20:
  2475  0062                     i1l1526:
  2476  0062  1438               	bsf	___flmul@aexp,0
  2477  0063                     i1l1528:
  2478  0063  0838               	movf	___flmul@aexp,w
  2479  0064  1903               	btfsc	3,2
  2480  0065  2867               	goto	u166_21
  2481  0066  2868               	goto	u166_20
  2482  0067                     u166_21:
  2483  0067  2877               	goto	i1l1536
  2484  0068                     u166_20:
  2485  0068                     i1l1530:
  2486  0068  0A38               	incf	___flmul@aexp,w
  2487  0069  1D03               	btfss	3,2
  2488  006A  286C               	goto	u167_21
  2489  006B  286D               	goto	u167_20
  2490  006C                     u167_21:
  2491  006C  2875               	goto	i1l1534
  2492  006D                     u167_20:
  2493  006D                     i1l1532:
  2494  006D  3000               	movlw	0
  2495  006E  00AD               	movwf	___flmul@a+3
  2496  006F  3000               	movlw	0
  2497  0070  00AC               	movwf	___flmul@a+2
  2498  0071  3000               	movlw	0
  2499  0072  00AB               	movwf	___flmul@a+1
  2500  0073  3000               	movlw	0
  2501  0074  00AA               	movwf	___flmul@a
  2502  0075                     i1l1534:
  2503  0075  17AC               	bsf	___flmul@a+2,7
  2504  0076  287F               	goto	i1l1538
  2505  0077                     i1l1536:
  2506  0077  3000               	movlw	0
  2507  0078  00AD               	movwf	___flmul@a+3
  2508  0079  3000               	movlw	0
  2509  007A  00AC               	movwf	___flmul@a+2
  2510  007B  3000               	movlw	0
  2511  007C  00AB               	movwf	___flmul@a+1
  2512  007D  3000               	movlw	0
  2513  007E  00AA               	movwf	___flmul@a
  2514  007F                     i1l1538:
  2515  007F  0838               	movf	___flmul@aexp,w
  2516  0080  1903               	btfsc	3,2
  2517  0081  2883               	goto	u168_21
  2518  0082  2884               	goto	u168_20
  2519  0083                     u168_21:
  2520  0083  2889               	goto	i1l1542
  2521  0084                     u168_20:
  2522  0084                     i1l1540:
  2523  0084  0839               	movf	___flmul@bexp,w
  2524  0085  1D03               	btfss	3,2
  2525  0086  2888               	goto	u169_21
  2526  0087  2889               	goto	u169_20
  2527  0088                     u169_21:
  2528  0088  2892               	goto	i1l1546
  2529  0089                     u169_20:
  2530  0089                     i1l1542:
  2531  0089  3000               	movlw	0
  2532  008A  00A9               	movwf	?___flmul+3
  2533  008B  3000               	movlw	0
  2534  008C  00A8               	movwf	?___flmul+2
  2535  008D  3000               	movlw	0
  2536  008E  00A7               	movwf	?___flmul+1
  2537  008F  3000               	movlw	0
  2538  0090  00A6               	movwf	?___flmul
  2539  0091  2B85               	goto	i1l599
  2540  0092                     i1l1546:
  2541  0092  0826               	movf	___flmul@b,w
  2542  0093  00AE               	movwf	??___flmul
  2543  0094  082E               	movf	??___flmul,w
  2544  0095  00F0               	movwf	__Umul8_16@multiplicand
  2545  0096  082C               	movf	___flmul@a+2,w
  2546  0097  120A  118A  27C0  120A  118A  	fcall	__Umul8_16
  2547  009C  0871               	movf	?__Umul8_16+1,w
  2548  009D  1283               	bcf	3,5	;RP0=0, select bank0
  2549  009E  1303               	bcf	3,6	;RP1=0, select bank0
  2550  009F  00BF               	movwf	___flmul@temp+1
  2551  00A0  0870               	movf	?__Umul8_16,w
  2552  00A1  00BE               	movwf	___flmul@temp
  2553  00A2                     i1l1548:
  2554  00A2  083E               	movf	___flmul@temp,w
  2555  00A3  00AE               	movwf	??___flmul
  2556  00A4  01AF               	clrf	??___flmul+1
  2557  00A5  01B0               	clrf	??___flmul+2
  2558  00A6  01B1               	clrf	??___flmul+3
  2559  00A7  0831               	movf	??___flmul+3,w
  2560  00A8  00B7               	movwf	___flmul@grs+3
  2561  00A9  0830               	movf	??___flmul+2,w
  2562  00AA  00B6               	movwf	___flmul@grs+2
  2563  00AB  082F               	movf	??___flmul+1,w
  2564  00AC  00B5               	movwf	___flmul@grs+1
  2565  00AD  082E               	movf	??___flmul,w
  2566  00AE  00B4               	movwf	___flmul@grs
  2567  00AF                     i1l1550:
  2568  00AF  083F               	movf	___flmul@temp+1,w
  2569  00B0  00AE               	movwf	??___flmul
  2570  00B1  01AF               	clrf	??___flmul+1
  2571  00B2  01B0               	clrf	??___flmul+2
  2572  00B3  01B1               	clrf	??___flmul+3
  2573  00B4  0831               	movf	??___flmul+3,w
  2574  00B5  00BD               	movwf	___flmul@prod+3
  2575  00B6  0830               	movf	??___flmul+2,w
  2576  00B7  00BC               	movwf	___flmul@prod+2
  2577  00B8  082F               	movf	??___flmul+1,w
  2578  00B9  00BB               	movwf	___flmul@prod+1
  2579  00BA  082E               	movf	??___flmul,w
  2580  00BB  00BA               	movwf	___flmul@prod
  2581  00BC  0827               	movf	___flmul@b+1,w
  2582  00BD  00AE               	movwf	??___flmul
  2583  00BE  082E               	movf	??___flmul,w
  2584  00BF  00F0               	movwf	__Umul8_16@multiplicand
  2585  00C0  082B               	movf	___flmul@a+1,w
  2586  00C1  120A  118A  27C0  120A  118A  	fcall	__Umul8_16
  2587  00C6  0871               	movf	?__Umul8_16+1,w
  2588  00C7  1283               	bcf	3,5	;RP0=0, select bank0
  2589  00C8  1303               	bcf	3,6	;RP1=0, select bank0
  2590  00C9  00BF               	movwf	___flmul@temp+1
  2591  00CA  0870               	movf	?__Umul8_16,w
  2592  00CB  00BE               	movwf	___flmul@temp
  2593  00CC                     i1l1552:
  2594  00CC  083E               	movf	___flmul@temp,w
  2595  00CD  00AE               	movwf	??___flmul
  2596  00CE  01AF               	clrf	??___flmul+1
  2597  00CF  01B0               	clrf	??___flmul+2
  2598  00D0  01B1               	clrf	??___flmul+3
  2599  00D1  082E               	movf	??___flmul,w
  2600  00D2  07B4               	addwf	___flmul@grs,f
  2601  00D3  082F               	movf	??___flmul+1,w
  2602  00D4  1103               	clrz
  2603  00D5  1803               	skipnc
  2604  00D6  3E01               	addlw	1
  2605  00D7  1903               	skipnz
  2606  00D8  28DA               	goto	u170_21
  2607  00D9  07B5               	addwf	___flmul@grs+1,f
  2608  00DA                     u170_21:
  2609  00DA  0830               	movf	??___flmul+2,w
  2610  00DB  1103               	clrz
  2611  00DC  1803               	skipnc
  2612  00DD  3E01               	addlw	1
  2613  00DE  1903               	skipnz
  2614  00DF  28E1               	goto	u170_22
  2615  00E0  07B6               	addwf	___flmul@grs+2,f
  2616  00E1                     u170_22:
  2617  00E1  0831               	movf	??___flmul+3,w
  2618  00E2  1103               	clrz
  2619  00E3  1803               	skipnc
  2620  00E4  3E01               	addlw	1
  2621  00E5  1903               	skipnz
  2622  00E6  28E8               	goto	u170_23
  2623  00E7  07B7               	addwf	___flmul@grs+3,f
  2624  00E8                     u170_23:
  2625  00E8                     i1l1554:
  2626  00E8  083F               	movf	___flmul@temp+1,w
  2627  00E9  00AE               	movwf	??___flmul
  2628  00EA  01AF               	clrf	??___flmul+1
  2629  00EB  01B0               	clrf	??___flmul+2
  2630  00EC  01B1               	clrf	??___flmul+3
  2631  00ED  082E               	movf	??___flmul,w
  2632  00EE  07BA               	addwf	___flmul@prod,f
  2633  00EF  082F               	movf	??___flmul+1,w
  2634  00F0  1103               	clrz
  2635  00F1  1803               	skipnc
  2636  00F2  3E01               	addlw	1
  2637  00F3  1903               	skipnz
  2638  00F4  28F6               	goto	u171_21
  2639  00F5  07BB               	addwf	___flmul@prod+1,f
  2640  00F6                     u171_21:
  2641  00F6  0830               	movf	??___flmul+2,w
  2642  00F7  1103               	clrz
  2643  00F8  1803               	skipnc
  2644  00F9  3E01               	addlw	1
  2645  00FA  1903               	skipnz
  2646  00FB  28FD               	goto	u171_22
  2647  00FC  07BC               	addwf	___flmul@prod+2,f
  2648  00FD                     u171_22:
  2649  00FD  0831               	movf	??___flmul+3,w
  2650  00FE  1103               	clrz
  2651  00FF  1803               	skipnc
  2652  0100  3E01               	addlw	1
  2653  0101  1903               	skipnz
  2654  0102  2904               	goto	u171_23
  2655  0103  07BD               	addwf	___flmul@prod+3,f
  2656  0104                     u171_23:
  2657  0104  0828               	movf	___flmul@b+2,w
  2658  0105  00AE               	movwf	??___flmul
  2659  0106  082E               	movf	??___flmul,w
  2660  0107  00F0               	movwf	__Umul8_16@multiplicand
  2661  0108  082A               	movf	___flmul@a,w
  2662  0109  120A  118A  27C0  120A  118A  	fcall	__Umul8_16
  2663  010E  0871               	movf	?__Umul8_16+1,w
  2664  010F  1283               	bcf	3,5	;RP0=0, select bank0
  2665  0110  1303               	bcf	3,6	;RP1=0, select bank0
  2666  0111  00BF               	movwf	___flmul@temp+1
  2667  0112  0870               	movf	?__Umul8_16,w
  2668  0113  00BE               	movwf	___flmul@temp
  2669  0114                     i1l1556:
  2670  0114  083E               	movf	___flmul@temp,w
  2671  0115  00AE               	movwf	??___flmul
  2672  0116  01AF               	clrf	??___flmul+1
  2673  0117  01B0               	clrf	??___flmul+2
  2674  0118  01B1               	clrf	??___flmul+3
  2675  0119  082E               	movf	??___flmul,w
  2676  011A  07B4               	addwf	___flmul@grs,f
  2677  011B  082F               	movf	??___flmul+1,w
  2678  011C  1103               	clrz
  2679  011D  1803               	skipnc
  2680  011E  3E01               	addlw	1
  2681  011F  1903               	skipnz
  2682  0120  2922               	goto	u172_21
  2683  0121  07B5               	addwf	___flmul@grs+1,f
  2684  0122                     u172_21:
  2685  0122  0830               	movf	??___flmul+2,w
  2686  0123  1103               	clrz
  2687  0124  1803               	skipnc
  2688  0125  3E01               	addlw	1
  2689  0126  1903               	skipnz
  2690  0127  2929               	goto	u172_22
  2691  0128  07B6               	addwf	___flmul@grs+2,f
  2692  0129                     u172_22:
  2693  0129  0831               	movf	??___flmul+3,w
  2694  012A  1103               	clrz
  2695  012B  1803               	skipnc
  2696  012C  3E01               	addlw	1
  2697  012D  1903               	skipnz
  2698  012E  2930               	goto	u172_23
  2699  012F  07B7               	addwf	___flmul@grs+3,f
  2700  0130                     u172_23:
  2701  0130                     i1l1558:
  2702  0130  083F               	movf	___flmul@temp+1,w
  2703  0131  00AE               	movwf	??___flmul
  2704  0132  01AF               	clrf	??___flmul+1
  2705  0133  01B0               	clrf	??___flmul+2
  2706  0134  01B1               	clrf	??___flmul+3
  2707  0135  082E               	movf	??___flmul,w
  2708  0136  07BA               	addwf	___flmul@prod,f
  2709  0137  082F               	movf	??___flmul+1,w
  2710  0138  1103               	clrz
  2711  0139  1803               	skipnc
  2712  013A  3E01               	addlw	1
  2713  013B  1903               	skipnz
  2714  013C  293E               	goto	u173_21
  2715  013D  07BB               	addwf	___flmul@prod+1,f
  2716  013E                     u173_21:
  2717  013E  0830               	movf	??___flmul+2,w
  2718  013F  1103               	clrz
  2719  0140  1803               	skipnc
  2720  0141  3E01               	addlw	1
  2721  0142  1903               	skipnz
  2722  0143  2945               	goto	u173_22
  2723  0144  07BC               	addwf	___flmul@prod+2,f
  2724  0145                     u173_22:
  2725  0145  0831               	movf	??___flmul+3,w
  2726  0146  1103               	clrz
  2727  0147  1803               	skipnc
  2728  0148  3E01               	addlw	1
  2729  0149  1903               	skipnz
  2730  014A  294C               	goto	u173_23
  2731  014B  07BD               	addwf	___flmul@prod+3,f
  2732  014C                     u173_23:
  2733  014C                     i1l1560:
  2734  014C  3008               	movlw	8
  2735  014D  00AE               	movwf	??___flmul
  2736  014E                     u174_25:
  2737  014E  1003               	clrc
  2738  014F  0DB4               	rlf	___flmul@grs,f
  2739  0150  0DB5               	rlf	___flmul@grs+1,f
  2740  0151  0DB6               	rlf	___flmul@grs+2,f
  2741  0152  0DB7               	rlf	___flmul@grs+3,f
  2742  0153  0BAE               	decfsz	??___flmul,f
  2743  0154  294E               	goto	u174_25
  2744  0155                     i1l1562:
  2745  0155  0827               	movf	___flmul@b+1,w
  2746  0156  00AE               	movwf	??___flmul
  2747  0157  082E               	movf	??___flmul,w
  2748  0158  00F0               	movwf	__Umul8_16@multiplicand
  2749  0159  082A               	movf	___flmul@a,w
  2750  015A  120A  118A  27C0  120A  118A  	fcall	__Umul8_16
  2751  015F  0871               	movf	?__Umul8_16+1,w
  2752  0160  1283               	bcf	3,5	;RP0=0, select bank0
  2753  0161  1303               	bcf	3,6	;RP1=0, select bank0
  2754  0162  00BF               	movwf	___flmul@temp+1
  2755  0163  0870               	movf	?__Umul8_16,w
  2756  0164  00BE               	movwf	___flmul@temp
  2757  0165                     i1l1564:
  2758  0165  083E               	movf	___flmul@temp,w
  2759  0166  00AE               	movwf	??___flmul
  2760  0167  083F               	movf	___flmul@temp+1,w
  2761  0168  00AF               	movwf	??___flmul+1
  2762  0169  01B0               	clrf	??___flmul+2
  2763  016A  01B1               	clrf	??___flmul+3
  2764  016B  082E               	movf	??___flmul,w
  2765  016C  07B4               	addwf	___flmul@grs,f
  2766  016D  082F               	movf	??___flmul+1,w
  2767  016E  1103               	clrz
  2768  016F  1803               	skipnc
  2769  0170  3E01               	addlw	1
  2770  0171  1903               	skipnz
  2771  0172  2974               	goto	u175_21
  2772  0173  07B5               	addwf	___flmul@grs+1,f
  2773  0174                     u175_21:
  2774  0174  0830               	movf	??___flmul+2,w
  2775  0175  1103               	clrz
  2776  0176  1803               	skipnc
  2777  0177  3E01               	addlw	1
  2778  0178  1903               	skipnz
  2779  0179  297B               	goto	u175_22
  2780  017A  07B6               	addwf	___flmul@grs+2,f
  2781  017B                     u175_22:
  2782  017B  0831               	movf	??___flmul+3,w
  2783  017C  1103               	clrz
  2784  017D  1803               	skipnc
  2785  017E  3E01               	addlw	1
  2786  017F  1903               	skipnz
  2787  0180  2982               	goto	u175_23
  2788  0181  07B7               	addwf	___flmul@grs+3,f
  2789  0182                     u175_23:
  2790  0182                     i1l1566:
  2791  0182  0826               	movf	___flmul@b,w
  2792  0183  00AE               	movwf	??___flmul
  2793  0184  082E               	movf	??___flmul,w
  2794  0185  00F0               	movwf	__Umul8_16@multiplicand
  2795  0186  082B               	movf	___flmul@a+1,w
  2796  0187  120A  118A  27C0  120A  118A  	fcall	__Umul8_16
  2797  018C  0871               	movf	?__Umul8_16+1,w
  2798  018D  1283               	bcf	3,5	;RP0=0, select bank0
  2799  018E  1303               	bcf	3,6	;RP1=0, select bank0
  2800  018F  00BF               	movwf	___flmul@temp+1
  2801  0190  0870               	movf	?__Umul8_16,w
  2802  0191  00BE               	movwf	___flmul@temp
  2803  0192                     i1l1568:
  2804  0192  083E               	movf	___flmul@temp,w
  2805  0193  00AE               	movwf	??___flmul
  2806  0194  083F               	movf	___flmul@temp+1,w
  2807  0195  00AF               	movwf	??___flmul+1
  2808  0196  01B0               	clrf	??___flmul+2
  2809  0197  01B1               	clrf	??___flmul+3
  2810  0198  082E               	movf	??___flmul,w
  2811  0199  07B4               	addwf	___flmul@grs,f
  2812  019A  082F               	movf	??___flmul+1,w
  2813  019B  1103               	clrz
  2814  019C  1803               	skipnc
  2815  019D  3E01               	addlw	1
  2816  019E  1903               	skipnz
  2817  019F  29A1               	goto	u176_21
  2818  01A0  07B5               	addwf	___flmul@grs+1,f
  2819  01A1                     u176_21:
  2820  01A1  0830               	movf	??___flmul+2,w
  2821  01A2  1103               	clrz
  2822  01A3  1803               	skipnc
  2823  01A4  3E01               	addlw	1
  2824  01A5  1903               	skipnz
  2825  01A6  29A8               	goto	u176_22
  2826  01A7  07B6               	addwf	___flmul@grs+2,f
  2827  01A8                     u176_22:
  2828  01A8  0831               	movf	??___flmul+3,w
  2829  01A9  1103               	clrz
  2830  01AA  1803               	skipnc
  2831  01AB  3E01               	addlw	1
  2832  01AC  1903               	skipnz
  2833  01AD  29AF               	goto	u176_23
  2834  01AE  07B7               	addwf	___flmul@grs+3,f
  2835  01AF                     u176_23:
  2836  01AF                     i1l1570:
  2837  01AF  3008               	movlw	8
  2838  01B0  00AE               	movwf	??___flmul
  2839  01B1                     u177_25:
  2840  01B1  1003               	clrc
  2841  01B2  0DB4               	rlf	___flmul@grs,f
  2842  01B3  0DB5               	rlf	___flmul@grs+1,f
  2843  01B4  0DB6               	rlf	___flmul@grs+2,f
  2844  01B5  0DB7               	rlf	___flmul@grs+3,f
  2845  01B6  0BAE               	decfsz	??___flmul,f
  2846  01B7  29B1               	goto	u177_25
  2847  01B8  0826               	movf	___flmul@b,w
  2848  01B9  00AE               	movwf	??___flmul
  2849  01BA  082E               	movf	??___flmul,w
  2850  01BB  00F0               	movwf	__Umul8_16@multiplicand
  2851  01BC  082A               	movf	___flmul@a,w
  2852  01BD  120A  118A  27C0  120A  118A  	fcall	__Umul8_16
  2853  01C2  0871               	movf	?__Umul8_16+1,w
  2854  01C3  1283               	bcf	3,5	;RP0=0, select bank0
  2855  01C4  1303               	bcf	3,6	;RP1=0, select bank0
  2856  01C5  00BF               	movwf	___flmul@temp+1
  2857  01C6  0870               	movf	?__Umul8_16,w
  2858  01C7  00BE               	movwf	___flmul@temp
  2859  01C8                     i1l1572:
  2860  01C8  083E               	movf	___flmul@temp,w
  2861  01C9  00AE               	movwf	??___flmul
  2862  01CA  083F               	movf	___flmul@temp+1,w
  2863  01CB  00AF               	movwf	??___flmul+1
  2864  01CC  01B0               	clrf	??___flmul+2
  2865  01CD  01B1               	clrf	??___flmul+3
  2866  01CE  082E               	movf	??___flmul,w
  2867  01CF  07B4               	addwf	___flmul@grs,f
  2868  01D0  082F               	movf	??___flmul+1,w
  2869  01D1  1103               	clrz
  2870  01D2  1803               	skipnc
  2871  01D3  3E01               	addlw	1
  2872  01D4  1903               	skipnz
  2873  01D5  29D7               	goto	u178_21
  2874  01D6  07B5               	addwf	___flmul@grs+1,f
  2875  01D7                     u178_21:
  2876  01D7  0830               	movf	??___flmul+2,w
  2877  01D8  1103               	clrz
  2878  01D9  1803               	skipnc
  2879  01DA  3E01               	addlw	1
  2880  01DB  1903               	skipnz
  2881  01DC  29DE               	goto	u178_22
  2882  01DD  07B6               	addwf	___flmul@grs+2,f
  2883  01DE                     u178_22:
  2884  01DE  0831               	movf	??___flmul+3,w
  2885  01DF  1103               	clrz
  2886  01E0  1803               	skipnc
  2887  01E1  3E01               	addlw	1
  2888  01E2  1903               	skipnz
  2889  01E3  29E5               	goto	u178_23
  2890  01E4  07B7               	addwf	___flmul@grs+3,f
  2891  01E5                     u178_23:
  2892  01E5                     i1l1574:
  2893  01E5  0827               	movf	___flmul@b+1,w
  2894  01E6  00AE               	movwf	??___flmul
  2895  01E7  082E               	movf	??___flmul,w
  2896  01E8  00F0               	movwf	__Umul8_16@multiplicand
  2897  01E9  082C               	movf	___flmul@a+2,w
  2898  01EA  120A  118A  27C0  120A  118A  	fcall	__Umul8_16
  2899  01EF  0871               	movf	?__Umul8_16+1,w
  2900  01F0  1283               	bcf	3,5	;RP0=0, select bank0
  2901  01F1  1303               	bcf	3,6	;RP1=0, select bank0
  2902  01F2  00BF               	movwf	___flmul@temp+1
  2903  01F3  0870               	movf	?__Umul8_16,w
  2904  01F4  00BE               	movwf	___flmul@temp
  2905  01F5  083E               	movf	___flmul@temp,w
  2906  01F6  00AE               	movwf	??___flmul
  2907  01F7  083F               	movf	___flmul@temp+1,w
  2908  01F8  00AF               	movwf	??___flmul+1
  2909  01F9  01B0               	clrf	??___flmul+2
  2910  01FA  01B1               	clrf	??___flmul+3
  2911  01FB  082E               	movf	??___flmul,w
  2912  01FC  07BA               	addwf	___flmul@prod,f
  2913  01FD  082F               	movf	??___flmul+1,w
  2914  01FE  1103               	clrz
  2915  01FF  1803               	skipnc
  2916  0200  3E01               	addlw	1
  2917  0201  1903               	skipnz
  2918  0202  2A04               	goto	u179_21
  2919  0203  07BB               	addwf	___flmul@prod+1,f
  2920  0204                     u179_21:
  2921  0204  0830               	movf	??___flmul+2,w
  2922  0205  1103               	clrz
  2923  0206  1803               	skipnc
  2924  0207  3E01               	addlw	1
  2925  0208  1903               	skipnz
  2926  0209  2A0B               	goto	u179_22
  2927  020A  07BC               	addwf	___flmul@prod+2,f
  2928  020B                     u179_22:
  2929  020B  0831               	movf	??___flmul+3,w
  2930  020C  1103               	clrz
  2931  020D  1803               	skipnc
  2932  020E  3E01               	addlw	1
  2933  020F  1903               	skipnz
  2934  0210  2A12               	goto	u179_23
  2935  0211  07BD               	addwf	___flmul@prod+3,f
  2936  0212                     u179_23:
  2937  0212                     i1l1576:
  2938  0212  0828               	movf	___flmul@b+2,w
  2939  0213  00AE               	movwf	??___flmul
  2940  0214  082E               	movf	??___flmul,w
  2941  0215  00F0               	movwf	__Umul8_16@multiplicand
  2942  0216  082B               	movf	___flmul@a+1,w
  2943  0217  120A  118A  27C0  120A  118A  	fcall	__Umul8_16
  2944  021C  0871               	movf	?__Umul8_16+1,w
  2945  021D  1283               	bcf	3,5	;RP0=0, select bank0
  2946  021E  1303               	bcf	3,6	;RP1=0, select bank0
  2947  021F  00BF               	movwf	___flmul@temp+1
  2948  0220  0870               	movf	?__Umul8_16,w
  2949  0221  00BE               	movwf	___flmul@temp
  2950  0222                     i1l1578:
  2951  0222  083E               	movf	___flmul@temp,w
  2952  0223  00AE               	movwf	??___flmul
  2953  0224  083F               	movf	___flmul@temp+1,w
  2954  0225  00AF               	movwf	??___flmul+1
  2955  0226  01B0               	clrf	??___flmul+2
  2956  0227  01B1               	clrf	??___flmul+3
  2957  0228  082E               	movf	??___flmul,w
  2958  0229  07BA               	addwf	___flmul@prod,f
  2959  022A  082F               	movf	??___flmul+1,w
  2960  022B  1103               	clrz
  2961  022C  1803               	skipnc
  2962  022D  3E01               	addlw	1
  2963  022E  1903               	skipnz
  2964  022F  2A31               	goto	u180_21
  2965  0230  07BB               	addwf	___flmul@prod+1,f
  2966  0231                     u180_21:
  2967  0231  0830               	movf	??___flmul+2,w
  2968  0232  1103               	clrz
  2969  0233  1803               	skipnc
  2970  0234  3E01               	addlw	1
  2971  0235  1903               	skipnz
  2972  0236  2A38               	goto	u180_22
  2973  0237  07BC               	addwf	___flmul@prod+2,f
  2974  0238                     u180_22:
  2975  0238  0831               	movf	??___flmul+3,w
  2976  0239  1103               	clrz
  2977  023A  1803               	skipnc
  2978  023B  3E01               	addlw	1
  2979  023C  1903               	skipnz
  2980  023D  2A3F               	goto	u180_23
  2981  023E  07BD               	addwf	___flmul@prod+3,f
  2982  023F                     u180_23:
  2983  023F  0828               	movf	___flmul@b+2,w
  2984  0240  00AE               	movwf	??___flmul
  2985  0241  082E               	movf	??___flmul,w
  2986  0242  00F0               	movwf	__Umul8_16@multiplicand
  2987  0243  082C               	movf	___flmul@a+2,w
  2988  0244  120A  118A  27C0  120A  118A  	fcall	__Umul8_16
  2989  0249  0871               	movf	?__Umul8_16+1,w
  2990  024A  1283               	bcf	3,5	;RP0=0, select bank0
  2991  024B  1303               	bcf	3,6	;RP1=0, select bank0
  2992  024C  00BF               	movwf	___flmul@temp+1
  2993  024D  0870               	movf	?__Umul8_16,w
  2994  024E  00BE               	movwf	___flmul@temp
  2995  024F                     i1l1580:
  2996  024F  083E               	movf	___flmul@temp,w
  2997  0250  00AE               	movwf	??___flmul
  2998  0251  083F               	movf	___flmul@temp+1,w
  2999  0252  00AF               	movwf	??___flmul+1
  3000  0253  01B0               	clrf	??___flmul+2
  3001  0254  01B1               	clrf	??___flmul+3
  3002  0255  3008               	movlw	8
  3003  0256                     u181_25:
  3004  0256  1003               	clrc
  3005  0257  0DAE               	rlf	??___flmul,f
  3006  0258  0DAF               	rlf	??___flmul+1,f
  3007  0259  0DB0               	rlf	??___flmul+2,f
  3008  025A  0DB1               	rlf	??___flmul+3,f
  3009  025B                     u181_20:
  3010  025B  3EFF               	addlw	-1
  3011  025C  1D03               	skipz
  3012  025D  2A56               	goto	u181_25
  3013  025E  082E               	movf	??___flmul,w
  3014  025F  07BA               	addwf	___flmul@prod,f
  3015  0260  082F               	movf	??___flmul+1,w
  3016  0261  1103               	clrz
  3017  0262  1803               	skipnc
  3018  0263  3E01               	addlw	1
  3019  0264  1903               	skipnz
  3020  0265  2A67               	goto	u182_21
  3021  0266  07BB               	addwf	___flmul@prod+1,f
  3022  0267                     u182_21:
  3023  0267  0830               	movf	??___flmul+2,w
  3024  0268  1103               	clrz
  3025  0269  1803               	skipnc
  3026  026A  3E01               	addlw	1
  3027  026B  1903               	skipnz
  3028  026C  2A6E               	goto	u182_22
  3029  026D  07BC               	addwf	___flmul@prod+2,f
  3030  026E                     u182_22:
  3031  026E  0831               	movf	??___flmul+3,w
  3032  026F  1103               	clrz
  3033  0270  1803               	skipnc
  3034  0271  3E01               	addlw	1
  3035  0272  1903               	skipnz
  3036  0273  2A75               	goto	u182_23
  3037  0274  07BD               	addwf	___flmul@prod+3,f
  3038  0275                     u182_23:
  3039  0275                     i1l1582:
  3040  0275  0834               	movf	___flmul@grs,w
  3041  0276  00AE               	movwf	??___flmul
  3042  0277  0835               	movf	___flmul@grs+1,w
  3043  0278  00AF               	movwf	??___flmul+1
  3044  0279  0836               	movf	___flmul@grs+2,w
  3045  027A  00B0               	movwf	??___flmul+2
  3046  027B  0837               	movf	___flmul@grs+3,w
  3047  027C  00B1               	movwf	??___flmul+3
  3048  027D  3018               	movlw	24
  3049  027E                     u183_25:
  3050  027E  1003               	clrc
  3051  027F  0CB1               	rrf	??___flmul+3,f
  3052  0280  0CB0               	rrf	??___flmul+2,f
  3053  0281  0CAF               	rrf	??___flmul+1,f
  3054  0282  0CAE               	rrf	??___flmul,f
  3055  0283                     u183_20:
  3056  0283  3EFF               	addlw	-1
  3057  0284  1D03               	skipz
  3058  0285  2A7E               	goto	u183_25
  3059  0286  082E               	movf	??___flmul,w
  3060  0287  07BA               	addwf	___flmul@prod,f
  3061  0288  082F               	movf	??___flmul+1,w
  3062  0289  1103               	clrz
  3063  028A  1803               	skipnc
  3064  028B  3E01               	addlw	1
  3065  028C  1903               	skipnz
  3066  028D  2A8F               	goto	u184_21
  3067  028E  07BB               	addwf	___flmul@prod+1,f
  3068  028F                     u184_21:
  3069  028F  0830               	movf	??___flmul+2,w
  3070  0290  1103               	clrz
  3071  0291  1803               	skipnc
  3072  0292  3E01               	addlw	1
  3073  0293  1903               	skipnz
  3074  0294  2A96               	goto	u184_22
  3075  0295  07BC               	addwf	___flmul@prod+2,f
  3076  0296                     u184_22:
  3077  0296  0831               	movf	??___flmul+3,w
  3078  0297  1103               	clrz
  3079  0298  1803               	skipnc
  3080  0299  3E01               	addlw	1
  3081  029A  1903               	skipnz
  3082  029B  2A9D               	goto	u184_23
  3083  029C  07BD               	addwf	___flmul@prod+3,f
  3084  029D                     u184_23:
  3085  029D                     i1l1584:
  3086  029D  3008               	movlw	8
  3087  029E  00AE               	movwf	??___flmul
  3088  029F                     u185_25:
  3089  029F  1003               	clrc
  3090  02A0  0DB4               	rlf	___flmul@grs,f
  3091  02A1  0DB5               	rlf	___flmul@grs+1,f
  3092  02A2  0DB6               	rlf	___flmul@grs+2,f
  3093  02A3  0DB7               	rlf	___flmul@grs+3,f
  3094  02A4  0BAE               	decfsz	??___flmul,f
  3095  02A5  2A9F               	goto	u185_25
  3096  02A6                     i1l1586:
  3097  02A6  0839               	movf	___flmul@bexp,w
  3098  02A7  0738               	addwf	___flmul@aexp,w
  3099  02A8  00AE               	movwf	??___flmul
  3100  02A9  01AF               	clrf	??___flmul+1
  3101  02AA  0DAF               	rlf	??___flmul+1,f
  3102  02AB  082E               	movf	??___flmul,w
  3103  02AC  3E82               	addlw	130
  3104  02AD  00BE               	movwf	___flmul@temp
  3105  02AE  082F               	movf	??___flmul+1,w
  3106  02AF  1803               	skipnc
  3107  02B0  3E01               	addlw	1
  3108  02B1  3EFF               	addlw	255
  3109  02B2  00BF               	movwf	___flmul@temp+1
  3110  02B3  2AD1               	goto	i1l1598
  3111  02B4                     i1l1588:
  3112  02B4  3001               	movlw	1
  3113  02B5  00AE               	movwf	??___flmul
  3114  02B6                     u186_25:
  3115  02B6  1003               	clrc
  3116  02B7  0DBA               	rlf	___flmul@prod,f
  3117  02B8  0DBB               	rlf	___flmul@prod+1,f
  3118  02B9  0DBC               	rlf	___flmul@prod+2,f
  3119  02BA  0DBD               	rlf	___flmul@prod+3,f
  3120  02BB  0BAE               	decfsz	??___flmul,f
  3121  02BC  2AB6               	goto	u186_25
  3122  02BD                     i1l1590:
  3123  02BD  1FB7               	btfss	___flmul@grs+3,7
  3124  02BE  2AC0               	goto	u187_21
  3125  02BF  2AC1               	goto	u187_20
  3126  02C0                     u187_21:
  3127  02C0  2AC2               	goto	i1l1594
  3128  02C1                     u187_20:
  3129  02C1                     i1l1592:
  3130  02C1  143A               	bsf	___flmul@prod,0
  3131  02C2                     i1l1594:
  3132  02C2  3001               	movlw	1
  3133  02C3  00AE               	movwf	??___flmul
  3134  02C4                     u188_25:
  3135  02C4  1003               	clrc
  3136  02C5  0DB4               	rlf	___flmul@grs,f
  3137  02C6  0DB5               	rlf	___flmul@grs+1,f
  3138  02C7  0DB6               	rlf	___flmul@grs+2,f
  3139  02C8  0DB7               	rlf	___flmul@grs+3,f
  3140  02C9  0BAE               	decfsz	??___flmul,f
  3141  02CA  2AC4               	goto	u188_25
  3142  02CB                     i1l1596:
  3143  02CB  30FF               	movlw	255
  3144  02CC  07BE               	addwf	___flmul@temp,f
  3145  02CD  1803               	skipnc
  3146  02CE  0ABF               	incf	___flmul@temp+1,f
  3147  02CF  30FF               	movlw	255
  3148  02D0  07BF               	addwf	___flmul@temp+1,f
  3149  02D1                     i1l1598:
  3150  02D1  1FBC               	btfss	___flmul@prod+2,7
  3151  02D2  2AD4               	goto	u189_21
  3152  02D3  2AD5               	goto	u189_20
  3153  02D4                     u189_21:
  3154  02D4  2AB4               	goto	i1l1588
  3155  02D5                     u189_20:
  3156  02D5                     i1l1600:
  3157  02D5  01B8               	clrf	___flmul@aexp
  3158  02D6                     i1l1602:
  3159  02D6  1FB7               	btfss	___flmul@grs+3,7
  3160  02D7  2AD9               	goto	u190_21
  3161  02D8  2ADA               	goto	u190_20
  3162  02D9                     u190_21:
  3163  02D9  2AF6               	goto	i1l1610
  3164  02DA                     u190_20:
  3165  02DA                     i1l1604:
  3166  02DA  30FF               	movlw	255
  3167  02DB  0534               	andwf	___flmul@grs,w
  3168  02DC  00AE               	movwf	??___flmul
  3169  02DD  30FF               	movlw	255
  3170  02DE  0535               	andwf	___flmul@grs+1,w
  3171  02DF  00AF               	movwf	??___flmul+1
  3172  02E0  30FF               	movlw	255
  3173  02E1  0536               	andwf	___flmul@grs+2,w
  3174  02E2  00B0               	movwf	??___flmul+2
  3175  02E3  307F               	movlw	127
  3176  02E4  0537               	andwf	___flmul@grs+3,w
  3177  02E5  00B1               	movwf	??___flmul+3
  3178  02E6  0831               	movf	??___flmul+3,w
  3179  02E7  0430               	iorwf	??___flmul+2,w
  3180  02E8  042F               	iorwf	??___flmul+1,w
  3181  02E9  042E               	iorwf	??___flmul,w
  3182  02EA  1903               	skipnz
  3183  02EB  2AED               	goto	u191_21
  3184  02EC  2AEE               	goto	u191_20
  3185  02ED                     u191_21:
  3186  02ED  2AF1               	goto	i1l605
  3187  02EE                     u191_20:
  3188  02EE                     i1l1606:
  3189  02EE  01B8               	clrf	___flmul@aexp
  3190  02EF  0AB8               	incf	___flmul@aexp,f
  3191  02F0  2AF6               	goto	i1l1610
  3192  02F1                     i1l605:
  3193  02F1  1C3A               	btfss	___flmul@prod,0
  3194  02F2  2AF4               	goto	u192_21
  3195  02F3  2AF5               	goto	u192_20
  3196  02F4                     u192_21:
  3197  02F4  2AF6               	goto	i1l1610
  3198  02F5                     u192_20:
  3199  02F5  2AEE               	goto	i1l1606
  3200  02F6                     i1l1610:
  3201  02F6  0838               	movf	___flmul@aexp,w
  3202  02F7  1903               	btfsc	3,2
  3203  02F8  2AFA               	goto	u193_21
  3204  02F9  2AFB               	goto	u193_20
  3205  02FA                     u193_21:
  3206  02FA  2B2C               	goto	i1l1620
  3207  02FB                     u193_20:
  3208  02FB                     i1l1612:
  3209  02FB  3001               	movlw	1
  3210  02FC  07BA               	addwf	___flmul@prod,f
  3211  02FD  3000               	movlw	0
  3212  02FE  1803               	skipnc
  3213  02FF  3001               	movlw	1
  3214  0300  07BB               	addwf	___flmul@prod+1,f
  3215  0301  3000               	movlw	0
  3216  0302  1803               	skipnc
  3217  0303  3001               	movlw	1
  3218  0304  07BC               	addwf	___flmul@prod+2,f
  3219  0305  3000               	movlw	0
  3220  0306  1803               	skipnc
  3221  0307  3001               	movlw	1
  3222  0308  07BD               	addwf	___flmul@prod+3,f
  3223  0309                     i1l1614:
  3224  0309  1C3D               	btfss	___flmul@prod+3,0
  3225  030A  2B0C               	goto	u194_21
  3226  030B  2B0D               	goto	u194_20
  3227  030C                     u194_21:
  3228  030C  2B2C               	goto	i1l1620
  3229  030D                     u194_20:
  3230  030D                     i1l1616:
  3231  030D  083A               	movf	___flmul@prod,w
  3232  030E  00AE               	movwf	??___flmul
  3233  030F  083B               	movf	___flmul@prod+1,w
  3234  0310  00AF               	movwf	??___flmul+1
  3235  0311  083C               	movf	___flmul@prod+2,w
  3236  0312  00B0               	movwf	??___flmul+2
  3237  0313  083D               	movf	___flmul@prod+3,w
  3238  0314  00B1               	movwf	??___flmul+3
  3239  0315  3001               	movlw	1
  3240  0316  00B2               	movwf	??___flmul+4
  3241  0317                     u195_25:
  3242  0317  0D31               	rlf	??___flmul+3,w
  3243  0318  0CB1               	rrf	??___flmul+3,f
  3244  0319  0CB0               	rrf	??___flmul+2,f
  3245  031A  0CAF               	rrf	??___flmul+1,f
  3246  031B  0CAE               	rrf	??___flmul,f
  3247  031C                     u195_20:
  3248  031C  0BB2               	decfsz	??___flmul+4,f
  3249  031D  2B17               	goto	u195_25
  3250  031E  0831               	movf	??___flmul+3,w
  3251  031F  00BD               	movwf	___flmul@prod+3
  3252  0320  0830               	movf	??___flmul+2,w
  3253  0321  00BC               	movwf	___flmul@prod+2
  3254  0322  082F               	movf	??___flmul+1,w
  3255  0323  00BB               	movwf	___flmul@prod+1
  3256  0324  082E               	movf	??___flmul,w
  3257  0325  00BA               	movwf	___flmul@prod
  3258  0326                     i1l1618:
  3259  0326  3001               	movlw	1
  3260  0327  07BE               	addwf	___flmul@temp,f
  3261  0328  1803               	skipnc
  3262  0329  0ABF               	incf	___flmul@temp+1,f
  3263  032A  3000               	movlw	0
  3264  032B  07BF               	addwf	___flmul@temp+1,f
  3265  032C                     i1l1620:
  3266  032C  083F               	movf	___flmul@temp+1,w
  3267  032D  3A80               	xorlw	128
  3268  032E  00FF               	movwf	btemp+1
  3269  032F  3080               	movlw	128
  3270  0330  027F               	subwf	btemp+1,w
  3271  0331  1D03               	skipz
  3272  0332  2B35               	goto	u196_25
  3273  0333  30FF               	movlw	255
  3274  0334  023E               	subwf	___flmul@temp,w
  3275  0335                     u196_25:
  3276  0335  1C03               	skipc
  3277  0336  2B38               	goto	u196_21
  3278  0337  2B39               	goto	u196_20
  3279  0338                     u196_21:
  3280  0338  2B44               	goto	i1l1624
  3281  0339                     u196_20:
  3282  0339                     i1l1622:
  3283  0339  307F               	movlw	127
  3284  033A  1283               	bcf	3,5	;RP0=0, select bank0
  3285  033B  1303               	bcf	3,6	;RP1=0, select bank0
  3286  033C  00BD               	movwf	___flmul@prod+3
  3287  033D  3080               	movlw	128
  3288  033E  00BC               	movwf	___flmul@prod+2
  3289  033F  3000               	movlw	0
  3290  0340  00BB               	movwf	___flmul@prod+1
  3291  0341  3000               	movlw	0
  3292  0342  00BA               	movwf	___flmul@prod
  3293  0343  2B79               	goto	i1l611
  3294  0344                     i1l1624:
  3295  0344  1283               	bcf	3,5	;RP0=0, select bank0
  3296  0345  1303               	bcf	3,6	;RP1=0, select bank0
  3297  0346  083F               	movf	___flmul@temp+1,w
  3298  0347  3A80               	xorlw	128
  3299  0348  00FF               	movwf	btemp+1
  3300  0349  3080               	movlw	128
  3301  034A  027F               	subwf	btemp+1,w
  3302  034B  1D03               	skipz
  3303  034C  2B4F               	goto	u197_25
  3304  034D  3001               	movlw	1
  3305  034E  023E               	subwf	___flmul@temp,w
  3306  034F                     u197_25:
  3307  034F  1803               	skipnc
  3308  0350  2B52               	goto	u197_21
  3309  0351  2B53               	goto	u197_20
  3310  0352                     u197_21:
  3311  0352  2B5F               	goto	i1l1630
  3312  0353                     u197_20:
  3313  0353                     i1l1626:
  3314  0353  3000               	movlw	0
  3315  0354  1283               	bcf	3,5	;RP0=0, select bank0
  3316  0355  1303               	bcf	3,6	;RP1=0, select bank0
  3317  0356  00BD               	movwf	___flmul@prod+3
  3318  0357  3000               	movlw	0
  3319  0358  00BC               	movwf	___flmul@prod+2
  3320  0359  3000               	movlw	0
  3321  035A  00BB               	movwf	___flmul@prod+1
  3322  035B  3000               	movlw	0
  3323  035C  00BA               	movwf	___flmul@prod
  3324  035D                     i1l1628:
  3325  035D  01B3               	clrf	___flmul@sign
  3326  035E  2B79               	goto	i1l611
  3327  035F                     i1l1630:
  3328  035F  1283               	bcf	3,5	;RP0=0, select bank0
  3329  0360  1303               	bcf	3,6	;RP1=0, select bank0
  3330  0361  083E               	movf	___flmul@temp,w
  3331  0362  00AE               	movwf	??___flmul
  3332  0363  082E               	movf	??___flmul,w
  3333  0364  00B9               	movwf	___flmul@bexp
  3334  0365  30FF               	movlw	255
  3335  0366  05BA               	andwf	___flmul@prod,f
  3336  0367  30FF               	movlw	255
  3337  0368  05BB               	andwf	___flmul@prod+1,f
  3338  0369  307F               	movlw	127
  3339  036A  05BC               	andwf	___flmul@prod+2,f
  3340  036B  3000               	movlw	0
  3341  036C  05BD               	andwf	___flmul@prod+3,f
  3342  036D                     i1l1632:
  3343  036D  1C39               	btfss	___flmul@bexp,0
  3344  036E  2B70               	goto	u198_21
  3345  036F  2B71               	goto	u198_20
  3346  0370                     u198_21:
  3347  0370  2B72               	goto	i1l1636
  3348  0371                     u198_20:
  3349  0371                     i1l1634:
  3350  0371  17BC               	bsf	___flmul@prod+2,7
  3351  0372                     i1l1636:
  3352  0372  0839               	movf	___flmul@bexp,w
  3353  0373  00AE               	movwf	??___flmul
  3354  0374  1003               	clrc
  3355  0375  0C2E               	rrf	??___flmul,w
  3356  0376  00AF               	movwf	??___flmul+1
  3357  0377  082F               	movf	??___flmul+1,w
  3358  0378  00BD               	movwf	___flmul@prod+3
  3359  0379                     i1l611:
  3360  0379  0833               	movf	___flmul@sign,w
  3361  037A  00AE               	movwf	??___flmul
  3362  037B  082E               	movf	??___flmul,w
  3363  037C  04BD               	iorwf	___flmul@prod+3,f
  3364  037D                     i1l1638:
  3365  037D  083D               	movf	___flmul@prod+3,w
  3366  037E  00A9               	movwf	?___flmul+3
  3367  037F  083C               	movf	___flmul@prod+2,w
  3368  0380  00A8               	movwf	?___flmul+2
  3369  0381  083B               	movf	___flmul@prod+1,w
  3370  0382  00A7               	movwf	?___flmul+1
  3371  0383  083A               	movf	___flmul@prod,w
  3372  0384  00A6               	movwf	?___flmul
  3373  0385                     i1l599:
  3374  0385  0008               	return
  3375  0386                     __end_of___flmul:
  3376                           
  3377                           	psect	text14
  3378  07C0                     __ptext14:	
  3379 ;; *************** function __Umul8_16 *****************
  3380 ;; Defined at:
  3381 ;;		line 4 in file "C:\Program Files\Microchip\xc8\v2.36\pic\sources\c90\common\Umul8_16.c"
  3382 ;; Parameters:    Size  Location     Type
  3383 ;;  multiplier      1    wreg     unsigned char 
  3384 ;;  multiplicand    1    0[COMMON] unsigned char 
  3385 ;; Auto vars:     Size  Location     Type
  3386 ;;  multiplier      1    8[COMMON] unsigned char 
  3387 ;;  word_mpld       2    6[COMMON] unsigned int 
  3388 ;;  product         2    4[COMMON] unsigned int 
  3389 ;; Return value:  Size  Location     Type
  3390 ;;                  2    0[COMMON] unsigned int 
  3391 ;; Registers used:
  3392 ;;		wreg, status,2, status,0
  3393 ;; Tracked objects:
  3394 ;;		On entry : 0/0
  3395 ;;		On exit  : 0/0
  3396 ;;		Unchanged: 0/0
  3397 ;; Data sizes:     COMMON   BANK0   BANK1   BANK3   BANK2
  3398 ;;      Params:         2       0       0       0       0
  3399 ;;      Locals:         5       0       0       0       0
  3400 ;;      Temps:          2       0       0       0       0
  3401 ;;      Totals:         9       0       0       0       0
  3402 ;;Total ram usage:        9 bytes
  3403 ;; Hardware stack levels used: 1
  3404 ;; This function calls:
  3405 ;;		Nothing
  3406 ;; This function is called by:
  3407 ;;		___flmul
  3408 ;; This function uses a non-reentrant model
  3409 ;;
  3410                           
  3411  07C0                     __Umul8_16:	
  3412                           ;psect for function __Umul8_16
  3413                           
  3414                           
  3415                           ;incstack = 0
  3416                           ; Regs used in __Umul8_16: [wreg+status,2+status,0]
  3417                           ;__Umul8_16@multiplier stored from wreg
  3418  07C0  00F8               	movwf	__Umul8_16@multiplier
  3419  07C1                     i1l1264:
  3420  07C1  01F4               	clrf	__Umul8_16@product
  3421  07C2  01F5               	clrf	__Umul8_16@product+1
  3422  07C3                     i1l1266:
  3423  07C3  0870               	movf	__Umul8_16@multiplicand,w
  3424  07C4  00F2               	movwf	??__Umul8_16
  3425  07C5  01F3               	clrf	??__Umul8_16+1
  3426  07C6  0872               	movf	??__Umul8_16,w
  3427  07C7  00F6               	movwf	__Umul8_16@word_mpld
  3428  07C8  0873               	movf	??__Umul8_16+1,w
  3429  07C9  00F7               	movwf	__Umul8_16@word_mpld+1
  3430  07CA                     i1l1268:
  3431  07CA  1C78               	btfss	__Umul8_16@multiplier,0
  3432  07CB  2FCD               	goto	u112_21
  3433  07CC  2FCE               	goto	u112_20
  3434  07CD                     u112_21:
  3435  07CD  2FD4               	goto	i1l618
  3436  07CE                     u112_20:
  3437  07CE                     i1l1270:
  3438  07CE  0876               	movf	__Umul8_16@word_mpld,w
  3439  07CF  07F4               	addwf	__Umul8_16@product,f
  3440  07D0  1803               	skipnc
  3441  07D1  0AF5               	incf	__Umul8_16@product+1,f
  3442  07D2  0877               	movf	__Umul8_16@word_mpld+1,w
  3443  07D3  07F5               	addwf	__Umul8_16@product+1,f
  3444  07D4                     i1l618:
  3445  07D4  3001               	movlw	1
  3446  07D5                     u113_25:
  3447  07D5  1003               	clrc
  3448  07D6  0DF6               	rlf	__Umul8_16@word_mpld,f
  3449  07D7  0DF7               	rlf	__Umul8_16@word_mpld+1,f
  3450  07D8  3EFF               	addlw	-1
  3451  07D9  1D03               	skipz
  3452  07DA  2FD5               	goto	u113_25
  3453  07DB  1003               	clrc
  3454  07DC  0CF8               	rrf	__Umul8_16@multiplier,f
  3455  07DD                     i1l1272:
  3456  07DD  0878               	movf	__Umul8_16@multiplier,w
  3457  07DE  1D03               	btfss	3,2
  3458  07DF  2FE1               	goto	u114_21
  3459  07E0  2FE2               	goto	u114_20
  3460  07E1                     u114_21:
  3461  07E1  2FCA               	goto	i1l1268
  3462  07E2                     u114_20:
  3463  07E2                     i1l1274:
  3464  07E2  0875               	movf	__Umul8_16@product+1,w
  3465  07E3  00F1               	movwf	?__Umul8_16+1
  3466  07E4  0874               	movf	__Umul8_16@product,w
  3467  07E5  00F0               	movwf	?__Umul8_16
  3468  07E6                     i1l620:
  3469  07E6  0008               	return
  3470  07E7                     __end_of__Umul8_16:
  3471                           
  3472                           	psect	text15
  3473  0386                     __ptext15:	
  3474 ;; *************** function ___fldiv *****************
  3475 ;; Defined at:
  3476 ;;		line 8 in file "C:\Program Files\Microchip\xc8\v2.36\pic\sources\c90\common\sprcdiv.c"
  3477 ;; Parameters:    Size  Location     Type
  3478 ;;  a               4   32[BANK0 ] unsigned int 
  3479 ;;  b               4   36[BANK0 ] unsigned int 
  3480 ;; Auto vars:     Size  Location     Type
  3481 ;;  grs             4   52[BANK0 ] unsigned long 
  3482 ;;  rem             4   45[BANK0 ] unsigned long 
  3483 ;;  new_exp         2   50[BANK0 ] int 
  3484 ;;  aexp            1   57[BANK0 ] unsigned char 
  3485 ;;  bexp            1   56[BANK0 ] unsigned char 
  3486 ;;  sign            1   49[BANK0 ] unsigned char 
  3487 ;; Return value:  Size  Location     Type
  3488 ;;                  4   32[BANK0 ] unsigned char 
  3489 ;; Registers used:
  3490 ;;		wreg, status,2, status,0, btemp+1
  3491 ;; Tracked objects:
  3492 ;;		On entry : 0/0
  3493 ;;		On exit  : 0/0
  3494 ;;		Unchanged: 0/0
  3495 ;; Data sizes:     COMMON   BANK0   BANK1   BANK3   BANK2
  3496 ;;      Params:         0       8       0       0       0
  3497 ;;      Locals:         0      13       0       0       0
  3498 ;;      Temps:          0       5       0       0       0
  3499 ;;      Totals:         0      26       0       0       0
  3500 ;;Total ram usage:       26 bytes
  3501 ;; Hardware stack levels used: 1
  3502 ;; This function calls:
  3503 ;;		Nothing
  3504 ;; This function is called by:
  3505 ;;		_ISR
  3506 ;; This function uses a non-reentrant model
  3507 ;;
  3508                           
  3509  0386                     ___fldiv:	
  3510                           ;psect for function ___fldiv
  3511                           
  3512  0386                     i1l1360:	
  3513                           ;incstack = 0
  3514                           ; Regs used in ___fldiv: [wreg+status,2+status,0+btemp+1]
  3515                           
  3516  0386  1283               	bcf	3,5	;RP0=0, select bank0
  3517  0387  1303               	bcf	3,6	;RP1=0, select bank0
  3518  0388  0847               	movf	___fldiv@b+3,w
  3519  0389  3980               	andlw	128
  3520  038A  00C8               	movwf	??___fldiv
  3521  038B  0848               	movf	??___fldiv,w
  3522  038C  00D1               	movwf	___fldiv@sign
  3523  038D                     i1l1362:
  3524  038D  0847               	movf	___fldiv@b+3,w
  3525  038E  00C8               	movwf	??___fldiv
  3526  038F  0748               	addwf	??___fldiv,w
  3527  0390  00C9               	movwf	??___fldiv+1
  3528  0391  0849               	movf	??___fldiv+1,w
  3529  0392  00D8               	movwf	___fldiv@bexp
  3530  0393                     i1l1364:
  3531  0393  1FC6               	btfss	___fldiv@b+2,7
  3532  0394  2B96               	goto	u133_21
  3533  0395  2B97               	goto	u133_20
  3534  0396                     u133_21:
  3535  0396  2B98               	goto	i1l1368
  3536  0397                     u133_20:
  3537  0397                     i1l1366:
  3538  0397  1458               	bsf	___fldiv@bexp,0
  3539  0398                     i1l1368:
  3540  0398  0858               	movf	___fldiv@bexp,w
  3541  0399  1903               	btfsc	3,2
  3542  039A  2B9C               	goto	u134_21
  3543  039B  2B9D               	goto	u134_20
  3544  039C                     u134_21:
  3545  039C  2BAD               	goto	i1l1378
  3546  039D                     u134_20:
  3547  039D                     i1l1370:
  3548  039D  0A58               	incf	___fldiv@bexp,w
  3549  039E  1D03               	btfss	3,2
  3550  039F  2BA1               	goto	u135_21
  3551  03A0  2BA2               	goto	u135_20
  3552  03A1                     u135_21:
  3553  03A1  2BAA               	goto	i1l1374
  3554  03A2                     u135_20:
  3555  03A2                     i1l1372:
  3556  03A2  3000               	movlw	0
  3557  03A3  00C7               	movwf	___fldiv@b+3
  3558  03A4  3000               	movlw	0
  3559  03A5  00C6               	movwf	___fldiv@b+2
  3560  03A6  3000               	movlw	0
  3561  03A7  00C5               	movwf	___fldiv@b+1
  3562  03A8  3000               	movlw	0
  3563  03A9  00C4               	movwf	___fldiv@b
  3564  03AA                     i1l1374:
  3565  03AA  17C6               	bsf	___fldiv@b+2,7
  3566  03AB                     i1l1376:
  3567  03AB  01C7               	clrf	___fldiv@b+3
  3568  03AC  2BB5               	goto	i1l1380
  3569  03AD                     i1l1378:
  3570  03AD  3000               	movlw	0
  3571  03AE  00C7               	movwf	___fldiv@b+3
  3572  03AF  3000               	movlw	0
  3573  03B0  00C6               	movwf	___fldiv@b+2
  3574  03B1  3000               	movlw	0
  3575  03B2  00C5               	movwf	___fldiv@b+1
  3576  03B3  3000               	movlw	0
  3577  03B4  00C4               	movwf	___fldiv@b
  3578  03B5                     i1l1380:
  3579  03B5  0843               	movf	___fldiv@a+3,w
  3580  03B6  3980               	andlw	128
  3581  03B7  00C8               	movwf	??___fldiv
  3582  03B8  0848               	movf	??___fldiv,w
  3583  03B9  06D1               	xorwf	___fldiv@sign,f
  3584  03BA                     i1l1382:
  3585  03BA  0843               	movf	___fldiv@a+3,w
  3586  03BB  00C8               	movwf	??___fldiv
  3587  03BC  0748               	addwf	??___fldiv,w
  3588  03BD  00C9               	movwf	??___fldiv+1
  3589  03BE  0849               	movf	??___fldiv+1,w
  3590  03BF  00D9               	movwf	___fldiv@aexp
  3591  03C0                     i1l1384:
  3592  03C0  1FC2               	btfss	___fldiv@a+2,7
  3593  03C1  2BC3               	goto	u136_21
  3594  03C2  2BC4               	goto	u136_20
  3595  03C3                     u136_21:
  3596  03C3  2BC5               	goto	i1l1388
  3597  03C4                     u136_20:
  3598  03C4                     i1l1386:
  3599  03C4  1459               	bsf	___fldiv@aexp,0
  3600  03C5                     i1l1388:
  3601  03C5  0859               	movf	___fldiv@aexp,w
  3602  03C6  1903               	btfsc	3,2
  3603  03C7  2BC9               	goto	u137_21
  3604  03C8  2BCA               	goto	u137_20
  3605  03C9                     u137_21:
  3606  03C9  2BDA               	goto	i1l1398
  3607  03CA                     u137_20:
  3608  03CA                     i1l1390:
  3609  03CA  0A59               	incf	___fldiv@aexp,w
  3610  03CB  1D03               	btfss	3,2
  3611  03CC  2BCE               	goto	u138_21
  3612  03CD  2BCF               	goto	u138_20
  3613  03CE                     u138_21:
  3614  03CE  2BD7               	goto	i1l1394
  3615  03CF                     u138_20:
  3616  03CF                     i1l1392:
  3617  03CF  3000               	movlw	0
  3618  03D0  00C3               	movwf	___fldiv@a+3
  3619  03D1  3000               	movlw	0
  3620  03D2  00C2               	movwf	___fldiv@a+2
  3621  03D3  3000               	movlw	0
  3622  03D4  00C1               	movwf	___fldiv@a+1
  3623  03D5  3000               	movlw	0
  3624  03D6  00C0               	movwf	___fldiv@a
  3625  03D7                     i1l1394:
  3626  03D7  17C2               	bsf	___fldiv@a+2,7
  3627  03D8                     i1l1396:
  3628  03D8  01C3               	clrf	___fldiv@a+3
  3629  03D9  2BE2               	goto	i1l559
  3630  03DA                     i1l1398:
  3631  03DA  3000               	movlw	0
  3632  03DB  00C3               	movwf	___fldiv@a+3
  3633  03DC  3000               	movlw	0
  3634  03DD  00C2               	movwf	___fldiv@a+2
  3635  03DE  3000               	movlw	0
  3636  03DF  00C1               	movwf	___fldiv@a+1
  3637  03E0  3000               	movlw	0
  3638  03E1  00C0               	movwf	___fldiv@a
  3639  03E2                     i1l559:
  3640  03E2  0843               	movf	___fldiv@a+3,w
  3641  03E3  0442               	iorwf	___fldiv@a+2,w
  3642  03E4  0441               	iorwf	___fldiv@a+1,w
  3643  03E5  0440               	iorwf	___fldiv@a,w
  3644  03E6  1D03               	skipz
  3645  03E7  2BE9               	goto	u139_21
  3646  03E8  2BEA               	goto	u139_20
  3647  03E9                     u139_21:
  3648  03E9  2C03               	goto	i1l1408
  3649  03EA                     u139_20:
  3650  03EA                     i1l1400:
  3651  03EA  3000               	movlw	0
  3652  03EB  00C7               	movwf	___fldiv@b+3
  3653  03EC  3000               	movlw	0
  3654  03ED  00C6               	movwf	___fldiv@b+2
  3655  03EE  3000               	movlw	0
  3656  03EF  00C5               	movwf	___fldiv@b+1
  3657  03F0  3000               	movlw	0
  3658  03F1  00C4               	movwf	___fldiv@b
  3659  03F2  3080               	movlw	128
  3660  03F3  04C6               	iorwf	___fldiv@b+2,f
  3661  03F4  307F               	movlw	127
  3662  03F5  04C7               	iorwf	___fldiv@b+3,f
  3663  03F6                     i1l1402:
  3664  03F6  0851               	movf	___fldiv@sign,w
  3665  03F7  00C8               	movwf	??___fldiv
  3666  03F8  0848               	movf	??___fldiv,w
  3667  03F9  04C7               	iorwf	___fldiv@b+3,f
  3668  03FA                     i1l1404:
  3669  03FA  0847               	movf	___fldiv@b+3,w
  3670  03FB  00C3               	movwf	?___fldiv+3
  3671  03FC  0846               	movf	___fldiv@b+2,w
  3672  03FD  00C2               	movwf	?___fldiv+2
  3673  03FE  0845               	movf	___fldiv@b+1,w
  3674  03FF  00C1               	movwf	?___fldiv+1
  3675  0400  0844               	movf	___fldiv@b,w
  3676  0401  00C0               	movwf	?___fldiv
  3677  0402  2D62               	goto	i1l561
  3678  0403                     i1l1408:
  3679  0403  0858               	movf	___fldiv@bexp,w
  3680  0404  1D03               	btfss	3,2
  3681  0405  2C07               	goto	u140_21
  3682  0406  2C08               	goto	u140_20
  3683  0407                     u140_21:
  3684  0407  2C11               	goto	i1l1414
  3685  0408                     u140_20:
  3686  0408                     i1l1410:
  3687  0408  3000               	movlw	0
  3688  0409  00C3               	movwf	?___fldiv+3
  3689  040A  3000               	movlw	0
  3690  040B  00C2               	movwf	?___fldiv+2
  3691  040C  3000               	movlw	0
  3692  040D  00C1               	movwf	?___fldiv+1
  3693  040E  3000               	movlw	0
  3694  040F  00C0               	movwf	?___fldiv
  3695  0410  2D62               	goto	i1l561
  3696  0411                     i1l1414:
  3697  0411  0858               	movf	___fldiv@bexp,w
  3698  0412  00C8               	movwf	??___fldiv
  3699  0413  01C9               	clrf	??___fldiv+1
  3700  0414  0849               	movf	??___fldiv+1,w
  3701  0415  00CB               	movwf	??___fldiv+3
  3702  0416  0859               	movf	___fldiv@aexp,w
  3703  0417  0248               	subwf	??___fldiv,w
  3704  0418  00CA               	movwf	??___fldiv+2
  3705  0419  1C03               	skipc
  3706  041A  03CB               	decf	??___fldiv+3,f
  3707  041B  084A               	movf	??___fldiv+2,w
  3708  041C  3E7F               	addlw	127
  3709  041D  00D2               	movwf	___fldiv@new_exp
  3710  041E  084B               	movf	??___fldiv+3,w
  3711  041F  1803               	skipnc
  3712  0420  3E01               	addlw	1
  3713  0421  3E00               	addlw	0
  3714  0422  00D3               	movwf	___fldiv@new_exp+1
  3715  0423                     i1l1416:
  3716  0423  0847               	movf	___fldiv@b+3,w
  3717  0424  00D0               	movwf	___fldiv@rem+3
  3718  0425  0846               	movf	___fldiv@b+2,w
  3719  0426  00CF               	movwf	___fldiv@rem+2
  3720  0427  0845               	movf	___fldiv@b+1,w
  3721  0428  00CE               	movwf	___fldiv@rem+1
  3722  0429  0844               	movf	___fldiv@b,w
  3723  042A  00CD               	movwf	___fldiv@rem
  3724  042B                     i1l1418:
  3725  042B  3000               	movlw	0
  3726  042C  00C7               	movwf	___fldiv@b+3
  3727  042D  3000               	movlw	0
  3728  042E  00C6               	movwf	___fldiv@b+2
  3729  042F  3000               	movlw	0
  3730  0430  00C5               	movwf	___fldiv@b+1
  3731  0431  3000               	movlw	0
  3732  0432  00C4               	movwf	___fldiv@b
  3733  0433                     i1l1420:
  3734  0433  3000               	movlw	0
  3735  0434  00D7               	movwf	___fldiv@grs+3
  3736  0435  3000               	movlw	0
  3737  0436  00D6               	movwf	___fldiv@grs+2
  3738  0437  3000               	movlw	0
  3739  0438  00D5               	movwf	___fldiv@grs+1
  3740  0439  3000               	movlw	0
  3741  043A  00D4               	movwf	___fldiv@grs
  3742  043B                     i1l1422:
  3743  043B  01D9               	clrf	___fldiv@aexp
  3744  043C  2C87               	goto	i1l1442
  3745  043D                     i1l1424:
  3746  043D  0859               	movf	___fldiv@aexp,w
  3747  043E  1903               	btfsc	3,2
  3748  043F  2C41               	goto	u141_21
  3749  0440  2C42               	goto	u141_20
  3750  0441                     u141_21:
  3751  0441  2C62               	goto	i1l1434
  3752  0442                     u141_20:
  3753  0442                     i1l1426:
  3754  0442  3001               	movlw	1
  3755  0443  00C8               	movwf	??___fldiv
  3756  0444                     u142_25:
  3757  0444  1003               	clrc
  3758  0445  0DCD               	rlf	___fldiv@rem,f
  3759  0446  0DCE               	rlf	___fldiv@rem+1,f
  3760  0447  0DCF               	rlf	___fldiv@rem+2,f
  3761  0448  0DD0               	rlf	___fldiv@rem+3,f
  3762  0449  0BC8               	decfsz	??___fldiv,f
  3763  044A  2C44               	goto	u142_25
  3764  044B  3001               	movlw	1
  3765  044C  00C8               	movwf	??___fldiv
  3766  044D                     u143_25:
  3767  044D  1003               	clrc
  3768  044E  0DC4               	rlf	___fldiv@b,f
  3769  044F  0DC5               	rlf	___fldiv@b+1,f
  3770  0450  0DC6               	rlf	___fldiv@b+2,f
  3771  0451  0DC7               	rlf	___fldiv@b+3,f
  3772  0452  0BC8               	decfsz	??___fldiv,f
  3773  0453  2C4D               	goto	u143_25
  3774  0454                     i1l1428:
  3775  0454  1FD7               	btfss	___fldiv@grs+3,7
  3776  0455  2C57               	goto	u144_21
  3777  0456  2C58               	goto	u144_20
  3778  0457                     u144_21:
  3779  0457  2C59               	goto	i1l1432
  3780  0458                     u144_20:
  3781  0458                     i1l1430:
  3782  0458  1444               	bsf	___fldiv@b,0
  3783  0459                     i1l1432:
  3784  0459  3001               	movlw	1
  3785  045A  00C8               	movwf	??___fldiv
  3786  045B                     u145_25:
  3787  045B  1003               	clrc
  3788  045C  0DD4               	rlf	___fldiv@grs,f
  3789  045D  0DD5               	rlf	___fldiv@grs+1,f
  3790  045E  0DD6               	rlf	___fldiv@grs+2,f
  3791  045F  0DD7               	rlf	___fldiv@grs+3,f
  3792  0460  0BC8               	decfsz	??___fldiv,f
  3793  0461  2C5B               	goto	u145_25
  3794  0462                     i1l1434:
  3795  0462  0843               	movf	___fldiv@a+3,w
  3796  0463  0250               	subwf	___fldiv@rem+3,w
  3797  0464  1D03               	skipz
  3798  0465  2C70               	goto	u146_25
  3799  0466  0842               	movf	___fldiv@a+2,w
  3800  0467  024F               	subwf	___fldiv@rem+2,w
  3801  0468  1D03               	skipz
  3802  0469  2C70               	goto	u146_25
  3803  046A  0841               	movf	___fldiv@a+1,w
  3804  046B  024E               	subwf	___fldiv@rem+1,w
  3805  046C  1D03               	skipz
  3806  046D  2C70               	goto	u146_25
  3807  046E  0840               	movf	___fldiv@a,w
  3808  046F  024D               	subwf	___fldiv@rem,w
  3809  0470                     u146_25:
  3810  0470  1C03               	skipc
  3811  0471  2C73               	goto	u146_21
  3812  0472  2C74               	goto	u146_20
  3813  0473                     u146_21:
  3814  0473  2C83               	goto	i1l1440
  3815  0474                     u146_20:
  3816  0474                     i1l1436:
  3817  0474  1757               	bsf	___fldiv@grs+3,6
  3818  0475                     i1l1438:
  3819  0475  0840               	movf	___fldiv@a,w
  3820  0476  02CD               	subwf	___fldiv@rem,f
  3821  0477  0841               	movf	___fldiv@a+1,w
  3822  0478  1C03               	skipc
  3823  0479  0F41               	incfsz	___fldiv@a+1,w
  3824  047A  02CE               	subwf	___fldiv@rem+1,f
  3825  047B  0842               	movf	___fldiv@a+2,w
  3826  047C  1C03               	skipc
  3827  047D  0F42               	incfsz	___fldiv@a+2,w
  3828  047E  02CF               	subwf	___fldiv@rem+2,f
  3829  047F  0843               	movf	___fldiv@a+3,w
  3830  0480  1C03               	skipc
  3831  0481  0F43               	incfsz	___fldiv@a+3,w
  3832  0482  02D0               	subwf	___fldiv@rem+3,f
  3833  0483                     i1l1440:
  3834  0483  3001               	movlw	1
  3835  0484  00C8               	movwf	??___fldiv
  3836  0485  0848               	movf	??___fldiv,w
  3837  0486  07D9               	addwf	___fldiv@aexp,f
  3838  0487                     i1l1442:
  3839  0487  301A               	movlw	26
  3840  0488  0259               	subwf	___fldiv@aexp,w
  3841  0489  1C03               	skipc
  3842  048A  2C8C               	goto	u147_21
  3843  048B  2C8D               	goto	u147_20
  3844  048C                     u147_21:
  3845  048C  2C3D               	goto	i1l1424
  3846  048D                     u147_20:
  3847  048D                     i1l1444:
  3848  048D  0850               	movf	___fldiv@rem+3,w
  3849  048E  044F               	iorwf	___fldiv@rem+2,w
  3850  048F  044E               	iorwf	___fldiv@rem+1,w
  3851  0490  044D               	iorwf	___fldiv@rem,w
  3852  0491  1903               	skipnz
  3853  0492  2C94               	goto	u148_21
  3854  0493  2C95               	goto	u148_20
  3855  0494                     u148_21:
  3856  0494  2CB4               	goto	i1l1458
  3857  0495                     u148_20:
  3858  0495                     i1l1446:
  3859  0495  1454               	bsf	___fldiv@grs,0
  3860  0496  2CB4               	goto	i1l1458
  3861  0497                     i1l1448:
  3862  0497  3001               	movlw	1
  3863  0498  00C8               	movwf	??___fldiv
  3864  0499                     u149_25:
  3865  0499  1003               	clrc
  3866  049A  0DC4               	rlf	___fldiv@b,f
  3867  049B  0DC5               	rlf	___fldiv@b+1,f
  3868  049C  0DC6               	rlf	___fldiv@b+2,f
  3869  049D  0DC7               	rlf	___fldiv@b+3,f
  3870  049E  0BC8               	decfsz	??___fldiv,f
  3871  049F  2C99               	goto	u149_25
  3872  04A0                     i1l1450:
  3873  04A0  1FD7               	btfss	___fldiv@grs+3,7
  3874  04A1  2CA3               	goto	u150_21
  3875  04A2  2CA4               	goto	u150_20
  3876  04A3                     u150_21:
  3877  04A3  2CA5               	goto	i1l1454
  3878  04A4                     u150_20:
  3879  04A4                     i1l1452:
  3880  04A4  1444               	bsf	___fldiv@b,0
  3881  04A5                     i1l1454:
  3882  04A5  3001               	movlw	1
  3883  04A6  00C8               	movwf	??___fldiv
  3884  04A7                     u151_25:
  3885  04A7  1003               	clrc
  3886  04A8  0DD4               	rlf	___fldiv@grs,f
  3887  04A9  0DD5               	rlf	___fldiv@grs+1,f
  3888  04AA  0DD6               	rlf	___fldiv@grs+2,f
  3889  04AB  0DD7               	rlf	___fldiv@grs+3,f
  3890  04AC  0BC8               	decfsz	??___fldiv,f
  3891  04AD  2CA7               	goto	u151_25
  3892  04AE                     i1l1456:
  3893  04AE  30FF               	movlw	255
  3894  04AF  07D2               	addwf	___fldiv@new_exp,f
  3895  04B0  1803               	skipnc
  3896  04B1  0AD3               	incf	___fldiv@new_exp+1,f
  3897  04B2  30FF               	movlw	255
  3898  04B3  07D3               	addwf	___fldiv@new_exp+1,f
  3899  04B4                     i1l1458:
  3900  04B4  1FC6               	btfss	___fldiv@b+2,7
  3901  04B5  2CB7               	goto	u152_21
  3902  04B6  2CB8               	goto	u152_20
  3903  04B7                     u152_21:
  3904  04B7  2C97               	goto	i1l1448
  3905  04B8                     u152_20:
  3906  04B8                     i1l1460:
  3907  04B8  01D9               	clrf	___fldiv@aexp
  3908  04B9                     i1l1462:
  3909  04B9  1FD7               	btfss	___fldiv@grs+3,7
  3910  04BA  2CBC               	goto	u153_21
  3911  04BB  2CBD               	goto	u153_20
  3912  04BC                     u153_21:
  3913  04BC  2CD9               	goto	i1l1470
  3914  04BD                     u153_20:
  3915  04BD                     i1l1464:
  3916  04BD  30FF               	movlw	255
  3917  04BE  0554               	andwf	___fldiv@grs,w
  3918  04BF  00C8               	movwf	??___fldiv
  3919  04C0  30FF               	movlw	255
  3920  04C1  0555               	andwf	___fldiv@grs+1,w
  3921  04C2  00C9               	movwf	??___fldiv+1
  3922  04C3  30FF               	movlw	255
  3923  04C4  0556               	andwf	___fldiv@grs+2,w
  3924  04C5  00CA               	movwf	??___fldiv+2
  3925  04C6  307F               	movlw	127
  3926  04C7  0557               	andwf	___fldiv@grs+3,w
  3927  04C8  00CB               	movwf	??___fldiv+3
  3928  04C9  084B               	movf	??___fldiv+3,w
  3929  04CA  044A               	iorwf	??___fldiv+2,w
  3930  04CB  0449               	iorwf	??___fldiv+1,w
  3931  04CC  0448               	iorwf	??___fldiv,w
  3932  04CD  1903               	skipnz
  3933  04CE  2CD0               	goto	u154_21
  3934  04CF  2CD1               	goto	u154_20
  3935  04D0                     u154_21:
  3936  04D0  2CD4               	goto	i1l575
  3937  04D1                     u154_20:
  3938  04D1                     i1l1466:
  3939  04D1  01D9               	clrf	___fldiv@aexp
  3940  04D2  0AD9               	incf	___fldiv@aexp,f
  3941  04D3  2CD9               	goto	i1l1470
  3942  04D4                     i1l575:
  3943  04D4  1C44               	btfss	___fldiv@b,0
  3944  04D5  2CD7               	goto	u155_21
  3945  04D6  2CD8               	goto	u155_20
  3946  04D7                     u155_21:
  3947  04D7  2CD9               	goto	i1l1470
  3948  04D8                     u155_20:
  3949  04D8  2CD1               	goto	i1l1466
  3950  04D9                     i1l1470:
  3951  04D9  0859               	movf	___fldiv@aexp,w
  3952  04DA  1903               	btfsc	3,2
  3953  04DB  2CDD               	goto	u156_21
  3954  04DC  2CDE               	goto	u156_20
  3955  04DD                     u156_21:
  3956  04DD  2D0F               	goto	i1l1480
  3957  04DE                     u156_20:
  3958  04DE                     i1l1472:
  3959  04DE  3001               	movlw	1
  3960  04DF  07C4               	addwf	___fldiv@b,f
  3961  04E0  3000               	movlw	0
  3962  04E1  1803               	skipnc
  3963  04E2  3001               	movlw	1
  3964  04E3  07C5               	addwf	___fldiv@b+1,f
  3965  04E4  3000               	movlw	0
  3966  04E5  1803               	skipnc
  3967  04E6  3001               	movlw	1
  3968  04E7  07C6               	addwf	___fldiv@b+2,f
  3969  04E8  3000               	movlw	0
  3970  04E9  1803               	skipnc
  3971  04EA  3001               	movlw	1
  3972  04EB  07C7               	addwf	___fldiv@b+3,f
  3973  04EC                     i1l1474:
  3974  04EC  1C47               	btfss	___fldiv@b+3,0
  3975  04ED  2CEF               	goto	u157_21
  3976  04EE  2CF0               	goto	u157_20
  3977  04EF                     u157_21:
  3978  04EF  2D0F               	goto	i1l1480
  3979  04F0                     u157_20:
  3980  04F0                     i1l1476:
  3981  04F0  0844               	movf	___fldiv@b,w
  3982  04F1  00C8               	movwf	??___fldiv
  3983  04F2  0845               	movf	___fldiv@b+1,w
  3984  04F3  00C9               	movwf	??___fldiv+1
  3985  04F4  0846               	movf	___fldiv@b+2,w
  3986  04F5  00CA               	movwf	??___fldiv+2
  3987  04F6  0847               	movf	___fldiv@b+3,w
  3988  04F7  00CB               	movwf	??___fldiv+3
  3989  04F8  3001               	movlw	1
  3990  04F9  00CC               	movwf	??___fldiv+4
  3991  04FA                     u158_25:
  3992  04FA  0D4B               	rlf	??___fldiv+3,w
  3993  04FB  0CCB               	rrf	??___fldiv+3,f
  3994  04FC  0CCA               	rrf	??___fldiv+2,f
  3995  04FD  0CC9               	rrf	??___fldiv+1,f
  3996  04FE  0CC8               	rrf	??___fldiv,f
  3997  04FF                     u158_20:
  3998  04FF  0BCC               	decfsz	??___fldiv+4,f
  3999  0500  2CFA               	goto	u158_25
  4000  0501  084B               	movf	??___fldiv+3,w
  4001  0502  00C7               	movwf	___fldiv@b+3
  4002  0503  084A               	movf	??___fldiv+2,w
  4003  0504  00C6               	movwf	___fldiv@b+2
  4004  0505  0849               	movf	??___fldiv+1,w
  4005  0506  00C5               	movwf	___fldiv@b+1
  4006  0507  0848               	movf	??___fldiv,w
  4007  0508  00C4               	movwf	___fldiv@b
  4008  0509                     i1l1478:
  4009  0509  3001               	movlw	1
  4010  050A  07D2               	addwf	___fldiv@new_exp,f
  4011  050B  1803               	skipnc
  4012  050C  0AD3               	incf	___fldiv@new_exp+1,f
  4013  050D  3000               	movlw	0
  4014  050E  07D3               	addwf	___fldiv@new_exp+1,f
  4015  050F                     i1l1480:
  4016  050F  0853               	movf	___fldiv@new_exp+1,w
  4017  0510  3A80               	xorlw	128
  4018  0511  00FF               	movwf	btemp+1
  4019  0512  3080               	movlw	128
  4020  0513  027F               	subwf	btemp+1,w
  4021  0514  1D03               	skipz
  4022  0515  2D18               	goto	u159_25
  4023  0516  30FF               	movlw	255
  4024  0517  0252               	subwf	___fldiv@new_exp,w
  4025  0518                     u159_25:
  4026  0518  1C03               	skipc
  4027  0519  2D1B               	goto	u159_21
  4028  051A  2D1C               	goto	u159_20
  4029  051B                     u159_21:
  4030  051B  2D2A               	goto	i1l1484
  4031  051C                     u159_20:
  4032  051C                     i1l1482:
  4033  051C  30FF               	movlw	255
  4034  051D  1283               	bcf	3,5	;RP0=0, select bank0
  4035  051E  1303               	bcf	3,6	;RP1=0, select bank0
  4036  051F  00D2               	movwf	___fldiv@new_exp
  4037  0520  3000               	movlw	0
  4038  0521  00D3               	movwf	___fldiv@new_exp+1
  4039  0522  3000               	movlw	0
  4040  0523  00C7               	movwf	___fldiv@b+3
  4041  0524  3000               	movlw	0
  4042  0525  00C6               	movwf	___fldiv@b+2
  4043  0526  3000               	movlw	0
  4044  0527  00C5               	movwf	___fldiv@b+1
  4045  0528  3000               	movlw	0
  4046  0529  00C4               	movwf	___fldiv@b
  4047  052A                     i1l1484:
  4048  052A  1283               	bcf	3,5	;RP0=0, select bank0
  4049  052B  1303               	bcf	3,6	;RP1=0, select bank0
  4050  052C  0853               	movf	___fldiv@new_exp+1,w
  4051  052D  3A80               	xorlw	128
  4052  052E  00FF               	movwf	btemp+1
  4053  052F  3080               	movlw	128
  4054  0530  027F               	subwf	btemp+1,w
  4055  0531  1D03               	skipz
  4056  0532  2D35               	goto	u160_25
  4057  0533  3001               	movlw	1
  4058  0534  0252               	subwf	___fldiv@new_exp,w
  4059  0535                     u160_25:
  4060  0535  1803               	skipnc
  4061  0536  2D38               	goto	u160_21
  4062  0537  2D39               	goto	u160_20
  4063  0538                     u160_21:
  4064  0538  2D46               	goto	i1l581
  4065  0539                     u160_20:
  4066  0539                     i1l1486:
  4067  0539  1283               	bcf	3,5	;RP0=0, select bank0
  4068  053A  1303               	bcf	3,6	;RP1=0, select bank0
  4069  053B  01D2               	clrf	___fldiv@new_exp
  4070  053C  01D3               	clrf	___fldiv@new_exp+1
  4071  053D                     i1l1488:
  4072  053D  3000               	movlw	0
  4073  053E  00C7               	movwf	___fldiv@b+3
  4074  053F  3000               	movlw	0
  4075  0540  00C6               	movwf	___fldiv@b+2
  4076  0541  3000               	movlw	0
  4077  0542  00C5               	movwf	___fldiv@b+1
  4078  0543  3000               	movlw	0
  4079  0544  00C4               	movwf	___fldiv@b
  4080  0545                     i1l1490:
  4081  0545  01D1               	clrf	___fldiv@sign
  4082  0546                     i1l581:
  4083  0546  1283               	bcf	3,5	;RP0=0, select bank0
  4084  0547  1303               	bcf	3,6	;RP1=0, select bank0
  4085  0548  0852               	movf	___fldiv@new_exp,w
  4086  0549  00C8               	movwf	??___fldiv
  4087  054A  0848               	movf	??___fldiv,w
  4088  054B  00D8               	movwf	___fldiv@bexp
  4089  054C                     i1l1492:
  4090  054C  1C58               	btfss	___fldiv@bexp,0
  4091  054D  2D4F               	goto	u161_21
  4092  054E  2D50               	goto	u161_20
  4093  054F                     u161_21:
  4094  054F  2D52               	goto	i1l1496
  4095  0550                     u161_20:
  4096  0550                     i1l1494:
  4097  0550  17C6               	bsf	___fldiv@b+2,7
  4098  0551  2D56               	goto	i1l583
  4099  0552                     i1l1496:
  4100  0552  307F               	movlw	127
  4101  0553  00C8               	movwf	??___fldiv
  4102  0554  0848               	movf	??___fldiv,w
  4103  0555  05C6               	andwf	___fldiv@b+2,f
  4104  0556                     i1l583:
  4105  0556  0858               	movf	___fldiv@bexp,w
  4106  0557  00C8               	movwf	??___fldiv
  4107  0558  1003               	clrc
  4108  0559  0C48               	rrf	??___fldiv,w
  4109  055A  00C9               	movwf	??___fldiv+1
  4110  055B  0849               	movf	??___fldiv+1,w
  4111  055C  00C7               	movwf	___fldiv@b+3
  4112  055D  0851               	movf	___fldiv@sign,w
  4113  055E  00C8               	movwf	??___fldiv
  4114  055F  0848               	movf	??___fldiv,w
  4115  0560  04C7               	iorwf	___fldiv@b+3,f
  4116  0561  2BFA               	goto	i1l1404
  4117  0562                     i1l561:
  4118  0562  0008               	return
  4119  0563                     __end_of___fldiv:
  4120  007E                     btemp	set	126	;btemp
  4121  007E                     wtemp0	set	126
  4122                           
  4123                           	psect	idloc
  4124                           
  4125                           ;Config register IDLOC0 @ 0x2000
  4126                           ;	unspecified, using default values
  4127  2000                     	org	8192
  4128  2000  3FFF               	dw	16383
  4129                           
  4130                           ;Config register IDLOC1 @ 0x2001
  4131                           ;	unspecified, using default values
  4132  2001                     	org	8193
  4133  2001  3FFF               	dw	16383
  4134                           
  4135                           ;Config register IDLOC2 @ 0x2002
  4136                           ;	unspecified, using default values
  4137  2002                     	org	8194
  4138  2002  3FFF               	dw	16383
  4139                           
  4140                           ;Config register IDLOC3 @ 0x2003
  4141                           ;	unspecified, using default values
  4142  2003                     	org	8195
  4143  2003  3FFF               	dw	16383
  4144                           
  4145                           	psect	config
  4146                           
  4147                           ;Config register CONFIG1 @ 0x2007
  4148                           ;	Oscillator Selection bits
  4149                           ;	FOSC = HS, HS oscillator: High-speed crystal/resonator on RA6/OSC2/CLKOUT and RA7/OSC1
      +                          /CLKIN
  4150                           ;	Watchdog Timer Enable bit
  4151                           ;	WDTE = OFF, WDT disabled and can be enabled by SWDTEN bit of the WDTCON register
  4152                           ;	Power-up Timer Enable bit
  4153                           ;	PWRTE = OFF, PWRT disabled
  4154                           ;	RE3/MCLR pin function select bit
  4155                           ;	MCLRE = OFF, RE3/MCLR pin function is digital input, MCLR internally tied to VDD
  4156                           ;	Code Protection bit
  4157                           ;	CP = OFF, Program memory code protection is disabled
  4158                           ;	Data Code Protection bit
  4159                           ;	CPD = OFF, Data memory code protection is disabled
  4160                           ;	Brown Out Reset Selection bits
  4161                           ;	BOREN = OFF, BOR disabled
  4162                           ;	Internal External Switchover bit
  4163                           ;	IESO = OFF, Internal/External Switchover mode is disabled
  4164                           ;	Fail-Safe Clock Monitor Enabled bit
  4165                           ;	FCMEN = OFF, Fail-Safe Clock Monitor is disabled
  4166                           ;	Low Voltage Programming Enable bit
  4167                           ;	LVP = OFF, RB3 pin has digital I/O, HV on MCLR must be used for programming
  4168                           ;	In-Circuit Debugger Mode bit
  4169                           ;	DEBUG = 0x1, unprogrammed default
  4170  2007                     	org	8199
  4171  2007  20D2               	dw	8402
  4172                           
  4173                           ;Config register CONFIG2 @ 0x2008
  4174                           ;	Brown-out Reset Selection bit
  4175                           ;	BOR4V = BOR40V, Brown-out Reset set to 4.0V
  4176                           ;	Flash Program Memory Self Write Enable bits
  4177                           ;	WRT = OFF, Write protection off
  4178  2008                     	org	8200
  4179  2008  3FFF               	dw	16383

Data Sizes:
    Strings     32
    Constant    0
    Data        0
    BSS         12
    Persistent  0
    Stack       0

Auto Spaces:
    Space          Size  Autos    Used
    COMMON           14     14      14
    BANK0            80     68      80
    BANK1            80      4       4
    BANK3            96      0       0
    BANK2            96      0       0

Pointer List with Targets:

    UART_send_string@st_pt	PTR unsigned char  size(1) Largest target is 32
		 -> STR_1(CODE[32]), 


Critical Paths under _main in COMMON

    None.

Critical Paths under _ISR in COMMON

    _ISR->___xxtofl
    ___xxtofl->___wmul
    ___flmul->___xxtofl
    ___fldiv->___xxtofl

Critical Paths under _main in BANK0

    None.

Critical Paths under _ISR in BANK0

    _ISR->___fldiv
    i1_PWM_Set_Duty->___fltol
    ___fltol->___flmul
    ___flmul->___xxtofl
    ___fldiv->___flmul

Critical Paths under _main in BANK1

    _main->_PWM_Set_Duty
    _UART_send_string->_UART_send_char

Critical Paths under _ISR in BANK1

    None.

Critical Paths under _main in BANK3

    None.

Critical Paths under _ISR in BANK3

    None.

Critical Paths under _main in BANK2

    None.

Critical Paths under _ISR in BANK2

    None.

Call Graph Tables:

 ---------------------------------------------------------------------------------
 (Depth) Function   	        Calls       Base Space   Used Autos Params    Refs
 ---------------------------------------------------------------------------------
 (0) _main                                                 0     0      0     342
                       _PWM_Set_Duty
                   _UART_send_string
                             _config
 ---------------------------------------------------------------------------------
 (1) _config                                               0     0      0       0
                           _PWM_Init
                            _RX_Init
                            _TX_Init
 ---------------------------------------------------------------------------------
 (2) _TX_Init                                              0     0      0       0
 ---------------------------------------------------------------------------------
 (2) _RX_Init                                              0     0      0       0
 ---------------------------------------------------------------------------------
 (2) _PWM_Init                                             0     0      0       0
 ---------------------------------------------------------------------------------
 (1) _UART_send_string                                     2     2      0     100
                                              1 BANK1      2     2      0
                     _UART_send_char
 ---------------------------------------------------------------------------------
 (2) _UART_send_char                                       1     1      0      22
                                              0 BANK1      1     1      0
 ---------------------------------------------------------------------------------
 (1) _PWM_Set_Duty                                         4     2      2     242
                                              0 BANK1      4     2      2
 ---------------------------------------------------------------------------------
 Estimated maximum stack depth 2
 ---------------------------------------------------------------------------------
 (Depth) Function   	        Calls       Base Space   Used Autos Params    Refs
 ---------------------------------------------------------------------------------
 (3) _ISR                                                 10    10      0    5713
                                             58 BANK0     10    10      0
                            ___fldiv
                            ___flmul
                            ___fltol
                             ___wmul
                           ___xxtofl
                     i1_PWM_Set_Duty
 ---------------------------------------------------------------------------------
 (4) i1_PWM_Set_Duty                                       4     2      2     118
                                             43 BANK0      4     2      2
                            ___flmul (ARG)
                            ___fltol (ARG)
 ---------------------------------------------------------------------------------
 (4) ___xxtofl                                            14    10      4     474
                                              6 COMMON     8     4      4
                                              0 BANK0      6     6      0
                             ___wmul (ARG)
 ---------------------------------------------------------------------------------
 (4) ___wmul                                               6     2      4     396
                                              0 COMMON     6     2      4
 ---------------------------------------------------------------------------------
 (4) ___fltol                                             11     7      4     381
                                             32 BANK0     11     7      4
                            ___flmul (ARG)
 ---------------------------------------------------------------------------------
 (4) ___flmul                                             26    18      8    2873
                                              6 BANK0     26    18      8
                          __Umul8_16
                             ___wmul (ARG)
                           ___xxtofl (ARG)
 ---------------------------------------------------------------------------------
 (5) __Umul8_16                                            9     7      2     799
                                              0 COMMON     9     7      2
 ---------------------------------------------------------------------------------
 (4) ___fldiv                                             26    18      8    1425
                                             32 BANK0     26    18      8
                            ___flmul (ARG)
                             ___wmul (ARG)
                           ___xxtofl (ARG)
 ---------------------------------------------------------------------------------
 Estimated maximum stack depth 5
 ---------------------------------------------------------------------------------

 Call Graph Graphs:

 _main (ROOT)
   _PWM_Set_Duty
   _UART_send_string
     _UART_send_char
   _config
     _PWM_Init
     _RX_Init
     _TX_Init

 _ISR (ROOT)
   ___fldiv
     ___flmul (ARG)
       __Umul8_16
       ___wmul (ARG)
       ___xxtofl (ARG)
         ___wmul (ARG)
     ___wmul (ARG)
     ___xxtofl (ARG)
   ___flmul
   ___fltol
     ___flmul (ARG)
   ___wmul
   ___xxtofl
   i1_PWM_Set_Duty
     ___flmul (ARG)
     ___fltol (ARG)

 Address spaces:
Name               Size   Autos  Total    Cost      Usage
BITCOMMON            E      0       0       0        0.0%
EEDATA             100      0       0       0        0.0%
NULL                 0      0       0       0        0.0%
CODE                 0      0       0       0        0.0%
COMMON               E      E       E       1      100.0%
BITSFR0              0      0       0       1        0.0%
SFR0                 0      0       0       1        0.0%
BITSFR1              0      0       0       2        0.0%
SFR1                 0      0       0       2        0.0%
STACK                0      0       0       2        0.0%
ABS                  0      0      62       3        0.0%
BITBANK0            50      0       0       4        0.0%
BITSFR3              0      0       0       4        0.0%
SFR3                 0      0       0       4        0.0%
BANK0               50     44      50       5      100.0%
BITSFR2              0      0       0       5        0.0%
SFR2                 0      0       0       5        0.0%
BITBANK1            50      0       0       6        0.0%
BANK1               50      4       4       7        5.0%
BITBANK3            60      0       0       8        0.0%
BANK3               60      0       0       9        0.0%
BITBANK2            60      0       0      10        0.0%
BANK2               60      0       0      11        0.0%
DATA                 0      0      62      12        0.0%


Microchip Technology PIC Macro Assembler V2.36 build 20220127204148 
Symbol Table                                                                                   Sun Nov 06 07:56:22 2022

            ___fldiv@aexp 0059              ___fldiv@bexp 0058                         pc 0002  
            ___fldiv@sign 0051                        l81 0EF8                        l90 0EC1  
                      l84 0EE3                        l87 0EB6                        l96 0F5E  
                      l99 0ED0                        fsr 0004       ___wmul@multiplicand 0072  
     __Umul8_16@word_mpld 0076            PWM_Set_Duty@DC 00A0                       l103 07BF  
                     l111 07FC                       l112 07FC                       l106 0F18  
                     _GIE 005F                       _PR2 0092                       _ISR 0563  
                     _RX9 00C6                       _TX9 04C6                       _val 0064  
                     fsr0 0004              ___flmul@aexp 0038              ___flmul@bexp 0039  
            ___flmul@sign 0033              ___flmul@temp 003E              ___flmul@prod 003A  
                    ?_ISR 0070                      ISR@i 0063              ___fltol@exp1 004A  
                    l1300 0F0F                      l1230 0EF1                      l1222 0EE4  
                    l1302 0F10                      l1240 0ED8                      l1232 0EF4  
                    l1224 0EEA                      l1304 0F11                      l1250 0EB6  
                    l1242 0EDB                      l1234 0EF7                      l1226 0EEB  
                    l1306 0F12                      l1252 0EBB                      l1260 0ECE  
                    l1244 0EDE                      l1236 0ED1                      l1228 0EEE  
                    l1308 0F14                      l1262 0ECF                      l1254 0EC2  
                    l1246 0EE1                      l1238 0ED7                      l1280 0F40  
                    l1256 0EC9                      l1248 0EE2                      l1290 07AF  
                    l1282 0F4C                      l1258 0ECB                      l1284 0F52  
                    l1292 0EF9                      l1286 0799                      l1278 0F3F  
                    l1294 0F08                      l1288 07A4                      l1296 0F0B  
                    l1298 0F0E                      l1692 07E7                      l1694 07EC  
                    l1696 07F2                      STR_1 0806                      _BRGH 04C2  
                    _CREN 00C4                      u1110 0EBB                      u1111 0EBA  
                    u1150 0F5E                      u1151 0F5D                      u1160 07A4  
                    u1161 07A3                      u1170 07AB                      u1171 07A7  
                    u1184 07AE                      _PEIE 005E                      _RCIE 0465  
                    _RCIF 0065                      _SPEN 00C7                      _TXEN 04C5  
                    _TXIF 0064                      _SYNC 04C4                      _chuc 006E  
                    _main 07E7                      _lenh 0068                      btemp 007E  
                    start 0010              _PWM_Set_Duty 0799           ___fldiv@new_exp 0052  
         __end_of_RX_Init 0EE4           __end_of_TX_Init 0EF9                     ??_ISR 005A  
           ___fltol@sign1 0049                     ?_main 0070                     _CCP1X 00BD  
         __end_of___fldiv 0563                     _CCP1Y 00BC                     _BRG16 0C3B  
         __end_of___flmul 0386           __end_of___fltol 1000                     _ANSEL 0188  
                   i1l103 0F3B                     i1l210 0F6B                     i1l122 061A  
                   i1l123 06C6                     i1l212 0F83                     i1l124 06D4  
                   i1l119 06D2                     i1l403 0FEA                     i1l406 0FFF  
                   i1l611 0379                     i1l620 07E6                     i1l605 02F1  
                   i1l561 0562                     i1l618 07D4                     i1l643 0701  
                   i1l396 0FFF                     i1l581 0546                     i1l645 0798  
                   i1l583 0556                     i1l575 04D4                     i1l559 03E2  
                   i1l656 0762                     i1l657 076E                     i1l649 0746  
                   i1l599 0385                     _SPBRG 0099                     _TXREG 0019  
                   _donvi 006D                     pclath 000A          __end_of_PWM_Init 0ED1  
                   status 0003                     wtemp0 007E           __initialization 0013  
          i1_PWM_Set_Duty 0F19              __end_of_main 0800                    ??_main 00A4  
                  _CCP1M2 00BA                    _CCP1M3 00BB                    _CCPR1L 0015  
                  _ANSELH 0189                    i1l1310 0F5F                    i1l1400 03EA  
                  i1l1320 0F7F                    i1l1312 0F61                    i1l1410 0408  
                  i1l1402 03F6                    i1l1330 0F9A                    i1l1314 0F65  
                  i1l1420 0433                    i1l1404 03FA                    i1l1340 0FBE  
                  i1l1332 0FAF                    i1l1324 0F84                    i1l1316 0F72  
                  i1l1430 0458                    i1l1422 043B                    i1l1414 0411  
                  i1l1270 07CE                    i1l1510 0037                    i1l1502 0025  
                  i1l1334 0FB0                    i1l1326 0F91                    i1l1318 0F79  
                  i1l1440 0483                    i1l1432 0459                    i1l1424 043D  
                  i1l1416 0423                    i1l1408 0403                    i1l1360 0386  
                  i1l1272 07DD                    u112_20 07CE                    i1l1264 07C1  
                  i1l1600 02D5                    i1l1520 0053                    i1l1512 003C  
                  i1l1504 002C                    i1l1336 0FB8                    u200_20 06E9  
                  u112_21 07CD                    u200_21 06E8                    i1l1450 04A0  
                  i1l1426 0442                    i1l1434 0462                    i1l1442 0487  
                  i1l1418 042B                    i1l1370 039D                    i1l1362 038D  
                  i1l1274 07E2                    i1l1266 07C3                    i1l1610 02F6  
                  i1l1602 02D6                    i1l1530 0068                    i1l1522 0058  
                  i1l1514 0041                    i1l1506 0032                    i1l1354 0FDF  
                  i1l1346 0FC6                    i1l1338 0FBA                    i1l1460 04B8  
                  i1l1452 04A4                    i1l1444 048D                    i1l1436 0474  
                  i1l1428 0454                    i1l1380 03B5                    i1l1372 03A2  
                  i1l1364 0393                    i1l1268 07CA                    i1l1612 02FB  
                  i1l1620 032C                    i1l1604 02DA                    i1l1540 0084  
                  i1l1532 006D                    i1l1524 005E                    i1l1516 0049  
                  i1l1508 0036                    i1l1356 0FEF                    i1l1348 0FD8  
                  i1l1700 0569                    u120_25 0F6C                    i1l1470 04D9  
                  i1l1462 04B9                    i1l1454 04A5                    i1l1446 0495  
                  i1l1438 0475                    i1l1390 03CA                    i1l1382 03BA  
                  i1l1374 03AA                    i1l1366 0397                    i1l1630 035F  
                  i1l1622 0339                    i1l1614 0309                    i1l1606 02EE  
                  i1l1550 00AF                    i1l1542 0089                    i1l1534 0075  
                  i1l1526 0062                    i1l1518 004B                    i1l1358 0FF4  
                  i1l1710 0576                    i1l1702 056F                    i1l1472 04DE  
                  i1l1480 050F                    i1l1464 04BD                    i1l1456 04AE  
                  i1l1448 0497                    i1l1392 03CF                    i1l1384 03C0  
                  i1l1376 03AB                    i1l1368 0398                    i1l1632 036D  
                  i1l1624 0344                    i1l1616 030D                    i1l1560 014C  
                  i1l1552 00CC                    i1l1536 0077                    i1l1528 0063  
                  u201_20 0709                    i1l1720 0624                    i1l1712 0578  
                  u201_21 0708                    i1l1490 0545                    i1l1482 051C  
                  i1l1474 04EC                    i1l1466 04D1                    i1l1458 04B4  
                  i1l1394 03D7                    i1l1386 03C4                    i1l1378 03AD  
                  i1l1634 0371                    i1l1626 0353                    i1l1618 0326  
                  i1l1570 01AF                    i1l1562 0155                    i1l1554 00E8  
                  i1l1546 0092                    i1l1538 007F                    i1l1650 0709  
                  i1l1642 06E0                    i1l1722 062E                    i1l1714 0582  
                  i1l1492 054C                    i1l1484 052A                    i1l1476 04F0  
                  i1l1396 03D8                    i1l1388 03C5                    i1l1636 0372  
                  i1l1628 035D                    i1l1580 024F                    i1l1572 01C8  
                  i1l1564 0165                    i1l1556 0114                    i1l1548 00A2  
                  i1l1660 072B                    i1l1644 06E5                    i1l1724 0697  
                  i1l1716 05EB                    i1l1708 0570                    u113_25 07D5  
                  u121_25 0F73                    i1l1494 0550                    i1l1486 0539  
                  i1l1478 0509                    i1l1398 03DA                    i1l1638 037D  
                  i1l1590 02BD                    i1l1582 0275                    i1l1574 01E5  
                  i1l1566 0182                    i1l1558 0130                    i1l1670 075C  
                  i1l1662 072F                    i1l1654 0712                    i1l1646 06E9  
                  i1l1726 06CC                    i1l1718 0622                    i1l1496 0552  
                  i1l1488 053D                    u114_20 07E2                    i1l1592 02C1  
                  i1l1584 029D                    i1l1576 0212                    i1l1568 0192  
                  u122_20 0F7F                    i1l1680 078F                    u210_20 077B  
                  i1l1672 0766                    i1l1664 073D                    i1l1656 0717  
                  i1l1648 06F9                    u114_21 07E1                    u122_21 0F7E  
                  i1l1594 02C2                    i1l1586 02A6                    i1l1578 0222  
                  i1l1682 0790                    i1l1674 0770                    i1l1666 074D  
                  i1l1658 0724                    i1l1690 0F2F                    i1l1596 02CB  
                  i1l1588 02B4                    i1l1676 0786                    i1l1668 0758  
                  u130_25 0FE1                    u210_25 0776                    u202_25 071C  
                  i1l1598 02D1                    i1l1678 078B                    i1l1686 0F19  
                  u131_20 0FEF                    u123_20 0F91                    u211_20 078B  
                  u203_20 072A                    i1l1688 0F24                    u131_21 0FEE  
                  u123_21 0F90                    u211_21 078A                    u203_21 0729  
                  i1l1698 0563                    u140_20 0408                    u132_20 0FF4  
                  u124_20 0FA8                    u212_20 078F                    u220_20 06D2  
                  u140_21 0407                    u132_21 0FF3                    u212_21 078E  
                  u220_21 06D1                    u124_25 0FA3                    u204_25 073E  
                  u141_20 0442                    u133_20 0397                    u125_20 0FBE  
                  u205_20 074C                    u213_20 0F24                    u141_21 0441  
                  u133_21 0396                    u125_21 0FBD                    u205_21 074B  
                  u213_21 0F23                    u150_20 04A4                    u134_20 039D  
                  u126_20 0FC5                    u214_20 0F2B                    u150_21 04A3  
                  u134_21 039C                    u126_21 0FC4                    u214_21 0F27  
                  u142_25 0444                    u206_25 0751                    u135_20 03A2  
                  u119_20 0F65                    u207_20 075C                    u135_21 03A1  
                  u119_21 0F64                    u207_21 075B                    u215_24 0F2E  
                  u151_25 04A7                    u143_25 044D                    u127_25 0FC7  
                  u160_20 0539                    u152_20 04B8                    u144_20 0458  
                  u136_20 03C4                    u128_20 0FD7                    u208_20 0762  
                  u216_20 0569                    u160_21 0538                    u152_21 04B7  
                  u144_21 0457                    u136_21 03C3                    u128_21 0FD6  
                  u208_21 0761                    u216_21 0568                    u160_25 0535  
                  u161_20 0550                    u153_20 04BD                    u137_20 03CA  
                  u129_20 0FDE                    u209_20 0766                    u217_20 056F  
                  u161_21 054F                    u153_21 04BC                    u137_21 03C9  
                  u129_21 0FDD                    u209_21 0765                    u217_21 056E  
                  u145_25 045B                    u154_20 04D1                    u146_20 0474  
                  u138_20 03CF                    u162_20 0036                    u218_20 0576  
                  u154_21 04D0                    u146_21 0473                    u138_21 03CE  
                  u170_21 00DA                    u162_21 0035                    u218_21 0575  
                  u170_22 00E1                    u170_23 00E8                    u146_25 0470  
                  u155_20 04D8                    u147_20 048D                    u139_20 03EA  
                  u163_20 003C                    u219_20 0622                    u155_21 04D7  
                  u147_21 048C                    u139_21 03E9                    u171_21 00F6  
                  u163_21 003B                    u219_21 0621                    u171_22 00FD  
                  u171_23 0104                    u156_20 04DE                    u148_20 0495  
                  u164_20 0041                    u156_21 04DD                    u148_21 0494  
                  u180_21 0231                    u172_21 0122                    u164_21 0040  
                  u180_22 0238                    u172_22 0129                    u180_23 023F  
                  u172_23 0130                    u157_20 04F0                    u181_20 025B  
                  u165_20 0062                    u157_21 04EF                    u173_21 013E  
                  u165_21 0061                    u173_22 0145                    u173_23 014C  
                  u149_25 0499                    u181_25 0256                    u158_20 04FF  
                  u190_20 02DA                    u166_20 0068                    u190_21 02D9  
                  u182_21 0267                    u166_21 0067                    u182_22 026E  
                  u182_23 0275                    u158_25 04FA                    u174_25 014E  
                  u159_20 051C                    u191_20 02EE                    u183_20 0283  
                  u167_20 006D                    u159_21 051B                    u191_21 02ED  
                  u175_21 0174                    u167_21 006C                    u175_22 017B  
                  u175_23 0182                    u159_25 0518                    u183_25 027E  
                  u192_20 02F5                    u168_20 0084                    u192_21 02F4  
                  u184_21 028F                    u176_21 01A1                    u168_21 0083  
                  u184_22 0296                    u176_22 01A8                    u184_23 029D  
                  u176_23 01AF                    u193_20 02FB                    u169_20 0089  
                  u193_21 02FA                    u169_21 0088                    u185_25 029F  
                  u177_25 01B1                    u194_20 030D                    u194_21 030C  
                  u178_21 01D7                    u178_22 01DE                    u178_23 01E5  
                  u186_25 02B6                    u195_20 031C                    u187_20 02C1  
                  u187_21 02C0                    u179_21 0204                    u179_22 020B  
                  u179_23 0212                    u195_25 0317                    u196_20 0339  
                  u196_21 0338                    u196_25 0335                    u188_25 02C4  
                  u197_20 0353                    u189_20 02D5                    u197_21 0352  
                  u189_21 02D4                    u197_25 034F                    u198_20 0371  
                  u198_21 0370                    u199_20 06E5                    u199_21 06E4  
               ??_RX_Init 00A0                    _SPBRGH 009A                    _TMR2ON 0092  
               ??_TX_Init 00A0                    _TRISC2 043A                    _TRISC3 043B  
                  _TRISC4 043C                    _TRISC6 043E                    _TRISC7 043F  
        __end_of___xxtofl 0799    __end_ofi1_PWM_Set_Duty 0F3C                    ___wmul 0F5F  
               ??___fldiv 0048                 ??___flmul 002E                 ??___fltol 0044  
                  _config 0EF9                    _rxdata 006F                    saved_w 007E  
            ___xxtofl@arg 0022              ___xxtofl@exp 0021              ___xxtofl@val 0076  
 __end_of__initialization 0021                ___fltol@f1 0040           ?i1_PWM_Set_Duty 004B  
          __pcstackCOMMON 0070          _UART_send_string 0F3C                 ?_PWM_Init 0070  
              __pbssBANK0 0064          i1PWM_Set_Duty@DC 004B         __end_of__Umul8_16 07E7  
              __pmaintext 07E7                   ?___wmul 0070                __pintentry 0004  
                 ?_config 0070                ??_PWM_Init 00A0                   _T2CKPS0 0090  
                 _T2CKPS1 0091                 ?___xxtofl 0076                __stringtab 0800  
                 _RX_Init 0ED1                   _TX_Init 0EE4                   ___fldiv 0386  
                 ___flmul 0025                   ___fltol 0F84                   __ptext1 0EF9  
                 __ptext2 0EE4                   __ptext3 0ED1                   __ptext4 0EC2  
                 __ptext5 0F3C                   __ptext6 0EB3                   __ptext7 0799  
                 __ptext8 0563                   __ptext9 0F19                ??___xxtofl 007A  
    end_of_initialization 0021                 _PORTCbits 0007             ___xxtofl@sign 0020  
             ___fldiv@grs 0054               ___fldiv@rem 004D  __end_of_UART_send_string 0F5F  
        ??i1_PWM_Set_Duty 004D               ___flmul@grs 0034            __end_of___wmul 0F84  
          __end_of_config 0F19       start_initialization 0013            _UART_send_char 0EB3  
             __end_of_ISR 06DD             ?_PWM_Set_Duty 00A0                  ??___wmul 0074  
               __Umul8_16 07C0                  ??_config 00A0    __end_of_UART_send_char 0EC2  
               ___fldiv@a 0040                 ___fldiv@b 0044                 ___flmul@a 002A  
               ___flmul@b 0026                 ___latbits 0002             __pcstackBANK0 0020  
           __pcstackBANK1 00A0                  ?_RX_Init 0070                  ?_TX_Init 0070  
          ??_PWM_Set_Duty 00A2                  ?___fldiv 0040                  ?___flmul 0026  
                ?___fltol 0040                ?__Umul8_16 0070          UART_send_char@bt 00A0  
               __pstrings 0800           ?_UART_send_char 0070                 _dutyCycle 006B  
       interrupt_function 0004            ___wmul@product 0074               __stringbase 0805  
                _PWM_Init 0EC2         ___wmul@multiplier 0070     UART_send_string@st_pt 00A2  
       ?_UART_send_string 0070        ??_UART_send_string 00A1               ??__Umul8_16 0072  
      __end_of__stringtab 0806      __end_of_PWM_Set_Duty 07C0                  ___xxtofl 06DD  
                __ptext10 06DD                  __ptext11 0F5F                  __ptext12 0F84  
                __ptext13 0025                  __ptext14 07C0                  __ptext15 0386  
                intlevel1 0000                 stringcode 0800          ??_UART_send_char 00A0  
  __Umul8_16@multiplicand 0070                  stringdir 0800                  stringtab 0800  
    __Umul8_16@multiplier 0078         __Umul8_16@product 0074  
