

Microchip MPLAB XC8 Assembler V2.36 build 20220127204148 
                                                                                               Fri May 27 15:01:21 2022

Microchip MPLAB XC8 C Compiler v2.36 (Free license) build 20220127204148 Og1 
     1                           	processor	16F877A
     2                           	pagewidth 120
     3                           	opt	flic
     4                           	psect	strings,global,class=STRING,delta=2,noexec
     5                           	psect	cinit,global,class=CODE,merge=1,delta=2
     6                           	psect	bssBANK1,global,class=BANK1,space=1,delta=1,noexec
     7                           	psect	clrtext,global,class=CODE,delta=2
     8                           	psect	cstackBANK1,global,class=BANK1,space=1,delta=1,noexec
     9                           	psect	cstackCOMMON,global,class=COMMON,space=1,delta=1,noexec
    10                           	psect	cstackBANK0,global,class=BANK0,space=1,delta=1,noexec
    11                           	psect	maintext,global,class=CODE,split=1,delta=2
    12                           	psect	text1,local,class=CODE,merge=1,delta=2,group=1
    13                           	psect	text2,local,class=CODE,merge=1,delta=2,group=2
    14                           	psect	text3,local,class=CODE,merge=1,delta=2,group=2
    15                           	psect	text4,local,class=CODE,merge=1,delta=2
    16                           	psect	text5,local,class=CODE,merge=1,delta=2,group=2
    17                           	psect	text6,local,class=CODE,merge=1,delta=2,group=2
    18                           	psect	text7,local,class=CODE,merge=1,delta=2,group=2
    19                           	psect	text8,local,class=CODE,merge=1,delta=2,group=2
    20                           	psect	text9,local,class=CODE,merge=1,delta=2,group=2
    21                           	psect	text10,local,class=CODE,merge=1,delta=2,group=2
    22                           	psect	text11,local,class=CODE,merge=1,delta=2
    23                           	psect	text12,local,class=CODE,merge=1,delta=2
    24                           	psect	text13,local,class=CODE,merge=1,delta=2
    25                           	psect	text14,local,class=CODE,merge=1,delta=2
    26                           	psect	text15,local,class=CODE,merge=1,delta=2
    27                           	psect	text16,local,class=CODE,merge=1,delta=2
    28                           	psect	text17,local,class=CODE,merge=1,delta=2
    29                           	psect	text18,local,class=CODE,merge=1,delta=2
    30                           	psect	text19,local,class=CODE,merge=1,delta=2
    31                           	psect	text20,local,class=CODE,merge=1,delta=2
    32                           	psect	text21,local,class=CODE,merge=1,delta=2
    33                           	psect	text22,local,class=CODE,merge=1,delta=2
    34                           	psect	idloc,global,abs,ovrld,class=IDLOC,space=5,delta=2,noexec
    35                           	psect	config,global,abs,ovrld,class=CONFIG,space=4,delta=2,noexec
    36                           	dabs	1,0x7E,2
    37  0000                     
    38                           ; Version 2.40
    39                           ; Generated 17/11/2021 GMT
    40                           ; 
    41                           ; Copyright © 2021, Microchip Technology Inc. and its subsidiaries ("Microchip")
    42                           ; All rights reserved.
    43                           ; 
    44                           ; This software is developed by Microchip Technology Inc. and its subsidiaries ("Microch
      +                          ip").
    45                           ; 
    46                           ; Redistribution and use in source and binary forms, with or without modification, are
    47                           ; permitted provided that the following conditions are met:
    48                           ; 
    49                           ;     1. Redistributions of source code must retain the above copyright notice, this lis
      +                          t of
    50                           ;        conditions and the following disclaimer.
    51                           ; 
    52                           ;     2. Redistributions in binary form must reproduce the above copyright notice, this 
      +                          list
    53                           ;        of conditions and the following disclaimer in the documentation and/or other
    54                           ;        materials provided with the distribution. Publication is not required when
    55                           ;        this file is used in an embedded application.
    56                           ; 
    57                           ;     3. Microchip's name may not be used to endorse or promote products derived from th
      +                          is
    58                           ;        software without specific prior written permission.
    59                           ; 
    60                           ; THIS SOFTWARE IS PROVIDED BY MICROCHIP "AS IS" AND ANY EXPRESS OR IMPLIED WARRANTIES,
    61                           ; INCLUDING, BUT NOT LIMITED TO, THE IMPLIED WARRANTIES OF MERCHANTABILITY AND FITNESS F
      +                          OR
    62                           ; PURPOSE ARE DISCLAIMED.  IN NO EVENT SHALL MICROCHIP BE LIABLE FOR ANY DIRECT, INDIREC
      +                          T,
    63                           ; INCIDENTAL, SPECIAL, EXEMPLARY, OR CONSEQUENTIAL DAMAGES (INCLUDING BUT NOT LIMITED TO
    64                           ; PROCUREMENT OF SUBSTITUTE GOODS OR SERVICES; LOSS OF USE, DATA OR PROFITS; OR BUSINESS
    65                           ; INTERRUPTION) HOWSOEVER CAUSED AND ON ANY THEORY OF LIABILITY, WHETHER IN CONTRACT, ST
      +                          RICT
    66                           ; LIABILITY, OR TORT (INCLUDING NEGLIGENCE OR OTHERWISE) ARISING IN ANY WAY OUT OF THE U
      +                          SE OF
    67                           ; THIS SOFTWARE, EVEN IF ADVISED OF THE POSSIBILITY OF SUCH DAMAGE.
    68                           ; 
    69                           ; 
    70                           ; Code-generator required, PIC16F877A Definitions
    71                           ; 
    72                           ; SFR Addresses
    73  0000                     	;# 
    74  0001                     	;# 
    75  0002                     	;# 
    76  0003                     	;# 
    77  0004                     	;# 
    78  0005                     	;# 
    79  0006                     	;# 
    80  0007                     	;# 
    81  0008                     	;# 
    82  0009                     	;# 
    83  000A                     	;# 
    84  000B                     	;# 
    85  000C                     	;# 
    86  000D                     	;# 
    87  000E                     	;# 
    88  000E                     	;# 
    89  000F                     	;# 
    90  0010                     	;# 
    91  0011                     	;# 
    92  0012                     	;# 
    93  0013                     	;# 
    94  0014                     	;# 
    95  0015                     	;# 
    96  0015                     	;# 
    97  0016                     	;# 
    98  0017                     	;# 
    99  0018                     	;# 
   100  0019                     	;# 
   101  001A                     	;# 
   102  001B                     	;# 
   103  001B                     	;# 
   104  001C                     	;# 
   105  001D                     	;# 
   106  001E                     	;# 
   107  001F                     	;# 
   108  0081                     	;# 
   109  0085                     	;# 
   110  0086                     	;# 
   111  0087                     	;# 
   112  0088                     	;# 
   113  0089                     	;# 
   114  008C                     	;# 
   115  008D                     	;# 
   116  008E                     	;# 
   117  0091                     	;# 
   118  0092                     	;# 
   119  0093                     	;# 
   120  0094                     	;# 
   121  0098                     	;# 
   122  0099                     	;# 
   123  009C                     	;# 
   124  009D                     	;# 
   125  009E                     	;# 
   126  009F                     	;# 
   127  010C                     	;# 
   128  010D                     	;# 
   129  010E                     	;# 
   130  010F                     	;# 
   131  018C                     	;# 
   132  018D                     	;# 
   133  0000                     	;# 
   134  0001                     	;# 
   135  0002                     	;# 
   136  0003                     	;# 
   137  0004                     	;# 
   138  0005                     	;# 
   139  0006                     	;# 
   140  0007                     	;# 
   141  0008                     	;# 
   142  0009                     	;# 
   143  000A                     	;# 
   144  000B                     	;# 
   145  000C                     	;# 
   146  000D                     	;# 
   147  000E                     	;# 
   148  000E                     	;# 
   149  000F                     	;# 
   150  0010                     	;# 
   151  0011                     	;# 
   152  0012                     	;# 
   153  0013                     	;# 
   154  0014                     	;# 
   155  0015                     	;# 
   156  0015                     	;# 
   157  0016                     	;# 
   158  0017                     	;# 
   159  0018                     	;# 
   160  0019                     	;# 
   161  001A                     	;# 
   162  001B                     	;# 
   163  001B                     	;# 
   164  001C                     	;# 
   165  001D                     	;# 
   166  001E                     	;# 
   167  001F                     	;# 
   168  0081                     	;# 
   169  0085                     	;# 
   170  0086                     	;# 
   171  0087                     	;# 
   172  0088                     	;# 
   173  0089                     	;# 
   174  008C                     	;# 
   175  008D                     	;# 
   176  008E                     	;# 
   177  0091                     	;# 
   178  0092                     	;# 
   179  0093                     	;# 
   180  0094                     	;# 
   181  0098                     	;# 
   182  0099                     	;# 
   183  009C                     	;# 
   184  009D                     	;# 
   185  009E                     	;# 
   186  009F                     	;# 
   187  010C                     	;# 
   188  010D                     	;# 
   189  010E                     	;# 
   190  010F                     	;# 
   191  018C                     	;# 
   192  018D                     	;# 
   193  0000                     	;# 
   194  0001                     	;# 
   195  0002                     	;# 
   196  0003                     	;# 
   197  0004                     	;# 
   198  0005                     	;# 
   199  0006                     	;# 
   200  0007                     	;# 
   201  0008                     	;# 
   202  0009                     	;# 
   203  000A                     	;# 
   204  000B                     	;# 
   205  000C                     	;# 
   206  000D                     	;# 
   207  000E                     	;# 
   208  000E                     	;# 
   209  000F                     	;# 
   210  0010                     	;# 
   211  0011                     	;# 
   212  0012                     	;# 
   213  0013                     	;# 
   214  0014                     	;# 
   215  0015                     	;# 
   216  0015                     	;# 
   217  0016                     	;# 
   218  0017                     	;# 
   219  0018                     	;# 
   220  0019                     	;# 
   221  001A                     	;# 
   222  001B                     	;# 
   223  001B                     	;# 
   224  001C                     	;# 
   225  001D                     	;# 
   226  001E                     	;# 
   227  001F                     	;# 
   228  0081                     	;# 
   229  0085                     	;# 
   230  0086                     	;# 
   231  0087                     	;# 
   232  0088                     	;# 
   233  0089                     	;# 
   234  008C                     	;# 
   235  008D                     	;# 
   236  008E                     	;# 
   237  0091                     	;# 
   238  0092                     	;# 
   239  0093                     	;# 
   240  0094                     	;# 
   241  0098                     	;# 
   242  0099                     	;# 
   243  009C                     	;# 
   244  009D                     	;# 
   245  009E                     	;# 
   246  009F                     	;# 
   247  010C                     	;# 
   248  010D                     	;# 
   249  010E                     	;# 
   250  010F                     	;# 
   251  018C                     	;# 
   252  018D                     	;# 
   253                           
   254                           	psect	strings
   255  0800                     __pstrings:
   256  0800                     stringtab:
   257  0800                     __stringtab:
   258                           
   259                           ;	String table - string pointers are 1 byte each
   260  0800  1BFF               	btfsc	btemp+1,7
   261  0801  280A               	ljmp	stringcode
   262  0802  1383               	bcf	3,7
   263  0803  187F               	btfsc	btemp+1,0
   264  0804  1783               	bsf	3,7
   265  0805  0800               	movf	0,w
   266  0806  0A84               	incf	4,f
   267  0807  1903               	skipnz
   268  0808  0AFF               	incf	btemp+1,f
   269  0809  0008               	return
   270  080A                     stringcode:
   271  080A                     stringdir:
   272  080A  3008               	movlw	high stringdir
   273  080B  008A               	movwf	10
   274  080C  0804               	movf	4,w
   275  080D  0A84               	incf	4,f
   276  080E  0782               	addwf	2,f
   277  080F                     __stringbase:
   278  080F  3400               	retlw	0
   279  0810                     __end_of__stringtab:
   280  0810                     _dpowers:
   281  0810  3401               	retlw	1
   282  0811  3400               	retlw	0
   283  0812  340A               	retlw	10
   284  0813  3400               	retlw	0
   285  0814  3464               	retlw	100
   286  0815  3400               	retlw	0
   287  0816  34E8               	retlw	232
   288  0817  3403               	retlw	3
   289  0818  3410               	retlw	16
   290  0819  3427               	retlw	39
   291  081A                     __end_of_dpowers:
   292  0008                     _PORTDbits	set	8
   293  0008                     _PORTD	set	8
   294  0006                     _PORTBbits	set	6
   295  0007                     _PORTCbits	set	7
   296  0015                     _CCPR1L	set	21
   297  001F                     _ADCON0bits	set	31
   298  001E                     _ADRESH	set	30
   299  001F                     _ADCON0	set	31
   300  00BD                     _CCP1X	set	189
   301  00BC                     _CCP1Y	set	188
   302  0092                     _TMR2ON	set	146
   303  0091                     _T2CKPS1	set	145
   304  0090                     _T2CKPS0	set	144
   305  00BA                     _CCP1M2	set	186
   306  00BB                     _CCP1M3	set	187
   307  0088                     _TRISD	set	136
   308  0085                     _TRISAbits	set	133
   309  0087                     _TRISC	set	135
   310  0086                     _TRISB	set	134
   311  0092                     _PR2	set	146
   312  009E                     _ADRESL	set	158
   313  009F                     _ADCON1	set	159
   314  043A                     _TRISC2	set	1082
   315  081A                     STR_2:
   316  081A  3420               	retlw	32	;' '
   317  081B  3420               	retlw	32	;' '
   318  081C  3420               	retlw	32	;' '
   319  081D  3420               	retlw	32	;' '
   320  081E  3420               	retlw	32	;' '
   321  081F  3420               	retlw	32	;' '
   322  0820  3420               	retlw	32	;' '
   323  0821  3420               	retlw	32	;' '
   324  0822  3420               	retlw	32	;' '
   325  0823  3420               	retlw	32	;' '
   326  0824  3420               	retlw	32	;' '
   327  0825  3420               	retlw	32	;' '
   328  0826  3420               	retlw	32	;' '
   329  0827  3420               	retlw	32	;' '
   330  0828  3400               	retlw	0
   331  0829                     STR_4:
   332  0829  3453               	retlw	83	;'S'
   333  082A  3450               	retlw	80	;'P'
   334  082B  3445               	retlw	69	;'E'
   335  082C  3445               	retlw	69	;'E'
   336  082D  3444               	retlw	68	;'D'
   337  082E  343D               	retlw	61	;'='
   338  082F  3420               	retlw	32	;' '
   339  0830  3425               	retlw	37	;'%'
   340  0831  3475               	retlw	117	;'u'
   341  0832  3425               	retlw	37	;'%'
   342  0833  3425               	retlw	37	;'%'
   343  0834  3400               	retlw	0
   344  0835                     STR_1:
   345  0835  344D               	retlw	77	;'M'
   346  0836  344F               	retlw	79	;'O'
   347  0837  3454               	retlw	84	;'T'
   348  0838  344F               	retlw	79	;'O'
   349  0839  3452               	retlw	82	;'R'
   350  083A  343A               	retlw	58	;':'
   351  083B  3420               	retlw	32	;' '
   352  083C  344F               	retlw	79	;'O'
   353  083D  3446               	retlw	70	;'F'
   354  083E  3446               	retlw	70	;'F'
   355  083F  3400               	retlw	0
   356  0840                     STR_3:
   357  0840  3444               	retlw	68	;'D'
   358  0841  3443               	retlw	67	;'C'
   359  0842  343A               	retlw	58	;':'
   360  0843  3425               	retlw	37	;'%'
   361  0844  3475               	retlw	117	;'u'
   362  0845  342F               	retlw	47	;'/'
   363  0846  3435               	retlw	53	;'5'
   364  0847  3430               	retlw	48	;'0'
   365  0848  3430               	retlw	48	;'0'
   366  0849  3400               	retlw	0
   367                           
   368                           	psect	cinit
   369  07F3                     start_initialization:	
   370                           ; #config settings
   371                           
   372  07F3                     __initialization:
   373                           
   374                           ; Clear objects allocated to BANK1
   375  07F3  1383               	bcf	3,7	;select IRP bank0
   376  07F4  30A0               	movlw	low __pbssBANK1
   377  07F5  0084               	movwf	4
   378  07F6  30CE               	movlw	low (__pbssBANK1+46)
   379  07F7  120A  158A  213D  120A  118A  	fcall	clear_ram0
   380  07FC                     end_of_initialization:	
   381                           ;End of C runtime variable initialization code
   382                           
   383  07FC                     __end_of__initialization:
   384  07FC  0183               	clrf	3
   385  07FD  120A  158A  2DBA   	ljmp	_main	;jump to C main() function
   386                           
   387                           	psect	bssBANK1
   388  00A0                     __pbssBANK1:
   389  00A0                     _dutyCycle:
   390  00A0                     	ds	2
   391  00A2                     _buffer1:
   392  00A2                     	ds	20
   393  00B6                     _buffer:
   394  00B6                     	ds	20
   395  00CA                     _temp:
   396  00CA                     	ds	2
   397  00CC                     _flag2:
   398  00CC                     	ds	1
   399  00CD                     _flag1:
   400  00CD                     	ds	1
   401                           
   402                           	psect	clrtext
   403  093D                     clear_ram0:	
   404                           ;	Called with FSR containing the base address, and
   405                           ;	W with the last address+1
   406                           
   407  093D  0064               	clrwdt	;clear the watchdog before getting into this loop
   408  093E                     clrloop0:
   409  093E  0180               	clrf	0	;clear RAM location pointed to by FSR
   410  093F  0A84               	incf	4,f	;increment pointer
   411  0940  0604               	xorwf	4,w	;XOR with final address
   412  0941  1903               	btfsc	3,2	;have we reached the end yet?
   413  0942  3400               	retlw	0	;all done for this memory range, return
   414  0943  0604               	xorwf	4,w	;XOR again to restore value
   415  0944  293E               	goto	clrloop0	;do the next byte
   416                           
   417                           	psect	cstackBANK1
   418  00CE                     __pcstackBANK1:
   419  00CE                     ??___fltol:
   420                           
   421                           ; 1 bytes @ 0x0
   422  00CE                     	ds	5
   423  00D3                     ??_main:
   424                           
   425                           ; 1 bytes @ 0x5
   426  00D3                     	ds	4
   427  00D7                     _main$941:
   428                           
   429                           ; 4 bytes @ 0x9
   430  00D7                     	ds	4
   431  00DB                     _main$940:
   432                           
   433                           ; 4 bytes @ 0xD
   434  00DB                     	ds	4
   435                           
   436                           	psect	cstackCOMMON
   437  0070                     __pcstackCOMMON:
   438  0070                     ?_LCD_Initialize:
   439  0070                     ?_LCDPutCmd:	
   440                           ; 1 bytes @ 0x0
   441                           
   442  0070                     ?_ADC_Init:	
   443                           ; 1 bytes @ 0x0
   444                           
   445  0070                     ??_ADC_Init:	
   446                           ; 1 bytes @ 0x0
   447                           
   448  0070                     ?_PWM_Init:	
   449                           ; 1 bytes @ 0x0
   450                           
   451  0070                     ??_PWM_Init:	
   452                           ; 1 bytes @ 0x0
   453                           
   454  0070                     ?_PWM_Set_Duty:	
   455                           ; 1 bytes @ 0x0
   456                           
   457  0070                     ?_Config:	
   458                           ; 1 bytes @ 0x0
   459                           
   460  0070                     ?_CW_CCW:	
   461                           ; 1 bytes @ 0x0
   462                           
   463  0070                     ??_CW_CCW:	
   464                           ; 1 bytes @ 0x0
   465                           
   466  0070                     ?_Start_Stop:	
   467                           ; 1 bytes @ 0x0
   468                           
   469  0070                     ??_Start_Stop:	
   470                           ; 1 bytes @ 0x0
   471                           
   472  0070                     ?_main:	
   473                           ; 1 bytes @ 0x0
   474                           
   475  0070                     ?_LCDWriteNibble:	
   476                           ; 1 bytes @ 0x0
   477                           
   478  0070                     ?_LCDPutChar:	
   479                           ; 1 bytes @ 0x0
   480                           
   481  0070                     ?__Umul8_16:	
   482                           ; 1 bytes @ 0x0
   483                           
   484  0070                     ?_get_val:	
   485                           ; 2 bytes @ 0x0
   486                           
   487  0070                     ?___lwdiv:	
   488                           ; 2 bytes @ 0x0
   489                           
   490  0070                     LCDWriteNibble@rs:	
   491                           ; 2 bytes @ 0x0
   492                           
   493  0070                     __Umul8_16@multiplicand:	
   494                           ; 1 bytes @ 0x0
   495                           
   496  0070                     PWM_Set_Duty@DC:	
   497                           ; 1 bytes @ 0x0
   498                           
   499  0070                     ___lwdiv@divisor:	
   500                           ; 2 bytes @ 0x0
   501                           
   502                           
   503                           ; 2 bytes @ 0x0
   504  0070                     	ds	1
   505  0071                     ??_LCDWriteNibble:
   506                           
   507                           ; 1 bytes @ 0x1
   508  0071                     	ds	1
   509  0072                     ??__Umul8_16:
   510  0072                     ??_get_val:	
   511                           ; 1 bytes @ 0x2
   512                           
   513  0072                     ??_PWM_Set_Duty:	
   514                           ; 1 bytes @ 0x2
   515                           
   516  0072                     ?___xxtofl:	
   517                           ; 1 bytes @ 0x2
   518                           
   519  0072                     CW_CCW@flag:	
   520                           ; 4 bytes @ 0x2
   521                           
   522  0072                     Start_Stop@flag2:	
   523                           ; 1 bytes @ 0x2
   524                           
   525  0072                     ___lwdiv@dividend:	
   526                           ; 1 bytes @ 0x2
   527                           
   528  0072                     ___xxtofl@val:	
   529                           ; 2 bytes @ 0x2
   530                           
   531                           
   532                           ; 4 bytes @ 0x2
   533  0072                     	ds	1
   534  0073                     CW_CCW@flag1:
   535  0073                     LCDWriteNibble@ch:	
   536                           ; 1 bytes @ 0x3
   537                           
   538                           
   539                           ; 1 bytes @ 0x3
   540  0073                     	ds	1
   541  0074                     ??_LCDPutCmd:
   542  0074                     ??_LCDPutChar:	
   543                           ; 1 bytes @ 0x4
   544                           
   545  0074                     ??___lwdiv:	
   546                           ; 1 bytes @ 0x4
   547                           
   548  0074                     __Umul8_16@product:	
   549                           ; 1 bytes @ 0x4
   550                           
   551                           
   552                           ; 2 bytes @ 0x4
   553  0074                     	ds	1
   554  0075                     ___lwdiv@quotient:
   555                           
   556                           ; 2 bytes @ 0x5
   557  0075                     	ds	1
   558  0076                     ??___xxtofl:
   559  0076                     LCDPutChar@ch:	
   560                           ; 1 bytes @ 0x6
   561                           
   562  0076                     LCDPutCmd@ch:	
   563                           ; 1 bytes @ 0x6
   564                           
   565  0076                     __Umul8_16@word_mpld:	
   566                           ; 1 bytes @ 0x6
   567                           
   568                           
   569                           ; 2 bytes @ 0x6
   570  0076                     	ds	1
   571  0077                     ??_LCD_Initialize:
   572  0077                     ?_LCDGoto:	
   573                           ; 1 bytes @ 0x7
   574                           
   575  0077                     ?_LCDPutStr:	
   576                           ; 1 bytes @ 0x7
   577                           
   578  0077                     LCDGoto@ln:	
   579                           ; 1 bytes @ 0x7
   580                           
   581  0077                     ___lwdiv@counter:	
   582                           ; 1 bytes @ 0x7
   583                           
   584  0077                     LCDPutStr@str:	
   585                           ; 1 bytes @ 0x7
   586                           
   587                           
   588                           ; 2 bytes @ 0x7
   589  0077                     	ds	1
   590  0078                     ??_LCDGoto:
   591  0078                     ?___lwmod:	
   592                           ; 1 bytes @ 0x8
   593                           
   594  0078                     __Umul8_16@multiplier:	
   595                           ; 2 bytes @ 0x8
   596                           
   597  0078                     ___lwmod@divisor:	
   598                           ; 1 bytes @ 0x8
   599                           
   600                           
   601                           ; 2 bytes @ 0x8
   602  0078                     	ds	1
   603  0079                     ??_LCDPutStr:
   604  0079                     ??_Config:	
   605                           ; 1 bytes @ 0x9
   606                           
   607  0079                     Config@flag1:	
   608                           ; 1 bytes @ 0x9
   609                           
   610                           
   611                           ; 1 bytes @ 0x9
   612  0079                     	ds	1
   613  007A                     LCDPutStr@i:
   614  007A                     ___fladd@signs:	
   615                           ; 1 bytes @ 0xA
   616                           
   617  007A                     _LCDGoto$286:	
   618                           ; 1 bytes @ 0xA
   619                           
   620  007A                     ___lwmod@dividend:	
   621                           ; 2 bytes @ 0xA
   622                           
   623                           
   624                           ; 2 bytes @ 0xA
   625  007A                     	ds	1
   626  007B                     ___fladd@aexp:
   627                           
   628                           ; 1 bytes @ 0xB
   629  007B                     	ds	1
   630  007C                     ??___lwmod:
   631  007C                     LCDGoto@pos:	
   632                           ; 1 bytes @ 0xC
   633                           
   634  007C                     ___fladd@bexp:	
   635                           ; 1 bytes @ 0xC
   636                           
   637                           
   638                           ; 1 bytes @ 0xC
   639  007C                     	ds	1
   640  007D                     ___lwmod@counter:
   641  007D                     ___fladd@grs:	
   642                           ; 1 bytes @ 0xD
   643                           
   644                           
   645                           ; 1 bytes @ 0xD
   646  007D                     	ds	1
   647                           
   648                           	psect	cstackBANK0
   649  0020                     __pcstackBANK0:
   650  0020                     ?_sprintf:
   651  0020                     sprintf@f:	
   652                           ; 2 bytes @ 0x0
   653                           
   654  0020                     ___xxtofl@sign:	
   655                           ; 1 bytes @ 0x0
   656                           
   657                           
   658                           ; 1 bytes @ 0x0
   659  0020                     	ds	1
   660  0021                     ___xxtofl@exp:
   661                           
   662                           ; 1 bytes @ 0x1
   663  0021                     	ds	1
   664  0022                     ___xxtofl@arg:
   665                           
   666                           ; 4 bytes @ 0x2
   667  0022                     	ds	1
   668  0023                     ??_sprintf:
   669                           
   670                           ; 1 bytes @ 0x3
   671  0023                     	ds	3
   672  0026                     ?___flmul:
   673  0026                     sprintf@flag:	
   674                           ; 4 bytes @ 0x6
   675                           
   676  0026                     ___flmul@b:	
   677                           ; 1 bytes @ 0x6
   678                           
   679                           
   680                           ; 4 bytes @ 0x6
   681  0026                     	ds	1
   682  0027                     sprintf@ap:
   683                           
   684                           ; 1 bytes @ 0x7
   685  0027                     	ds	1
   686  0028                     sprintf@val:
   687                           
   688                           ; 2 bytes @ 0x8
   689  0028                     	ds	2
   690  002A                     sprintf@prec:
   691  002A                     ___flmul@a:	
   692                           ; 1 bytes @ 0xA
   693                           
   694                           
   695                           ; 4 bytes @ 0xA
   696  002A                     	ds	1
   697  002B                     sprintf@sp:
   698                           
   699                           ; 1 bytes @ 0xB
   700  002B                     	ds	1
   701  002C                     sprintf@c:
   702                           
   703                           ; 1 bytes @ 0xC
   704  002C                     	ds	2
   705  002E                     ??___flmul:
   706                           
   707                           ; 1 bytes @ 0xE
   708  002E                     	ds	5
   709  0033                     ___flmul@sign:
   710                           
   711                           ; 1 bytes @ 0x13
   712  0033                     	ds	1
   713  0034                     ___flmul@grs:
   714                           
   715                           ; 4 bytes @ 0x14
   716  0034                     	ds	4
   717  0038                     ___flmul@aexp:
   718                           
   719                           ; 1 bytes @ 0x18
   720  0038                     	ds	1
   721  0039                     ___flmul@bexp:
   722                           
   723                           ; 1 bytes @ 0x19
   724  0039                     	ds	1
   725  003A                     ___flmul@prod:
   726                           
   727                           ; 4 bytes @ 0x1A
   728  003A                     	ds	4
   729  003E                     ___flmul@temp:
   730                           
   731                           ; 2 bytes @ 0x1E
   732  003E                     	ds	2
   733  0040                     ?___fldiv:
   734  0040                     ___fldiv@a:	
   735                           ; 4 bytes @ 0x20
   736                           
   737                           
   738                           ; 4 bytes @ 0x20
   739  0040                     	ds	4
   740  0044                     ___fldiv@b:
   741                           
   742                           ; 4 bytes @ 0x24
   743  0044                     	ds	4
   744  0048                     ??___fldiv:
   745                           
   746                           ; 1 bytes @ 0x28
   747  0048                     	ds	5
   748  004D                     ___fldiv@rem:
   749                           
   750                           ; 4 bytes @ 0x2D
   751  004D                     	ds	4
   752  0051                     ___fldiv@sign:
   753                           
   754                           ; 1 bytes @ 0x31
   755  0051                     	ds	1
   756  0052                     ___fldiv@new_exp:
   757                           
   758                           ; 2 bytes @ 0x32
   759  0052                     	ds	2
   760  0054                     ___fldiv@grs:
   761                           
   762                           ; 4 bytes @ 0x34
   763  0054                     	ds	4
   764  0058                     ___fldiv@bexp:
   765                           
   766                           ; 1 bytes @ 0x38
   767  0058                     	ds	1
   768  0059                     ___fldiv@aexp:
   769                           
   770                           ; 1 bytes @ 0x39
   771  0059                     	ds	1
   772  005A                     ?___fladd:
   773  005A                     ___fladd@b:	
   774                           ; 4 bytes @ 0x3A
   775                           
   776                           
   777                           ; 4 bytes @ 0x3A
   778  005A                     	ds	4
   779  005E                     ___fladd@a:
   780                           
   781                           ; 4 bytes @ 0x3E
   782  005E                     	ds	4
   783  0062                     ??___fladd:
   784                           
   785                           ; 1 bytes @ 0x42
   786  0062                     	ds	8
   787  006A                     ?___fltol:
   788  006A                     ___fltol@f1:	
   789                           ; 4 bytes @ 0x4A
   790                           
   791                           
   792                           ; 4 bytes @ 0x4A
   793  006A                     	ds	4
   794  006E                     ___fltol@sign1:
   795                           
   796                           ; 1 bytes @ 0x4E
   797  006E                     	ds	1
   798  006F                     ___fltol@exp1:
   799                           
   800                           ; 1 bytes @ 0x4F
   801  006F                     	ds	1
   802                           
   803                           	psect	maintext
   804  0DBA                     __pmaintext:	
   805 ;;
   806 ;;Main: autosize = 0, tempsize = 4, incstack = 0, save=0
   807 ;;
   808 ;; *************** function _main *****************
   809 ;; Defined at:
   810 ;;		line 120 in file "newmain.c"
   811 ;; Parameters:    Size  Location     Type
   812 ;;		None
   813 ;; Auto vars:     Size  Location     Type
   814 ;;		None
   815 ;; Return value:  Size  Location     Type
   816 ;;                  1    wreg      void 
   817 ;; Registers used:
   818 ;;		wreg, fsr0l, fsr0h, status,2, status,0, btemp+1, pclath, cstack
   819 ;; Tracked objects:
   820 ;;		On entry : B00/0
   821 ;;		On exit  : 0/0
   822 ;;		Unchanged: 0/0
   823 ;; Data sizes:     COMMON   BANK0   BANK1   BANK3   BANK2
   824 ;;      Params:         0       0       0       0       0
   825 ;;      Locals:         0       0       8       0       0
   826 ;;      Temps:          0       0       4       0       0
   827 ;;      Totals:         0       0      12       0       0
   828 ;;Total ram usage:       12 bytes
   829 ;; Hardware stack levels required when called: 4
   830 ;; This function calls:
   831 ;;		_CW_CCW
   832 ;;		_Config
   833 ;;		_LCDGoto
   834 ;;		_LCDPutStr
   835 ;;		_PWM_Set_Duty
   836 ;;		_Start_Stop
   837 ;;		___fladd
   838 ;;		___fldiv
   839 ;;		___flmul
   840 ;;		___fltol
   841 ;;		___xxtofl
   842 ;;		_get_val
   843 ;;		_sprintf
   844 ;; This function is called by:
   845 ;;		Startup code after reset
   846 ;; This function uses a non-reentrant model
   847 ;;
   848                           
   849  0DBA                     _main:	
   850                           ;psect for function _main
   851                           
   852  0DBA                     l2500:	
   853                           ;incstack = 0
   854                           ; Regs used in _main: [wreg-fsr0h+status,2+status,0+btemp+1+pclath+cstack]
   855                           
   856                           
   857                           ;newmain.c: 121:     Config(&flag1);
   858  0DBA  30CD               	movlw	(low (_flag1| 0))& (0+255)
   859  0DBB  120A  158A  2170  120A  158A  	fcall	_Config
   860  0DC0                     l106:	
   861                           ;newmain.c: 122:     THANGDEPTRAI:
   862                           
   863                           
   864                           ;newmain.c: 123:     LCDGoto(0,0);
   865  0DC0  01F7               	clrf	LCDGoto@ln
   866  0DC1  3000               	movlw	0
   867  0DC2  120A  158A  224C  120A  158A  	fcall	_LCDGoto
   868  0DC7                     l2502:
   869                           
   870                           ;newmain.c: 124:     LCDPutStr("MOTOR: OFF");
   871  0DC7  3026               	movlw	(low ((STR_1-__stringbase)| (0+32768)))& (0+255)
   872  0DC8  00F7               	movwf	LCDPutStr@str
   873  0DC9  3080               	movlw	128
   874  0DCA  00F8               	movwf	LCDPutStr@str+1
   875  0DCB  120A  158A  2221  120A  158A  	fcall	_LCDPutStr
   876  0DD0                     l2504:
   877                           
   878                           ;newmain.c: 125:     LCDGoto(0,1);
   879  0DD0  01F7               	clrf	LCDGoto@ln
   880  0DD1  0AF7               	incf	LCDGoto@ln,f
   881  0DD2  3000               	movlw	0
   882  0DD3  120A  158A  224C  120A  158A  	fcall	_LCDGoto
   883                           
   884                           ;newmain.c: 126:     LCDPutStr("              ");
   885  0DD8  300B               	movlw	(low ((STR_2-__stringbase)| (0+32768)))& (0+255)
   886  0DD9  00F7               	movwf	LCDPutStr@str
   887  0DDA  3080               	movlw	128
   888  0DDB  00F8               	movwf	LCDPutStr@str+1
   889  0DDC  120A  158A  2221  120A  158A  	fcall	_LCDPutStr
   890  0DE1                     l2506:
   891                           
   892                           ;newmain.c: 127:     PWM_Set_Duty(0);
   893  0DE1  3000               	movlw	0
   894  0DE2  00F0               	movwf	PWM_Set_Duty@DC
   895  0DE3  00F1               	movwf	PWM_Set_Duty@DC+1
   896  0DE4  120A  118A  2004  120A  158A  	fcall	_PWM_Set_Duty
   897  0DE9                     l2508:
   898                           
   899                           ;newmain.c: 129:     {;newmain.c: 130:         Start_Stop(&flag2);
   900  0DE9  30CC               	movlw	(low (_flag2| 0))& (0+255)
   901  0DEA  120A  158A  21AD  120A  158A  	fcall	_Start_Stop
   902  0DEF                     l2510:
   903                           
   904                           ;newmain.c: 131:         if(flag2 == 2)
   905  0DEF  3002               	movlw	2
   906  0DF0  1683               	bsf	3,5	;RP0=1, select bank1
   907  0DF1  1303               	bcf	3,6	;RP1=0, select bank1
   908  0DF2  064C               	xorwf	_flag2^(0+128),w
   909  0DF3  1D03               	btfss	3,2
   910  0DF4  2DF6               	goto	u3611
   911  0DF5  2DF7               	goto	u3610
   912  0DF6                     u3611:
   913  0DF6  2DF9               	goto	l2514
   914  0DF7                     u3610:
   915  0DF7                     l2512:
   916                           
   917                           ;newmain.c: 132:         {;newmain.c: 133:             flag2 = 0;
   918  0DF7  01CC               	clrf	_flag2^(0+128)
   919                           
   920                           ;newmain.c: 134:             goto THANGDEPTRAI;
   921  0DF8  2DC0               	goto	l106
   922  0DF9                     l2514:
   923                           
   924                           ;newmain.c: 136:         if(flag2 == 1)
   925  0DF9  034C               	decf	_flag2^(0+128),w
   926  0DFA  1D03               	btfss	3,2
   927  0DFB  2DFD               	goto	u3621
   928  0DFC  2DFE               	goto	u3620
   929  0DFD                     u3621:
   930  0DFD  2DE9               	goto	l2508
   931  0DFE                     u3620:
   932  0DFE                     l2516:
   933                           
   934                           ;newmain.c: 137:         {;newmain.c: 138:             CW_CCW(&flag1);
   935  0DFE  30CD               	movlw	(low (_flag1| 0))& (0+255)
   936  0DFF  120A  158A  2313  120A  158A  	fcall	_CW_CCW
   937  0E04                     l2518:
   938                           
   939                           ;newmain.c: 139:             temp = ((((get_val() * 1.0 * 5) / 1023) * 80) / 5) + 20;
   940  0E04  120A  158A  2161  120A  158A  	fcall	_get_val
   941  0E09  0870               	movf	?_get_val,w
   942  0E0A  1683               	bsf	3,5	;RP0=1, select bank1
   943  0E0B  1303               	bcf	3,6	;RP1=0, select bank1
   944  0E0C  00D3               	movwf	??_main^(0+128)
   945  0E0D  0871               	movf	?_get_val+1,w
   946  0E0E  00D4               	movwf	(??_main^(0+128)+1)
   947  0E0F  01D5               	clrf	(??_main^(0+128)+2)
   948  0E10  01D6               	clrf	(??_main^(0+128)+3)
   949  0E11  0856               	movf	(??_main+3)^(0+128),w
   950  0E12  00F5               	movwf	___xxtofl@val+3
   951  0E13  0855               	movf	(??_main+2)^(0+128),w
   952  0E14  00F4               	movwf	___xxtofl@val+2
   953  0E15  0854               	movf	(??_main+1)^(0+128),w
   954  0E16  00F3               	movwf	___xxtofl@val+1
   955  0E17  0853               	movf	??_main^(0+128),w
   956  0E18  00F2               	movwf	___xxtofl@val
   957  0E19  3000               	movlw	0
   958  0E1A  120A  158A  2431  120A  158A  	fcall	___xxtofl
   959  0E1F  0875               	movf	?___xxtofl+3,w
   960  0E20  1283               	bcf	3,5	;RP0=0, select bank0
   961  0E21  1303               	bcf	3,6	;RP1=0, select bank0
   962  0E22  00AD               	movwf	___flmul@a+3
   963  0E23  0874               	movf	?___xxtofl+2,w
   964  0E24  00AC               	movwf	___flmul@a+2
   965  0E25  0873               	movf	?___xxtofl+1,w
   966  0E26  00AB               	movwf	___flmul@a+1
   967  0E27  0872               	movf	?___xxtofl,w
   968  0E28  00AA               	movwf	___flmul@a
   969  0E29  303F               	movlw	63
   970  0E2A  00A9               	movwf	___flmul@b+3
   971  0E2B  3080               	movlw	128
   972  0E2C  00A8               	movwf	___flmul@b+2
   973  0E2D  3000               	movlw	0
   974  0E2E  00A7               	movwf	___flmul@b+1
   975  0E2F  3000               	movlw	0
   976  0E30  00A6               	movwf	___flmul@b
   977  0E31  120A  118A  2492  120A  158A  	fcall	___flmul
   978  0E36  1283               	bcf	3,5	;RP0=0, select bank0
   979  0E37  1303               	bcf	3,6	;RP1=0, select bank0
   980  0E38  0829               	movf	?___flmul+3,w
   981  0E39  1683               	bsf	3,5	;RP0=1, select bank1
   982  0E3A  1303               	bcf	3,6	;RP1=0, select bank1
   983  0E3B  00DE               	movwf	(_main$940+3)^(0+128)
   984  0E3C  1283               	bcf	3,5	;RP0=0, select bank0
   985  0E3D  1303               	bcf	3,6	;RP1=0, select bank0
   986  0E3E  0828               	movf	?___flmul+2,w
   987  0E3F  1683               	bsf	3,5	;RP0=1, select bank1
   988  0E40  1303               	bcf	3,6	;RP1=0, select bank1
   989  0E41  00DD               	movwf	(_main$940+2)^(0+128)
   990  0E42  1283               	bcf	3,5	;RP0=0, select bank0
   991  0E43  1303               	bcf	3,6	;RP1=0, select bank0
   992  0E44  0827               	movf	?___flmul+1,w
   993  0E45  1683               	bsf	3,5	;RP0=1, select bank1
   994  0E46  1303               	bcf	3,6	;RP1=0, select bank1
   995  0E47  00DC               	movwf	(_main$940+1)^(0+128)
   996  0E48  1283               	bcf	3,5	;RP0=0, select bank0
   997  0E49  1303               	bcf	3,6	;RP1=0, select bank0
   998  0E4A  0826               	movf	?___flmul,w
   999  0E4B  1683               	bsf	3,5	;RP0=1, select bank1
  1000  0E4C  1303               	bcf	3,6	;RP1=0, select bank1
  1001  0E4D  00DB               	movwf	_main$940^(0+128)
  1002  0E4E                     l2520:
  1003                           
  1004                           ;newmain.c: 139:             temp = ((((get_val() * 1.0 * 5) / 1023) * 80) / 5) + 20;
  1005  0E4E  085E               	movf	(_main$940+3)^(0+128),w
  1006  0E4F  1283               	bcf	3,5	;RP0=0, select bank0
  1007  0E50  1303               	bcf	3,6	;RP1=0, select bank0
  1008  0E51  00AD               	movwf	___flmul@a+3
  1009  0E52  1683               	bsf	3,5	;RP0=1, select bank1
  1010  0E53  1303               	bcf	3,6	;RP1=0, select bank1
  1011  0E54  085D               	movf	(_main$940+2)^(0+128),w
  1012  0E55  1283               	bcf	3,5	;RP0=0, select bank0
  1013  0E56  1303               	bcf	3,6	;RP1=0, select bank0
  1014  0E57  00AC               	movwf	___flmul@a+2
  1015  0E58  1683               	bsf	3,5	;RP0=1, select bank1
  1016  0E59  1303               	bcf	3,6	;RP1=0, select bank1
  1017  0E5A  085C               	movf	(_main$940+1)^(0+128),w
  1018  0E5B  1283               	bcf	3,5	;RP0=0, select bank0
  1019  0E5C  1303               	bcf	3,6	;RP1=0, select bank0
  1020  0E5D  00AB               	movwf	___flmul@a+1
  1021  0E5E  1683               	bsf	3,5	;RP0=1, select bank1
  1022  0E5F  1303               	bcf	3,6	;RP1=0, select bank1
  1023  0E60  085B               	movf	_main$940^(0+128),w
  1024  0E61  1283               	bcf	3,5	;RP0=0, select bank0
  1025  0E62  1303               	bcf	3,6	;RP1=0, select bank0
  1026  0E63  00AA               	movwf	___flmul@a
  1027  0E64  3040               	movlw	64
  1028  0E65  00A9               	movwf	___flmul@b+3
  1029  0E66  30A0               	movlw	160
  1030  0E67  00A8               	movwf	___flmul@b+2
  1031  0E68  3000               	movlw	0
  1032  0E69  00A7               	movwf	___flmul@b+1
  1033  0E6A  3000               	movlw	0
  1034  0E6B  00A6               	movwf	___flmul@b
  1035  0E6C  120A  118A  2492  120A  158A  	fcall	___flmul
  1036  0E71  1283               	bcf	3,5	;RP0=0, select bank0
  1037  0E72  1303               	bcf	3,6	;RP1=0, select bank0
  1038  0E73  0829               	movf	?___flmul+3,w
  1039  0E74  00C7               	movwf	___fldiv@b+3
  1040  0E75  0828               	movf	?___flmul+2,w
  1041  0E76  00C6               	movwf	___fldiv@b+2
  1042  0E77  0827               	movf	?___flmul+1,w
  1043  0E78  00C5               	movwf	___fldiv@b+1
  1044  0E79  0826               	movf	?___flmul,w
  1045  0E7A  00C4               	movwf	___fldiv@b
  1046  0E7B  3044               	movlw	68
  1047  0E7C  00C3               	movwf	___fldiv@a+3
  1048  0E7D  307F               	movlw	127
  1049  0E7E  00C2               	movwf	___fldiv@a+2
  1050  0E7F  30C0               	movlw	192
  1051  0E80  00C1               	movwf	___fldiv@a+1
  1052  0E81  3000               	movlw	0
  1053  0E82  00C0               	movwf	___fldiv@a
  1054  0E83  120A  118A  2025  120A  158A  	fcall	___fldiv
  1055  0E88  1283               	bcf	3,5	;RP0=0, select bank0
  1056  0E89  1303               	bcf	3,6	;RP1=0, select bank0
  1057  0E8A  0843               	movf	?___fldiv+3,w
  1058  0E8B  1683               	bsf	3,5	;RP0=1, select bank1
  1059  0E8C  1303               	bcf	3,6	;RP1=0, select bank1
  1060  0E8D  00DA               	movwf	(_main$941+3)^(0+128)
  1061  0E8E  1283               	bcf	3,5	;RP0=0, select bank0
  1062  0E8F  1303               	bcf	3,6	;RP1=0, select bank0
  1063  0E90  0842               	movf	?___fldiv+2,w
  1064  0E91  1683               	bsf	3,5	;RP0=1, select bank1
  1065  0E92  1303               	bcf	3,6	;RP1=0, select bank1
  1066  0E93  00D9               	movwf	(_main$941+2)^(0+128)
  1067  0E94  1283               	bcf	3,5	;RP0=0, select bank0
  1068  0E95  1303               	bcf	3,6	;RP1=0, select bank0
  1069  0E96  0841               	movf	?___fldiv+1,w
  1070  0E97  1683               	bsf	3,5	;RP0=1, select bank1
  1071  0E98  1303               	bcf	3,6	;RP1=0, select bank1
  1072  0E99  00D8               	movwf	(_main$941+1)^(0+128)
  1073  0E9A  1283               	bcf	3,5	;RP0=0, select bank0
  1074  0E9B  1303               	bcf	3,6	;RP1=0, select bank0
  1075  0E9C  0840               	movf	?___fldiv,w
  1076  0E9D  1683               	bsf	3,5	;RP0=1, select bank1
  1077  0E9E  1303               	bcf	3,6	;RP1=0, select bank1
  1078  0E9F  00D7               	movwf	_main$941^(0+128)
  1079  0EA0                     l2522:
  1080                           
  1081                           ;newmain.c: 139:             temp = ((((get_val() * 1.0 * 5) / 1023) * 80) / 5) + 20;
  1082  0EA0  085A               	movf	(_main$941+3)^(0+128),w
  1083  0EA1  1283               	bcf	3,5	;RP0=0, select bank0
  1084  0EA2  1303               	bcf	3,6	;RP1=0, select bank0
  1085  0EA3  00AD               	movwf	___flmul@a+3
  1086  0EA4  1683               	bsf	3,5	;RP0=1, select bank1
  1087  0EA5  1303               	bcf	3,6	;RP1=0, select bank1
  1088  0EA6  0859               	movf	(_main$941+2)^(0+128),w
  1089  0EA7  1283               	bcf	3,5	;RP0=0, select bank0
  1090  0EA8  1303               	bcf	3,6	;RP1=0, select bank0
  1091  0EA9  00AC               	movwf	___flmul@a+2
  1092  0EAA  1683               	bsf	3,5	;RP0=1, select bank1
  1093  0EAB  1303               	bcf	3,6	;RP1=0, select bank1
  1094  0EAC  0858               	movf	(_main$941+1)^(0+128),w
  1095  0EAD  1283               	bcf	3,5	;RP0=0, select bank0
  1096  0EAE  1303               	bcf	3,6	;RP1=0, select bank0
  1097  0EAF  00AB               	movwf	___flmul@a+1
  1098  0EB0  1683               	bsf	3,5	;RP0=1, select bank1
  1099  0EB1  1303               	bcf	3,6	;RP1=0, select bank1
  1100  0EB2  0857               	movf	_main$941^(0+128),w
  1101  0EB3  1283               	bcf	3,5	;RP0=0, select bank0
  1102  0EB4  1303               	bcf	3,6	;RP1=0, select bank0
  1103  0EB5  00AA               	movwf	___flmul@a
  1104  0EB6  3042               	movlw	66
  1105  0EB7  00A9               	movwf	___flmul@b+3
  1106  0EB8  30A0               	movlw	160
  1107  0EB9  00A8               	movwf	___flmul@b+2
  1108  0EBA  3000               	movlw	0
  1109  0EBB  00A7               	movwf	___flmul@b+1
  1110  0EBC  3000               	movlw	0
  1111  0EBD  00A6               	movwf	___flmul@b
  1112  0EBE  120A  118A  2492  120A  158A  	fcall	___flmul
  1113  0EC3  1283               	bcf	3,5	;RP0=0, select bank0
  1114  0EC4  1303               	bcf	3,6	;RP1=0, select bank0
  1115  0EC5  0829               	movf	?___flmul+3,w
  1116  0EC6  00C7               	movwf	___fldiv@b+3
  1117  0EC7  0828               	movf	?___flmul+2,w
  1118  0EC8  00C6               	movwf	___fldiv@b+2
  1119  0EC9  0827               	movf	?___flmul+1,w
  1120  0ECA  00C5               	movwf	___fldiv@b+1
  1121  0ECB  0826               	movf	?___flmul,w
  1122  0ECC  00C4               	movwf	___fldiv@b
  1123  0ECD  3040               	movlw	64
  1124  0ECE  00C3               	movwf	___fldiv@a+3
  1125  0ECF  30A0               	movlw	160
  1126  0ED0  00C2               	movwf	___fldiv@a+2
  1127  0ED1  3000               	movlw	0
  1128  0ED2  00C1               	movwf	___fldiv@a+1
  1129  0ED3  3000               	movlw	0
  1130  0ED4  00C0               	movwf	___fldiv@a
  1131  0ED5  120A  118A  2025  120A  158A  	fcall	___fldiv
  1132  0EDA  1283               	bcf	3,5	;RP0=0, select bank0
  1133  0EDB  1303               	bcf	3,6	;RP1=0, select bank0
  1134  0EDC  0843               	movf	?___fldiv+3,w
  1135  0EDD  00E1               	movwf	___fladd@a+3
  1136  0EDE  0842               	movf	?___fldiv+2,w
  1137  0EDF  00E0               	movwf	___fladd@a+2
  1138  0EE0  0841               	movf	?___fldiv+1,w
  1139  0EE1  00DF               	movwf	___fladd@a+1
  1140  0EE2  0840               	movf	?___fldiv,w
  1141  0EE3  00DE               	movwf	___fladd@a
  1142  0EE4  3041               	movlw	65
  1143  0EE5  00DD               	movwf	___fladd@b+3
  1144  0EE6  30A0               	movlw	160
  1145  0EE7  00DC               	movwf	___fladd@b+2
  1146  0EE8  3000               	movlw	0
  1147  0EE9  00DB               	movwf	___fladd@b+1
  1148  0EEA  3000               	movlw	0
  1149  0EEB  00DA               	movwf	___fladd@b
  1150  0EEC  120A  118A  2202  120A  158A  	fcall	___fladd
  1151  0EF1  1283               	bcf	3,5	;RP0=0, select bank0
  1152  0EF2  1303               	bcf	3,6	;RP1=0, select bank0
  1153  0EF3  085D               	movf	?___fladd+3,w
  1154  0EF4  00ED               	movwf	___fltol@f1+3
  1155  0EF5  085C               	movf	?___fladd+2,w
  1156  0EF6  00EC               	movwf	___fltol@f1+2
  1157  0EF7  085B               	movf	?___fladd+1,w
  1158  0EF8  00EB               	movwf	___fltol@f1+1
  1159  0EF9  085A               	movf	?___fladd,w
  1160  0EFA  00EA               	movwf	___fltol@f1
  1161  0EFB  120A  158A  2395  120A  158A  	fcall	___fltol
  1162  0F00  1283               	bcf	3,5	;RP0=0, select bank0
  1163  0F01  1303               	bcf	3,6	;RP1=0, select bank0
  1164  0F02  086B               	movf	?___fltol+1,w
  1165  0F03  1683               	bsf	3,5	;RP0=1, select bank1
  1166  0F04  1303               	bcf	3,6	;RP1=0, select bank1
  1167  0F05  00CB               	movwf	(_temp+1)^(0+128)
  1168  0F06  1283               	bcf	3,5	;RP0=0, select bank0
  1169  0F07  1303               	bcf	3,6	;RP1=0, select bank0
  1170  0F08  086A               	movf	?___fltol,w
  1171  0F09  1683               	bsf	3,5	;RP0=1, select bank1
  1172  0F0A  1303               	bcf	3,6	;RP1=0, select bank1
  1173  0F0B  00CA               	movwf	_temp^(0+128)
  1174  0F0C                     l2524:
  1175                           
  1176                           ;newmain.c: 140:             dutyCycle = 500 * (temp * 1.0 / 100);
  1177  0F0C  084A               	movf	_temp^(0+128),w
  1178  0F0D  00F2               	movwf	___xxtofl@val
  1179  0F0E  084B               	movf	(_temp+1)^(0+128),w
  1180  0F0F  00F3               	movwf	___xxtofl@val+1
  1181  0F10  01F4               	clrf	___xxtofl@val+2
  1182  0F11  01F5               	clrf	___xxtofl@val+3
  1183  0F12  3000               	movlw	0
  1184  0F13  120A  158A  2431  120A  158A  	fcall	___xxtofl
  1185  0F18  0875               	movf	?___xxtofl+3,w
  1186  0F19  1283               	bcf	3,5	;RP0=0, select bank0
  1187  0F1A  1303               	bcf	3,6	;RP1=0, select bank0
  1188  0F1B  00AD               	movwf	___flmul@a+3
  1189  0F1C  0874               	movf	?___xxtofl+2,w
  1190  0F1D  00AC               	movwf	___flmul@a+2
  1191  0F1E  0873               	movf	?___xxtofl+1,w
  1192  0F1F  00AB               	movwf	___flmul@a+1
  1193  0F20  0872               	movf	?___xxtofl,w
  1194  0F21  00AA               	movwf	___flmul@a
  1195  0F22  303F               	movlw	63
  1196  0F23  00A9               	movwf	___flmul@b+3
  1197  0F24  3080               	movlw	128
  1198  0F25  00A8               	movwf	___flmul@b+2
  1199  0F26  3000               	movlw	0
  1200  0F27  00A7               	movwf	___flmul@b+1
  1201  0F28  3000               	movlw	0
  1202  0F29  00A6               	movwf	___flmul@b
  1203  0F2A  120A  118A  2492  120A  158A  	fcall	___flmul
  1204  0F2F  1283               	bcf	3,5	;RP0=0, select bank0
  1205  0F30  1303               	bcf	3,6	;RP1=0, select bank0
  1206  0F31  0829               	movf	?___flmul+3,w
  1207  0F32  00C7               	movwf	___fldiv@b+3
  1208  0F33  0828               	movf	?___flmul+2,w
  1209  0F34  00C6               	movwf	___fldiv@b+2
  1210  0F35  0827               	movf	?___flmul+1,w
  1211  0F36  00C5               	movwf	___fldiv@b+1
  1212  0F37  0826               	movf	?___flmul,w
  1213  0F38  00C4               	movwf	___fldiv@b
  1214  0F39  3042               	movlw	66
  1215  0F3A  00C3               	movwf	___fldiv@a+3
  1216  0F3B  30C8               	movlw	200
  1217  0F3C  00C2               	movwf	___fldiv@a+2
  1218  0F3D  3000               	movlw	0
  1219  0F3E  00C1               	movwf	___fldiv@a+1
  1220  0F3F  3000               	movlw	0
  1221  0F40  00C0               	movwf	___fldiv@a
  1222  0F41  120A  118A  2025  120A  158A  	fcall	___fldiv
  1223  0F46  1283               	bcf	3,5	;RP0=0, select bank0
  1224  0F47  1303               	bcf	3,6	;RP1=0, select bank0
  1225  0F48  0843               	movf	?___fldiv+3,w
  1226  0F49  1683               	bsf	3,5	;RP0=1, select bank1
  1227  0F4A  1303               	bcf	3,6	;RP1=0, select bank1
  1228  0F4B  00DE               	movwf	(_main$940+3)^(0+128)
  1229  0F4C  1283               	bcf	3,5	;RP0=0, select bank0
  1230  0F4D  1303               	bcf	3,6	;RP1=0, select bank0
  1231  0F4E  0842               	movf	?___fldiv+2,w
  1232  0F4F  1683               	bsf	3,5	;RP0=1, select bank1
  1233  0F50  1303               	bcf	3,6	;RP1=0, select bank1
  1234  0F51  00DD               	movwf	(_main$940+2)^(0+128)
  1235  0F52  1283               	bcf	3,5	;RP0=0, select bank0
  1236  0F53  1303               	bcf	3,6	;RP1=0, select bank0
  1237  0F54  0841               	movf	?___fldiv+1,w
  1238  0F55  1683               	bsf	3,5	;RP0=1, select bank1
  1239  0F56  1303               	bcf	3,6	;RP1=0, select bank1
  1240  0F57  00DC               	movwf	(_main$940+1)^(0+128)
  1241  0F58  1283               	bcf	3,5	;RP0=0, select bank0
  1242  0F59  1303               	bcf	3,6	;RP1=0, select bank0
  1243  0F5A  0840               	movf	?___fldiv,w
  1244  0F5B  1683               	bsf	3,5	;RP0=1, select bank1
  1245  0F5C  1303               	bcf	3,6	;RP1=0, select bank1
  1246  0F5D  00DB               	movwf	_main$940^(0+128)
  1247  0F5E                     l2526:
  1248                           
  1249                           ;newmain.c: 140:             dutyCycle = 500 * (temp * 1.0 / 100);
  1250  0F5E  085E               	movf	(_main$940+3)^(0+128),w
  1251  0F5F  1283               	bcf	3,5	;RP0=0, select bank0
  1252  0F60  1303               	bcf	3,6	;RP1=0, select bank0
  1253  0F61  00AD               	movwf	___flmul@a+3
  1254  0F62  1683               	bsf	3,5	;RP0=1, select bank1
  1255  0F63  1303               	bcf	3,6	;RP1=0, select bank1
  1256  0F64  085D               	movf	(_main$940+2)^(0+128),w
  1257  0F65  1283               	bcf	3,5	;RP0=0, select bank0
  1258  0F66  1303               	bcf	3,6	;RP1=0, select bank0
  1259  0F67  00AC               	movwf	___flmul@a+2
  1260  0F68  1683               	bsf	3,5	;RP0=1, select bank1
  1261  0F69  1303               	bcf	3,6	;RP1=0, select bank1
  1262  0F6A  085C               	movf	(_main$940+1)^(0+128),w
  1263  0F6B  1283               	bcf	3,5	;RP0=0, select bank0
  1264  0F6C  1303               	bcf	3,6	;RP1=0, select bank0
  1265  0F6D  00AB               	movwf	___flmul@a+1
  1266  0F6E  1683               	bsf	3,5	;RP0=1, select bank1
  1267  0F6F  1303               	bcf	3,6	;RP1=0, select bank1
  1268  0F70  085B               	movf	_main$940^(0+128),w
  1269  0F71  1283               	bcf	3,5	;RP0=0, select bank0
  1270  0F72  1303               	bcf	3,6	;RP1=0, select bank0
  1271  0F73  00AA               	movwf	___flmul@a
  1272  0F74  3043               	movlw	67
  1273  0F75  00A9               	movwf	___flmul@b+3
  1274  0F76  30FA               	movlw	250
  1275  0F77  00A8               	movwf	___flmul@b+2
  1276  0F78  3000               	movlw	0
  1277  0F79  00A7               	movwf	___flmul@b+1
  1278  0F7A  3000               	movlw	0
  1279  0F7B  00A6               	movwf	___flmul@b
  1280  0F7C  120A  118A  2492  120A  158A  	fcall	___flmul
  1281  0F81  1283               	bcf	3,5	;RP0=0, select bank0
  1282  0F82  1303               	bcf	3,6	;RP1=0, select bank0
  1283  0F83  0829               	movf	?___flmul+3,w
  1284  0F84  00ED               	movwf	___fltol@f1+3
  1285  0F85  0828               	movf	?___flmul+2,w
  1286  0F86  00EC               	movwf	___fltol@f1+2
  1287  0F87  0827               	movf	?___flmul+1,w
  1288  0F88  00EB               	movwf	___fltol@f1+1
  1289  0F89  0826               	movf	?___flmul,w
  1290  0F8A  00EA               	movwf	___fltol@f1
  1291  0F8B  120A  158A  2395  120A  158A  	fcall	___fltol
  1292  0F90  1283               	bcf	3,5	;RP0=0, select bank0
  1293  0F91  1303               	bcf	3,6	;RP1=0, select bank0
  1294  0F92  086B               	movf	?___fltol+1,w
  1295  0F93  1683               	bsf	3,5	;RP0=1, select bank1
  1296  0F94  1303               	bcf	3,6	;RP1=0, select bank1
  1297  0F95  00A1               	movwf	(_dutyCycle+1)^(0+128)
  1298  0F96  1283               	bcf	3,5	;RP0=0, select bank0
  1299  0F97  1303               	bcf	3,6	;RP1=0, select bank0
  1300  0F98  086A               	movf	?___fltol,w
  1301  0F99  1683               	bsf	3,5	;RP0=1, select bank1
  1302  0F9A  1303               	bcf	3,6	;RP1=0, select bank1
  1303  0F9B  00A0               	movwf	_dutyCycle^(0+128)
  1304  0F9C                     l2528:
  1305                           
  1306                           ;newmain.c: 142:             LCDGoto(0,0);
  1307  0F9C  01F7               	clrf	LCDGoto@ln
  1308  0F9D  3000               	movlw	0
  1309  0F9E  120A  158A  224C  120A  158A  	fcall	_LCDGoto
  1310                           
  1311                           ;newmain.c: 143:             sprintf(buffer1,"DC:%u/500", dutyCycle);
  1312  0FA3  3031               	movlw	(low ((STR_3-__stringbase)| (0+32768)))& (0+255)
  1313  0FA4  1683               	bsf	3,5	;RP0=1, select bank1
  1314  0FA5  1303               	bcf	3,6	;RP1=0, select bank1
  1315  0FA6  00D3               	movwf	??_main^(0+128)
  1316  0FA7  0853               	movf	??_main^(0+128),w
  1317  0FA8  1283               	bcf	3,5	;RP0=0, select bank0
  1318  0FA9  1303               	bcf	3,6	;RP1=0, select bank0
  1319  0FAA  00A0               	movwf	sprintf@f
  1320  0FAB  1683               	bsf	3,5	;RP0=1, select bank1
  1321  0FAC  1303               	bcf	3,6	;RP1=0, select bank1
  1322  0FAD  0821               	movf	(_dutyCycle+1)^(0+128),w
  1323  0FAE  1283               	bcf	3,5	;RP0=0, select bank0
  1324  0FAF  1303               	bcf	3,6	;RP1=0, select bank0
  1325  0FB0  00A2               	movwf	?_sprintf+2
  1326  0FB1  1683               	bsf	3,5	;RP0=1, select bank1
  1327  0FB2  1303               	bcf	3,6	;RP1=0, select bank1
  1328  0FB3  0820               	movf	_dutyCycle^(0+128),w
  1329  0FB4  1283               	bcf	3,5	;RP0=0, select bank0
  1330  0FB5  1303               	bcf	3,6	;RP1=0, select bank0
  1331  0FB6  00A1               	movwf	?_sprintf+1
  1332  0FB7  30A2               	movlw	(low (_buffer1| 0))& (0+255)
  1333  0FB8  120A  158A  24ED  120A  158A  	fcall	_sprintf
  1334                           
  1335                           ;newmain.c: 144:             LCDPutStr(buffer1);
  1336  0FBD  30A2               	movlw	(low (_buffer1| 0))& (0+255)
  1337  0FBE  00F7               	movwf	LCDPutStr@str
  1338  0FBF  3000               	movlw	0
  1339  0FC0  00F8               	movwf	LCDPutStr@str+1
  1340  0FC1  120A  158A  2221  120A  158A  	fcall	_LCDPutStr
  1341  0FC6                     l2530:
  1342                           
  1343                           ;newmain.c: 145:             PWM_Set_Duty(dutyCycle);
  1344  0FC6  1683               	bsf	3,5	;RP0=1, select bank1
  1345  0FC7  1303               	bcf	3,6	;RP1=0, select bank1
  1346  0FC8  0821               	movf	(_dutyCycle+1)^(0+128),w
  1347  0FC9  00F1               	movwf	PWM_Set_Duty@DC+1
  1348  0FCA  0820               	movf	_dutyCycle^(0+128),w
  1349  0FCB  00F0               	movwf	PWM_Set_Duty@DC
  1350  0FCC  120A  118A  2004  120A  158A  	fcall	_PWM_Set_Duty
  1351  0FD1                     l2532:
  1352                           
  1353                           ;newmain.c: 146:             LCDGoto(0,1);
  1354  0FD1  01F7               	clrf	LCDGoto@ln
  1355  0FD2  0AF7               	incf	LCDGoto@ln,f
  1356  0FD3  3000               	movlw	0
  1357  0FD4  120A  158A  224C  120A  158A  	fcall	_LCDGoto
  1358                           
  1359                           ;newmain.c: 147:             sprintf(buffer, "SPEED= %u%%", temp);
  1360  0FD9  301A               	movlw	(low ((STR_4-__stringbase)| (0+32768)))& (0+255)
  1361  0FDA  1683               	bsf	3,5	;RP0=1, select bank1
  1362  0FDB  1303               	bcf	3,6	;RP1=0, select bank1
  1363  0FDC  00D3               	movwf	??_main^(0+128)
  1364  0FDD  0853               	movf	??_main^(0+128),w
  1365  0FDE  1283               	bcf	3,5	;RP0=0, select bank0
  1366  0FDF  1303               	bcf	3,6	;RP1=0, select bank0
  1367  0FE0  00A0               	movwf	sprintf@f
  1368  0FE1  1683               	bsf	3,5	;RP0=1, select bank1
  1369  0FE2  1303               	bcf	3,6	;RP1=0, select bank1
  1370  0FE3  084B               	movf	(_temp+1)^(0+128),w
  1371  0FE4  1283               	bcf	3,5	;RP0=0, select bank0
  1372  0FE5  1303               	bcf	3,6	;RP1=0, select bank0
  1373  0FE6  00A2               	movwf	?_sprintf+2
  1374  0FE7  1683               	bsf	3,5	;RP0=1, select bank1
  1375  0FE8  1303               	bcf	3,6	;RP1=0, select bank1
  1376  0FE9  084A               	movf	_temp^(0+128),w
  1377  0FEA  1283               	bcf	3,5	;RP0=0, select bank0
  1378  0FEB  1303               	bcf	3,6	;RP1=0, select bank0
  1379  0FEC  00A1               	movwf	?_sprintf+1
  1380  0FED  30B6               	movlw	(low (_buffer| 0))& (0+255)
  1381  0FEE  120A  158A  24ED  120A  158A  	fcall	_sprintf
  1382                           
  1383                           ;newmain.c: 148:             LCDPutStr(buffer);
  1384  0FF3  30B6               	movlw	(low (_buffer| 0))& (0+255)
  1385  0FF4  00F7               	movwf	LCDPutStr@str
  1386  0FF5  3000               	movlw	0
  1387  0FF6  00F8               	movwf	LCDPutStr@str+1
  1388  0FF7  120A  158A  2221  120A  158A  	fcall	_LCDPutStr
  1389  0FFC  2DE9               	goto	l2508
  1390  0FFD  120A  118A  2800   	ljmp	start
  1391  1000                     __end_of_main:
  1392                           
  1393                           	psect	text1
  1394  0CED                     __ptext1:	
  1395 ;; *************** function _sprintf *****************
  1396 ;; Defined at:
  1397 ;;		line 505 in file "C:\Program Files\Microchip\xc8\v2.36\pic\sources\c90\common\doprnt.c"
  1398 ;; Parameters:    Size  Location     Type
  1399 ;;  sp              1    wreg     PTR unsigned char 
  1400 ;;		 -> buffer(20), buffer1(20), 
  1401 ;;  f               1    0[BANK0 ] PTR const unsigned char 
  1402 ;;		 -> STR_4(12), STR_3(10), 
  1403 ;; Auto vars:     Size  Location     Type
  1404 ;;  sp              1   11[BANK0 ] PTR unsigned char 
  1405 ;;		 -> buffer(20), buffer1(20), 
  1406 ;;  tmpval          4    0        struct .
  1407 ;;  val             2    8[BANK0 ] unsigned int 
  1408 ;;  cp              2    0        PTR const unsigned char 
  1409 ;;  len             2    0        unsigned int 
  1410 ;;  c               1   12[BANK0 ] unsigned char 
  1411 ;;  prec            1   10[BANK0 ] char 
  1412 ;;  ap              1    7[BANK0 ] PTR void [1]
  1413 ;;		 -> ?_sprintf(2), 
  1414 ;;  flag            1    6[BANK0 ] unsigned char 
  1415 ;; Return value:  Size  Location     Type
  1416 ;;                  2    0[BANK0 ] int 
  1417 ;; Registers used:
  1418 ;;		wreg, fsr0l, fsr0h, status,2, status,0, btemp+1, pclath, cstack
  1419 ;; Tracked objects:
  1420 ;;		On entry : 0/0
  1421 ;;		On exit  : 0/0
  1422 ;;		Unchanged: 0/0
  1423 ;; Data sizes:     COMMON   BANK0   BANK1   BANK3   BANK2
  1424 ;;      Params:         0       3       0       0       0
  1425 ;;      Locals:         0       7       0       0       0
  1426 ;;      Temps:          0       3       0       0       0
  1427 ;;      Totals:         0      13       0       0       0
  1428 ;;Total ram usage:       13 bytes
  1429 ;; Hardware stack levels used: 1
  1430 ;; Hardware stack levels required when called: 1
  1431 ;; This function calls:
  1432 ;;		___lwdiv
  1433 ;;		___lwmod
  1434 ;; This function is called by:
  1435 ;;		_main
  1436 ;; This function uses a non-reentrant model
  1437 ;;
  1438                           
  1439  0CED                     _sprintf:	
  1440                           ;psect for function _sprintf
  1441                           
  1442                           
  1443                           ;incstack = 0
  1444                           ; Regs used in _sprintf: [wreg-fsr0h+status,2+status,0+btemp+1+pclath+cstack]
  1445                           ;sprintf@sp stored from wreg
  1446  0CED  1283               	bcf	3,5	;RP0=0, select bank0
  1447  0CEE  1303               	bcf	3,6	;RP1=0, select bank0
  1448  0CEF  00AB               	movwf	sprintf@sp
  1449  0CF0                     l1888:
  1450                           
  1451                           ;C:\Program Files\Microchip\xc8\v2.36\pic\sources\c90\common\doprnt.c: 505: sprintf(char
      +                           * sp, const char * f, ...);C:\Program Files\Microchip\xc8\v2.36\pic\sources\c90\common\
      +                          doprnt.c: 506: {;C:\Program Files\Microchip\xc8\v2.36\pic\sources\c90\common\doprnt.c: 5
      +                          07:  va_list ap;;C:\Program Files\Microchip\xc8\v2.36\pic\sources\c90\common\doprnt.c: 5
      +                          12:  char c;;C:\Program Files\Microchip\xc8\v2.36\pic\sources\c90\common\doprnt.c: 521: 
      +                           signed char prec;;C:\Program Files\Microchip\xc8\v2.36\pic\sources\c90\common\doprnt.c:
      +                           525:  unsigned char flag;
  1452  0CF0  3021               	movlw	(low ((?_sprintf| 0+1)))& (0+255)
  1453  0CF1  00A3               	movwf	??_sprintf
  1454  0CF2  0823               	movf	??_sprintf,w
  1455  0CF3  00A7               	movwf	sprintf@ap
  1456                           
  1457                           ;C:\Program Files\Microchip\xc8\v2.36\pic\sources\c90\common\doprnt.c: 553:  while((c = 
      +                          *f++)) {
  1458  0CF4  2DA3               	goto	l1934
  1459  0CF5                     l1890:
  1460                           
  1461                           ;C:\Program Files\Microchip\xc8\v2.36\pic\sources\c90\common\doprnt.c: 555:   if(c != '%
      +                          ')
  1462  0CF5  3025               	movlw	37
  1463  0CF6  062C               	xorwf	sprintf@c,w
  1464  0CF7  1903               	btfsc	3,2
  1465  0CF8  2CFA               	goto	u2201
  1466  0CF9  2CFB               	goto	u2200
  1467  0CFA                     u2201:
  1468  0CFA  2D07               	goto	l1896
  1469  0CFB                     u2200:
  1470  0CFB                     l1892:
  1471                           
  1472                           ;C:\Program Files\Microchip\xc8\v2.36\pic\sources\c90\common\doprnt.c: 557:   {;C:\Progr
      +                          am Files\Microchip\xc8\v2.36\pic\sources\c90\common\doprnt.c: 558:    ((*sp++ = (c)));
  1473  0CFB  082C               	movf	sprintf@c,w
  1474  0CFC  00A3               	movwf	??_sprintf
  1475  0CFD  082B               	movf	sprintf@sp,w
  1476  0CFE  0084               	movwf	4
  1477  0CFF  0823               	movf	??_sprintf,w
  1478  0D00  1383               	bcf	3,7	;select IRP bank0
  1479  0D01  0080               	movwf	0
  1480  0D02                     l1894:
  1481  0D02  3001               	movlw	1
  1482  0D03  00A3               	movwf	??_sprintf
  1483  0D04  0823               	movf	??_sprintf,w
  1484  0D05  07AB               	addwf	sprintf@sp,f
  1485                           
  1486                           ;C:\Program Files\Microchip\xc8\v2.36\pic\sources\c90\common\doprnt.c: 559:    continue;
  1487  0D06  2DA3               	goto	l1934
  1488  0D07                     l1896:
  1489                           
  1490                           ;C:\Program Files\Microchip\xc8\v2.36\pic\sources\c90\common\doprnt.c: 565:   flag = 0;
  1491  0D07  01A6               	clrf	sprintf@flag
  1492                           
  1493                           ;C:\Program Files\Microchip\xc8\v2.36\pic\sources\c90\common\doprnt.c: 661:   switch(c =
      +                           *f++) {
  1494  0D08  2D0E               	goto	l1906
  1495  0D09                     l1902:
  1496                           
  1497                           ;C:\Program Files\Microchip\xc8\v2.36\pic\sources\c90\common\doprnt.c: 844:    flag |= 0
      +                          xC0;
  1498  0D09  30C0               	movlw	192
  1499  0D0A  00A3               	movwf	??_sprintf
  1500  0D0B  0823               	movf	??_sprintf,w
  1501  0D0C  04A6               	iorwf	sprintf@flag,f
  1502                           
  1503                           ;C:\Program Files\Microchip\xc8\v2.36\pic\sources\c90\common\doprnt.c: 845:    break;
  1504  0D0D  2D28               	goto	l1908
  1505  0D0E                     l1906:
  1506  0D0E  3001               	movlw	1
  1507  0D0F  07A0               	addwf	sprintf@f,f
  1508  0D10  30FF               	movlw	-1
  1509  0D11  0720               	addwf	sprintf@f,w
  1510  0D12  0084               	movwf	4
  1511  0D13  120A  158A  200A  120A  158A  	fcall	stringdir
  1512  0D18  00AC               	movwf	sprintf@c
  1513  0D19  00A3               	movwf	??_sprintf
  1514  0D1A  01A4               	clrf	??_sprintf+1
  1515                           
  1516                           ; Switch on 2 bytes has been partitioned into a top level switch of size 1, and 1 sub-sw
      +                          itches
  1517                           ; Switch size 1, requested type "simple"
  1518                           ; Number of cases is 1, Range of values is 0 to 0
  1519                           ; switch strategies available:
  1520                           ; Name         Instructions Cycles
  1521                           ; simple_byte            4     3 (average)
  1522                           ; direct_byte           11     8 (fixed)
  1523                           ; jumptable            260     6 (fixed)
  1524                           ;	Chosen strategy is simple_byte
  1525  0D1B  0824               	movf	??_sprintf+1,w
  1526  0D1C  3A00               	xorlw	0	; case 0
  1527  0D1D  1903               	skipnz
  1528  0D1E  2D20               	goto	l2576
  1529  0D1F  2CFB               	goto	l1892
  1530  0D20                     l2576:
  1531                           
  1532                           ; Switch size 1, requested type "simple"
  1533                           ; Number of cases is 2, Range of values is 0 to 117
  1534                           ; switch strategies available:
  1535                           ; Name         Instructions Cycles
  1536                           ; simple_byte            7     4 (average)
  1537                           ; jumptable            260     6 (fixed)
  1538                           ;	Chosen strategy is simple_byte
  1539  0D20  0823               	movf	??_sprintf,w
  1540  0D21  3A00               	xorlw	0	; case 0
  1541  0D22  1903               	skipnz
  1542  0D23  2DB5               	goto	l1936
  1543  0D24  3A75               	xorlw	117	; case 117
  1544  0D25  1903               	skipnz
  1545  0D26  2D09               	goto	l1902
  1546  0D27  2CFB               	goto	l1892
  1547  0D28                     l1908:
  1548                           
  1549                           ;C:\Program Files\Microchip\xc8\v2.36\pic\sources\c90\common\doprnt.c: 1299:   {;C:\Prog
      +                          ram Files\Microchip\xc8\v2.36\pic\sources\c90\common\doprnt.c: 1312:     val = (*(unsign
      +                          ed *)__va_arg((*(unsigned **)ap), (unsigned)0));
  1550  0D28  0827               	movf	sprintf@ap,w
  1551  0D29  0084               	movwf	4
  1552  0D2A  1383               	bcf	3,7	;select IRP bank0
  1553  0D2B  0800               	movf	0,w
  1554  0D2C  00A8               	movwf	sprintf@val
  1555  0D2D  0A84               	incf	4,f
  1556  0D2E  0800               	movf	0,w
  1557  0D2F  00A9               	movwf	sprintf@val+1
  1558  0D30                     l1910:
  1559  0D30  3002               	movlw	2
  1560  0D31  00A3               	movwf	??_sprintf
  1561  0D32  0823               	movf	??_sprintf,w
  1562  0D33  07A7               	addwf	sprintf@ap,f
  1563  0D34                     l1912:
  1564                           
  1565                           ;C:\Program Files\Microchip\xc8\v2.36\pic\sources\c90\common\doprnt.c: 1313:   };C:\Prog
      +                          ram Files\Microchip\xc8\v2.36\pic\sources\c90\common\doprnt.c: 1331:    for(c = 1 ; c !=
      +                           sizeof dpowers/sizeof dpowers[0] ; c++)
  1566  0D34  01AC               	clrf	sprintf@c
  1567  0D35  0AAC               	incf	sprintf@c,f
  1568  0D36                     l1918:
  1569                           
  1570                           ;C:\Program Files\Microchip\xc8\v2.36\pic\sources\c90\common\doprnt.c: 1332:     if(val 
      +                          < dpowers[c])
  1571  0D36  082C               	movf	sprintf@c,w
  1572  0D37  00A3               	movwf	??_sprintf
  1573  0D38  0723               	addwf	??_sprintf,w
  1574  0D39  3E01               	addlw	low ((_dpowers-__stringbase)| (0+32768))
  1575  0D3A  0084               	movwf	4
  1576  0D3B  120A  158A  200A  120A  158A  	fcall	stringdir
  1577  0D40  00A4               	movwf	??_sprintf+1
  1578  0D41  120A  158A  200A  120A  158A  	fcall	stringdir
  1579  0D46  00A5               	movwf	??_sprintf+2
  1580  0D47  0825               	movf	??_sprintf+2,w
  1581  0D48  0229               	subwf	sprintf@val+1,w
  1582  0D49  1D03               	skipz
  1583  0D4A  2D4D               	goto	u2215
  1584  0D4B  0824               	movf	??_sprintf+1,w
  1585  0D4C  0228               	subwf	sprintf@val,w
  1586  0D4D                     u2215:
  1587  0D4D  1803               	skipnc
  1588  0D4E  2D50               	goto	u2211
  1589  0D4F  2D51               	goto	u2210
  1590  0D50                     u2211:
  1591  0D50  2D52               	goto	l1922
  1592  0D51                     u2210:
  1593  0D51  2D5C               	goto	l1924
  1594  0D52                     l1922:
  1595  0D52  3001               	movlw	1
  1596  0D53  00A3               	movwf	??_sprintf
  1597  0D54  0823               	movf	??_sprintf,w
  1598  0D55  07AC               	addwf	sprintf@c,f
  1599  0D56  3005               	movlw	5
  1600  0D57  062C               	xorwf	sprintf@c,w
  1601  0D58  1D03               	btfss	3,2
  1602  0D59  2D5B               	goto	u2221
  1603  0D5A  2D5C               	goto	u2220
  1604  0D5B                     u2221:
  1605  0D5B  2D36               	goto	l1918
  1606  0D5C                     u2220:
  1607  0D5C                     l1924:
  1608                           
  1609                           ;C:\Program Files\Microchip\xc8\v2.36\pic\sources\c90\common\doprnt.c: 1448:   {;C:\Prog
      +                          ram Files\Microchip\xc8\v2.36\pic\sources\c90\common\doprnt.c: 1495:   };C:\Program File
      +                          s\Microchip\xc8\v2.36\pic\sources\c90\common\doprnt.c: 1498:   prec = c;
  1610  0D5C  082C               	movf	sprintf@c,w
  1611  0D5D  00A3               	movwf	??_sprintf
  1612  0D5E  0823               	movf	??_sprintf,w
  1613  0D5F  00AA               	movwf	sprintf@prec
  1614                           
  1615                           ;C:\Program Files\Microchip\xc8\v2.36\pic\sources\c90\common\doprnt.c: 1500:   while(pre
      +                          c--) {
  1616  0D60  2D9A               	goto	l1932
  1617  0D61                     l1926:
  1618                           
  1619                           ;C:\Program Files\Microchip\xc8\v2.36\pic\sources\c90\common\doprnt.c: 1504:    {;C:\Pro
      +                          gram Files\Microchip\xc8\v2.36\pic\sources\c90\common\doprnt.c: 1515:     c = (val / dpo
      +                          wers[(unsigned char)prec]) % 10 + '0';
  1620  0D61  300A               	movlw	10
  1621  0D62  00F8               	movwf	___lwmod@divisor
  1622  0D63  3000               	movlw	0
  1623  0D64  00F9               	movwf	___lwmod@divisor+1
  1624  0D65  082A               	movf	sprintf@prec,w
  1625  0D66  00A3               	movwf	??_sprintf
  1626  0D67  0723               	addwf	??_sprintf,w
  1627  0D68  3E01               	addlw	low ((_dpowers-__stringbase)| (0+32768))
  1628  0D69  0084               	movwf	4
  1629  0D6A  120A  158A  200A  120A  158A  	fcall	stringdir
  1630  0D6F  00F0               	movwf	___lwdiv@divisor
  1631  0D70  120A  158A  200A  120A  158A  	fcall	stringdir
  1632  0D75  00F1               	movwf	___lwdiv@divisor+1
  1633  0D76  0829               	movf	sprintf@val+1,w
  1634  0D77  00F3               	movwf	___lwdiv@dividend+1
  1635  0D78  0828               	movf	sprintf@val,w
  1636  0D79  00F2               	movwf	___lwdiv@dividend
  1637  0D7A  120A  158A  2351  120A  158A  	fcall	___lwdiv
  1638  0D7F  0871               	movf	?___lwdiv+1,w
  1639  0D80  00FB               	movwf	___lwmod@dividend+1
  1640  0D81  0870               	movf	?___lwdiv,w
  1641  0D82  00FA               	movwf	___lwmod@dividend
  1642  0D83  120A  158A  22D9  120A  158A  	fcall	___lwmod
  1643  0D88  0878               	movf	?___lwmod,w
  1644  0D89  3E30               	addlw	48
  1645  0D8A  1283               	bcf	3,5	;RP0=0, select bank0
  1646  0D8B  1303               	bcf	3,6	;RP1=0, select bank0
  1647  0D8C  00A4               	movwf	??_sprintf+1
  1648  0D8D  0824               	movf	??_sprintf+1,w
  1649  0D8E  00AC               	movwf	sprintf@c
  1650  0D8F                     l1928:
  1651                           
  1652                           ;C:\Program Files\Microchip\xc8\v2.36\pic\sources\c90\common\doprnt.c: 1549:    };C:\Pro
      +                          gram Files\Microchip\xc8\v2.36\pic\sources\c90\common\doprnt.c: 1550:    ((*sp++ = (c)))
      +                          ;
  1653  0D8F  082C               	movf	sprintf@c,w
  1654  0D90  00A3               	movwf	??_sprintf
  1655  0D91  082B               	movf	sprintf@sp,w
  1656  0D92  0084               	movwf	4
  1657  0D93  0823               	movf	??_sprintf,w
  1658  0D94  1383               	bcf	3,7	;select IRP bank0
  1659  0D95  0080               	movwf	0
  1660  0D96                     l1930:
  1661  0D96  3001               	movlw	1
  1662  0D97  00A3               	movwf	??_sprintf
  1663  0D98  0823               	movf	??_sprintf,w
  1664  0D99  07AB               	addwf	sprintf@sp,f
  1665  0D9A                     l1932:
  1666                           
  1667                           ;C:\Program Files\Microchip\xc8\v2.36\pic\sources\c90\common\doprnt.c: 1500:   while(pre
      +                          c--) {
  1668  0D9A  30FF               	movlw	255
  1669  0D9B  00A3               	movwf	??_sprintf
  1670  0D9C  0823               	movf	??_sprintf,w
  1671  0D9D  07AA               	addwf	sprintf@prec,f
  1672  0D9E  0A2A               	incf	sprintf@prec,w
  1673  0D9F  1D03               	btfss	3,2
  1674  0DA0  2DA2               	goto	u2231
  1675  0DA1  2DA3               	goto	u2230
  1676  0DA2                     u2231:
  1677  0DA2  2D61               	goto	l1926
  1678  0DA3                     u2230:
  1679  0DA3                     l1934:
  1680                           
  1681                           ;C:\Program Files\Microchip\xc8\v2.36\pic\sources\c90\common\doprnt.c: 553:  while((c = 
      +                          *f++)) {
  1682  0DA3  3001               	movlw	1
  1683  0DA4  07A0               	addwf	sprintf@f,f
  1684  0DA5  30FF               	movlw	-1
  1685  0DA6  0720               	addwf	sprintf@f,w
  1686  0DA7  0084               	movwf	4
  1687  0DA8  120A  158A  200A  120A  158A  	fcall	stringdir
  1688  0DAD  00A3               	movwf	??_sprintf
  1689  0DAE  0823               	movf	??_sprintf,w
  1690  0DAF  00AC               	movwf	sprintf@c
  1691  0DB0  082C               	movf	sprintf@c,w
  1692  0DB1  1D03               	btfss	3,2
  1693  0DB2  2DB4               	goto	u2241
  1694  0DB3  2DB5               	goto	u2240
  1695  0DB4                     u2241:
  1696  0DB4  2CF5               	goto	l1890
  1697  0DB5                     u2240:
  1698  0DB5                     l1936:
  1699                           
  1700                           ;C:\Program Files\Microchip\xc8\v2.36\pic\sources\c90\common\doprnt.c: 1564:  *sp = 0;
  1701  0DB5  082B               	movf	sprintf@sp,w
  1702  0DB6  0084               	movwf	4
  1703  0DB7  1383               	bcf	3,7	;select IRP bank0
  1704  0DB8  0180               	clrf	0
  1705  0DB9                     l270:
  1706  0DB9  0008               	return
  1707  0DBA                     __end_of_sprintf:
  1708                           
  1709                           	psect	text2
  1710  0AD9                     __ptext2:	
  1711 ;; *************** function ___lwmod *****************
  1712 ;; Defined at:
  1713 ;;		line 5 in file "C:\Program Files\Microchip\xc8\v2.36\pic\sources\c90\common\lwmod.c"
  1714 ;; Parameters:    Size  Location     Type
  1715 ;;  divisor         2    8[COMMON] unsigned int 
  1716 ;;  dividend        2   10[COMMON] unsigned int 
  1717 ;; Auto vars:     Size  Location     Type
  1718 ;;  counter         1   13[COMMON] unsigned char 
  1719 ;; Return value:  Size  Location     Type
  1720 ;;                  2    8[COMMON] unsigned int 
  1721 ;; Registers used:
  1722 ;;		wreg, status,2, status,0
  1723 ;; Tracked objects:
  1724 ;;		On entry : 0/0
  1725 ;;		On exit  : 0/0
  1726 ;;		Unchanged: 0/0
  1727 ;; Data sizes:     COMMON   BANK0   BANK1   BANK3   BANK2
  1728 ;;      Params:         4       0       0       0       0
  1729 ;;      Locals:         1       0       0       0       0
  1730 ;;      Temps:          1       0       0       0       0
  1731 ;;      Totals:         6       0       0       0       0
  1732 ;;Total ram usage:        6 bytes
  1733 ;; Hardware stack levels used: 1
  1734 ;; This function calls:
  1735 ;;		Nothing
  1736 ;; This function is called by:
  1737 ;;		_sprintf
  1738 ;; This function uses a non-reentrant model
  1739 ;;
  1740                           
  1741  0AD9                     ___lwmod:	
  1742                           ;psect for function ___lwmod
  1743                           
  1744  0AD9                     l1768:	
  1745                           ;incstack = 0
  1746                           ; Regs used in ___lwmod: [wreg+status,2+status,0]
  1747                           
  1748  0AD9  0878               	movf	___lwmod@divisor,w
  1749  0ADA  0479               	iorwf	___lwmod@divisor+1,w
  1750  0ADB  1903               	btfsc	3,2
  1751  0ADC  2ADE               	goto	u1941
  1752  0ADD  2ADF               	goto	u1940
  1753  0ADE                     u1941:
  1754  0ADE  2B0E               	goto	l1786
  1755  0ADF                     u1940:
  1756  0ADF                     l1770:
  1757  0ADF  01FD               	clrf	___lwmod@counter
  1758  0AE0  0AFD               	incf	___lwmod@counter,f
  1759  0AE1  2AED               	goto	l1776
  1760  0AE2                     l1772:
  1761  0AE2  3001               	movlw	1
  1762  0AE3                     u1955:
  1763  0AE3  1003               	clrc
  1764  0AE4  0DF8               	rlf	___lwmod@divisor,f
  1765  0AE5  0DF9               	rlf	___lwmod@divisor+1,f
  1766  0AE6  3EFF               	addlw	-1
  1767  0AE7  1D03               	skipz
  1768  0AE8  2AE3               	goto	u1955
  1769  0AE9                     l1774:
  1770  0AE9  3001               	movlw	1
  1771  0AEA  00FC               	movwf	??___lwmod
  1772  0AEB  087C               	movf	??___lwmod,w
  1773  0AEC  07FD               	addwf	___lwmod@counter,f
  1774  0AED                     l1776:
  1775  0AED  1FF9               	btfss	___lwmod@divisor+1,7
  1776  0AEE  2AF0               	goto	u1961
  1777  0AEF  2AF1               	goto	u1960
  1778  0AF0                     u1961:
  1779  0AF0  2AE2               	goto	l1772
  1780  0AF1                     u1960:
  1781  0AF1                     l1778:
  1782  0AF1  0879               	movf	___lwmod@divisor+1,w
  1783  0AF2  027B               	subwf	___lwmod@dividend+1,w
  1784  0AF3  1D03               	skipz
  1785  0AF4  2AF7               	goto	u1975
  1786  0AF5  0878               	movf	___lwmod@divisor,w
  1787  0AF6  027A               	subwf	___lwmod@dividend,w
  1788  0AF7                     u1975:
  1789  0AF7  1C03               	skipc
  1790  0AF8  2AFA               	goto	u1971
  1791  0AF9  2AFB               	goto	u1970
  1792  0AFA                     u1971:
  1793  0AFA  2B01               	goto	l1782
  1794  0AFB                     u1970:
  1795  0AFB                     l1780:
  1796  0AFB  0878               	movf	___lwmod@divisor,w
  1797  0AFC  02FA               	subwf	___lwmod@dividend,f
  1798  0AFD  0879               	movf	___lwmod@divisor+1,w
  1799  0AFE  1C03               	skipc
  1800  0AFF  03FB               	decf	___lwmod@dividend+1,f
  1801  0B00  02FB               	subwf	___lwmod@dividend+1,f
  1802  0B01                     l1782:
  1803  0B01  3001               	movlw	1
  1804  0B02                     u1985:
  1805  0B02  1003               	clrc
  1806  0B03  0CF9               	rrf	___lwmod@divisor+1,f
  1807  0B04  0CF8               	rrf	___lwmod@divisor,f
  1808  0B05  3EFF               	addlw	-1
  1809  0B06  1D03               	skipz
  1810  0B07  2B02               	goto	u1985
  1811  0B08                     l1784:
  1812  0B08  3001               	movlw	1
  1813  0B09  02FD               	subwf	___lwmod@counter,f
  1814  0B0A  1D03               	btfss	3,2
  1815  0B0B  2B0D               	goto	u1991
  1816  0B0C  2B0E               	goto	u1990
  1817  0B0D                     u1991:
  1818  0B0D  2AF1               	goto	l1778
  1819  0B0E                     u1990:
  1820  0B0E                     l1786:
  1821  0B0E  087B               	movf	___lwmod@dividend+1,w
  1822  0B0F  00F9               	movwf	?___lwmod+1
  1823  0B10  087A               	movf	___lwmod@dividend,w
  1824  0B11  00F8               	movwf	?___lwmod
  1825  0B12                     l556:
  1826  0B12  0008               	return
  1827  0B13                     __end_of___lwmod:
  1828                           
  1829                           	psect	text3
  1830  0B51                     __ptext3:	
  1831 ;; *************** function ___lwdiv *****************
  1832 ;; Defined at:
  1833 ;;		line 5 in file "C:\Program Files\Microchip\xc8\v2.36\pic\sources\c90\common\lwdiv.c"
  1834 ;; Parameters:    Size  Location     Type
  1835 ;;  divisor         2    0[COMMON] unsigned int 
  1836 ;;  dividend        2    2[COMMON] unsigned int 
  1837 ;; Auto vars:     Size  Location     Type
  1838 ;;  quotient        2    5[COMMON] unsigned int 
  1839 ;;  counter         1    7[COMMON] unsigned char 
  1840 ;; Return value:  Size  Location     Type
  1841 ;;                  2    0[COMMON] unsigned int 
  1842 ;; Registers used:
  1843 ;;		wreg, status,2, status,0
  1844 ;; Tracked objects:
  1845 ;;		On entry : 0/0
  1846 ;;		On exit  : 0/0
  1847 ;;		Unchanged: 0/0
  1848 ;; Data sizes:     COMMON   BANK0   BANK1   BANK3   BANK2
  1849 ;;      Params:         4       0       0       0       0
  1850 ;;      Locals:         3       0       0       0       0
  1851 ;;      Temps:          1       0       0       0       0
  1852 ;;      Totals:         8       0       0       0       0
  1853 ;;Total ram usage:        8 bytes
  1854 ;; Hardware stack levels used: 1
  1855 ;; This function calls:
  1856 ;;		Nothing
  1857 ;; This function is called by:
  1858 ;;		_sprintf
  1859 ;; This function uses a non-reentrant model
  1860 ;;
  1861                           
  1862  0B51                     ___lwdiv:	
  1863                           ;psect for function ___lwdiv
  1864                           
  1865  0B51                     l1742:	
  1866                           ;incstack = 0
  1867                           ; Regs used in ___lwdiv: [wreg+status,2+status,0]
  1868                           
  1869  0B51  01F5               	clrf	___lwdiv@quotient
  1870  0B52  01F6               	clrf	___lwdiv@quotient+1
  1871  0B53                     l1744:
  1872  0B53  0870               	movf	___lwdiv@divisor,w
  1873  0B54  0471               	iorwf	___lwdiv@divisor+1,w
  1874  0B55  1903               	btfsc	3,2
  1875  0B56  2B58               	goto	u1871
  1876  0B57  2B59               	goto	u1870
  1877  0B58                     u1871:
  1878  0B58  2B90               	goto	l1764
  1879  0B59                     u1870:
  1880  0B59                     l1746:
  1881  0B59  01F7               	clrf	___lwdiv@counter
  1882  0B5A  0AF7               	incf	___lwdiv@counter,f
  1883  0B5B  2B67               	goto	l1752
  1884  0B5C                     l1748:
  1885  0B5C  3001               	movlw	1
  1886  0B5D                     u1885:
  1887  0B5D  1003               	clrc
  1888  0B5E  0DF0               	rlf	___lwdiv@divisor,f
  1889  0B5F  0DF1               	rlf	___lwdiv@divisor+1,f
  1890  0B60  3EFF               	addlw	-1
  1891  0B61  1D03               	skipz
  1892  0B62  2B5D               	goto	u1885
  1893  0B63                     l1750:
  1894  0B63  3001               	movlw	1
  1895  0B64  00F4               	movwf	??___lwdiv
  1896  0B65  0874               	movf	??___lwdiv,w
  1897  0B66  07F7               	addwf	___lwdiv@counter,f
  1898  0B67                     l1752:
  1899  0B67  1FF1               	btfss	___lwdiv@divisor+1,7
  1900  0B68  2B6A               	goto	u1891
  1901  0B69  2B6B               	goto	u1890
  1902  0B6A                     u1891:
  1903  0B6A  2B5C               	goto	l1748
  1904  0B6B                     u1890:
  1905  0B6B                     l1754:
  1906  0B6B  3001               	movlw	1
  1907  0B6C                     u1905:
  1908  0B6C  1003               	clrc
  1909  0B6D  0DF5               	rlf	___lwdiv@quotient,f
  1910  0B6E  0DF6               	rlf	___lwdiv@quotient+1,f
  1911  0B6F  3EFF               	addlw	-1
  1912  0B70  1D03               	skipz
  1913  0B71  2B6C               	goto	u1905
  1914  0B72  0871               	movf	___lwdiv@divisor+1,w
  1915  0B73  0273               	subwf	___lwdiv@dividend+1,w
  1916  0B74  1D03               	skipz
  1917  0B75  2B78               	goto	u1915
  1918  0B76  0870               	movf	___lwdiv@divisor,w
  1919  0B77  0272               	subwf	___lwdiv@dividend,w
  1920  0B78                     u1915:
  1921  0B78  1C03               	skipc
  1922  0B79  2B7B               	goto	u1911
  1923  0B7A  2B7C               	goto	u1910
  1924  0B7B                     u1911:
  1925  0B7B  2B83               	goto	l1760
  1926  0B7C                     u1910:
  1927  0B7C                     l1756:
  1928  0B7C  0870               	movf	___lwdiv@divisor,w
  1929  0B7D  02F2               	subwf	___lwdiv@dividend,f
  1930  0B7E  0871               	movf	___lwdiv@divisor+1,w
  1931  0B7F  1C03               	skipc
  1932  0B80  03F3               	decf	___lwdiv@dividend+1,f
  1933  0B81  02F3               	subwf	___lwdiv@dividend+1,f
  1934  0B82                     l1758:
  1935  0B82  1475               	bsf	___lwdiv@quotient,0
  1936  0B83                     l1760:
  1937  0B83  3001               	movlw	1
  1938  0B84                     u1925:
  1939  0B84  1003               	clrc
  1940  0B85  0CF1               	rrf	___lwdiv@divisor+1,f
  1941  0B86  0CF0               	rrf	___lwdiv@divisor,f
  1942  0B87  3EFF               	addlw	-1
  1943  0B88  1D03               	skipz
  1944  0B89  2B84               	goto	u1925
  1945  0B8A                     l1762:
  1946  0B8A  3001               	movlw	1
  1947  0B8B  02F7               	subwf	___lwdiv@counter,f
  1948  0B8C  1D03               	btfss	3,2
  1949  0B8D  2B8F               	goto	u1931
  1950  0B8E  2B90               	goto	u1930
  1951  0B8F                     u1931:
  1952  0B8F  2B6B               	goto	l1754
  1953  0B90                     u1930:
  1954  0B90                     l1764:
  1955  0B90  0876               	movf	___lwdiv@quotient+1,w
  1956  0B91  00F1               	movwf	?___lwdiv+1
  1957  0B92  0875               	movf	___lwdiv@quotient,w
  1958  0B93  00F0               	movwf	?___lwdiv
  1959  0B94                     l546:
  1960  0B94  0008               	return
  1961  0B95                     __end_of___lwdiv:
  1962                           
  1963                           	psect	text4
  1964  0961                     __ptext4:	
  1965 ;; *************** function _get_val *****************
  1966 ;; Defined at:
  1967 ;;		line 41 in file "newmain.c"
  1968 ;; Parameters:    Size  Location     Type
  1969 ;;		None
  1970 ;; Auto vars:     Size  Location     Type
  1971 ;;		None
  1972 ;; Return value:  Size  Location     Type
  1973 ;;                  2    0[COMMON] unsigned int 
  1974 ;; Registers used:
  1975 ;;		wreg
  1976 ;; Tracked objects:
  1977 ;;		On entry : 0/0
  1978 ;;		On exit  : 0/0
  1979 ;;		Unchanged: 0/0
  1980 ;; Data sizes:     COMMON   BANK0   BANK1   BANK3   BANK2
  1981 ;;      Params:         2       0       0       0       0
  1982 ;;      Locals:         0       0       0       0       0
  1983 ;;      Temps:          0       0       0       0       0
  1984 ;;      Totals:         2       0       0       0       0
  1985 ;;Total ram usage:        2 bytes
  1986 ;; Hardware stack levels used: 1
  1987 ;; This function calls:
  1988 ;;		Nothing
  1989 ;; This function is called by:
  1990 ;;		_main
  1991 ;; This function uses a non-reentrant model
  1992 ;;
  1993                           
  1994  0961                     _get_val:	
  1995                           ;psect for function _get_val
  1996                           
  1997  0961                     l1804:	
  1998                           ;incstack = 0
  1999                           ; Regs used in _get_val: [wreg]
  2000                           
  2001                           
  2002                           ;newmain.c: 43:     ADCON0bits.ADON = 1;
  2003  0961  1283               	bcf	3,5	;RP0=0, select bank0
  2004  0962  1303               	bcf	3,6	;RP1=0, select bank0
  2005  0963  141F               	bsf	31,0	;volatile
  2006                           
  2007                           ;newmain.c: 45:     ADCON0bits.GO_nDONE = 1;
  2008  0964  151F               	bsf	31,2	;volatile
  2009  0965                     l68:	
  2010                           ;newmain.c: 47:     while(ADCON0bits.GO_nDONE);
  2011                           
  2012  0965  191F               	btfsc	31,2	;volatile
  2013  0966  2968               	goto	u2031
  2014  0967  2969               	goto	u2030
  2015  0968                     u2031:
  2016  0968  2965               	goto	l68
  2017  0969                     u2030:
  2018  0969                     l1806:
  2019                           
  2020                           ;newmain.c: 48:     return ((ADRESH<<8)+ADRESL);
  2021  0969  081E               	movf	30,w	;volatile
  2022  096A  00F1               	movwf	?_get_val+1
  2023  096B  1683               	bsf	3,5	;RP0=1, select bank1
  2024  096C  1303               	bcf	3,6	;RP1=0, select bank1
  2025  096D  081E               	movf	30,w	;volatile
  2026  096E  00F0               	movwf	?_get_val
  2027  096F                     l71:
  2028  096F  0008               	return
  2029  0970                     __end_of_get_val:
  2030                           
  2031                           	psect	text5
  2032  0C31                     __ptext5:	
  2033 ;; *************** function ___xxtofl *****************
  2034 ;; Defined at:
  2035 ;;		line 10 in file "C:\Program Files\Microchip\xc8\v2.36\pic\sources\c90\common\xxtofl.c"
  2036 ;; Parameters:    Size  Location     Type
  2037 ;;  sign            1    wreg     unsigned char 
  2038 ;;  val             4    2[COMMON] long 
  2039 ;; Auto vars:     Size  Location     Type
  2040 ;;  sign            1    0[BANK0 ] unsigned char 
  2041 ;;  arg             4    2[BANK0 ] unsigned long 
  2042 ;;  exp             1    1[BANK0 ] unsigned char 
  2043 ;; Return value:  Size  Location     Type
  2044 ;;                  4    2[COMMON] unsigned char 
  2045 ;; Registers used:
  2046 ;;		wreg, status,2, status,0
  2047 ;; Tracked objects:
  2048 ;;		On entry : 0/0
  2049 ;;		On exit  : 0/0
  2050 ;;		Unchanged: 0/0
  2051 ;; Data sizes:     COMMON   BANK0   BANK1   BANK3   BANK2
  2052 ;;      Params:         4       0       0       0       0
  2053 ;;      Locals:         0       6       0       0       0
  2054 ;;      Temps:          4       0       0       0       0
  2055 ;;      Totals:         8       6       0       0       0
  2056 ;;Total ram usage:       14 bytes
  2057 ;; Hardware stack levels used: 1
  2058 ;; This function calls:
  2059 ;;		Nothing
  2060 ;; This function is called by:
  2061 ;;		_main
  2062 ;; This function uses a non-reentrant model
  2063 ;;
  2064                           
  2065  0C31                     ___xxtofl:	
  2066                           ;psect for function ___xxtofl
  2067                           
  2068                           
  2069                           ;incstack = 0
  2070                           ; Regs used in ___xxtofl: [wreg+status,2+status,0]
  2071                           ;___xxtofl@sign stored from wreg
  2072  0C31  1283               	bcf	3,5	;RP0=0, select bank0
  2073  0C32  1303               	bcf	3,6	;RP1=0, select bank0
  2074  0C33  00A0               	movwf	___xxtofl@sign
  2075  0C34                     l2456:
  2076  0C34  0820               	movf	___xxtofl@sign,w
  2077  0C35  1903               	btfsc	3,2
  2078  0C36  2C38               	goto	u3471
  2079  0C37  2C39               	goto	u3470
  2080  0C38                     u3471:
  2081  0C38  2C4D               	goto	l2462
  2082  0C39                     u3470:
  2083  0C39                     l2458:
  2084  0C39  1FF5               	btfss	___xxtofl@val+3,7
  2085  0C3A  2C3C               	goto	u3481
  2086  0C3B  2C3D               	goto	u3480
  2087  0C3C                     u3481:
  2088  0C3C  2C4D               	goto	l2462
  2089  0C3D                     u3480:
  2090  0C3D                     l2460:
  2091  0C3D  0972               	comf	___xxtofl@val,w
  2092  0C3E  00A2               	movwf	___xxtofl@arg
  2093  0C3F  0973               	comf	___xxtofl@val+1,w
  2094  0C40  00A3               	movwf	___xxtofl@arg+1
  2095  0C41  0974               	comf	___xxtofl@val+2,w
  2096  0C42  00A4               	movwf	___xxtofl@arg+2
  2097  0C43  0975               	comf	___xxtofl@val+3,w
  2098  0C44  00A5               	movwf	___xxtofl@arg+3
  2099  0C45  0AA2               	incf	___xxtofl@arg,f
  2100  0C46  1903               	skipnz
  2101  0C47  0AA3               	incf	___xxtofl@arg+1,f
  2102  0C48  1903               	skipnz
  2103  0C49  0AA4               	incf	___xxtofl@arg+2,f
  2104  0C4A  1903               	skipnz
  2105  0C4B  0AA5               	incf	___xxtofl@arg+3,f
  2106  0C4C  2C55               	goto	l707
  2107  0C4D                     l2462:
  2108  0C4D  0875               	movf	___xxtofl@val+3,w
  2109  0C4E  00A5               	movwf	___xxtofl@arg+3
  2110  0C4F  0874               	movf	___xxtofl@val+2,w
  2111  0C50  00A4               	movwf	___xxtofl@arg+2
  2112  0C51  0873               	movf	___xxtofl@val+1,w
  2113  0C52  00A3               	movwf	___xxtofl@arg+1
  2114  0C53  0872               	movf	___xxtofl@val,w
  2115  0C54  00A2               	movwf	___xxtofl@arg
  2116  0C55                     l707:
  2117  0C55  0875               	movf	___xxtofl@val+3,w
  2118  0C56  0474               	iorwf	___xxtofl@val+2,w
  2119  0C57  0473               	iorwf	___xxtofl@val+1,w
  2120  0C58  0472               	iorwf	___xxtofl@val,w
  2121  0C59  1D03               	skipz
  2122  0C5A  2C5C               	goto	u3491
  2123  0C5B  2C5D               	goto	u3490
  2124  0C5C                     u3491:
  2125  0C5C  2C66               	goto	l2468
  2126  0C5D                     u3490:
  2127  0C5D                     l2464:
  2128  0C5D  3000               	movlw	0
  2129  0C5E  00F5               	movwf	?___xxtofl+3
  2130  0C5F  3000               	movlw	0
  2131  0C60  00F4               	movwf	?___xxtofl+2
  2132  0C61  3000               	movlw	0
  2133  0C62  00F3               	movwf	?___xxtofl+1
  2134  0C63  3000               	movlw	0
  2135  0C64  00F2               	movwf	?___xxtofl
  2136  0C65  2CEC               	goto	l709
  2137  0C66                     l2468:
  2138  0C66  3096               	movlw	150
  2139  0C67  00F6               	movwf	??___xxtofl
  2140  0C68  0876               	movf	??___xxtofl,w
  2141  0C69  00A1               	movwf	___xxtofl@exp
  2142  0C6A  2C78               	goto	l2472
  2143  0C6B                     l2470:
  2144  0C6B  3001               	movlw	1
  2145  0C6C  00F6               	movwf	??___xxtofl
  2146  0C6D  0876               	movf	??___xxtofl,w
  2147  0C6E  07A1               	addwf	___xxtofl@exp,f
  2148  0C6F  3001               	movlw	1
  2149  0C70                     u3505:
  2150  0C70  1003               	clrc
  2151  0C71  0CA5               	rrf	___xxtofl@arg+3,f
  2152  0C72  0CA4               	rrf	___xxtofl@arg+2,f
  2153  0C73  0CA3               	rrf	___xxtofl@arg+1,f
  2154  0C74  0CA2               	rrf	___xxtofl@arg,f
  2155  0C75  3EFF               	addlw	-1
  2156  0C76  1D03               	skipz
  2157  0C77  2C70               	goto	u3505
  2158  0C78                     l2472:
  2159  0C78  30FE               	movlw	254
  2160  0C79  0525               	andwf	___xxtofl@arg+3,w
  2161  0C7A  1D03               	btfss	3,2
  2162  0C7B  2C7D               	goto	u3511
  2163  0C7C  2C7E               	goto	u3510
  2164  0C7D                     u3511:
  2165  0C7D  2C6B               	goto	l2470
  2166  0C7E                     u3510:
  2167  0C7E  2C9A               	goto	l713
  2168  0C7F                     l2474:
  2169  0C7F  3001               	movlw	1
  2170  0C80  00F6               	movwf	??___xxtofl
  2171  0C81  0876               	movf	??___xxtofl,w
  2172  0C82  07A1               	addwf	___xxtofl@exp,f
  2173  0C83                     l2476:
  2174  0C83  3001               	movlw	1
  2175  0C84  07A2               	addwf	___xxtofl@arg,f
  2176  0C85  3000               	movlw	0
  2177  0C86  1803               	skipnc
  2178  0C87  3001               	movlw	1
  2179  0C88  07A3               	addwf	___xxtofl@arg+1,f
  2180  0C89  3000               	movlw	0
  2181  0C8A  1803               	skipnc
  2182  0C8B  3001               	movlw	1
  2183  0C8C  07A4               	addwf	___xxtofl@arg+2,f
  2184  0C8D  3000               	movlw	0
  2185  0C8E  1803               	skipnc
  2186  0C8F  3001               	movlw	1
  2187  0C90  07A5               	addwf	___xxtofl@arg+3,f
  2188  0C91                     l2478:
  2189  0C91  3001               	movlw	1
  2190  0C92                     u3525:
  2191  0C92  1003               	clrc
  2192  0C93  0CA5               	rrf	___xxtofl@arg+3,f
  2193  0C94  0CA4               	rrf	___xxtofl@arg+2,f
  2194  0C95  0CA3               	rrf	___xxtofl@arg+1,f
  2195  0C96  0CA2               	rrf	___xxtofl@arg,f
  2196  0C97  3EFF               	addlw	-1
  2197  0C98  1D03               	skipz
  2198  0C99  2C92               	goto	u3525
  2199  0C9A                     l713:
  2200  0C9A  30FF               	movlw	255
  2201  0C9B  0525               	andwf	___xxtofl@arg+3,w
  2202  0C9C  1D03               	btfss	3,2
  2203  0C9D  2C9F               	goto	u3531
  2204  0C9E  2CA0               	goto	u3530
  2205  0C9F                     u3531:
  2206  0C9F  2C7F               	goto	l2474
  2207  0CA0                     u3530:
  2208  0CA0  2CAC               	goto	l2482
  2209  0CA1                     l2480:
  2210  0CA1  3001               	movlw	1
  2211  0CA2  02A1               	subwf	___xxtofl@exp,f
  2212  0CA3  3001               	movlw	1
  2213  0CA4  00F6               	movwf	??___xxtofl
  2214  0CA5                     u3545:
  2215  0CA5  1003               	clrc
  2216  0CA6  0DA2               	rlf	___xxtofl@arg,f
  2217  0CA7  0DA3               	rlf	___xxtofl@arg+1,f
  2218  0CA8  0DA4               	rlf	___xxtofl@arg+2,f
  2219  0CA9  0DA5               	rlf	___xxtofl@arg+3,f
  2220  0CAA  0BF6               	decfsz	??___xxtofl,f
  2221  0CAB  2CA5               	goto	u3545
  2222  0CAC                     l2482:
  2223  0CAC  1BA4               	btfsc	___xxtofl@arg+2,7
  2224  0CAD  2CAF               	goto	u3551
  2225  0CAE  2CB0               	goto	u3550
  2226  0CAF                     u3551:
  2227  0CAF  2CB6               	goto	l720
  2228  0CB0                     u3550:
  2229  0CB0                     l2484:
  2230  0CB0  3002               	movlw	2
  2231  0CB1  0221               	subwf	___xxtofl@exp,w
  2232  0CB2  1803               	skipnc
  2233  0CB3  2CB5               	goto	u3561
  2234  0CB4  2CB6               	goto	u3560
  2235  0CB5                     u3561:
  2236  0CB5  2CA1               	goto	l2480
  2237  0CB6                     u3560:
  2238  0CB6                     l720:
  2239  0CB6  1821               	btfsc	___xxtofl@exp,0
  2240  0CB7  2CB9               	goto	u3571
  2241  0CB8  2CBA               	goto	u3570
  2242  0CB9                     u3571:
  2243  0CB9  2CC2               	goto	l721
  2244  0CBA                     u3570:
  2245  0CBA                     l2486:
  2246  0CBA  30FF               	movlw	255
  2247  0CBB  05A2               	andwf	___xxtofl@arg,f
  2248  0CBC  30FF               	movlw	255
  2249  0CBD  05A3               	andwf	___xxtofl@arg+1,f
  2250  0CBE  307F               	movlw	127
  2251  0CBF  05A4               	andwf	___xxtofl@arg+2,f
  2252  0CC0  30FF               	movlw	255
  2253  0CC1  05A5               	andwf	___xxtofl@arg+3,f
  2254  0CC2                     l721:
  2255  0CC2  1003               	clrc
  2256  0CC3  0CA1               	rrf	___xxtofl@exp,f
  2257  0CC4                     l2488:
  2258  0CC4  0821               	movf	___xxtofl@exp,w
  2259  0CC5  00F6               	movwf	??___xxtofl
  2260  0CC6  01F7               	clrf	??___xxtofl+1
  2261  0CC7  01F8               	clrf	??___xxtofl+2
  2262  0CC8  01F9               	clrf	??___xxtofl+3
  2263  0CC9  3018               	movlw	24
  2264  0CCA                     u3585:
  2265  0CCA  1003               	clrc
  2266  0CCB  0DF6               	rlf	??___xxtofl,f
  2267  0CCC  0DF7               	rlf	??___xxtofl+1,f
  2268  0CCD  0DF8               	rlf	??___xxtofl+2,f
  2269  0CCE  0DF9               	rlf	??___xxtofl+3,f
  2270  0CCF                     u3580:
  2271  0CCF  3EFF               	addlw	-1
  2272  0CD0  1D03               	skipz
  2273  0CD1  2CCA               	goto	u3585
  2274  0CD2  0876               	movf	??___xxtofl,w
  2275  0CD3  04A2               	iorwf	___xxtofl@arg,f
  2276  0CD4  0877               	movf	??___xxtofl+1,w
  2277  0CD5  04A3               	iorwf	___xxtofl@arg+1,f
  2278  0CD6  0878               	movf	??___xxtofl+2,w
  2279  0CD7  04A4               	iorwf	___xxtofl@arg+2,f
  2280  0CD8  0879               	movf	??___xxtofl+3,w
  2281  0CD9  04A5               	iorwf	___xxtofl@arg+3,f
  2282  0CDA                     l2490:
  2283  0CDA  0820               	movf	___xxtofl@sign,w
  2284  0CDB  1903               	btfsc	3,2
  2285  0CDC  2CDE               	goto	u3591
  2286  0CDD  2CDF               	goto	u3590
  2287  0CDE                     u3591:
  2288  0CDE  2CE4               	goto	l2496
  2289  0CDF                     u3590:
  2290  0CDF                     l2492:
  2291  0CDF  1FF5               	btfss	___xxtofl@val+3,7
  2292  0CE0  2CE2               	goto	u3601
  2293  0CE1  2CE3               	goto	u3600
  2294  0CE2                     u3601:
  2295  0CE2  2CE4               	goto	l2496
  2296  0CE3                     u3600:
  2297  0CE3                     l2494:
  2298  0CE3  17A5               	bsf	___xxtofl@arg+3,7
  2299  0CE4                     l2496:
  2300  0CE4  0825               	movf	___xxtofl@arg+3,w
  2301  0CE5  00F5               	movwf	?___xxtofl+3
  2302  0CE6  0824               	movf	___xxtofl@arg+2,w
  2303  0CE7  00F4               	movwf	?___xxtofl+2
  2304  0CE8  0823               	movf	___xxtofl@arg+1,w
  2305  0CE9  00F3               	movwf	?___xxtofl+1
  2306  0CEA  0822               	movf	___xxtofl@arg,w
  2307  0CEB  00F2               	movwf	?___xxtofl
  2308  0CEC                     l709:
  2309  0CEC  0008               	return
  2310  0CED                     __end_of___xxtofl:
  2311                           
  2312                           	psect	text6
  2313  0B95                     __ptext6:	
  2314 ;; *************** function ___fltol *****************
  2315 ;; Defined at:
  2316 ;;		line 43 in file "C:\Program Files\Microchip\xc8\v2.36\pic\sources\c90\common\fltol.c"
  2317 ;; Parameters:    Size  Location     Type
  2318 ;;  f1              4   74[BANK0 ] unsigned char 
  2319 ;; Auto vars:     Size  Location     Type
  2320 ;;  exp1            1   79[BANK0 ] unsigned char 
  2321 ;;  sign1           1   78[BANK0 ] unsigned char 
  2322 ;; Return value:  Size  Location     Type
  2323 ;;                  4   74[BANK0 ] long 
  2324 ;; Registers used:
  2325 ;;		wreg, status,2, status,0
  2326 ;; Tracked objects:
  2327 ;;		On entry : 0/0
  2328 ;;		On exit  : 0/0
  2329 ;;		Unchanged: 0/0
  2330 ;; Data sizes:     COMMON   BANK0   BANK1   BANK3   BANK2
  2331 ;;      Params:         0       4       0       0       0
  2332 ;;      Locals:         0       2       0       0       0
  2333 ;;      Temps:          0       0       5       0       0
  2334 ;;      Totals:         0       6       5       0       0
  2335 ;;Total ram usage:       11 bytes
  2336 ;; Hardware stack levels used: 1
  2337 ;; This function calls:
  2338 ;;		Nothing
  2339 ;; This function is called by:
  2340 ;;		_main
  2341 ;; This function uses a non-reentrant model
  2342 ;;
  2343                           
  2344  0B95                     ___fltol:	
  2345                           ;psect for function ___fltol
  2346                           
  2347  0B95                     l1944:	
  2348                           ;incstack = 0
  2349                           ; Regs used in ___fltol: [wreg+status,2+status,0]
  2350                           
  2351  0B95  1003               	clrc
  2352  0B96  1283               	bcf	3,5	;RP0=0, select bank0
  2353  0B97  1303               	bcf	3,6	;RP1=0, select bank0
  2354  0B98  0D6C               	rlf	___fltol@f1+2,w
  2355  0B99  0D6D               	rlf	___fltol@f1+3,w
  2356  0B9A  1683               	bsf	3,5	;RP0=1, select bank1
  2357  0B9B  1303               	bcf	3,6	;RP1=0, select bank1
  2358  0B9C  00CE               	movwf	??___fltol^(0+128)
  2359  0B9D  084E               	movf	??___fltol^(0+128),w
  2360  0B9E  1283               	bcf	3,5	;RP0=0, select bank0
  2361  0B9F  1303               	bcf	3,6	;RP1=0, select bank0
  2362  0BA0  00EF               	movwf	___fltol@exp1
  2363  0BA1  086F               	movf	___fltol@exp1,w
  2364  0BA2  1D03               	btfss	3,2
  2365  0BA3  2BA5               	goto	u2251
  2366  0BA4  2BA6               	goto	u2250
  2367  0BA5                     u2251:
  2368  0BA5  2BAF               	goto	l1950
  2369  0BA6                     u2250:
  2370  0BA6                     l1946:
  2371  0BA6  3000               	movlw	0
  2372  0BA7  00ED               	movwf	?___fltol+3
  2373  0BA8  3000               	movlw	0
  2374  0BA9  00EC               	movwf	?___fltol+2
  2375  0BAA  3000               	movlw	0
  2376  0BAB  00EB               	movwf	?___fltol+1
  2377  0BAC  3000               	movlw	0
  2378  0BAD  00EA               	movwf	?___fltol
  2379  0BAE  2C30               	goto	l460
  2380  0BAF                     l1950:
  2381  0BAF  086A               	movf	___fltol@f1,w
  2382  0BB0  1683               	bsf	3,5	;RP0=1, select bank1
  2383  0BB1  1303               	bcf	3,6	;RP1=0, select bank1
  2384  0BB2  00CE               	movwf	??___fltol^(0+128)
  2385  0BB3  1283               	bcf	3,5	;RP0=0, select bank0
  2386  0BB4  1303               	bcf	3,6	;RP1=0, select bank0
  2387  0BB5  086B               	movf	___fltol@f1+1,w
  2388  0BB6  1683               	bsf	3,5	;RP0=1, select bank1
  2389  0BB7  1303               	bcf	3,6	;RP1=0, select bank1
  2390  0BB8  00CF               	movwf	(??___fltol^(0+128)+1)
  2391  0BB9  1283               	bcf	3,5	;RP0=0, select bank0
  2392  0BBA  1303               	bcf	3,6	;RP1=0, select bank0
  2393  0BBB  086C               	movf	___fltol@f1+2,w
  2394  0BBC  1683               	bsf	3,5	;RP0=1, select bank1
  2395  0BBD  1303               	bcf	3,6	;RP1=0, select bank1
  2396  0BBE  00D0               	movwf	(??___fltol^(0+128)+2)
  2397  0BBF  1283               	bcf	3,5	;RP0=0, select bank0
  2398  0BC0  1303               	bcf	3,6	;RP1=0, select bank0
  2399  0BC1  086D               	movf	___fltol@f1+3,w
  2400  0BC2  1683               	bsf	3,5	;RP0=1, select bank1
  2401  0BC3  1303               	bcf	3,6	;RP1=0, select bank1
  2402  0BC4  00D1               	movwf	(??___fltol^(0+128)+3)
  2403  0BC5  301F               	movlw	31
  2404  0BC6                     u2265:
  2405  0BC6  1003               	clrc
  2406  0BC7  0CD1               	rrf	(??___fltol^(0+128)+3),f
  2407  0BC8  0CD0               	rrf	(??___fltol^(0+128)+2),f
  2408  0BC9  0CCF               	rrf	(??___fltol^(0+128)+1),f
  2409  0BCA  0CCE               	rrf	??___fltol^(0+128),f
  2410  0BCB                     u2260:
  2411  0BCB  3EFF               	addlw	-1
  2412  0BCC  1D03               	skipz
  2413  0BCD  2BC6               	goto	u2265
  2414  0BCE  084E               	movf	??___fltol^(0+128),w
  2415  0BCF  00D2               	movwf	(??___fltol+4)^(0+128)
  2416  0BD0  0852               	movf	(??___fltol+4)^(0+128),w
  2417  0BD1  1283               	bcf	3,5	;RP0=0, select bank0
  2418  0BD2  1303               	bcf	3,6	;RP1=0, select bank0
  2419  0BD3  00EE               	movwf	___fltol@sign1
  2420  0BD4                     l1952:
  2421  0BD4  17EC               	bsf	___fltol@f1+2,7
  2422  0BD5                     l1954:
  2423  0BD5  30FF               	movlw	255
  2424  0BD6  05EA               	andwf	___fltol@f1,f
  2425  0BD7  30FF               	movlw	255
  2426  0BD8  05EB               	andwf	___fltol@f1+1,f
  2427  0BD9  30FF               	movlw	255
  2428  0BDA  05EC               	andwf	___fltol@f1+2,f
  2429  0BDB  3000               	movlw	0
  2430  0BDC  05ED               	andwf	___fltol@f1+3,f
  2431  0BDD                     l1956:
  2432  0BDD  3096               	movlw	150
  2433  0BDE  02EF               	subwf	___fltol@exp1,f
  2434  0BDF                     l1958:
  2435  0BDF  1FEF               	btfss	___fltol@exp1,7
  2436  0BE0  2BE2               	goto	u2271
  2437  0BE1  2BE3               	goto	u2270
  2438  0BE2                     u2271:
  2439  0BE2  2C01               	goto	l1968
  2440  0BE3                     u2270:
  2441  0BE3                     l1960:
  2442  0BE3  086F               	movf	___fltol@exp1,w
  2443  0BE4  3A80               	xorlw	128
  2444  0BE5  3E97               	addlw	151
  2445  0BE6  1803               	skipnc
  2446  0BE7  2BE9               	goto	u2281
  2447  0BE8  2BEA               	goto	u2280
  2448  0BE9                     u2281:
  2449  0BE9  2BEB               	goto	l1966
  2450  0BEA                     u2280:
  2451  0BEA  2BA6               	goto	l1946
  2452  0BEB                     l1966:
  2453  0BEB  3001               	movlw	1
  2454  0BEC                     u2295:
  2455  0BEC  1003               	clrc
  2456  0BED  0CED               	rrf	___fltol@f1+3,f
  2457  0BEE  0CEC               	rrf	___fltol@f1+2,f
  2458  0BEF  0CEB               	rrf	___fltol@f1+1,f
  2459  0BF0  0CEA               	rrf	___fltol@f1,f
  2460  0BF1  3EFF               	addlw	-1
  2461  0BF2  1D03               	skipz
  2462  0BF3  2BEC               	goto	u2295
  2463  0BF4  3001               	movlw	1
  2464  0BF5  1683               	bsf	3,5	;RP0=1, select bank1
  2465  0BF6  1303               	bcf	3,6	;RP1=0, select bank1
  2466  0BF7  00CE               	movwf	??___fltol^(0+128)
  2467  0BF8  084E               	movf	??___fltol^(0+128),w
  2468  0BF9  1283               	bcf	3,5	;RP0=0, select bank0
  2469  0BFA  1303               	bcf	3,6	;RP1=0, select bank0
  2470  0BFB  07EF               	addwf	___fltol@exp1,f
  2471  0BFC  1D03               	btfss	3,2
  2472  0BFD  2BFF               	goto	u2301
  2473  0BFE  2C00               	goto	u2300
  2474  0BFF                     u2301:
  2475  0BFF  2BEB               	goto	l1966
  2476  0C00                     u2300:
  2477  0C00  2C20               	goto	l1976
  2478  0C01                     l1968:
  2479  0C01  3020               	movlw	32
  2480  0C02  026F               	subwf	___fltol@exp1,w
  2481  0C03  1C03               	skipc
  2482  0C04  2C06               	goto	u2311
  2483  0C05  2C07               	goto	u2310
  2484  0C06                     u2311:
  2485  0C06  2C1B               	goto	l467
  2486  0C07                     u2310:
  2487  0C07  2BA6               	goto	l1946
  2488  0C08                     l1974:
  2489  0C08  3001               	movlw	1
  2490  0C09  1683               	bsf	3,5	;RP0=1, select bank1
  2491  0C0A  1303               	bcf	3,6	;RP1=0, select bank1
  2492  0C0B  00CE               	movwf	??___fltol^(0+128)
  2493  0C0C                     u2325:
  2494  0C0C  1003               	clrc
  2495  0C0D  1283               	bcf	3,5	;RP0=0, select bank0
  2496  0C0E  1303               	bcf	3,6	;RP1=0, select bank0
  2497  0C0F  0DEA               	rlf	___fltol@f1,f
  2498  0C10  0DEB               	rlf	___fltol@f1+1,f
  2499  0C11  0DEC               	rlf	___fltol@f1+2,f
  2500  0C12  0DED               	rlf	___fltol@f1+3,f
  2501  0C13  1683               	bsf	3,5	;RP0=1, select bank1
  2502  0C14  1303               	bcf	3,6	;RP1=0, select bank1
  2503  0C15  0BCE               	decfsz	??___fltol^(0+128),f
  2504  0C16  2C0C               	goto	u2325
  2505  0C17  3001               	movlw	1
  2506  0C18  1283               	bcf	3,5	;RP0=0, select bank0
  2507  0C19  1303               	bcf	3,6	;RP1=0, select bank0
  2508  0C1A  02EF               	subwf	___fltol@exp1,f
  2509  0C1B                     l467:
  2510  0C1B  086F               	movf	___fltol@exp1,w
  2511  0C1C  1D03               	btfss	3,2
  2512  0C1D  2C1F               	goto	u2331
  2513  0C1E  2C20               	goto	u2330
  2514  0C1F                     u2331:
  2515  0C1F  2C08               	goto	l1974
  2516  0C20                     u2330:
  2517  0C20                     l1976:
  2518  0C20  086E               	movf	___fltol@sign1,w
  2519  0C21  1903               	btfsc	3,2
  2520  0C22  2C24               	goto	u2341
  2521  0C23  2C25               	goto	u2340
  2522  0C24                     u2341:
  2523  0C24  2C30               	goto	l470
  2524  0C25                     u2340:
  2525  0C25                     l1978:
  2526  0C25  09EA               	comf	___fltol@f1,f
  2527  0C26  09EB               	comf	___fltol@f1+1,f
  2528  0C27  09EC               	comf	___fltol@f1+2,f
  2529  0C28  09ED               	comf	___fltol@f1+3,f
  2530  0C29  0AEA               	incf	___fltol@f1,f
  2531  0C2A  1903               	skipnz
  2532  0C2B  0AEB               	incf	___fltol@f1+1,f
  2533  0C2C  1903               	skipnz
  2534  0C2D  0AEC               	incf	___fltol@f1+2,f
  2535  0C2E  1903               	skipnz
  2536  0C2F  0AED               	incf	___fltol@f1+3,f
  2537  0C30                     l470:
  2538  0C30                     l460:
  2539  0C30  0008               	return
  2540  0C31                     __end_of___fltol:
  2541                           
  2542                           	psect	text7
  2543  0492                     __ptext7:	
  2544 ;; *************** function ___flmul *****************
  2545 ;; Defined at:
  2546 ;;		line 8 in file "C:\Program Files\Microchip\xc8\v2.36\pic\sources\c90\common\sprcmul.c"
  2547 ;; Parameters:    Size  Location     Type
  2548 ;;  b               4    6[BANK0 ] long 
  2549 ;;  a               4   10[BANK0 ] long 
  2550 ;; Auto vars:     Size  Location     Type
  2551 ;;  prod            4   26[BANK0 ] struct .
  2552 ;;  grs             4   20[BANK0 ] unsigned long 
  2553 ;;  temp            2   30[BANK0 ] struct .
  2554 ;;  bexp            1   25[BANK0 ] unsigned char 
  2555 ;;  aexp            1   24[BANK0 ] unsigned char 
  2556 ;;  sign            1   19[BANK0 ] unsigned char 
  2557 ;; Return value:  Size  Location     Type
  2558 ;;                  4    6[BANK0 ] unsigned char 
  2559 ;; Registers used:
  2560 ;;		wreg, status,2, status,0, btemp+1, pclath, cstack
  2561 ;; Tracked objects:
  2562 ;;		On entry : 0/0
  2563 ;;		On exit  : 0/0
  2564 ;;		Unchanged: 0/0
  2565 ;; Data sizes:     COMMON   BANK0   BANK1   BANK3   BANK2
  2566 ;;      Params:         0       8       0       0       0
  2567 ;;      Locals:         0      13       0       0       0
  2568 ;;      Temps:          0       5       0       0       0
  2569 ;;      Totals:         0      26       0       0       0
  2570 ;;Total ram usage:       26 bytes
  2571 ;; Hardware stack levels used: 1
  2572 ;; Hardware stack levels required when called: 1
  2573 ;; This function calls:
  2574 ;;		__Umul8_16
  2575 ;; This function is called by:
  2576 ;;		_main
  2577 ;; This function uses a non-reentrant model
  2578 ;;
  2579                           
  2580  0492                     ___flmul:	
  2581                           ;psect for function ___flmul
  2582                           
  2583  0492                     l2316:	
  2584                           ;incstack = 0
  2585                           ; Regs used in ___flmul: [wreg+status,2+status,0+btemp+1+pclath+cstack]
  2586                           
  2587  0492  1283               	bcf	3,5	;RP0=0, select bank0
  2588  0493  1303               	bcf	3,6	;RP1=0, select bank0
  2589  0494  0829               	movf	___flmul@b+3,w
  2590  0495  3980               	andlw	128
  2591  0496  00AE               	movwf	??___flmul
  2592  0497  082E               	movf	??___flmul,w
  2593  0498  00B3               	movwf	___flmul@sign
  2594  0499                     l2318:
  2595  0499  0829               	movf	___flmul@b+3,w
  2596  049A  00AE               	movwf	??___flmul
  2597  049B  072E               	addwf	??___flmul,w
  2598  049C  00AF               	movwf	??___flmul+1
  2599  049D  082F               	movf	??___flmul+1,w
  2600  049E  00B9               	movwf	___flmul@bexp
  2601  049F                     l2320:
  2602  049F  1FA8               	btfss	___flmul@b+2,7
  2603  04A0  2CA2               	goto	u3101
  2604  04A1  2CA3               	goto	u3100
  2605  04A2                     u3101:
  2606  04A2  2CA4               	goto	l2324
  2607  04A3                     u3100:
  2608  04A3                     l2322:
  2609  04A3  1439               	bsf	___flmul@bexp,0
  2610  04A4                     l2324:
  2611  04A4  0839               	movf	___flmul@bexp,w
  2612  04A5  1903               	btfsc	3,2
  2613  04A6  2CA8               	goto	u3111
  2614  04A7  2CA9               	goto	u3110
  2615  04A8                     u3111:
  2616  04A8  2CB8               	goto	l2332
  2617  04A9                     u3110:
  2618  04A9                     l2326:
  2619  04A9  0A39               	incf	___flmul@bexp,w
  2620  04AA  1D03               	btfss	3,2
  2621  04AB  2CAD               	goto	u3121
  2622  04AC  2CAE               	goto	u3120
  2623  04AD                     u3121:
  2624  04AD  2CB6               	goto	l2330
  2625  04AE                     u3120:
  2626  04AE                     l2328:
  2627  04AE  3000               	movlw	0
  2628  04AF  00A9               	movwf	___flmul@b+3
  2629  04B0  3000               	movlw	0
  2630  04B1  00A8               	movwf	___flmul@b+2
  2631  04B2  3000               	movlw	0
  2632  04B3  00A7               	movwf	___flmul@b+1
  2633  04B4  3000               	movlw	0
  2634  04B5  00A6               	movwf	___flmul@b
  2635  04B6                     l2330:
  2636  04B6  17A8               	bsf	___flmul@b+2,7
  2637  04B7  2CC0               	goto	l2334
  2638  04B8                     l2332:
  2639  04B8  3000               	movlw	0
  2640  04B9  00A9               	movwf	___flmul@b+3
  2641  04BA  3000               	movlw	0
  2642  04BB  00A8               	movwf	___flmul@b+2
  2643  04BC  3000               	movlw	0
  2644  04BD  00A7               	movwf	___flmul@b+1
  2645  04BE  3000               	movlw	0
  2646  04BF  00A6               	movwf	___flmul@b
  2647  04C0                     l2334:
  2648  04C0  082D               	movf	___flmul@a+3,w
  2649  04C1  3980               	andlw	128
  2650  04C2  00AE               	movwf	??___flmul
  2651  04C3  082E               	movf	??___flmul,w
  2652  04C4  06B3               	xorwf	___flmul@sign,f
  2653  04C5                     l2336:
  2654  04C5  082D               	movf	___flmul@a+3,w
  2655  04C6  00AE               	movwf	??___flmul
  2656  04C7  072E               	addwf	??___flmul,w
  2657  04C8  00AF               	movwf	??___flmul+1
  2658  04C9  082F               	movf	??___flmul+1,w
  2659  04CA  00B8               	movwf	___flmul@aexp
  2660  04CB                     l2338:
  2661  04CB  1FAC               	btfss	___flmul@a+2,7
  2662  04CC  2CCE               	goto	u3131
  2663  04CD  2CCF               	goto	u3130
  2664  04CE                     u3131:
  2665  04CE  2CD0               	goto	l2342
  2666  04CF                     u3130:
  2667  04CF                     l2340:
  2668  04CF  1438               	bsf	___flmul@aexp,0
  2669  04D0                     l2342:
  2670  04D0  0838               	movf	___flmul@aexp,w
  2671  04D1  1903               	btfsc	3,2
  2672  04D2  2CD4               	goto	u3141
  2673  04D3  2CD5               	goto	u3140
  2674  04D4                     u3141:
  2675  04D4  2CE4               	goto	l2350
  2676  04D5                     u3140:
  2677  04D5                     l2344:
  2678  04D5  0A38               	incf	___flmul@aexp,w
  2679  04D6  1D03               	btfss	3,2
  2680  04D7  2CD9               	goto	u3151
  2681  04D8  2CDA               	goto	u3150
  2682  04D9                     u3151:
  2683  04D9  2CE2               	goto	l2348
  2684  04DA                     u3150:
  2685  04DA                     l2346:
  2686  04DA  3000               	movlw	0
  2687  04DB  00AD               	movwf	___flmul@a+3
  2688  04DC  3000               	movlw	0
  2689  04DD  00AC               	movwf	___flmul@a+2
  2690  04DE  3000               	movlw	0
  2691  04DF  00AB               	movwf	___flmul@a+1
  2692  04E0  3000               	movlw	0
  2693  04E1  00AA               	movwf	___flmul@a
  2694  04E2                     l2348:
  2695  04E2  17AC               	bsf	___flmul@a+2,7
  2696  04E3  2CEC               	goto	l2352
  2697  04E4                     l2350:
  2698  04E4  3000               	movlw	0
  2699  04E5  00AD               	movwf	___flmul@a+3
  2700  04E6  3000               	movlw	0
  2701  04E7  00AC               	movwf	___flmul@a+2
  2702  04E8  3000               	movlw	0
  2703  04E9  00AB               	movwf	___flmul@a+1
  2704  04EA  3000               	movlw	0
  2705  04EB  00AA               	movwf	___flmul@a
  2706  04EC                     l2352:
  2707  04EC  0838               	movf	___flmul@aexp,w
  2708  04ED  1903               	btfsc	3,2
  2709  04EE  2CF0               	goto	u3161
  2710  04EF  2CF1               	goto	u3160
  2711  04F0                     u3161:
  2712  04F0  2CF6               	goto	l2356
  2713  04F1                     u3160:
  2714  04F1                     l2354:
  2715  04F1  0839               	movf	___flmul@bexp,w
  2716  04F2  1D03               	btfss	3,2
  2717  04F3  2CF5               	goto	u3171
  2718  04F4  2CF6               	goto	u3170
  2719  04F5                     u3171:
  2720  04F5  2CFF               	goto	l2360
  2721  04F6                     u3170:
  2722  04F6                     l2356:
  2723  04F6  3000               	movlw	0
  2724  04F7  00A9               	movwf	?___flmul+3
  2725  04F8  3000               	movlw	0
  2726  04F9  00A8               	movwf	?___flmul+2
  2727  04FA  3000               	movlw	0
  2728  04FB  00A7               	movwf	?___flmul+1
  2729  04FC  3000               	movlw	0
  2730  04FD  00A6               	movwf	?___flmul
  2731  04FE  2FF2               	goto	l663
  2732  04FF                     l2360:
  2733  04FF  0826               	movf	___flmul@b,w
  2734  0500  00AE               	movwf	??___flmul
  2735  0501  082E               	movf	??___flmul,w
  2736  0502  00F0               	movwf	__Umul8_16@multiplicand
  2737  0503  082C               	movf	___flmul@a+2,w
  2738  0504  120A  158A  21D2  120A  118A  	fcall	__Umul8_16
  2739  0509  0871               	movf	?__Umul8_16+1,w
  2740  050A  1283               	bcf	3,5	;RP0=0, select bank0
  2741  050B  1303               	bcf	3,6	;RP1=0, select bank0
  2742  050C  00BF               	movwf	___flmul@temp+1
  2743  050D  0870               	movf	?__Umul8_16,w
  2744  050E  00BE               	movwf	___flmul@temp
  2745  050F                     l2362:
  2746  050F  083E               	movf	___flmul@temp,w
  2747  0510  00AE               	movwf	??___flmul
  2748  0511  01AF               	clrf	??___flmul+1
  2749  0512  01B0               	clrf	??___flmul+2
  2750  0513  01B1               	clrf	??___flmul+3
  2751  0514  0831               	movf	??___flmul+3,w
  2752  0515  00B7               	movwf	___flmul@grs+3
  2753  0516  0830               	movf	??___flmul+2,w
  2754  0517  00B6               	movwf	___flmul@grs+2
  2755  0518  082F               	movf	??___flmul+1,w
  2756  0519  00B5               	movwf	___flmul@grs+1
  2757  051A  082E               	movf	??___flmul,w
  2758  051B  00B4               	movwf	___flmul@grs
  2759  051C                     l2364:
  2760  051C  083F               	movf	___flmul@temp+1,w
  2761  051D  00AE               	movwf	??___flmul
  2762  051E  01AF               	clrf	??___flmul+1
  2763  051F  01B0               	clrf	??___flmul+2
  2764  0520  01B1               	clrf	??___flmul+3
  2765  0521  0831               	movf	??___flmul+3,w
  2766  0522  00BD               	movwf	___flmul@prod+3
  2767  0523  0830               	movf	??___flmul+2,w
  2768  0524  00BC               	movwf	___flmul@prod+2
  2769  0525  082F               	movf	??___flmul+1,w
  2770  0526  00BB               	movwf	___flmul@prod+1
  2771  0527  082E               	movf	??___flmul,w
  2772  0528  00BA               	movwf	___flmul@prod
  2773  0529  0827               	movf	___flmul@b+1,w
  2774  052A  00AE               	movwf	??___flmul
  2775  052B  082E               	movf	??___flmul,w
  2776  052C  00F0               	movwf	__Umul8_16@multiplicand
  2777  052D  082B               	movf	___flmul@a+1,w
  2778  052E  120A  158A  21D2  120A  118A  	fcall	__Umul8_16
  2779  0533  0871               	movf	?__Umul8_16+1,w
  2780  0534  1283               	bcf	3,5	;RP0=0, select bank0
  2781  0535  1303               	bcf	3,6	;RP1=0, select bank0
  2782  0536  00BF               	movwf	___flmul@temp+1
  2783  0537  0870               	movf	?__Umul8_16,w
  2784  0538  00BE               	movwf	___flmul@temp
  2785  0539                     l2366:
  2786  0539  083E               	movf	___flmul@temp,w
  2787  053A  00AE               	movwf	??___flmul
  2788  053B  01AF               	clrf	??___flmul+1
  2789  053C  01B0               	clrf	??___flmul+2
  2790  053D  01B1               	clrf	??___flmul+3
  2791  053E  082E               	movf	??___flmul,w
  2792  053F  07B4               	addwf	___flmul@grs,f
  2793  0540  082F               	movf	??___flmul+1,w
  2794  0541  1103               	clrz
  2795  0542  1803               	skipnc
  2796  0543  3E01               	addlw	1
  2797  0544  1903               	skipnz
  2798  0545  2D47               	goto	u3181
  2799  0546  07B5               	addwf	___flmul@grs+1,f
  2800  0547                     u3181:
  2801  0547  0830               	movf	??___flmul+2,w
  2802  0548  1103               	clrz
  2803  0549  1803               	skipnc
  2804  054A  3E01               	addlw	1
  2805  054B  1903               	skipnz
  2806  054C  2D4E               	goto	u3182
  2807  054D  07B6               	addwf	___flmul@grs+2,f
  2808  054E                     u3182:
  2809  054E  0831               	movf	??___flmul+3,w
  2810  054F  1103               	clrz
  2811  0550  1803               	skipnc
  2812  0551  3E01               	addlw	1
  2813  0552  1903               	skipnz
  2814  0553  2D55               	goto	u3183
  2815  0554  07B7               	addwf	___flmul@grs+3,f
  2816  0555                     u3183:
  2817  0555                     l2368:
  2818  0555  083F               	movf	___flmul@temp+1,w
  2819  0556  00AE               	movwf	??___flmul
  2820  0557  01AF               	clrf	??___flmul+1
  2821  0558  01B0               	clrf	??___flmul+2
  2822  0559  01B1               	clrf	??___flmul+3
  2823  055A  082E               	movf	??___flmul,w
  2824  055B  07BA               	addwf	___flmul@prod,f
  2825  055C  082F               	movf	??___flmul+1,w
  2826  055D  1103               	clrz
  2827  055E  1803               	skipnc
  2828  055F  3E01               	addlw	1
  2829  0560  1903               	skipnz
  2830  0561  2D63               	goto	u3191
  2831  0562  07BB               	addwf	___flmul@prod+1,f
  2832  0563                     u3191:
  2833  0563  0830               	movf	??___flmul+2,w
  2834  0564  1103               	clrz
  2835  0565  1803               	skipnc
  2836  0566  3E01               	addlw	1
  2837  0567  1903               	skipnz
  2838  0568  2D6A               	goto	u3192
  2839  0569  07BC               	addwf	___flmul@prod+2,f
  2840  056A                     u3192:
  2841  056A  0831               	movf	??___flmul+3,w
  2842  056B  1103               	clrz
  2843  056C  1803               	skipnc
  2844  056D  3E01               	addlw	1
  2845  056E  1903               	skipnz
  2846  056F  2D71               	goto	u3193
  2847  0570  07BD               	addwf	___flmul@prod+3,f
  2848  0571                     u3193:
  2849  0571  0828               	movf	___flmul@b+2,w
  2850  0572  00AE               	movwf	??___flmul
  2851  0573  082E               	movf	??___flmul,w
  2852  0574  00F0               	movwf	__Umul8_16@multiplicand
  2853  0575  082A               	movf	___flmul@a,w
  2854  0576  120A  158A  21D2  120A  118A  	fcall	__Umul8_16
  2855  057B  0871               	movf	?__Umul8_16+1,w
  2856  057C  1283               	bcf	3,5	;RP0=0, select bank0
  2857  057D  1303               	bcf	3,6	;RP1=0, select bank0
  2858  057E  00BF               	movwf	___flmul@temp+1
  2859  057F  0870               	movf	?__Umul8_16,w
  2860  0580  00BE               	movwf	___flmul@temp
  2861  0581                     l2370:
  2862  0581  083E               	movf	___flmul@temp,w
  2863  0582  00AE               	movwf	??___flmul
  2864  0583  01AF               	clrf	??___flmul+1
  2865  0584  01B0               	clrf	??___flmul+2
  2866  0585  01B1               	clrf	??___flmul+3
  2867  0586  082E               	movf	??___flmul,w
  2868  0587  07B4               	addwf	___flmul@grs,f
  2869  0588  082F               	movf	??___flmul+1,w
  2870  0589  1103               	clrz
  2871  058A  1803               	skipnc
  2872  058B  3E01               	addlw	1
  2873  058C  1903               	skipnz
  2874  058D  2D8F               	goto	u3201
  2875  058E  07B5               	addwf	___flmul@grs+1,f
  2876  058F                     u3201:
  2877  058F  0830               	movf	??___flmul+2,w
  2878  0590  1103               	clrz
  2879  0591  1803               	skipnc
  2880  0592  3E01               	addlw	1
  2881  0593  1903               	skipnz
  2882  0594  2D96               	goto	u3202
  2883  0595  07B6               	addwf	___flmul@grs+2,f
  2884  0596                     u3202:
  2885  0596  0831               	movf	??___flmul+3,w
  2886  0597  1103               	clrz
  2887  0598  1803               	skipnc
  2888  0599  3E01               	addlw	1
  2889  059A  1903               	skipnz
  2890  059B  2D9D               	goto	u3203
  2891  059C  07B7               	addwf	___flmul@grs+3,f
  2892  059D                     u3203:
  2893  059D                     l2372:
  2894  059D  083F               	movf	___flmul@temp+1,w
  2895  059E  00AE               	movwf	??___flmul
  2896  059F  01AF               	clrf	??___flmul+1
  2897  05A0  01B0               	clrf	??___flmul+2
  2898  05A1  01B1               	clrf	??___flmul+3
  2899  05A2  082E               	movf	??___flmul,w
  2900  05A3  07BA               	addwf	___flmul@prod,f
  2901  05A4  082F               	movf	??___flmul+1,w
  2902  05A5  1103               	clrz
  2903  05A6  1803               	skipnc
  2904  05A7  3E01               	addlw	1
  2905  05A8  1903               	skipnz
  2906  05A9  2DAB               	goto	u3211
  2907  05AA  07BB               	addwf	___flmul@prod+1,f
  2908  05AB                     u3211:
  2909  05AB  0830               	movf	??___flmul+2,w
  2910  05AC  1103               	clrz
  2911  05AD  1803               	skipnc
  2912  05AE  3E01               	addlw	1
  2913  05AF  1903               	skipnz
  2914  05B0  2DB2               	goto	u3212
  2915  05B1  07BC               	addwf	___flmul@prod+2,f
  2916  05B2                     u3212:
  2917  05B2  0831               	movf	??___flmul+3,w
  2918  05B3  1103               	clrz
  2919  05B4  1803               	skipnc
  2920  05B5  3E01               	addlw	1
  2921  05B6  1903               	skipnz
  2922  05B7  2DB9               	goto	u3213
  2923  05B8  07BD               	addwf	___flmul@prod+3,f
  2924  05B9                     u3213:
  2925  05B9                     l2374:
  2926  05B9  3008               	movlw	8
  2927  05BA  00AE               	movwf	??___flmul
  2928  05BB                     u3225:
  2929  05BB  1003               	clrc
  2930  05BC  0DB4               	rlf	___flmul@grs,f
  2931  05BD  0DB5               	rlf	___flmul@grs+1,f
  2932  05BE  0DB6               	rlf	___flmul@grs+2,f
  2933  05BF  0DB7               	rlf	___flmul@grs+3,f
  2934  05C0  0BAE               	decfsz	??___flmul,f
  2935  05C1  2DBB               	goto	u3225
  2936  05C2                     l2376:
  2937  05C2  0827               	movf	___flmul@b+1,w
  2938  05C3  00AE               	movwf	??___flmul
  2939  05C4  082E               	movf	??___flmul,w
  2940  05C5  00F0               	movwf	__Umul8_16@multiplicand
  2941  05C6  082A               	movf	___flmul@a,w
  2942  05C7  120A  158A  21D2  120A  118A  	fcall	__Umul8_16
  2943  05CC  0871               	movf	?__Umul8_16+1,w
  2944  05CD  1283               	bcf	3,5	;RP0=0, select bank0
  2945  05CE  1303               	bcf	3,6	;RP1=0, select bank0
  2946  05CF  00BF               	movwf	___flmul@temp+1
  2947  05D0  0870               	movf	?__Umul8_16,w
  2948  05D1  00BE               	movwf	___flmul@temp
  2949  05D2                     l2378:
  2950  05D2  083E               	movf	___flmul@temp,w
  2951  05D3  00AE               	movwf	??___flmul
  2952  05D4  083F               	movf	___flmul@temp+1,w
  2953  05D5  00AF               	movwf	??___flmul+1
  2954  05D6  01B0               	clrf	??___flmul+2
  2955  05D7  01B1               	clrf	??___flmul+3
  2956  05D8  082E               	movf	??___flmul,w
  2957  05D9  07B4               	addwf	___flmul@grs,f
  2958  05DA  082F               	movf	??___flmul+1,w
  2959  05DB  1103               	clrz
  2960  05DC  1803               	skipnc
  2961  05DD  3E01               	addlw	1
  2962  05DE  1903               	skipnz
  2963  05DF  2DE1               	goto	u3231
  2964  05E0  07B5               	addwf	___flmul@grs+1,f
  2965  05E1                     u3231:
  2966  05E1  0830               	movf	??___flmul+2,w
  2967  05E2  1103               	clrz
  2968  05E3  1803               	skipnc
  2969  05E4  3E01               	addlw	1
  2970  05E5  1903               	skipnz
  2971  05E6  2DE8               	goto	u3232
  2972  05E7  07B6               	addwf	___flmul@grs+2,f
  2973  05E8                     u3232:
  2974  05E8  0831               	movf	??___flmul+3,w
  2975  05E9  1103               	clrz
  2976  05EA  1803               	skipnc
  2977  05EB  3E01               	addlw	1
  2978  05EC  1903               	skipnz
  2979  05ED  2DEF               	goto	u3233
  2980  05EE  07B7               	addwf	___flmul@grs+3,f
  2981  05EF                     u3233:
  2982  05EF                     l2380:
  2983  05EF  0826               	movf	___flmul@b,w
  2984  05F0  00AE               	movwf	??___flmul
  2985  05F1  082E               	movf	??___flmul,w
  2986  05F2  00F0               	movwf	__Umul8_16@multiplicand
  2987  05F3  082B               	movf	___flmul@a+1,w
  2988  05F4  120A  158A  21D2  120A  118A  	fcall	__Umul8_16
  2989  05F9  0871               	movf	?__Umul8_16+1,w
  2990  05FA  1283               	bcf	3,5	;RP0=0, select bank0
  2991  05FB  1303               	bcf	3,6	;RP1=0, select bank0
  2992  05FC  00BF               	movwf	___flmul@temp+1
  2993  05FD  0870               	movf	?__Umul8_16,w
  2994  05FE  00BE               	movwf	___flmul@temp
  2995  05FF                     l2382:
  2996  05FF  083E               	movf	___flmul@temp,w
  2997  0600  00AE               	movwf	??___flmul
  2998  0601  083F               	movf	___flmul@temp+1,w
  2999  0602  00AF               	movwf	??___flmul+1
  3000  0603  01B0               	clrf	??___flmul+2
  3001  0604  01B1               	clrf	??___flmul+3
  3002  0605  082E               	movf	??___flmul,w
  3003  0606  07B4               	addwf	___flmul@grs,f
  3004  0607  082F               	movf	??___flmul+1,w
  3005  0608  1103               	clrz
  3006  0609  1803               	skipnc
  3007  060A  3E01               	addlw	1
  3008  060B  1903               	skipnz
  3009  060C  2E0E               	goto	u3241
  3010  060D  07B5               	addwf	___flmul@grs+1,f
  3011  060E                     u3241:
  3012  060E  0830               	movf	??___flmul+2,w
  3013  060F  1103               	clrz
  3014  0610  1803               	skipnc
  3015  0611  3E01               	addlw	1
  3016  0612  1903               	skipnz
  3017  0613  2E15               	goto	u3242
  3018  0614  07B6               	addwf	___flmul@grs+2,f
  3019  0615                     u3242:
  3020  0615  0831               	movf	??___flmul+3,w
  3021  0616  1103               	clrz
  3022  0617  1803               	skipnc
  3023  0618  3E01               	addlw	1
  3024  0619  1903               	skipnz
  3025  061A  2E1C               	goto	u3243
  3026  061B  07B7               	addwf	___flmul@grs+3,f
  3027  061C                     u3243:
  3028  061C                     l2384:
  3029  061C  3008               	movlw	8
  3030  061D  00AE               	movwf	??___flmul
  3031  061E                     u3255:
  3032  061E  1003               	clrc
  3033  061F  0DB4               	rlf	___flmul@grs,f
  3034  0620  0DB5               	rlf	___flmul@grs+1,f
  3035  0621  0DB6               	rlf	___flmul@grs+2,f
  3036  0622  0DB7               	rlf	___flmul@grs+3,f
  3037  0623  0BAE               	decfsz	??___flmul,f
  3038  0624  2E1E               	goto	u3255
  3039  0625  0826               	movf	___flmul@b,w
  3040  0626  00AE               	movwf	??___flmul
  3041  0627  082E               	movf	??___flmul,w
  3042  0628  00F0               	movwf	__Umul8_16@multiplicand
  3043  0629  082A               	movf	___flmul@a,w
  3044  062A  120A  158A  21D2  120A  118A  	fcall	__Umul8_16
  3045  062F  0871               	movf	?__Umul8_16+1,w
  3046  0630  1283               	bcf	3,5	;RP0=0, select bank0
  3047  0631  1303               	bcf	3,6	;RP1=0, select bank0
  3048  0632  00BF               	movwf	___flmul@temp+1
  3049  0633  0870               	movf	?__Umul8_16,w
  3050  0634  00BE               	movwf	___flmul@temp
  3051  0635                     l2386:
  3052  0635  083E               	movf	___flmul@temp,w
  3053  0636  00AE               	movwf	??___flmul
  3054  0637  083F               	movf	___flmul@temp+1,w
  3055  0638  00AF               	movwf	??___flmul+1
  3056  0639  01B0               	clrf	??___flmul+2
  3057  063A  01B1               	clrf	??___flmul+3
  3058  063B  082E               	movf	??___flmul,w
  3059  063C  07B4               	addwf	___flmul@grs,f
  3060  063D  082F               	movf	??___flmul+1,w
  3061  063E  1103               	clrz
  3062  063F  1803               	skipnc
  3063  0640  3E01               	addlw	1
  3064  0641  1903               	skipnz
  3065  0642  2E44               	goto	u3261
  3066  0643  07B5               	addwf	___flmul@grs+1,f
  3067  0644                     u3261:
  3068  0644  0830               	movf	??___flmul+2,w
  3069  0645  1103               	clrz
  3070  0646  1803               	skipnc
  3071  0647  3E01               	addlw	1
  3072  0648  1903               	skipnz
  3073  0649  2E4B               	goto	u3262
  3074  064A  07B6               	addwf	___flmul@grs+2,f
  3075  064B                     u3262:
  3076  064B  0831               	movf	??___flmul+3,w
  3077  064C  1103               	clrz
  3078  064D  1803               	skipnc
  3079  064E  3E01               	addlw	1
  3080  064F  1903               	skipnz
  3081  0650  2E52               	goto	u3263
  3082  0651  07B7               	addwf	___flmul@grs+3,f
  3083  0652                     u3263:
  3084  0652                     l2388:
  3085  0652  0827               	movf	___flmul@b+1,w
  3086  0653  00AE               	movwf	??___flmul
  3087  0654  082E               	movf	??___flmul,w
  3088  0655  00F0               	movwf	__Umul8_16@multiplicand
  3089  0656  082C               	movf	___flmul@a+2,w
  3090  0657  120A  158A  21D2  120A  118A  	fcall	__Umul8_16
  3091  065C  0871               	movf	?__Umul8_16+1,w
  3092  065D  1283               	bcf	3,5	;RP0=0, select bank0
  3093  065E  1303               	bcf	3,6	;RP1=0, select bank0
  3094  065F  00BF               	movwf	___flmul@temp+1
  3095  0660  0870               	movf	?__Umul8_16,w
  3096  0661  00BE               	movwf	___flmul@temp
  3097  0662  083E               	movf	___flmul@temp,w
  3098  0663  00AE               	movwf	??___flmul
  3099  0664  083F               	movf	___flmul@temp+1,w
  3100  0665  00AF               	movwf	??___flmul+1
  3101  0666  01B0               	clrf	??___flmul+2
  3102  0667  01B1               	clrf	??___flmul+3
  3103  0668  082E               	movf	??___flmul,w
  3104  0669  07BA               	addwf	___flmul@prod,f
  3105  066A  082F               	movf	??___flmul+1,w
  3106  066B  1103               	clrz
  3107  066C  1803               	skipnc
  3108  066D  3E01               	addlw	1
  3109  066E  1903               	skipnz
  3110  066F  2E71               	goto	u3271
  3111  0670  07BB               	addwf	___flmul@prod+1,f
  3112  0671                     u3271:
  3113  0671  0830               	movf	??___flmul+2,w
  3114  0672  1103               	clrz
  3115  0673  1803               	skipnc
  3116  0674  3E01               	addlw	1
  3117  0675  1903               	skipnz
  3118  0676  2E78               	goto	u3272
  3119  0677  07BC               	addwf	___flmul@prod+2,f
  3120  0678                     u3272:
  3121  0678  0831               	movf	??___flmul+3,w
  3122  0679  1103               	clrz
  3123  067A  1803               	skipnc
  3124  067B  3E01               	addlw	1
  3125  067C  1903               	skipnz
  3126  067D  2E7F               	goto	u3273
  3127  067E  07BD               	addwf	___flmul@prod+3,f
  3128  067F                     u3273:
  3129  067F                     l2390:
  3130  067F  0828               	movf	___flmul@b+2,w
  3131  0680  00AE               	movwf	??___flmul
  3132  0681  082E               	movf	??___flmul,w
  3133  0682  00F0               	movwf	__Umul8_16@multiplicand
  3134  0683  082B               	movf	___flmul@a+1,w
  3135  0684  120A  158A  21D2  120A  118A  	fcall	__Umul8_16
  3136  0689  0871               	movf	?__Umul8_16+1,w
  3137  068A  1283               	bcf	3,5	;RP0=0, select bank0
  3138  068B  1303               	bcf	3,6	;RP1=0, select bank0
  3139  068C  00BF               	movwf	___flmul@temp+1
  3140  068D  0870               	movf	?__Umul8_16,w
  3141  068E  00BE               	movwf	___flmul@temp
  3142  068F                     l2392:
  3143  068F  083E               	movf	___flmul@temp,w
  3144  0690  00AE               	movwf	??___flmul
  3145  0691  083F               	movf	___flmul@temp+1,w
  3146  0692  00AF               	movwf	??___flmul+1
  3147  0693  01B0               	clrf	??___flmul+2
  3148  0694  01B1               	clrf	??___flmul+3
  3149  0695  082E               	movf	??___flmul,w
  3150  0696  07BA               	addwf	___flmul@prod,f
  3151  0697  082F               	movf	??___flmul+1,w
  3152  0698  1103               	clrz
  3153  0699  1803               	skipnc
  3154  069A  3E01               	addlw	1
  3155  069B  1903               	skipnz
  3156  069C  2E9E               	goto	u3281
  3157  069D  07BB               	addwf	___flmul@prod+1,f
  3158  069E                     u3281:
  3159  069E  0830               	movf	??___flmul+2,w
  3160  069F  1103               	clrz
  3161  06A0  1803               	skipnc
  3162  06A1  3E01               	addlw	1
  3163  06A2  1903               	skipnz
  3164  06A3  2EA5               	goto	u3282
  3165  06A4  07BC               	addwf	___flmul@prod+2,f
  3166  06A5                     u3282:
  3167  06A5  0831               	movf	??___flmul+3,w
  3168  06A6  1103               	clrz
  3169  06A7  1803               	skipnc
  3170  06A8  3E01               	addlw	1
  3171  06A9  1903               	skipnz
  3172  06AA  2EAC               	goto	u3283
  3173  06AB  07BD               	addwf	___flmul@prod+3,f
  3174  06AC                     u3283:
  3175  06AC  0828               	movf	___flmul@b+2,w
  3176  06AD  00AE               	movwf	??___flmul
  3177  06AE  082E               	movf	??___flmul,w
  3178  06AF  00F0               	movwf	__Umul8_16@multiplicand
  3179  06B0  082C               	movf	___flmul@a+2,w
  3180  06B1  120A  158A  21D2  120A  118A  	fcall	__Umul8_16
  3181  06B6  0871               	movf	?__Umul8_16+1,w
  3182  06B7  1283               	bcf	3,5	;RP0=0, select bank0
  3183  06B8  1303               	bcf	3,6	;RP1=0, select bank0
  3184  06B9  00BF               	movwf	___flmul@temp+1
  3185  06BA  0870               	movf	?__Umul8_16,w
  3186  06BB  00BE               	movwf	___flmul@temp
  3187  06BC                     l2394:
  3188  06BC  083E               	movf	___flmul@temp,w
  3189  06BD  00AE               	movwf	??___flmul
  3190  06BE  083F               	movf	___flmul@temp+1,w
  3191  06BF  00AF               	movwf	??___flmul+1
  3192  06C0  01B0               	clrf	??___flmul+2
  3193  06C1  01B1               	clrf	??___flmul+3
  3194  06C2  3008               	movlw	8
  3195  06C3                     u3295:
  3196  06C3  1003               	clrc
  3197  06C4  0DAE               	rlf	??___flmul,f
  3198  06C5  0DAF               	rlf	??___flmul+1,f
  3199  06C6  0DB0               	rlf	??___flmul+2,f
  3200  06C7  0DB1               	rlf	??___flmul+3,f
  3201  06C8                     u3290:
  3202  06C8  3EFF               	addlw	-1
  3203  06C9  1D03               	skipz
  3204  06CA  2EC3               	goto	u3295
  3205  06CB  082E               	movf	??___flmul,w
  3206  06CC  07BA               	addwf	___flmul@prod,f
  3207  06CD  082F               	movf	??___flmul+1,w
  3208  06CE  1103               	clrz
  3209  06CF  1803               	skipnc
  3210  06D0  3E01               	addlw	1
  3211  06D1  1903               	skipnz
  3212  06D2  2ED4               	goto	u3301
  3213  06D3  07BB               	addwf	___flmul@prod+1,f
  3214  06D4                     u3301:
  3215  06D4  0830               	movf	??___flmul+2,w
  3216  06D5  1103               	clrz
  3217  06D6  1803               	skipnc
  3218  06D7  3E01               	addlw	1
  3219  06D8  1903               	skipnz
  3220  06D9  2EDB               	goto	u3302
  3221  06DA  07BC               	addwf	___flmul@prod+2,f
  3222  06DB                     u3302:
  3223  06DB  0831               	movf	??___flmul+3,w
  3224  06DC  1103               	clrz
  3225  06DD  1803               	skipnc
  3226  06DE  3E01               	addlw	1
  3227  06DF  1903               	skipnz
  3228  06E0  2EE2               	goto	u3303
  3229  06E1  07BD               	addwf	___flmul@prod+3,f
  3230  06E2                     u3303:
  3231  06E2                     l2396:
  3232  06E2  0834               	movf	___flmul@grs,w
  3233  06E3  00AE               	movwf	??___flmul
  3234  06E4  0835               	movf	___flmul@grs+1,w
  3235  06E5  00AF               	movwf	??___flmul+1
  3236  06E6  0836               	movf	___flmul@grs+2,w
  3237  06E7  00B0               	movwf	??___flmul+2
  3238  06E8  0837               	movf	___flmul@grs+3,w
  3239  06E9  00B1               	movwf	??___flmul+3
  3240  06EA  3018               	movlw	24
  3241  06EB                     u3315:
  3242  06EB  1003               	clrc
  3243  06EC  0CB1               	rrf	??___flmul+3,f
  3244  06ED  0CB0               	rrf	??___flmul+2,f
  3245  06EE  0CAF               	rrf	??___flmul+1,f
  3246  06EF  0CAE               	rrf	??___flmul,f
  3247  06F0                     u3310:
  3248  06F0  3EFF               	addlw	-1
  3249  06F1  1D03               	skipz
  3250  06F2  2EEB               	goto	u3315
  3251  06F3  082E               	movf	??___flmul,w
  3252  06F4  07BA               	addwf	___flmul@prod,f
  3253  06F5  082F               	movf	??___flmul+1,w
  3254  06F6  1103               	clrz
  3255  06F7  1803               	skipnc
  3256  06F8  3E01               	addlw	1
  3257  06F9  1903               	skipnz
  3258  06FA  2EFC               	goto	u3321
  3259  06FB  07BB               	addwf	___flmul@prod+1,f
  3260  06FC                     u3321:
  3261  06FC  0830               	movf	??___flmul+2,w
  3262  06FD  1103               	clrz
  3263  06FE  1803               	skipnc
  3264  06FF  3E01               	addlw	1
  3265  0700  1903               	skipnz
  3266  0701  2F03               	goto	u3322
  3267  0702  07BC               	addwf	___flmul@prod+2,f
  3268  0703                     u3322:
  3269  0703  0831               	movf	??___flmul+3,w
  3270  0704  1103               	clrz
  3271  0705  1803               	skipnc
  3272  0706  3E01               	addlw	1
  3273  0707  1903               	skipnz
  3274  0708  2F0A               	goto	u3323
  3275  0709  07BD               	addwf	___flmul@prod+3,f
  3276  070A                     u3323:
  3277  070A                     l2398:
  3278  070A  3008               	movlw	8
  3279  070B  00AE               	movwf	??___flmul
  3280  070C                     u3335:
  3281  070C  1003               	clrc
  3282  070D  0DB4               	rlf	___flmul@grs,f
  3283  070E  0DB5               	rlf	___flmul@grs+1,f
  3284  070F  0DB6               	rlf	___flmul@grs+2,f
  3285  0710  0DB7               	rlf	___flmul@grs+3,f
  3286  0711  0BAE               	decfsz	??___flmul,f
  3287  0712  2F0C               	goto	u3335
  3288  0713                     l2400:
  3289  0713  0839               	movf	___flmul@bexp,w
  3290  0714  0738               	addwf	___flmul@aexp,w
  3291  0715  00AE               	movwf	??___flmul
  3292  0716  01AF               	clrf	??___flmul+1
  3293  0717  0DAF               	rlf	??___flmul+1,f
  3294  0718  082E               	movf	??___flmul,w
  3295  0719  3E82               	addlw	130
  3296  071A  00BE               	movwf	___flmul@temp
  3297  071B  082F               	movf	??___flmul+1,w
  3298  071C  1803               	skipnc
  3299  071D  3E01               	addlw	1
  3300  071E  3EFF               	addlw	255
  3301  071F  00BF               	movwf	___flmul@temp+1
  3302  0720  2F3E               	goto	l2412
  3303  0721                     l2402:
  3304  0721  3001               	movlw	1
  3305  0722  00AE               	movwf	??___flmul
  3306  0723                     u3345:
  3307  0723  1003               	clrc
  3308  0724  0DBA               	rlf	___flmul@prod,f
  3309  0725  0DBB               	rlf	___flmul@prod+1,f
  3310  0726  0DBC               	rlf	___flmul@prod+2,f
  3311  0727  0DBD               	rlf	___flmul@prod+3,f
  3312  0728  0BAE               	decfsz	??___flmul,f
  3313  0729  2F23               	goto	u3345
  3314  072A                     l2404:
  3315  072A  1FB7               	btfss	___flmul@grs+3,7
  3316  072B  2F2D               	goto	u3351
  3317  072C  2F2E               	goto	u3350
  3318  072D                     u3351:
  3319  072D  2F2F               	goto	l2408
  3320  072E                     u3350:
  3321  072E                     l2406:
  3322  072E  143A               	bsf	___flmul@prod,0
  3323  072F                     l2408:
  3324  072F  3001               	movlw	1
  3325  0730  00AE               	movwf	??___flmul
  3326  0731                     u3365:
  3327  0731  1003               	clrc
  3328  0732  0DB4               	rlf	___flmul@grs,f
  3329  0733  0DB5               	rlf	___flmul@grs+1,f
  3330  0734  0DB6               	rlf	___flmul@grs+2,f
  3331  0735  0DB7               	rlf	___flmul@grs+3,f
  3332  0736  0BAE               	decfsz	??___flmul,f
  3333  0737  2F31               	goto	u3365
  3334  0738                     l2410:
  3335  0738  30FF               	movlw	255
  3336  0739  07BE               	addwf	___flmul@temp,f
  3337  073A  1803               	skipnc
  3338  073B  0ABF               	incf	___flmul@temp+1,f
  3339  073C  30FF               	movlw	255
  3340  073D  07BF               	addwf	___flmul@temp+1,f
  3341  073E                     l2412:
  3342  073E  1FBC               	btfss	___flmul@prod+2,7
  3343  073F  2F41               	goto	u3371
  3344  0740  2F42               	goto	u3370
  3345  0741                     u3371:
  3346  0741  2F21               	goto	l2402
  3347  0742                     u3370:
  3348  0742                     l2414:
  3349  0742  01B8               	clrf	___flmul@aexp
  3350  0743                     l2416:
  3351  0743  1FB7               	btfss	___flmul@grs+3,7
  3352  0744  2F46               	goto	u3381
  3353  0745  2F47               	goto	u3380
  3354  0746                     u3381:
  3355  0746  2F63               	goto	l2424
  3356  0747                     u3380:
  3357  0747                     l2418:
  3358  0747  30FF               	movlw	255
  3359  0748  0534               	andwf	___flmul@grs,w
  3360  0749  00AE               	movwf	??___flmul
  3361  074A  30FF               	movlw	255
  3362  074B  0535               	andwf	___flmul@grs+1,w
  3363  074C  00AF               	movwf	??___flmul+1
  3364  074D  30FF               	movlw	255
  3365  074E  0536               	andwf	___flmul@grs+2,w
  3366  074F  00B0               	movwf	??___flmul+2
  3367  0750  307F               	movlw	127
  3368  0751  0537               	andwf	___flmul@grs+3,w
  3369  0752  00B1               	movwf	??___flmul+3
  3370  0753  0831               	movf	??___flmul+3,w
  3371  0754  0430               	iorwf	??___flmul+2,w
  3372  0755  042F               	iorwf	??___flmul+1,w
  3373  0756  042E               	iorwf	??___flmul,w
  3374  0757  1903               	skipnz
  3375  0758  2F5A               	goto	u3391
  3376  0759  2F5B               	goto	u3390
  3377  075A                     u3391:
  3378  075A  2F5E               	goto	l669
  3379  075B                     u3390:
  3380  075B                     l2420:
  3381  075B  01B8               	clrf	___flmul@aexp
  3382  075C  0AB8               	incf	___flmul@aexp,f
  3383  075D  2F63               	goto	l2424
  3384  075E                     l669:
  3385  075E  1C3A               	btfss	___flmul@prod,0
  3386  075F  2F61               	goto	u3401
  3387  0760  2F62               	goto	u3400
  3388  0761                     u3401:
  3389  0761  2F63               	goto	l2424
  3390  0762                     u3400:
  3391  0762  2F5B               	goto	l2420
  3392  0763                     l2424:
  3393  0763  0838               	movf	___flmul@aexp,w
  3394  0764  1903               	btfsc	3,2
  3395  0765  2F67               	goto	u3411
  3396  0766  2F68               	goto	u3410
  3397  0767                     u3411:
  3398  0767  2F99               	goto	l2434
  3399  0768                     u3410:
  3400  0768                     l2426:
  3401  0768  3001               	movlw	1
  3402  0769  07BA               	addwf	___flmul@prod,f
  3403  076A  3000               	movlw	0
  3404  076B  1803               	skipnc
  3405  076C  3001               	movlw	1
  3406  076D  07BB               	addwf	___flmul@prod+1,f
  3407  076E  3000               	movlw	0
  3408  076F  1803               	skipnc
  3409  0770  3001               	movlw	1
  3410  0771  07BC               	addwf	___flmul@prod+2,f
  3411  0772  3000               	movlw	0
  3412  0773  1803               	skipnc
  3413  0774  3001               	movlw	1
  3414  0775  07BD               	addwf	___flmul@prod+3,f
  3415  0776                     l2428:
  3416  0776  1C3D               	btfss	___flmul@prod+3,0
  3417  0777  2F79               	goto	u3421
  3418  0778  2F7A               	goto	u3420
  3419  0779                     u3421:
  3420  0779  2F99               	goto	l2434
  3421  077A                     u3420:
  3422  077A                     l2430:
  3423  077A  083A               	movf	___flmul@prod,w
  3424  077B  00AE               	movwf	??___flmul
  3425  077C  083B               	movf	___flmul@prod+1,w
  3426  077D  00AF               	movwf	??___flmul+1
  3427  077E  083C               	movf	___flmul@prod+2,w
  3428  077F  00B0               	movwf	??___flmul+2
  3429  0780  083D               	movf	___flmul@prod+3,w
  3430  0781  00B1               	movwf	??___flmul+3
  3431  0782  3001               	movlw	1
  3432  0783  00B2               	movwf	??___flmul+4
  3433  0784                     u3435:
  3434  0784  0D31               	rlf	??___flmul+3,w
  3435  0785  0CB1               	rrf	??___flmul+3,f
  3436  0786  0CB0               	rrf	??___flmul+2,f
  3437  0787  0CAF               	rrf	??___flmul+1,f
  3438  0788  0CAE               	rrf	??___flmul,f
  3439  0789                     u3430:
  3440  0789  0BB2               	decfsz	??___flmul+4,f
  3441  078A  2F84               	goto	u3435
  3442  078B  0831               	movf	??___flmul+3,w
  3443  078C  00BD               	movwf	___flmul@prod+3
  3444  078D  0830               	movf	??___flmul+2,w
  3445  078E  00BC               	movwf	___flmul@prod+2
  3446  078F  082F               	movf	??___flmul+1,w
  3447  0790  00BB               	movwf	___flmul@prod+1
  3448  0791  082E               	movf	??___flmul,w
  3449  0792  00BA               	movwf	___flmul@prod
  3450  0793                     l2432:
  3451  0793  3001               	movlw	1
  3452  0794  07BE               	addwf	___flmul@temp,f
  3453  0795  1803               	skipnc
  3454  0796  0ABF               	incf	___flmul@temp+1,f
  3455  0797  3000               	movlw	0
  3456  0798  07BF               	addwf	___flmul@temp+1,f
  3457  0799                     l2434:
  3458  0799  083F               	movf	___flmul@temp+1,w
  3459  079A  3A80               	xorlw	128
  3460  079B  00FF               	movwf	btemp+1
  3461  079C  3080               	movlw	128
  3462  079D  027F               	subwf	btemp+1,w
  3463  079E  1D03               	skipz
  3464  079F  2FA2               	goto	u3445
  3465  07A0  30FF               	movlw	255
  3466  07A1  023E               	subwf	___flmul@temp,w
  3467  07A2                     u3445:
  3468  07A2  1C03               	skipc
  3469  07A3  2FA5               	goto	u3441
  3470  07A4  2FA6               	goto	u3440
  3471  07A5                     u3441:
  3472  07A5  2FB1               	goto	l2438
  3473  07A6                     u3440:
  3474  07A6                     l2436:
  3475  07A6  307F               	movlw	127
  3476  07A7  1283               	bcf	3,5	;RP0=0, select bank0
  3477  07A8  1303               	bcf	3,6	;RP1=0, select bank0
  3478  07A9  00BD               	movwf	___flmul@prod+3
  3479  07AA  3080               	movlw	128
  3480  07AB  00BC               	movwf	___flmul@prod+2
  3481  07AC  3000               	movlw	0
  3482  07AD  00BB               	movwf	___flmul@prod+1
  3483  07AE  3000               	movlw	0
  3484  07AF  00BA               	movwf	___flmul@prod
  3485  07B0  2FE6               	goto	l675
  3486  07B1                     l2438:
  3487  07B1  1283               	bcf	3,5	;RP0=0, select bank0
  3488  07B2  1303               	bcf	3,6	;RP1=0, select bank0
  3489  07B3  083F               	movf	___flmul@temp+1,w
  3490  07B4  3A80               	xorlw	128
  3491  07B5  00FF               	movwf	btemp+1
  3492  07B6  3080               	movlw	128
  3493  07B7  027F               	subwf	btemp+1,w
  3494  07B8  1D03               	skipz
  3495  07B9  2FBC               	goto	u3455
  3496  07BA  3001               	movlw	1
  3497  07BB  023E               	subwf	___flmul@temp,w
  3498  07BC                     u3455:
  3499  07BC  1803               	skipnc
  3500  07BD  2FBF               	goto	u3451
  3501  07BE  2FC0               	goto	u3450
  3502  07BF                     u3451:
  3503  07BF  2FCC               	goto	l2444
  3504  07C0                     u3450:
  3505  07C0                     l2440:
  3506  07C0  3000               	movlw	0
  3507  07C1  1283               	bcf	3,5	;RP0=0, select bank0
  3508  07C2  1303               	bcf	3,6	;RP1=0, select bank0
  3509  07C3  00BD               	movwf	___flmul@prod+3
  3510  07C4  3000               	movlw	0
  3511  07C5  00BC               	movwf	___flmul@prod+2
  3512  07C6  3000               	movlw	0
  3513  07C7  00BB               	movwf	___flmul@prod+1
  3514  07C8  3000               	movlw	0
  3515  07C9  00BA               	movwf	___flmul@prod
  3516  07CA                     l2442:
  3517  07CA  01B3               	clrf	___flmul@sign
  3518  07CB  2FE6               	goto	l675
  3519  07CC                     l2444:
  3520  07CC  1283               	bcf	3,5	;RP0=0, select bank0
  3521  07CD  1303               	bcf	3,6	;RP1=0, select bank0
  3522  07CE  083E               	movf	___flmul@temp,w
  3523  07CF  00AE               	movwf	??___flmul
  3524  07D0  082E               	movf	??___flmul,w
  3525  07D1  00B9               	movwf	___flmul@bexp
  3526  07D2  30FF               	movlw	255
  3527  07D3  05BA               	andwf	___flmul@prod,f
  3528  07D4  30FF               	movlw	255
  3529  07D5  05BB               	andwf	___flmul@prod+1,f
  3530  07D6  307F               	movlw	127
  3531  07D7  05BC               	andwf	___flmul@prod+2,f
  3532  07D8  3000               	movlw	0
  3533  07D9  05BD               	andwf	___flmul@prod+3,f
  3534  07DA                     l2446:
  3535  07DA  1C39               	btfss	___flmul@bexp,0
  3536  07DB  2FDD               	goto	u3461
  3537  07DC  2FDE               	goto	u3460
  3538  07DD                     u3461:
  3539  07DD  2FDF               	goto	l2450
  3540  07DE                     u3460:
  3541  07DE                     l2448:
  3542  07DE  17BC               	bsf	___flmul@prod+2,7
  3543  07DF                     l2450:
  3544  07DF  0839               	movf	___flmul@bexp,w
  3545  07E0  00AE               	movwf	??___flmul
  3546  07E1  1003               	clrc
  3547  07E2  0C2E               	rrf	??___flmul,w
  3548  07E3  00AF               	movwf	??___flmul+1
  3549  07E4  082F               	movf	??___flmul+1,w
  3550  07E5  00BD               	movwf	___flmul@prod+3
  3551  07E6                     l675:
  3552  07E6  0833               	movf	___flmul@sign,w
  3553  07E7  00AE               	movwf	??___flmul
  3554  07E8  082E               	movf	??___flmul,w
  3555  07E9  04BD               	iorwf	___flmul@prod+3,f
  3556  07EA                     l2452:
  3557  07EA  083D               	movf	___flmul@prod+3,w
  3558  07EB  00A9               	movwf	?___flmul+3
  3559  07EC  083C               	movf	___flmul@prod+2,w
  3560  07ED  00A8               	movwf	?___flmul+2
  3561  07EE  083B               	movf	___flmul@prod+1,w
  3562  07EF  00A7               	movwf	?___flmul+1
  3563  07F0  083A               	movf	___flmul@prod,w
  3564  07F1  00A6               	movwf	?___flmul
  3565  07F2                     l663:
  3566  07F2  0008               	return
  3567  07F3                     __end_of___flmul:
  3568                           
  3569                           	psect	text8
  3570  09D2                     __ptext8:	
  3571 ;; *************** function __Umul8_16 *****************
  3572 ;; Defined at:
  3573 ;;		line 4 in file "C:\Program Files\Microchip\xc8\v2.36\pic\sources\c90\common\Umul8_16.c"
  3574 ;; Parameters:    Size  Location     Type
  3575 ;;  multiplier      1    wreg     unsigned char 
  3576 ;;  multiplicand    1    0[COMMON] unsigned char 
  3577 ;; Auto vars:     Size  Location     Type
  3578 ;;  multiplier      1    8[COMMON] unsigned char 
  3579 ;;  word_mpld       2    6[COMMON] unsigned int 
  3580 ;;  product         2    4[COMMON] unsigned int 
  3581 ;; Return value:  Size  Location     Type
  3582 ;;                  2    0[COMMON] unsigned int 
  3583 ;; Registers used:
  3584 ;;		wreg, status,2, status,0
  3585 ;; Tracked objects:
  3586 ;;		On entry : 0/0
  3587 ;;		On exit  : 0/0
  3588 ;;		Unchanged: 0/0
  3589 ;; Data sizes:     COMMON   BANK0   BANK1   BANK3   BANK2
  3590 ;;      Params:         2       0       0       0       0
  3591 ;;      Locals:         5       0       0       0       0
  3592 ;;      Temps:          2       0       0       0       0
  3593 ;;      Totals:         9       0       0       0       0
  3594 ;;Total ram usage:        9 bytes
  3595 ;; Hardware stack levels used: 1
  3596 ;; This function calls:
  3597 ;;		Nothing
  3598 ;; This function is called by:
  3599 ;;		___flmul
  3600 ;; This function uses a non-reentrant model
  3601 ;;
  3602                           
  3603  09D2                     __Umul8_16:	
  3604                           ;psect for function __Umul8_16
  3605                           
  3606                           
  3607                           ;incstack = 0
  3608                           ; Regs used in __Umul8_16: [wreg+status,2+status,0]
  3609                           ;__Umul8_16@multiplier stored from wreg
  3610  09D2  00F8               	movwf	__Umul8_16@multiplier
  3611  09D3                     l1790:
  3612  09D3  01F4               	clrf	__Umul8_16@product
  3613  09D4  01F5               	clrf	__Umul8_16@product+1
  3614  09D5                     l1792:
  3615  09D5  0870               	movf	__Umul8_16@multiplicand,w
  3616  09D6  00F2               	movwf	??__Umul8_16
  3617  09D7  01F3               	clrf	??__Umul8_16+1
  3618  09D8  0872               	movf	??__Umul8_16,w
  3619  09D9  00F6               	movwf	__Umul8_16@word_mpld
  3620  09DA  0873               	movf	??__Umul8_16+1,w
  3621  09DB  00F7               	movwf	__Umul8_16@word_mpld+1
  3622  09DC                     l1794:
  3623  09DC  1C78               	btfss	__Umul8_16@multiplier,0
  3624  09DD  29DF               	goto	u2001
  3625  09DE  29E0               	goto	u2000
  3626  09DF                     u2001:
  3627  09DF  29E6               	goto	l682
  3628  09E0                     u2000:
  3629  09E0                     l1796:
  3630  09E0  0876               	movf	__Umul8_16@word_mpld,w
  3631  09E1  07F4               	addwf	__Umul8_16@product,f
  3632  09E2  1803               	skipnc
  3633  09E3  0AF5               	incf	__Umul8_16@product+1,f
  3634  09E4  0877               	movf	__Umul8_16@word_mpld+1,w
  3635  09E5  07F5               	addwf	__Umul8_16@product+1,f
  3636  09E6                     l682:
  3637  09E6  3001               	movlw	1
  3638  09E7                     u2015:
  3639  09E7  1003               	clrc
  3640  09E8  0DF6               	rlf	__Umul8_16@word_mpld,f
  3641  09E9  0DF7               	rlf	__Umul8_16@word_mpld+1,f
  3642  09EA  3EFF               	addlw	-1
  3643  09EB  1D03               	skipz
  3644  09EC  29E7               	goto	u2015
  3645  09ED  1003               	clrc
  3646  09EE  0CF8               	rrf	__Umul8_16@multiplier,f
  3647  09EF                     l1798:
  3648  09EF  0878               	movf	__Umul8_16@multiplier,w
  3649  09F0  1D03               	btfss	3,2
  3650  09F1  29F3               	goto	u2021
  3651  09F2  29F4               	goto	u2020
  3652  09F3                     u2021:
  3653  09F3  29DC               	goto	l1794
  3654  09F4                     u2020:
  3655  09F4                     l1800:
  3656  09F4  0875               	movf	__Umul8_16@product+1,w
  3657  09F5  00F1               	movwf	?__Umul8_16+1
  3658  09F6  0874               	movf	__Umul8_16@product,w
  3659  09F7  00F0               	movwf	?__Umul8_16
  3660  09F8                     l684:
  3661  09F8  0008               	return
  3662  09F9                     __end_of__Umul8_16:
  3663                           
  3664                           	psect	text9
  3665  0025                     __ptext9:	
  3666 ;; *************** function ___fldiv *****************
  3667 ;; Defined at:
  3668 ;;		line 8 in file "C:\Program Files\Microchip\xc8\v2.36\pic\sources\c90\common\sprcdiv.c"
  3669 ;; Parameters:    Size  Location     Type
  3670 ;;  a               4   32[BANK0 ] unsigned int 
  3671 ;;  b               4   36[BANK0 ] unsigned int 
  3672 ;; Auto vars:     Size  Location     Type
  3673 ;;  grs             4   52[BANK0 ] unsigned long 
  3674 ;;  rem             4   45[BANK0 ] unsigned long 
  3675 ;;  new_exp         2   50[BANK0 ] int 
  3676 ;;  aexp            1   57[BANK0 ] unsigned char 
  3677 ;;  bexp            1   56[BANK0 ] unsigned char 
  3678 ;;  sign            1   49[BANK0 ] unsigned char 
  3679 ;; Return value:  Size  Location     Type
  3680 ;;                  4   32[BANK0 ] unsigned char 
  3681 ;; Registers used:
  3682 ;;		wreg, status,2, status,0, btemp+1
  3683 ;; Tracked objects:
  3684 ;;		On entry : 0/0
  3685 ;;		On exit  : 0/0
  3686 ;;		Unchanged: 0/0
  3687 ;; Data sizes:     COMMON   BANK0   BANK1   BANK3   BANK2
  3688 ;;      Params:         0       8       0       0       0
  3689 ;;      Locals:         0      13       0       0       0
  3690 ;;      Temps:          0       5       0       0       0
  3691 ;;      Totals:         0      26       0       0       0
  3692 ;;Total ram usage:       26 bytes
  3693 ;; Hardware stack levels used: 1
  3694 ;; This function calls:
  3695 ;;		Nothing
  3696 ;; This function is called by:
  3697 ;;		_main
  3698 ;; This function uses a non-reentrant model
  3699 ;;
  3700                           
  3701  0025                     ___fldiv:	
  3702                           ;psect for function ___fldiv
  3703                           
  3704  0025                     l2174:	
  3705                           ;incstack = 0
  3706                           ; Regs used in ___fldiv: [wreg+status,2+status,0+btemp+1]
  3707                           
  3708  0025  1283               	bcf	3,5	;RP0=0, select bank0
  3709  0026  1303               	bcf	3,6	;RP1=0, select bank0
  3710  0027  0847               	movf	___fldiv@b+3,w
  3711  0028  3980               	andlw	128
  3712  0029  00C8               	movwf	??___fldiv
  3713  002A  0848               	movf	??___fldiv,w
  3714  002B  00D1               	movwf	___fldiv@sign
  3715  002C                     l2176:
  3716  002C  0847               	movf	___fldiv@b+3,w
  3717  002D  00C8               	movwf	??___fldiv
  3718  002E  0748               	addwf	??___fldiv,w
  3719  002F  00C9               	movwf	??___fldiv+1
  3720  0030  0849               	movf	??___fldiv+1,w
  3721  0031  00D8               	movwf	___fldiv@bexp
  3722  0032                     l2178:
  3723  0032  1FC6               	btfss	___fldiv@b+2,7
  3724  0033  2835               	goto	u2811
  3725  0034  2836               	goto	u2810
  3726  0035                     u2811:
  3727  0035  2837               	goto	l2182
  3728  0036                     u2810:
  3729  0036                     l2180:
  3730  0036  1458               	bsf	___fldiv@bexp,0
  3731  0037                     l2182:
  3732  0037  0858               	movf	___fldiv@bexp,w
  3733  0038  1903               	btfsc	3,2
  3734  0039  283B               	goto	u2821
  3735  003A  283C               	goto	u2820
  3736  003B                     u2821:
  3737  003B  284C               	goto	l2192
  3738  003C                     u2820:
  3739  003C                     l2184:
  3740  003C  0A58               	incf	___fldiv@bexp,w
  3741  003D  1D03               	btfss	3,2
  3742  003E  2840               	goto	u2831
  3743  003F  2841               	goto	u2830
  3744  0040                     u2831:
  3745  0040  2849               	goto	l2188
  3746  0041                     u2830:
  3747  0041                     l2186:
  3748  0041  3000               	movlw	0
  3749  0042  00C7               	movwf	___fldiv@b+3
  3750  0043  3000               	movlw	0
  3751  0044  00C6               	movwf	___fldiv@b+2
  3752  0045  3000               	movlw	0
  3753  0046  00C5               	movwf	___fldiv@b+1
  3754  0047  3000               	movlw	0
  3755  0048  00C4               	movwf	___fldiv@b
  3756  0049                     l2188:
  3757  0049  17C6               	bsf	___fldiv@b+2,7
  3758  004A                     l2190:
  3759  004A  01C7               	clrf	___fldiv@b+3
  3760  004B  2854               	goto	l2194
  3761  004C                     l2192:
  3762  004C  3000               	movlw	0
  3763  004D  00C7               	movwf	___fldiv@b+3
  3764  004E  3000               	movlw	0
  3765  004F  00C6               	movwf	___fldiv@b+2
  3766  0050  3000               	movlw	0
  3767  0051  00C5               	movwf	___fldiv@b+1
  3768  0052  3000               	movlw	0
  3769  0053  00C4               	movwf	___fldiv@b
  3770  0054                     l2194:
  3771  0054  0843               	movf	___fldiv@a+3,w
  3772  0055  3980               	andlw	128
  3773  0056  00C8               	movwf	??___fldiv
  3774  0057  0848               	movf	??___fldiv,w
  3775  0058  06D1               	xorwf	___fldiv@sign,f
  3776  0059                     l2196:
  3777  0059  0843               	movf	___fldiv@a+3,w
  3778  005A  00C8               	movwf	??___fldiv
  3779  005B  0748               	addwf	??___fldiv,w
  3780  005C  00C9               	movwf	??___fldiv+1
  3781  005D  0849               	movf	??___fldiv+1,w
  3782  005E  00D9               	movwf	___fldiv@aexp
  3783  005F                     l2198:
  3784  005F  1FC2               	btfss	___fldiv@a+2,7
  3785  0060  2862               	goto	u2841
  3786  0061  2863               	goto	u2840
  3787  0062                     u2841:
  3788  0062  2864               	goto	l2202
  3789  0063                     u2840:
  3790  0063                     l2200:
  3791  0063  1459               	bsf	___fldiv@aexp,0
  3792  0064                     l2202:
  3793  0064  0859               	movf	___fldiv@aexp,w
  3794  0065  1903               	btfsc	3,2
  3795  0066  2868               	goto	u2851
  3796  0067  2869               	goto	u2850
  3797  0068                     u2851:
  3798  0068  2879               	goto	l2212
  3799  0069                     u2850:
  3800  0069                     l2204:
  3801  0069  0A59               	incf	___fldiv@aexp,w
  3802  006A  1D03               	btfss	3,2
  3803  006B  286D               	goto	u2861
  3804  006C  286E               	goto	u2860
  3805  006D                     u2861:
  3806  006D  2876               	goto	l2208
  3807  006E                     u2860:
  3808  006E                     l2206:
  3809  006E  3000               	movlw	0
  3810  006F  00C3               	movwf	___fldiv@a+3
  3811  0070  3000               	movlw	0
  3812  0071  00C2               	movwf	___fldiv@a+2
  3813  0072  3000               	movlw	0
  3814  0073  00C1               	movwf	___fldiv@a+1
  3815  0074  3000               	movlw	0
  3816  0075  00C0               	movwf	___fldiv@a
  3817  0076                     l2208:
  3818  0076  17C2               	bsf	___fldiv@a+2,7
  3819  0077                     l2210:
  3820  0077  01C3               	clrf	___fldiv@a+3
  3821  0078  2881               	goto	l623
  3822  0079                     l2212:
  3823  0079  3000               	movlw	0
  3824  007A  00C3               	movwf	___fldiv@a+3
  3825  007B  3000               	movlw	0
  3826  007C  00C2               	movwf	___fldiv@a+2
  3827  007D  3000               	movlw	0
  3828  007E  00C1               	movwf	___fldiv@a+1
  3829  007F  3000               	movlw	0
  3830  0080  00C0               	movwf	___fldiv@a
  3831  0081                     l623:
  3832  0081  0843               	movf	___fldiv@a+3,w
  3833  0082  0442               	iorwf	___fldiv@a+2,w
  3834  0083  0441               	iorwf	___fldiv@a+1,w
  3835  0084  0440               	iorwf	___fldiv@a,w
  3836  0085  1D03               	skipz
  3837  0086  2888               	goto	u2871
  3838  0087  2889               	goto	u2870
  3839  0088                     u2871:
  3840  0088  28A2               	goto	l2222
  3841  0089                     u2870:
  3842  0089                     l2214:
  3843  0089  3000               	movlw	0
  3844  008A  00C7               	movwf	___fldiv@b+3
  3845  008B  3000               	movlw	0
  3846  008C  00C6               	movwf	___fldiv@b+2
  3847  008D  3000               	movlw	0
  3848  008E  00C5               	movwf	___fldiv@b+1
  3849  008F  3000               	movlw	0
  3850  0090  00C4               	movwf	___fldiv@b
  3851  0091  3080               	movlw	128
  3852  0092  04C6               	iorwf	___fldiv@b+2,f
  3853  0093  307F               	movlw	127
  3854  0094  04C7               	iorwf	___fldiv@b+3,f
  3855  0095                     l2216:
  3856  0095  0851               	movf	___fldiv@sign,w
  3857  0096  00C8               	movwf	??___fldiv
  3858  0097  0848               	movf	??___fldiv,w
  3859  0098  04C7               	iorwf	___fldiv@b+3,f
  3860  0099                     l2218:
  3861  0099  0847               	movf	___fldiv@b+3,w
  3862  009A  00C3               	movwf	?___fldiv+3
  3863  009B  0846               	movf	___fldiv@b+2,w
  3864  009C  00C2               	movwf	?___fldiv+2
  3865  009D  0845               	movf	___fldiv@b+1,w
  3866  009E  00C1               	movwf	?___fldiv+1
  3867  009F  0844               	movf	___fldiv@b,w
  3868  00A0  00C0               	movwf	?___fldiv
  3869  00A1  2A01               	goto	l625
  3870  00A2                     l2222:
  3871  00A2  0858               	movf	___fldiv@bexp,w
  3872  00A3  1D03               	btfss	3,2
  3873  00A4  28A6               	goto	u2881
  3874  00A5  28A7               	goto	u2880
  3875  00A6                     u2881:
  3876  00A6  28B0               	goto	l2228
  3877  00A7                     u2880:
  3878  00A7                     l2224:
  3879  00A7  3000               	movlw	0
  3880  00A8  00C3               	movwf	?___fldiv+3
  3881  00A9  3000               	movlw	0
  3882  00AA  00C2               	movwf	?___fldiv+2
  3883  00AB  3000               	movlw	0
  3884  00AC  00C1               	movwf	?___fldiv+1
  3885  00AD  3000               	movlw	0
  3886  00AE  00C0               	movwf	?___fldiv
  3887  00AF  2A01               	goto	l625
  3888  00B0                     l2228:
  3889  00B0  0858               	movf	___fldiv@bexp,w
  3890  00B1  00C8               	movwf	??___fldiv
  3891  00B2  01C9               	clrf	??___fldiv+1
  3892  00B3  0849               	movf	??___fldiv+1,w
  3893  00B4  00CB               	movwf	??___fldiv+3
  3894  00B5  0859               	movf	___fldiv@aexp,w
  3895  00B6  0248               	subwf	??___fldiv,w
  3896  00B7  00CA               	movwf	??___fldiv+2
  3897  00B8  1C03               	skipc
  3898  00B9  03CB               	decf	??___fldiv+3,f
  3899  00BA  084A               	movf	??___fldiv+2,w
  3900  00BB  3E7F               	addlw	127
  3901  00BC  00D2               	movwf	___fldiv@new_exp
  3902  00BD  084B               	movf	??___fldiv+3,w
  3903  00BE  1803               	skipnc
  3904  00BF  3E01               	addlw	1
  3905  00C0  3E00               	addlw	0
  3906  00C1  00D3               	movwf	___fldiv@new_exp+1
  3907  00C2                     l2230:
  3908  00C2  0847               	movf	___fldiv@b+3,w
  3909  00C3  00D0               	movwf	___fldiv@rem+3
  3910  00C4  0846               	movf	___fldiv@b+2,w
  3911  00C5  00CF               	movwf	___fldiv@rem+2
  3912  00C6  0845               	movf	___fldiv@b+1,w
  3913  00C7  00CE               	movwf	___fldiv@rem+1
  3914  00C8  0844               	movf	___fldiv@b,w
  3915  00C9  00CD               	movwf	___fldiv@rem
  3916  00CA                     l2232:
  3917  00CA  3000               	movlw	0
  3918  00CB  00C7               	movwf	___fldiv@b+3
  3919  00CC  3000               	movlw	0
  3920  00CD  00C6               	movwf	___fldiv@b+2
  3921  00CE  3000               	movlw	0
  3922  00CF  00C5               	movwf	___fldiv@b+1
  3923  00D0  3000               	movlw	0
  3924  00D1  00C4               	movwf	___fldiv@b
  3925  00D2                     l2234:
  3926  00D2  3000               	movlw	0
  3927  00D3  00D7               	movwf	___fldiv@grs+3
  3928  00D4  3000               	movlw	0
  3929  00D5  00D6               	movwf	___fldiv@grs+2
  3930  00D6  3000               	movlw	0
  3931  00D7  00D5               	movwf	___fldiv@grs+1
  3932  00D8  3000               	movlw	0
  3933  00D9  00D4               	movwf	___fldiv@grs
  3934  00DA                     l2236:
  3935  00DA  01D9               	clrf	___fldiv@aexp
  3936  00DB  2926               	goto	l2256
  3937  00DC                     l2238:
  3938  00DC  0859               	movf	___fldiv@aexp,w
  3939  00DD  1903               	btfsc	3,2
  3940  00DE  28E0               	goto	u2891
  3941  00DF  28E1               	goto	u2890
  3942  00E0                     u2891:
  3943  00E0  2901               	goto	l2248
  3944  00E1                     u2890:
  3945  00E1                     l2240:
  3946  00E1  3001               	movlw	1
  3947  00E2  00C8               	movwf	??___fldiv
  3948  00E3                     u2905:
  3949  00E3  1003               	clrc
  3950  00E4  0DCD               	rlf	___fldiv@rem,f
  3951  00E5  0DCE               	rlf	___fldiv@rem+1,f
  3952  00E6  0DCF               	rlf	___fldiv@rem+2,f
  3953  00E7  0DD0               	rlf	___fldiv@rem+3,f
  3954  00E8  0BC8               	decfsz	??___fldiv,f
  3955  00E9  28E3               	goto	u2905
  3956  00EA  3001               	movlw	1
  3957  00EB  00C8               	movwf	??___fldiv
  3958  00EC                     u2915:
  3959  00EC  1003               	clrc
  3960  00ED  0DC4               	rlf	___fldiv@b,f
  3961  00EE  0DC5               	rlf	___fldiv@b+1,f
  3962  00EF  0DC6               	rlf	___fldiv@b+2,f
  3963  00F0  0DC7               	rlf	___fldiv@b+3,f
  3964  00F1  0BC8               	decfsz	??___fldiv,f
  3965  00F2  28EC               	goto	u2915
  3966  00F3                     l2242:
  3967  00F3  1FD7               	btfss	___fldiv@grs+3,7
  3968  00F4  28F6               	goto	u2921
  3969  00F5  28F7               	goto	u2920
  3970  00F6                     u2921:
  3971  00F6  28F8               	goto	l2246
  3972  00F7                     u2920:
  3973  00F7                     l2244:
  3974  00F7  1444               	bsf	___fldiv@b,0
  3975  00F8                     l2246:
  3976  00F8  3001               	movlw	1
  3977  00F9  00C8               	movwf	??___fldiv
  3978  00FA                     u2935:
  3979  00FA  1003               	clrc
  3980  00FB  0DD4               	rlf	___fldiv@grs,f
  3981  00FC  0DD5               	rlf	___fldiv@grs+1,f
  3982  00FD  0DD6               	rlf	___fldiv@grs+2,f
  3983  00FE  0DD7               	rlf	___fldiv@grs+3,f
  3984  00FF  0BC8               	decfsz	??___fldiv,f
  3985  0100  28FA               	goto	u2935
  3986  0101                     l2248:
  3987  0101  0843               	movf	___fldiv@a+3,w
  3988  0102  0250               	subwf	___fldiv@rem+3,w
  3989  0103  1D03               	skipz
  3990  0104  290F               	goto	u2945
  3991  0105  0842               	movf	___fldiv@a+2,w
  3992  0106  024F               	subwf	___fldiv@rem+2,w
  3993  0107  1D03               	skipz
  3994  0108  290F               	goto	u2945
  3995  0109  0841               	movf	___fldiv@a+1,w
  3996  010A  024E               	subwf	___fldiv@rem+1,w
  3997  010B  1D03               	skipz
  3998  010C  290F               	goto	u2945
  3999  010D  0840               	movf	___fldiv@a,w
  4000  010E  024D               	subwf	___fldiv@rem,w
  4001  010F                     u2945:
  4002  010F  1C03               	skipc
  4003  0110  2912               	goto	u2941
  4004  0111  2913               	goto	u2940
  4005  0112                     u2941:
  4006  0112  2922               	goto	l2254
  4007  0113                     u2940:
  4008  0113                     l2250:
  4009  0113  1757               	bsf	___fldiv@grs+3,6
  4010  0114                     l2252:
  4011  0114  0840               	movf	___fldiv@a,w
  4012  0115  02CD               	subwf	___fldiv@rem,f
  4013  0116  0841               	movf	___fldiv@a+1,w
  4014  0117  1C03               	skipc
  4015  0118  0F41               	incfsz	___fldiv@a+1,w
  4016  0119  02CE               	subwf	___fldiv@rem+1,f
  4017  011A  0842               	movf	___fldiv@a+2,w
  4018  011B  1C03               	skipc
  4019  011C  0F42               	incfsz	___fldiv@a+2,w
  4020  011D  02CF               	subwf	___fldiv@rem+2,f
  4021  011E  0843               	movf	___fldiv@a+3,w
  4022  011F  1C03               	skipc
  4023  0120  0F43               	incfsz	___fldiv@a+3,w
  4024  0121  02D0               	subwf	___fldiv@rem+3,f
  4025  0122                     l2254:
  4026  0122  3001               	movlw	1
  4027  0123  00C8               	movwf	??___fldiv
  4028  0124  0848               	movf	??___fldiv,w
  4029  0125  07D9               	addwf	___fldiv@aexp,f
  4030  0126                     l2256:
  4031  0126  301A               	movlw	26
  4032  0127  0259               	subwf	___fldiv@aexp,w
  4033  0128  1C03               	skipc
  4034  0129  292B               	goto	u2951
  4035  012A  292C               	goto	u2950
  4036  012B                     u2951:
  4037  012B  28DC               	goto	l2238
  4038  012C                     u2950:
  4039  012C                     l2258:
  4040  012C  0850               	movf	___fldiv@rem+3,w
  4041  012D  044F               	iorwf	___fldiv@rem+2,w
  4042  012E  044E               	iorwf	___fldiv@rem+1,w
  4043  012F  044D               	iorwf	___fldiv@rem,w
  4044  0130  1903               	skipnz
  4045  0131  2933               	goto	u2961
  4046  0132  2934               	goto	u2960
  4047  0133                     u2961:
  4048  0133  2953               	goto	l2272
  4049  0134                     u2960:
  4050  0134                     l2260:
  4051  0134  1454               	bsf	___fldiv@grs,0
  4052  0135  2953               	goto	l2272
  4053  0136                     l2262:
  4054  0136  3001               	movlw	1
  4055  0137  00C8               	movwf	??___fldiv
  4056  0138                     u2975:
  4057  0138  1003               	clrc
  4058  0139  0DC4               	rlf	___fldiv@b,f
  4059  013A  0DC5               	rlf	___fldiv@b+1,f
  4060  013B  0DC6               	rlf	___fldiv@b+2,f
  4061  013C  0DC7               	rlf	___fldiv@b+3,f
  4062  013D  0BC8               	decfsz	??___fldiv,f
  4063  013E  2938               	goto	u2975
  4064  013F                     l2264:
  4065  013F  1FD7               	btfss	___fldiv@grs+3,7
  4066  0140  2942               	goto	u2981
  4067  0141  2943               	goto	u2980
  4068  0142                     u2981:
  4069  0142  2944               	goto	l2268
  4070  0143                     u2980:
  4071  0143                     l2266:
  4072  0143  1444               	bsf	___fldiv@b,0
  4073  0144                     l2268:
  4074  0144  3001               	movlw	1
  4075  0145  00C8               	movwf	??___fldiv
  4076  0146                     u2995:
  4077  0146  1003               	clrc
  4078  0147  0DD4               	rlf	___fldiv@grs,f
  4079  0148  0DD5               	rlf	___fldiv@grs+1,f
  4080  0149  0DD6               	rlf	___fldiv@grs+2,f
  4081  014A  0DD7               	rlf	___fldiv@grs+3,f
  4082  014B  0BC8               	decfsz	??___fldiv,f
  4083  014C  2946               	goto	u2995
  4084  014D                     l2270:
  4085  014D  30FF               	movlw	255
  4086  014E  07D2               	addwf	___fldiv@new_exp,f
  4087  014F  1803               	skipnc
  4088  0150  0AD3               	incf	___fldiv@new_exp+1,f
  4089  0151  30FF               	movlw	255
  4090  0152  07D3               	addwf	___fldiv@new_exp+1,f
  4091  0153                     l2272:
  4092  0153  1FC6               	btfss	___fldiv@b+2,7
  4093  0154  2956               	goto	u3001
  4094  0155  2957               	goto	u3000
  4095  0156                     u3001:
  4096  0156  2936               	goto	l2262
  4097  0157                     u3000:
  4098  0157                     l2274:
  4099  0157  01D9               	clrf	___fldiv@aexp
  4100  0158                     l2276:
  4101  0158  1FD7               	btfss	___fldiv@grs+3,7
  4102  0159  295B               	goto	u3011
  4103  015A  295C               	goto	u3010
  4104  015B                     u3011:
  4105  015B  2978               	goto	l2284
  4106  015C                     u3010:
  4107  015C                     l2278:
  4108  015C  30FF               	movlw	255
  4109  015D  0554               	andwf	___fldiv@grs,w
  4110  015E  00C8               	movwf	??___fldiv
  4111  015F  30FF               	movlw	255
  4112  0160  0555               	andwf	___fldiv@grs+1,w
  4113  0161  00C9               	movwf	??___fldiv+1
  4114  0162  30FF               	movlw	255
  4115  0163  0556               	andwf	___fldiv@grs+2,w
  4116  0164  00CA               	movwf	??___fldiv+2
  4117  0165  307F               	movlw	127
  4118  0166  0557               	andwf	___fldiv@grs+3,w
  4119  0167  00CB               	movwf	??___fldiv+3
  4120  0168  084B               	movf	??___fldiv+3,w
  4121  0169  044A               	iorwf	??___fldiv+2,w
  4122  016A  0449               	iorwf	??___fldiv+1,w
  4123  016B  0448               	iorwf	??___fldiv,w
  4124  016C  1903               	skipnz
  4125  016D  296F               	goto	u3021
  4126  016E  2970               	goto	u3020
  4127  016F                     u3021:
  4128  016F  2973               	goto	l639
  4129  0170                     u3020:
  4130  0170                     l2280:
  4131  0170  01D9               	clrf	___fldiv@aexp
  4132  0171  0AD9               	incf	___fldiv@aexp,f
  4133  0172  2978               	goto	l2284
  4134  0173                     l639:
  4135  0173  1C44               	btfss	___fldiv@b,0
  4136  0174  2976               	goto	u3031
  4137  0175  2977               	goto	u3030
  4138  0176                     u3031:
  4139  0176  2978               	goto	l2284
  4140  0177                     u3030:
  4141  0177  2970               	goto	l2280
  4142  0178                     l2284:
  4143  0178  0859               	movf	___fldiv@aexp,w
  4144  0179  1903               	btfsc	3,2
  4145  017A  297C               	goto	u3041
  4146  017B  297D               	goto	u3040
  4147  017C                     u3041:
  4148  017C  29AE               	goto	l2294
  4149  017D                     u3040:
  4150  017D                     l2286:
  4151  017D  3001               	movlw	1
  4152  017E  07C4               	addwf	___fldiv@b,f
  4153  017F  3000               	movlw	0
  4154  0180  1803               	skipnc
  4155  0181  3001               	movlw	1
  4156  0182  07C5               	addwf	___fldiv@b+1,f
  4157  0183  3000               	movlw	0
  4158  0184  1803               	skipnc
  4159  0185  3001               	movlw	1
  4160  0186  07C6               	addwf	___fldiv@b+2,f
  4161  0187  3000               	movlw	0
  4162  0188  1803               	skipnc
  4163  0189  3001               	movlw	1
  4164  018A  07C7               	addwf	___fldiv@b+3,f
  4165  018B                     l2288:
  4166  018B  1C47               	btfss	___fldiv@b+3,0
  4167  018C  298E               	goto	u3051
  4168  018D  298F               	goto	u3050
  4169  018E                     u3051:
  4170  018E  29AE               	goto	l2294
  4171  018F                     u3050:
  4172  018F                     l2290:
  4173  018F  0844               	movf	___fldiv@b,w
  4174  0190  00C8               	movwf	??___fldiv
  4175  0191  0845               	movf	___fldiv@b+1,w
  4176  0192  00C9               	movwf	??___fldiv+1
  4177  0193  0846               	movf	___fldiv@b+2,w
  4178  0194  00CA               	movwf	??___fldiv+2
  4179  0195  0847               	movf	___fldiv@b+3,w
  4180  0196  00CB               	movwf	??___fldiv+3
  4181  0197  3001               	movlw	1
  4182  0198  00CC               	movwf	??___fldiv+4
  4183  0199                     u3065:
  4184  0199  0D4B               	rlf	??___fldiv+3,w
  4185  019A  0CCB               	rrf	??___fldiv+3,f
  4186  019B  0CCA               	rrf	??___fldiv+2,f
  4187  019C  0CC9               	rrf	??___fldiv+1,f
  4188  019D  0CC8               	rrf	??___fldiv,f
  4189  019E                     u3060:
  4190  019E  0BCC               	decfsz	??___fldiv+4,f
  4191  019F  2999               	goto	u3065
  4192  01A0  084B               	movf	??___fldiv+3,w
  4193  01A1  00C7               	movwf	___fldiv@b+3
  4194  01A2  084A               	movf	??___fldiv+2,w
  4195  01A3  00C6               	movwf	___fldiv@b+2
  4196  01A4  0849               	movf	??___fldiv+1,w
  4197  01A5  00C5               	movwf	___fldiv@b+1
  4198  01A6  0848               	movf	??___fldiv,w
  4199  01A7  00C4               	movwf	___fldiv@b
  4200  01A8                     l2292:
  4201  01A8  3001               	movlw	1
  4202  01A9  07D2               	addwf	___fldiv@new_exp,f
  4203  01AA  1803               	skipnc
  4204  01AB  0AD3               	incf	___fldiv@new_exp+1,f
  4205  01AC  3000               	movlw	0
  4206  01AD  07D3               	addwf	___fldiv@new_exp+1,f
  4207  01AE                     l2294:
  4208  01AE  0853               	movf	___fldiv@new_exp+1,w
  4209  01AF  3A80               	xorlw	128
  4210  01B0  00FF               	movwf	btemp+1
  4211  01B1  3080               	movlw	128
  4212  01B2  027F               	subwf	btemp+1,w
  4213  01B3  1D03               	skipz
  4214  01B4  29B7               	goto	u3075
  4215  01B5  30FF               	movlw	255
  4216  01B6  0252               	subwf	___fldiv@new_exp,w
  4217  01B7                     u3075:
  4218  01B7  1C03               	skipc
  4219  01B8  29BA               	goto	u3071
  4220  01B9  29BB               	goto	u3070
  4221  01BA                     u3071:
  4222  01BA  29C9               	goto	l2298
  4223  01BB                     u3070:
  4224  01BB                     l2296:
  4225  01BB  30FF               	movlw	255
  4226  01BC  1283               	bcf	3,5	;RP0=0, select bank0
  4227  01BD  1303               	bcf	3,6	;RP1=0, select bank0
  4228  01BE  00D2               	movwf	___fldiv@new_exp
  4229  01BF  3000               	movlw	0
  4230  01C0  00D3               	movwf	___fldiv@new_exp+1
  4231  01C1  3000               	movlw	0
  4232  01C2  00C7               	movwf	___fldiv@b+3
  4233  01C3  3000               	movlw	0
  4234  01C4  00C6               	movwf	___fldiv@b+2
  4235  01C5  3000               	movlw	0
  4236  01C6  00C5               	movwf	___fldiv@b+1
  4237  01C7  3000               	movlw	0
  4238  01C8  00C4               	movwf	___fldiv@b
  4239  01C9                     l2298:
  4240  01C9  1283               	bcf	3,5	;RP0=0, select bank0
  4241  01CA  1303               	bcf	3,6	;RP1=0, select bank0
  4242  01CB  0853               	movf	___fldiv@new_exp+1,w
  4243  01CC  3A80               	xorlw	128
  4244  01CD  00FF               	movwf	btemp+1
  4245  01CE  3080               	movlw	128
  4246  01CF  027F               	subwf	btemp+1,w
  4247  01D0  1D03               	skipz
  4248  01D1  29D4               	goto	u3085
  4249  01D2  3001               	movlw	1
  4250  01D3  0252               	subwf	___fldiv@new_exp,w
  4251  01D4                     u3085:
  4252  01D4  1803               	skipnc
  4253  01D5  29D7               	goto	u3081
  4254  01D6  29D8               	goto	u3080
  4255  01D7                     u3081:
  4256  01D7  29E5               	goto	l645
  4257  01D8                     u3080:
  4258  01D8                     l2300:
  4259  01D8  1283               	bcf	3,5	;RP0=0, select bank0
  4260  01D9  1303               	bcf	3,6	;RP1=0, select bank0
  4261  01DA  01D2               	clrf	___fldiv@new_exp
  4262  01DB  01D3               	clrf	___fldiv@new_exp+1
  4263  01DC                     l2302:
  4264  01DC  3000               	movlw	0
  4265  01DD  00C7               	movwf	___fldiv@b+3
  4266  01DE  3000               	movlw	0
  4267  01DF  00C6               	movwf	___fldiv@b+2
  4268  01E0  3000               	movlw	0
  4269  01E1  00C5               	movwf	___fldiv@b+1
  4270  01E2  3000               	movlw	0
  4271  01E3  00C4               	movwf	___fldiv@b
  4272  01E4                     l2304:
  4273  01E4  01D1               	clrf	___fldiv@sign
  4274  01E5                     l645:
  4275  01E5  1283               	bcf	3,5	;RP0=0, select bank0
  4276  01E6  1303               	bcf	3,6	;RP1=0, select bank0
  4277  01E7  0852               	movf	___fldiv@new_exp,w
  4278  01E8  00C8               	movwf	??___fldiv
  4279  01E9  0848               	movf	??___fldiv,w
  4280  01EA  00D8               	movwf	___fldiv@bexp
  4281  01EB                     l2306:
  4282  01EB  1C58               	btfss	___fldiv@bexp,0
  4283  01EC  29EE               	goto	u3091
  4284  01ED  29EF               	goto	u3090
  4285  01EE                     u3091:
  4286  01EE  29F1               	goto	l2310
  4287  01EF                     u3090:
  4288  01EF                     l2308:
  4289  01EF  17C6               	bsf	___fldiv@b+2,7
  4290  01F0  29F5               	goto	l647
  4291  01F1                     l2310:
  4292  01F1  307F               	movlw	127
  4293  01F2  00C8               	movwf	??___fldiv
  4294  01F3  0848               	movf	??___fldiv,w
  4295  01F4  05C6               	andwf	___fldiv@b+2,f
  4296  01F5                     l647:
  4297  01F5  0858               	movf	___fldiv@bexp,w
  4298  01F6  00C8               	movwf	??___fldiv
  4299  01F7  1003               	clrc
  4300  01F8  0C48               	rrf	??___fldiv,w
  4301  01F9  00C9               	movwf	??___fldiv+1
  4302  01FA  0849               	movf	??___fldiv+1,w
  4303  01FB  00C7               	movwf	___fldiv@b+3
  4304  01FC  0851               	movf	___fldiv@sign,w
  4305  01FD  00C8               	movwf	??___fldiv
  4306  01FE  0848               	movf	??___fldiv,w
  4307  01FF  04C7               	iorwf	___fldiv@b+3,f
  4308  0200  2899               	goto	l2218
  4309  0201                     l625:
  4310  0201  0008               	return
  4311  0202                     __end_of___fldiv:
  4312                           
  4313                           	psect	text10
  4314  0202                     __ptext10:	
  4315 ;; *************** function ___fladd *****************
  4316 ;; Defined at:
  4317 ;;		line 10 in file "C:\Program Files\Microchip\xc8\v2.36\pic\sources\c90\common\sprcadd.c"
  4318 ;; Parameters:    Size  Location     Type
  4319 ;;  b               4   58[BANK0 ] unsigned char 
  4320 ;;  a               4   62[BANK0 ] unsigned char 
  4321 ;; Auto vars:     Size  Location     Type
  4322 ;;  grs             1   13[COMMON] unsigned char 
  4323 ;;  bexp            1   12[COMMON] unsigned char 
  4324 ;;  aexp            1   11[COMMON] unsigned char 
  4325 ;;  signs           1   10[COMMON] unsigned char 
  4326 ;; Return value:  Size  Location     Type
  4327 ;;                  4   58[BANK0 ] unsigned char 
  4328 ;; Registers used:
  4329 ;;		wreg, status,2, status,0, btemp+1
  4330 ;; Tracked objects:
  4331 ;;		On entry : 0/0
  4332 ;;		On exit  : 0/0
  4333 ;;		Unchanged: 0/0
  4334 ;; Data sizes:     COMMON   BANK0   BANK1   BANK3   BANK2
  4335 ;;      Params:         0       8       0       0       0
  4336 ;;      Locals:         4       0       0       0       0
  4337 ;;      Temps:          0       8       0       0       0
  4338 ;;      Totals:         4      16       0       0       0
  4339 ;;Total ram usage:       20 bytes
  4340 ;; Hardware stack levels used: 1
  4341 ;; This function calls:
  4342 ;;		Nothing
  4343 ;; This function is called by:
  4344 ;;		_main
  4345 ;; This function uses a non-reentrant model
  4346 ;;
  4347                           
  4348  0202                     ___fladd:	
  4349                           ;psect for function ___fladd
  4350                           
  4351  0202                     l1980:	
  4352                           ;incstack = 0
  4353                           ; Regs used in ___fladd: [wreg+status,2+status,0+btemp+1]
  4354                           
  4355  0202  1283               	bcf	3,5	;RP0=0, select bank0
  4356  0203  1303               	bcf	3,6	;RP1=0, select bank0
  4357  0204  085D               	movf	___fladd@b+3,w
  4358  0205  3980               	andlw	128
  4359  0206  00E2               	movwf	??___fladd
  4360  0207  0862               	movf	??___fladd,w
  4361  0208  00FA               	movwf	___fladd@signs
  4362  0209                     l1982:
  4363  0209  085D               	movf	___fladd@b+3,w
  4364  020A  00E2               	movwf	??___fladd
  4365  020B  0762               	addwf	??___fladd,w
  4366  020C  00E3               	movwf	??___fladd+1
  4367  020D  0863               	movf	??___fladd+1,w
  4368  020E  00FC               	movwf	___fladd@bexp
  4369  020F                     l1984:
  4370  020F  1FDC               	btfss	___fladd@b+2,7
  4371  0210  2A12               	goto	u2351
  4372  0211  2A13               	goto	u2350
  4373  0212                     u2351:
  4374  0212  2A14               	goto	l1988
  4375  0213                     u2350:
  4376  0213                     l1986:
  4377  0213  147C               	bsf	___fladd@bexp,0
  4378  0214                     l1988:
  4379  0214  087C               	movf	___fladd@bexp,w
  4380  0215  1903               	btfsc	3,2
  4381  0216  2A18               	goto	u2361
  4382  0217  2A19               	goto	u2360
  4383  0218                     u2361:
  4384  0218  2A29               	goto	l1998
  4385  0219                     u2360:
  4386  0219                     l1990:
  4387  0219  0A7C               	incf	___fladd@bexp,w
  4388  021A  1D03               	btfss	3,2
  4389  021B  2A1D               	goto	u2371
  4390  021C  2A1E               	goto	u2370
  4391  021D                     u2371:
  4392  021D  2A26               	goto	l1994
  4393  021E                     u2370:
  4394  021E                     l1992:
  4395  021E  3000               	movlw	0
  4396  021F  00DD               	movwf	___fladd@b+3
  4397  0220  3000               	movlw	0
  4398  0221  00DC               	movwf	___fladd@b+2
  4399  0222  3000               	movlw	0
  4400  0223  00DB               	movwf	___fladd@b+1
  4401  0224  3000               	movlw	0
  4402  0225  00DA               	movwf	___fladd@b
  4403  0226                     l1994:
  4404  0226  17DC               	bsf	___fladd@b+2,7
  4405  0227                     l1996:
  4406  0227  01DD               	clrf	___fladd@b+3
  4407  0228  2A31               	goto	l2000
  4408  0229                     l1998:
  4409  0229  3000               	movlw	0
  4410  022A  00DD               	movwf	___fladd@b+3
  4411  022B  3000               	movlw	0
  4412  022C  00DC               	movwf	___fladd@b+2
  4413  022D  3000               	movlw	0
  4414  022E  00DB               	movwf	___fladd@b+1
  4415  022F  3000               	movlw	0
  4416  0230  00DA               	movwf	___fladd@b
  4417  0231                     l2000:
  4418  0231  0861               	movf	___fladd@a+3,w
  4419  0232  3980               	andlw	128
  4420  0233  00E2               	movwf	??___fladd
  4421  0234  0862               	movf	??___fladd,w
  4422  0235  00FB               	movwf	___fladd@aexp
  4423  0236                     l2002:
  4424  0236  087B               	movf	___fladd@aexp,w
  4425  0237  067A               	xorwf	___fladd@signs,w
  4426  0238  1903               	skipnz
  4427  0239  2A3B               	goto	u2381
  4428  023A  2A3C               	goto	u2380
  4429  023B                     u2381:
  4430  023B  2A3D               	goto	l2006
  4431  023C                     u2380:
  4432  023C                     l2004:
  4433  023C  177A               	bsf	___fladd@signs,6
  4434  023D                     l2006:
  4435  023D  0861               	movf	___fladd@a+3,w
  4436  023E  00E2               	movwf	??___fladd
  4437  023F  0762               	addwf	??___fladd,w
  4438  0240  00E3               	movwf	??___fladd+1
  4439  0241  0863               	movf	??___fladd+1,w
  4440  0242  00FB               	movwf	___fladd@aexp
  4441  0243                     l2008:
  4442  0243  1FE0               	btfss	___fladd@a+2,7
  4443  0244  2A46               	goto	u2391
  4444  0245  2A47               	goto	u2390
  4445  0246                     u2391:
  4446  0246  2A48               	goto	l2012
  4447  0247                     u2390:
  4448  0247                     l2010:
  4449  0247  147B               	bsf	___fladd@aexp,0
  4450  0248                     l2012:
  4451  0248  087B               	movf	___fladd@aexp,w
  4452  0249  1903               	btfsc	3,2
  4453  024A  2A4C               	goto	u2401
  4454  024B  2A4D               	goto	u2400
  4455  024C                     u2401:
  4456  024C  2A5D               	goto	l2022
  4457  024D                     u2400:
  4458  024D                     l2014:
  4459  024D  0A7B               	incf	___fladd@aexp,w
  4460  024E  1D03               	btfss	3,2
  4461  024F  2A51               	goto	u2411
  4462  0250  2A52               	goto	u2410
  4463  0251                     u2411:
  4464  0251  2A5A               	goto	l2018
  4465  0252                     u2410:
  4466  0252                     l2016:
  4467  0252  3000               	movlw	0
  4468  0253  00E1               	movwf	___fladd@a+3
  4469  0254  3000               	movlw	0
  4470  0255  00E0               	movwf	___fladd@a+2
  4471  0256  3000               	movlw	0
  4472  0257  00DF               	movwf	___fladd@a+1
  4473  0258  3000               	movlw	0
  4474  0259  00DE               	movwf	___fladd@a
  4475  025A                     l2018:
  4476  025A  17E0               	bsf	___fladd@a+2,7
  4477  025B                     l2020:
  4478  025B  01E1               	clrf	___fladd@a+3
  4479  025C  2A65               	goto	l567
  4480  025D                     l2022:
  4481  025D  3000               	movlw	0
  4482  025E  00E1               	movwf	___fladd@a+3
  4483  025F  3000               	movlw	0
  4484  0260  00E0               	movwf	___fladd@a+2
  4485  0261  3000               	movlw	0
  4486  0262  00DF               	movwf	___fladd@a+1
  4487  0263  3000               	movlw	0
  4488  0264  00DE               	movwf	___fladd@a
  4489  0265                     l567:
  4490  0265  087C               	movf	___fladd@bexp,w
  4491  0266  027B               	subwf	___fladd@aexp,w
  4492  0267  1803               	skipnc
  4493  0268  2A6A               	goto	u2421
  4494  0269  2A6B               	goto	u2420
  4495  026A                     u2421:
  4496  026A  2AAF               	goto	l2058
  4497  026B                     u2420:
  4498  026B                     l2024:
  4499  026B  1F7A               	btfss	___fladd@signs,6
  4500  026C  2A6E               	goto	u2431
  4501  026D  2A6F               	goto	u2430
  4502  026E                     u2431:
  4503  026E  2A73               	goto	l2028
  4504  026F                     u2430:
  4505  026F                     l2026:
  4506  026F  3080               	movlw	128
  4507  0270  00E2               	movwf	??___fladd
  4508  0271  0862               	movf	??___fladd,w
  4509  0272  06FA               	xorwf	___fladd@signs,f
  4510  0273                     l2028:
  4511  0273  087C               	movf	___fladd@bexp,w
  4512  0274  00E2               	movwf	??___fladd
  4513  0275  0862               	movf	??___fladd,w
  4514  0276  00FD               	movwf	___fladd@grs
  4515  0277                     l2030:
  4516  0277  087B               	movf	___fladd@aexp,w
  4517  0278  00E2               	movwf	??___fladd
  4518  0279  0862               	movf	??___fladd,w
  4519  027A  00FC               	movwf	___fladd@bexp
  4520  027B                     l2032:
  4521  027B  087D               	movf	___fladd@grs,w
  4522  027C  00E2               	movwf	??___fladd
  4523  027D  0862               	movf	??___fladd,w
  4524  027E  00FB               	movwf	___fladd@aexp
  4525  027F                     l2034:
  4526  027F  085A               	movf	___fladd@b,w
  4527  0280  00E2               	movwf	??___fladd
  4528  0281  0862               	movf	??___fladd,w
  4529  0282  00FD               	movwf	___fladd@grs
  4530  0283                     l2036:
  4531  0283  085E               	movf	___fladd@a,w
  4532  0284  00E2               	movwf	??___fladd
  4533  0285  0862               	movf	??___fladd,w
  4534  0286  00DA               	movwf	___fladd@b
  4535  0287                     l2038:
  4536  0287  087D               	movf	___fladd@grs,w
  4537  0288  00E2               	movwf	??___fladd
  4538  0289  0862               	movf	??___fladd,w
  4539  028A  00DE               	movwf	___fladd@a
  4540  028B                     l2040:
  4541  028B  085B               	movf	___fladd@b+1,w
  4542  028C  00E2               	movwf	??___fladd
  4543  028D  0862               	movf	??___fladd,w
  4544  028E  00FD               	movwf	___fladd@grs
  4545  028F                     l2042:
  4546  028F  085F               	movf	___fladd@a+1,w
  4547  0290  00E2               	movwf	??___fladd
  4548  0291  0862               	movf	??___fladd,w
  4549  0292  00DB               	movwf	___fladd@b+1
  4550  0293                     l2044:
  4551  0293  087D               	movf	___fladd@grs,w
  4552  0294  00E2               	movwf	??___fladd
  4553  0295  0862               	movf	??___fladd,w
  4554  0296  00DF               	movwf	___fladd@a+1
  4555  0297                     l2046:
  4556  0297  085C               	movf	___fladd@b+2,w
  4557  0298  00E2               	movwf	??___fladd
  4558  0299  0862               	movf	??___fladd,w
  4559  029A  00FD               	movwf	___fladd@grs
  4560  029B                     l2048:
  4561  029B  0860               	movf	___fladd@a+2,w
  4562  029C  00E2               	movwf	??___fladd
  4563  029D  0862               	movf	??___fladd,w
  4564  029E  00DC               	movwf	___fladd@b+2
  4565  029F                     l2050:
  4566  029F  087D               	movf	___fladd@grs,w
  4567  02A0  00E2               	movwf	??___fladd
  4568  02A1  0862               	movf	??___fladd,w
  4569  02A2  00E0               	movwf	___fladd@a+2
  4570  02A3                     l2052:
  4571  02A3  085D               	movf	___fladd@b+3,w
  4572  02A4  00E2               	movwf	??___fladd
  4573  02A5  0862               	movf	??___fladd,w
  4574  02A6  00FD               	movwf	___fladd@grs
  4575  02A7                     l2054:
  4576  02A7  0861               	movf	___fladd@a+3,w
  4577  02A8  00E2               	movwf	??___fladd
  4578  02A9  0862               	movf	??___fladd,w
  4579  02AA  00DD               	movwf	___fladd@b+3
  4580  02AB                     l2056:
  4581  02AB  087D               	movf	___fladd@grs,w
  4582  02AC  00E2               	movwf	??___fladd
  4583  02AD  0862               	movf	??___fladd,w
  4584  02AE  00E1               	movwf	___fladd@a+3
  4585  02AF                     l2058:
  4586  02AF  01FD               	clrf	___fladd@grs
  4587  02B0                     l2060:
  4588  02B0  087B               	movf	___fladd@aexp,w
  4589  02B1  00E2               	movwf	??___fladd
  4590  02B2  01E3               	clrf	??___fladd+1
  4591  02B3  0863               	movf	??___fladd+1,w
  4592  02B4  00E5               	movwf	??___fladd+3
  4593  02B5  087C               	movf	___fladd@bexp,w
  4594  02B6  0262               	subwf	??___fladd,w
  4595  02B7  00E4               	movwf	??___fladd+2
  4596  02B8  1C03               	skipc
  4597  02B9  03E5               	decf	??___fladd+3,f
  4598  02BA  0865               	movf	??___fladd+3,w
  4599  02BB  3A80               	xorlw	128
  4600  02BC  00FF               	movwf	btemp+1
  4601  02BD  3080               	movlw	128
  4602  02BE  027F               	subwf	btemp+1,w
  4603  02BF  1D03               	skipz
  4604  02C0  2AC3               	goto	u2445
  4605  02C1  301A               	movlw	26
  4606  02C2  0264               	subwf	??___fladd+2,w
  4607  02C3                     u2445:
  4608  02C3  1C03               	skipc
  4609  02C4  2AC6               	goto	u2441
  4610  02C5  2AC7               	goto	u2440
  4611  02C6                     u2441:
  4612  02C6  2B08               	goto	l2076
  4613  02C7                     u2440:
  4614  02C7                     l2062:
  4615  02C7  1283               	bcf	3,5	;RP0=0, select bank0
  4616  02C8  1303               	bcf	3,6	;RP1=0, select bank0
  4617  02C9  085D               	movf	___fladd@b+3,w
  4618  02CA  045C               	iorwf	___fladd@b+2,w
  4619  02CB  045B               	iorwf	___fladd@b+1,w
  4620  02CC  045A               	iorwf	___fladd@b,w
  4621  02CD  1D03               	skipz
  4622  02CE  2AD0               	goto	u2451
  4623  02CF  2AD2               	goto	u2450
  4624  02D0                     u2451:
  4625  02D0  3001               	movlw	1
  4626  02D1  2AD3               	goto	u2460
  4627  02D2                     u2450:
  4628  02D2  3000               	movlw	0
  4629  02D3                     u2460:
  4630  02D3  00E2               	movwf	??___fladd
  4631  02D4  0862               	movf	??___fladd,w
  4632  02D5  00FD               	movwf	___fladd@grs
  4633  02D6  3000               	movlw	0
  4634  02D7  00DD               	movwf	___fladd@b+3
  4635  02D8  3000               	movlw	0
  4636  02D9  00DC               	movwf	___fladd@b+2
  4637  02DA  3000               	movlw	0
  4638  02DB  00DB               	movwf	___fladd@b+1
  4639  02DC  3000               	movlw	0
  4640  02DD  00DA               	movwf	___fladd@b
  4641  02DE  087B               	movf	___fladd@aexp,w
  4642  02DF  00E2               	movwf	??___fladd
  4643  02E0  0862               	movf	??___fladd,w
  4644  02E1  00FC               	movwf	___fladd@bexp
  4645  02E2  2B0E               	goto	l571
  4646  02E3                     l573:
  4647  02E3  1C7D               	btfss	___fladd@grs,0
  4648  02E4  2AE6               	goto	u2471
  4649  02E5  2AE7               	goto	u2470
  4650  02E6                     u2471:
  4651  02E6  2AF2               	goto	l2066
  4652  02E7                     u2470:
  4653  02E7                     l2064:
  4654  02E7  087D               	movf	___fladd@grs,w
  4655  02E8  1283               	bcf	3,5	;RP0=0, select bank0
  4656  02E9  1303               	bcf	3,6	;RP1=0, select bank0
  4657  02EA  00E2               	movwf	??___fladd
  4658  02EB  1003               	clrc
  4659  02EC  0C62               	rrf	??___fladd,w
  4660  02ED  3801               	iorlw	1
  4661  02EE  00E3               	movwf	??___fladd+1
  4662  02EF  0863               	movf	??___fladd+1,w
  4663  02F0  00FD               	movwf	___fladd@grs
  4664  02F1  2AF4               	goto	l2068
  4665  02F2                     l2066:
  4666  02F2  1003               	clrc
  4667  02F3  0CFD               	rrf	___fladd@grs,f
  4668  02F4                     l2068:
  4669  02F4  1283               	bcf	3,5	;RP0=0, select bank0
  4670  02F5  1303               	bcf	3,6	;RP1=0, select bank0
  4671  02F6  1C5A               	btfss	___fladd@b,0
  4672  02F7  2AF9               	goto	u2481
  4673  02F8  2AFA               	goto	u2480
  4674  02F9                     u2481:
  4675  02F9  2AFB               	goto	l2072
  4676  02FA                     u2480:
  4677  02FA                     l2070:
  4678  02FA  17FD               	bsf	___fladd@grs,7
  4679  02FB                     l2072:
  4680  02FB  3001               	movlw	1
  4681  02FC  00E2               	movwf	??___fladd
  4682  02FD                     u2495:
  4683  02FD  0D5D               	rlf	___fladd@b+3,w
  4684  02FE  0CDD               	rrf	___fladd@b+3,f
  4685  02FF  0CDC               	rrf	___fladd@b+2,f
  4686  0300  0CDB               	rrf	___fladd@b+1,f
  4687  0301  0CDA               	rrf	___fladd@b,f
  4688  0302  0BE2               	decfsz	??___fladd& (0+127),f
  4689  0303  2AFD               	goto	u2495
  4690  0304                     l2074:
  4691  0304  3001               	movlw	1
  4692  0305  00E2               	movwf	??___fladd
  4693  0306  0862               	movf	??___fladd,w
  4694  0307  07FC               	addwf	___fladd@bexp,f
  4695  0308                     l2076:
  4696  0308  087B               	movf	___fladd@aexp,w
  4697  0309  027C               	subwf	___fladd@bexp,w
  4698  030A  1C03               	skipc
  4699  030B  2B0D               	goto	u2501
  4700  030C  2B0E               	goto	u2500
  4701  030D                     u2501:
  4702  030D  2AE3               	goto	l573
  4703  030E                     u2500:
  4704  030E                     l571:
  4705  030E  1B7A               	btfsc	___fladd@signs,6
  4706  030F  2B11               	goto	u2511
  4707  0310  2B12               	goto	u2510
  4708  0311                     u2511:
  4709  0311  2B61               	goto	l2102
  4710  0312                     u2510:
  4711  0312                     l2078:
  4712  0312  087C               	movf	___fladd@bexp,w
  4713  0313  1D03               	btfss	3,2
  4714  0314  2B16               	goto	u2521
  4715  0315  2B17               	goto	u2520
  4716  0316                     u2521:
  4717  0316  2B22               	goto	l2084
  4718  0317                     u2520:
  4719  0317                     l2080:
  4720  0317  3000               	movlw	0
  4721  0318  1283               	bcf	3,5	;RP0=0, select bank0
  4722  0319  1303               	bcf	3,6	;RP1=0, select bank0
  4723  031A  00DD               	movwf	?___fladd+3
  4724  031B  3000               	movlw	0
  4725  031C  00DC               	movwf	?___fladd+2
  4726  031D  3000               	movlw	0
  4727  031E  00DB               	movwf	?___fladd+1
  4728  031F  3000               	movlw	0
  4729  0320  00DA               	movwf	?___fladd
  4730  0321  2C91               	goto	l580
  4731  0322                     l2084:
  4732  0322  1283               	bcf	3,5	;RP0=0, select bank0
  4733  0323  1303               	bcf	3,6	;RP1=0, select bank0
  4734  0324  085E               	movf	___fladd@a,w
  4735  0325  07DA               	addwf	___fladd@b,f
  4736  0326  085F               	movf	___fladd@a+1,w
  4737  0327  1103               	clrz
  4738  0328  1803               	skipnc
  4739  0329  3E01               	addlw	1
  4740  032A  1903               	skipnz
  4741  032B  2B2D               	goto	u2531
  4742  032C  07DB               	addwf	___fladd@b+1,f
  4743  032D                     u2531:
  4744  032D  0860               	movf	___fladd@a+2,w
  4745  032E  1103               	clrz
  4746  032F  1803               	skipnc
  4747  0330  3E01               	addlw	1
  4748  0331  1903               	skipnz
  4749  0332  2B34               	goto	u2532
  4750  0333  07DC               	addwf	___fladd@b+2,f
  4751  0334                     u2532:
  4752  0334  0861               	movf	___fladd@a+3,w
  4753  0335  1103               	clrz
  4754  0336  1803               	skipnc
  4755  0337  3E01               	addlw	1
  4756  0338  1903               	skipnz
  4757  0339  2B3B               	goto	u2533
  4758  033A  07DD               	addwf	___fladd@b+3,f
  4759  033B                     u2533:
  4760  033B                     l2086:
  4761  033B  1C5D               	btfss	___fladd@b+3,0
  4762  033C  2B3E               	goto	u2541
  4763  033D  2B3F               	goto	u2540
  4764  033E                     u2541:
  4765  033E  2C17               	goto	l2136
  4766  033F                     u2540:
  4767  033F                     l2088:
  4768  033F  1C7D               	btfss	___fladd@grs,0
  4769  0340  2B42               	goto	u2551
  4770  0341  2B43               	goto	u2550
  4771  0342                     u2551:
  4772  0342  2B4C               	goto	l2092
  4773  0343                     u2550:
  4774  0343                     l2090:
  4775  0343  087D               	movf	___fladd@grs,w
  4776  0344  00E2               	movwf	??___fladd
  4777  0345  1003               	clrc
  4778  0346  0C62               	rrf	??___fladd,w
  4779  0347  3801               	iorlw	1
  4780  0348  00E3               	movwf	??___fladd+1
  4781  0349  0863               	movf	??___fladd+1,w
  4782  034A  00FD               	movwf	___fladd@grs
  4783  034B  2B4E               	goto	l2094
  4784  034C                     l2092:
  4785  034C  1003               	clrc
  4786  034D  0CFD               	rrf	___fladd@grs,f
  4787  034E                     l2094:
  4788  034E  1C5A               	btfss	___fladd@b,0
  4789  034F  2B51               	goto	u2561
  4790  0350  2B52               	goto	u2560
  4791  0351                     u2561:
  4792  0351  2B53               	goto	l2098
  4793  0352                     u2560:
  4794  0352                     l2096:
  4795  0352  17FD               	bsf	___fladd@grs,7
  4796  0353                     l2098:
  4797  0353  3001               	movlw	1
  4798  0354  00E2               	movwf	??___fladd
  4799  0355                     u2575:
  4800  0355  0D5D               	rlf	___fladd@b+3,w
  4801  0356  0CDD               	rrf	___fladd@b+3,f
  4802  0357  0CDC               	rrf	___fladd@b+2,f
  4803  0358  0CDB               	rrf	___fladd@b+1,f
  4804  0359  0CDA               	rrf	___fladd@b,f
  4805  035A  0BE2               	decfsz	??___fladd& (0+127),f
  4806  035B  2B55               	goto	u2575
  4807  035C                     l2100:
  4808  035C  3001               	movlw	1
  4809  035D  00E2               	movwf	??___fladd
  4810  035E  0862               	movf	??___fladd,w
  4811  035F  07FC               	addwf	___fladd@bexp,f
  4812  0360  2C17               	goto	l2136
  4813  0361                     l2102:
  4814  0361  1283               	bcf	3,5	;RP0=0, select bank0
  4815  0362  1303               	bcf	3,6	;RP1=0, select bank0
  4816  0363  085D               	movf	___fladd@b+3,w
  4817  0364  3A80               	xorlw	128
  4818  0365  00FF               	movwf	btemp+1
  4819  0366  0861               	movf	___fladd@a+3,w
  4820  0367  3A80               	xorlw	128
  4821  0368  027F               	subwf	btemp+1,w
  4822  0369  1D03               	skipz
  4823  036A  2B75               	goto	u2583
  4824  036B  0860               	movf	___fladd@a+2,w
  4825  036C  025C               	subwf	___fladd@b+2,w
  4826  036D  1D03               	skipz
  4827  036E  2B75               	goto	u2583
  4828  036F  085F               	movf	___fladd@a+1,w
  4829  0370  025B               	subwf	___fladd@b+1,w
  4830  0371  1D03               	skipz
  4831  0372  2B75               	goto	u2583
  4832  0373  085E               	movf	___fladd@a,w
  4833  0374  025A               	subwf	___fladd@b,w
  4834  0375                     u2583:
  4835  0375  1803               	skipnc
  4836  0376  2B78               	goto	u2581
  4837  0377  2B79               	goto	u2580
  4838  0378                     u2581:
  4839  0378  2BD1               	goto	l2112
  4840  0379                     u2580:
  4841  0379                     l2104:
  4842  0379  30FF               	movlw	255
  4843  037A  00E2               	movwf	??___fladd
  4844  037B  30FF               	movlw	255
  4845  037C  00E3               	movwf	??___fladd+1
  4846  037D  30FF               	movlw	255
  4847  037E  00E4               	movwf	??___fladd+2
  4848  037F  30FF               	movlw	255
  4849  0380  00E5               	movwf	??___fladd+3
  4850  0381  085E               	movf	___fladd@a,w
  4851  0382  00E6               	movwf	??___fladd+4
  4852  0383  085F               	movf	___fladd@a+1,w
  4853  0384  00E7               	movwf	??___fladd+5
  4854  0385  0860               	movf	___fladd@a+2,w
  4855  0386  00E8               	movwf	??___fladd+6
  4856  0387  0861               	movf	___fladd@a+3,w
  4857  0388  00E9               	movwf	??___fladd+7
  4858  0389  085A               	movf	___fladd@b,w
  4859  038A  02E6               	subwf	??___fladd+4,f
  4860  038B  085B               	movf	___fladd@b+1,w
  4861  038C  1C03               	skipc
  4862  038D  0F5B               	incfsz	___fladd@b+1,w
  4863  038E  2B90               	goto	u2591
  4864  038F  2B91               	goto	u2592
  4865  0390                     u2591:
  4866  0390  02E7               	subwf	??___fladd+5,f
  4867  0391                     u2592:
  4868  0391  085C               	movf	___fladd@b+2,w
  4869  0392  1C03               	skipc
  4870  0393  0F5C               	incfsz	___fladd@b+2,w
  4871  0394  2B96               	goto	u2593
  4872  0395  2B97               	goto	u2594
  4873  0396                     u2593:
  4874  0396  02E8               	subwf	??___fladd+6,f
  4875  0397                     u2594:
  4876  0397  085D               	movf	___fladd@b+3,w
  4877  0398  1C03               	skipc
  4878  0399  0F5D               	incfsz	___fladd@b+3,w
  4879  039A  2B9C               	goto	u2595
  4880  039B  2B9D               	goto	u2596
  4881  039C                     u2595:
  4882  039C  02E9               	subwf	??___fladd+7,f
  4883  039D                     u2596:
  4884  039D  0866               	movf	??___fladd+4,w
  4885  039E  07E2               	addwf	??___fladd,f
  4886  039F  0867               	movf	??___fladd+5,w
  4887  03A0  1803               	skipnc
  4888  03A1  0F67               	incfsz	??___fladd+5,w
  4889  03A2  2BA4               	goto	u2600
  4890  03A3  2BA5               	goto	u2601
  4891  03A4                     u2600:
  4892  03A4  07E3               	addwf	??___fladd+1,f
  4893  03A5                     u2601:
  4894  03A5  0868               	movf	??___fladd+6,w
  4895  03A6  1803               	skipnc
  4896  03A7  0F68               	incfsz	??___fladd+6,w
  4897  03A8  2BAA               	goto	u2602
  4898  03A9  2BAB               	goto	u2603
  4899  03AA                     u2602:
  4900  03AA  07E4               	addwf	??___fladd+2,f
  4901  03AB                     u2603:
  4902  03AB  0869               	movf	??___fladd+7,w
  4903  03AC  1803               	skipnc
  4904  03AD  0A69               	incf	??___fladd+7,w
  4905  03AE  07E5               	addwf	??___fladd+3,f
  4906  03AF  0865               	movf	??___fladd+3,w
  4907  03B0  00DD               	movwf	___fladd@b+3
  4908  03B1  0864               	movf	??___fladd+2,w
  4909  03B2  00DC               	movwf	___fladd@b+2
  4910  03B3  0863               	movf	??___fladd+1,w
  4911  03B4  00DB               	movwf	___fladd@b+1
  4912  03B5  0862               	movf	??___fladd,w
  4913  03B6  00DA               	movwf	___fladd@b
  4914  03B7                     l2106:
  4915  03B7  3080               	movlw	128
  4916  03B8  00E2               	movwf	??___fladd
  4917  03B9  0862               	movf	??___fladd,w
  4918  03BA  06FA               	xorwf	___fladd@signs,f
  4919  03BB  09FD               	comf	___fladd@grs,f
  4920  03BC  0AFD               	incf	___fladd@grs,f
  4921  03BD                     l2108:
  4922  03BD  087D               	movf	___fladd@grs,w
  4923  03BE  1D03               	btfss	3,2
  4924  03BF  2BC1               	goto	u2611
  4925  03C0  2BC2               	goto	u2610
  4926  03C1                     u2611:
  4927  03C1  2BDF               	goto	l588
  4928  03C2                     u2610:
  4929  03C2                     l2110:
  4930  03C2  3001               	movlw	1
  4931  03C3  07DA               	addwf	___fladd@b,f
  4932  03C4  3000               	movlw	0
  4933  03C5  1803               	skipnc
  4934  03C6  3001               	movlw	1
  4935  03C7  07DB               	addwf	___fladd@b+1,f
  4936  03C8  3000               	movlw	0
  4937  03C9  1803               	skipnc
  4938  03CA  3001               	movlw	1
  4939  03CB  07DC               	addwf	___fladd@b+2,f
  4940  03CC  3000               	movlw	0
  4941  03CD  1803               	skipnc
  4942  03CE  3001               	movlw	1
  4943  03CF  07DD               	addwf	___fladd@b+3,f
  4944  03D0  2BDF               	goto	l588
  4945  03D1                     l2112:
  4946  03D1  085E               	movf	___fladd@a,w
  4947  03D2  02DA               	subwf	___fladd@b,f
  4948  03D3  085F               	movf	___fladd@a+1,w
  4949  03D4  1C03               	skipc
  4950  03D5  0F5F               	incfsz	___fladd@a+1,w
  4951  03D6  02DB               	subwf	___fladd@b+1,f
  4952  03D7  0860               	movf	___fladd@a+2,w
  4953  03D8  1C03               	skipc
  4954  03D9  0F60               	incfsz	___fladd@a+2,w
  4955  03DA  02DC               	subwf	___fladd@b+2,f
  4956  03DB  0861               	movf	___fladd@a+3,w
  4957  03DC  1C03               	skipc
  4958  03DD  0F61               	incfsz	___fladd@a+3,w
  4959  03DE  02DD               	subwf	___fladd@b+3,f
  4960  03DF                     l588:
  4961  03DF  085D               	movf	___fladd@b+3,w
  4962  03E0  045C               	iorwf	___fladd@b+2,w
  4963  03E1  045B               	iorwf	___fladd@b+1,w
  4964  03E2  045A               	iorwf	___fladd@b,w
  4965  03E3  1D03               	skipz
  4966  03E4  2BE6               	goto	u2621
  4967  03E5  2BE7               	goto	u2620
  4968  03E6                     u2621:
  4969  03E6  2C13               	goto	l2134
  4970  03E7                     u2620:
  4971  03E7                     l2114:
  4972  03E7  087D               	movf	___fladd@grs,w
  4973  03E8  1D03               	btfss	3,2
  4974  03E9  2BEB               	goto	u2631
  4975  03EA  2BEC               	goto	u2630
  4976  03EB                     u2631:
  4977  03EB  2C13               	goto	l2134
  4978  03EC                     u2630:
  4979  03EC                     l2116:
  4980  03EC  3000               	movlw	0
  4981  03ED  00DD               	movwf	?___fladd+3
  4982  03EE  3000               	movlw	0
  4983  03EF  00DC               	movwf	?___fladd+2
  4984  03F0  3000               	movlw	0
  4985  03F1  00DB               	movwf	?___fladd+1
  4986  03F2  3000               	movlw	0
  4987  03F3  00DA               	movwf	?___fladd
  4988  03F4  2C91               	goto	l580
  4989  03F5                     l2120:
  4990  03F5  3001               	movlw	1
  4991  03F6  00E2               	movwf	??___fladd
  4992  03F7                     u2645:
  4993  03F7  1003               	clrc
  4994  03F8  0DDA               	rlf	___fladd@b,f
  4995  03F9  0DDB               	rlf	___fladd@b+1,f
  4996  03FA  0DDC               	rlf	___fladd@b+2,f
  4997  03FB  0DDD               	rlf	___fladd@b+3,f
  4998  03FC  0BE2               	decfsz	??___fladd,f
  4999  03FD  2BF7               	goto	u2645
  5000  03FE                     l2122:
  5001  03FE  1FFD               	btfss	___fladd@grs,7
  5002  03FF  2C01               	goto	u2651
  5003  0400  2C02               	goto	u2650
  5004  0401                     u2651:
  5005  0401  2C03               	goto	l592
  5006  0402                     u2650:
  5007  0402                     l2124:
  5008  0402  145A               	bsf	___fladd@b,0
  5009  0403                     l592:
  5010  0403  1C7D               	btfss	___fladd@grs,0
  5011  0404  2C06               	goto	u2661
  5012  0405  2C07               	goto	u2660
  5013  0406                     u2661:
  5014  0406  2C0A               	goto	l2128
  5015  0407                     u2660:
  5016  0407                     l2126:
  5017  0407  1403               	setc
  5018  0408  0DFD               	rlf	___fladd@grs,f
  5019  0409  2C0C               	goto	l2130
  5020  040A                     l2128:
  5021  040A  1003               	clrc
  5022  040B  0DFD               	rlf	___fladd@grs,f
  5023  040C                     l2130:
  5024  040C  087C               	movf	___fladd@bexp,w
  5025  040D  1903               	btfsc	3,2
  5026  040E  2C10               	goto	u2671
  5027  040F  2C11               	goto	u2670
  5028  0410                     u2671:
  5029  0410  2C13               	goto	l2134
  5030  0411                     u2670:
  5031  0411                     l2132:
  5032  0411  3001               	movlw	1
  5033  0412  02FC               	subwf	___fladd@bexp,f
  5034  0413                     l2134:
  5035  0413  1FDC               	btfss	___fladd@b+2,7
  5036  0414  2C16               	goto	u2681
  5037  0415  2C17               	goto	u2680
  5038  0416                     u2681:
  5039  0416  2BF5               	goto	l2120
  5040  0417                     u2680:
  5041  0417                     l2136:
  5042  0417  01FB               	clrf	___fladd@aexp
  5043  0418                     l2138:
  5044  0418  1FFD               	btfss	___fladd@grs,7
  5045  0419  2C1B               	goto	u2691
  5046  041A  2C1C               	goto	u2690
  5047  041B                     u2691:
  5048  041B  2C2A               	goto	l2146
  5049  041C                     u2690:
  5050  041C                     l2140:
  5051  041C  087D               	movf	___fladd@grs,w
  5052  041D  397F               	andlw	127
  5053  041E  1903               	btfsc	3,2
  5054  041F  2C21               	goto	u2701
  5055  0420  2C22               	goto	u2700
  5056  0421                     u2701:
  5057  0421  2C25               	goto	l598
  5058  0422                     u2700:
  5059  0422                     l2142:
  5060  0422  01FB               	clrf	___fladd@aexp
  5061  0423  0AFB               	incf	___fladd@aexp,f
  5062  0424  2C2A               	goto	l2146
  5063  0425                     l598:
  5064  0425  1C5A               	btfss	___fladd@b,0
  5065  0426  2C28               	goto	u2711
  5066  0427  2C29               	goto	u2710
  5067  0428                     u2711:
  5068  0428  2C2A               	goto	l2146
  5069  0429                     u2710:
  5070  0429  2C22               	goto	l2142
  5071  042A                     l2146:
  5072  042A  087B               	movf	___fladd@aexp,w
  5073  042B  1903               	btfsc	3,2
  5074  042C  2C2E               	goto	u2721
  5075  042D  2C2F               	goto	u2720
  5076  042E                     u2721:
  5077  042E  2C63               	goto	l601
  5078  042F                     u2720:
  5079  042F                     l2148:
  5080  042F  3001               	movlw	1
  5081  0430  07DA               	addwf	___fladd@b,f
  5082  0431  3000               	movlw	0
  5083  0432  1803               	skipnc
  5084  0433  3001               	movlw	1
  5085  0434  07DB               	addwf	___fladd@b+1,f
  5086  0435  3000               	movlw	0
  5087  0436  1803               	skipnc
  5088  0437  3001               	movlw	1
  5089  0438  07DC               	addwf	___fladd@b+2,f
  5090  0439  3000               	movlw	0
  5091  043A  1803               	skipnc
  5092  043B  3001               	movlw	1
  5093  043C  07DD               	addwf	___fladd@b+3,f
  5094  043D                     l2150:
  5095  043D  1C5D               	btfss	___fladd@b+3,0
  5096  043E  2C40               	goto	u2731
  5097  043F  2C41               	goto	u2730
  5098  0440                     u2731:
  5099  0440  2C63               	goto	l601
  5100  0441                     u2730:
  5101  0441                     l2152:
  5102  0441  085A               	movf	___fladd@b,w
  5103  0442  00E2               	movwf	??___fladd
  5104  0443  085B               	movf	___fladd@b+1,w
  5105  0444  00E3               	movwf	??___fladd+1
  5106  0445  085C               	movf	___fladd@b+2,w
  5107  0446  00E4               	movwf	??___fladd+2
  5108  0447  085D               	movf	___fladd@b+3,w
  5109  0448  00E5               	movwf	??___fladd+3
  5110  0449  3001               	movlw	1
  5111  044A  00E6               	movwf	??___fladd+4
  5112  044B                     u2745:
  5113  044B  0D65               	rlf	??___fladd+3,w
  5114  044C  0CE5               	rrf	??___fladd+3,f
  5115  044D  0CE4               	rrf	??___fladd+2,f
  5116  044E  0CE3               	rrf	??___fladd+1,f
  5117  044F  0CE2               	rrf	??___fladd,f
  5118  0450                     u2740:
  5119  0450  0BE6               	decfsz	??___fladd+4,f
  5120  0451  2C4B               	goto	u2745
  5121  0452  0865               	movf	??___fladd+3,w
  5122  0453  00DD               	movwf	___fladd@b+3
  5123  0454  0864               	movf	??___fladd+2,w
  5124  0455  00DC               	movwf	___fladd@b+2
  5125  0456  0863               	movf	??___fladd+1,w
  5126  0457  00DB               	movwf	___fladd@b+1
  5127  0458  0862               	movf	??___fladd,w
  5128  0459  00DA               	movwf	___fladd@b
  5129  045A  0A7C               	incf	___fladd@bexp,w
  5130  045B  1903               	btfsc	3,2
  5131  045C  2C5E               	goto	u2751
  5132  045D  2C5F               	goto	u2750
  5133  045E                     u2751:
  5134  045E  2C63               	goto	l601
  5135  045F                     u2750:
  5136  045F                     l2154:
  5137  045F  3001               	movlw	1
  5138  0460  00E2               	movwf	??___fladd
  5139  0461  0862               	movf	??___fladd,w
  5140  0462  07FC               	addwf	___fladd@bexp,f
  5141  0463                     l601:
  5142  0463  0A7C               	incf	___fladd@bexp,w
  5143  0464  1903               	btfsc	3,2
  5144  0465  2C67               	goto	u2761
  5145  0466  2C68               	goto	u2760
  5146  0467                     u2761:
  5147  0467  2C6D               	goto	l2158
  5148  0468                     u2760:
  5149  0468                     l2156:
  5150  0468  087C               	movf	___fladd@bexp,w
  5151  0469  1D03               	btfss	3,2
  5152  046A  2C6C               	goto	u2771
  5153  046B  2C6D               	goto	u2770
  5154  046C                     u2771:
  5155  046C  2C7B               	goto	l2164
  5156  046D                     u2770:
  5157  046D                     l2158:
  5158  046D  3000               	movlw	0
  5159  046E  00DD               	movwf	___fladd@b+3
  5160  046F  3000               	movlw	0
  5161  0470  00DC               	movwf	___fladd@b+2
  5162  0471  3000               	movlw	0
  5163  0472  00DB               	movwf	___fladd@b+1
  5164  0473  3000               	movlw	0
  5165  0474  00DA               	movwf	___fladd@b
  5166  0475                     l2160:
  5167  0475  087C               	movf	___fladd@bexp,w
  5168  0476  1D03               	btfss	3,2
  5169  0477  2C79               	goto	u2781
  5170  0478  2C7A               	goto	u2780
  5171  0479                     u2781:
  5172  0479  2C7B               	goto	l2164
  5173  047A                     u2780:
  5174  047A                     l2162:
  5175  047A  01FA               	clrf	___fladd@signs
  5176  047B                     l2164:
  5177  047B  1C7C               	btfss	___fladd@bexp,0
  5178  047C  2C7E               	goto	u2791
  5179  047D  2C7F               	goto	u2790
  5180  047E                     u2791:
  5181  047E  2C81               	goto	l2168
  5182  047F                     u2790:
  5183  047F                     l2166:
  5184  047F  17DC               	bsf	___fladd@b+2,7
  5185  0480  2C85               	goto	l609
  5186  0481                     l2168:
  5187  0481  307F               	movlw	127
  5188  0482  00E2               	movwf	??___fladd
  5189  0483  0862               	movf	??___fladd,w
  5190  0484  05DC               	andwf	___fladd@b+2,f
  5191  0485                     l609:
  5192  0485  087C               	movf	___fladd@bexp,w
  5193  0486  00E2               	movwf	??___fladd
  5194  0487  1003               	clrc
  5195  0488  0C62               	rrf	??___fladd,w
  5196  0489  00E3               	movwf	??___fladd+1
  5197  048A  0863               	movf	??___fladd+1,w
  5198  048B  00DD               	movwf	___fladd@b+3
  5199  048C                     l2170:
  5200  048C  1FFA               	btfss	___fladd@signs,7
  5201  048D  2C8F               	goto	u2801
  5202  048E  2C90               	goto	u2800
  5203  048F                     u2801:
  5204  048F  2C91               	goto	l610
  5205  0490                     u2800:
  5206  0490                     l2172:
  5207  0490  17DD               	bsf	___fladd@b+3,7
  5208  0491                     l610:
  5209  0491                     l580:
  5210  0491  0008               	return
  5211  0492                     __end_of___fladd:
  5212                           
  5213                           	psect	text11
  5214  09AD                     __ptext11:	
  5215 ;; *************** function _Start_Stop *****************
  5216 ;; Defined at:
  5217 ;;		line 107 in file "newmain.c"
  5218 ;; Parameters:    Size  Location     Type
  5219 ;;  flag2           1    wreg     PTR unsigned char 
  5220 ;;		 -> flag2(1), 
  5221 ;; Auto vars:     Size  Location     Type
  5222 ;;  flag2           1    2[COMMON] PTR unsigned char 
  5223 ;;		 -> flag2(1), 
  5224 ;; Return value:  Size  Location     Type
  5225 ;;                  1    wreg      void 
  5226 ;; Registers used:
  5227 ;;		wreg, fsr0l, fsr0h, status,2, status,0
  5228 ;; Tracked objects:
  5229 ;;		On entry : 0/0
  5230 ;;		On exit  : 0/0
  5231 ;;		Unchanged: 0/0
  5232 ;; Data sizes:     COMMON   BANK0   BANK1   BANK3   BANK2
  5233 ;;      Params:         0       0       0       0       0
  5234 ;;      Locals:         1       0       0       0       0
  5235 ;;      Temps:          2       0       0       0       0
  5236 ;;      Totals:         3       0       0       0       0
  5237 ;;Total ram usage:        3 bytes
  5238 ;; Hardware stack levels used: 1
  5239 ;; This function calls:
  5240 ;;		Nothing
  5241 ;; This function is called by:
  5242 ;;		_main
  5243 ;; This function uses a non-reentrant model
  5244 ;;
  5245                           
  5246  09AD                     _Start_Stop:	
  5247                           ;psect for function _Start_Stop
  5248                           
  5249                           
  5250                           ;incstack = 0
  5251                           ; Regs used in _Start_Stop: [wreg-fsr0h+status,2+status,0]
  5252                           ;Start_Stop@flag2 stored from wreg
  5253  09AD  00F2               	movwf	Start_Stop@flag2
  5254  09AE                     l1856:
  5255                           
  5256                           ;newmain.c: 107: void Start_Stop(unsigned char *flag2);newmain.c: 108: {;newmain.c: 109:
      +                               if(PORTBbits.RB0 == 1)
  5257  09AE  1283               	bcf	3,5	;RP0=0, select bank0
  5258  09AF  1303               	bcf	3,6	;RP1=0, select bank0
  5259  09B0  1C06               	btfss	6,0	;volatile
  5260  09B1  29B3               	goto	u2131
  5261  09B2  29B4               	goto	u2130
  5262  09B3                     u2131:
  5263  09B3  29D1               	goto	l101
  5264  09B4                     u2130:
  5265  09B4                     l1858:
  5266                           
  5267                           ;newmain.c: 110:     {;newmain.c: 111:         _delay((unsigned long)((10)*(4000000/4000
      +                          .0)));
  5268  09B4  300D               	movlw	13
  5269  09B5  00F1               	movwf	??_Start_Stop+1
  5270  09B6  30FB               	movlw	251
  5271  09B7  00F0               	movwf	??_Start_Stop
  5272  09B8                     u3677:
  5273  09B8  0BF0               	decfsz	??_Start_Stop,f
  5274  09B9  29B8               	goto	u3677
  5275  09BA  0BF1               	decfsz	??_Start_Stop+1,f
  5276  09BB  29B8               	goto	u3677
  5277  09BC  29BD               	nop2
  5278  09BD                     l1860:
  5279                           
  5280                           ;newmain.c: 112:         if(PORTBbits.RB0 == 1)
  5281  09BD  1283               	bcf	3,5	;RP0=0, select bank0
  5282  09BE  1303               	bcf	3,6	;RP1=0, select bank0
  5283  09BF  1C06               	btfss	6,0	;volatile
  5284  09C0  29C2               	goto	u2141
  5285  09C1  29C3               	goto	u2140
  5286  09C2                     u2141:
  5287  09C2  29D1               	goto	l101
  5288  09C3                     u2140:
  5289  09C3                     l98:
  5290  09C3  1806               	btfsc	6,0	;volatile
  5291  09C4  29C6               	goto	u2151
  5292  09C5  29C7               	goto	u2150
  5293  09C6                     u2151:
  5294  09C6  29C3               	goto	l98
  5295  09C7                     u2150:
  5296  09C7                     l1864:
  5297                           
  5298                           ;newmain.c: 115:             *flag2 = *flag2 + 1;
  5299  09C7  0872               	movf	Start_Stop@flag2,w
  5300  09C8  0084               	movwf	4
  5301  09C9  1383               	bcf	3,7	;select IRP bank0
  5302  09CA  0800               	movf	0,w
  5303  09CB  3E01               	addlw	1
  5304  09CC  00F0               	movwf	??_Start_Stop
  5305  09CD  0872               	movf	Start_Stop@flag2,w
  5306  09CE  0084               	movwf	4
  5307  09CF  0870               	movf	??_Start_Stop,w
  5308  09D0  0080               	movwf	0
  5309  09D1                     l101:
  5310  09D1  0008               	return
  5311  09D2                     __end_of_Start_Stop:
  5312                           
  5313                           	psect	text12
  5314  0004                     __ptext12:	
  5315 ;; *************** function _PWM_Set_Duty *****************
  5316 ;; Defined at:
  5317 ;;		line 60 in file "newmain.c"
  5318 ;; Parameters:    Size  Location     Type
  5319 ;;  DC              2    0[COMMON] unsigned int 
  5320 ;; Auto vars:     Size  Location     Type
  5321 ;;		None
  5322 ;; Return value:  Size  Location     Type
  5323 ;;                  1    wreg      void 
  5324 ;; Registers used:
  5325 ;;		wreg, status,2, status,0
  5326 ;; Tracked objects:
  5327 ;;		On entry : 0/0
  5328 ;;		On exit  : 0/0
  5329 ;;		Unchanged: 0/0
  5330 ;; Data sizes:     COMMON   BANK0   BANK1   BANK3   BANK2
  5331 ;;      Params:         2       0       0       0       0
  5332 ;;      Locals:         0       0       0       0       0
  5333 ;;      Temps:          2       0       0       0       0
  5334 ;;      Totals:         4       0       0       0       0
  5335 ;;Total ram usage:        4 bytes
  5336 ;; Hardware stack levels used: 1
  5337 ;; This function calls:
  5338 ;;		Nothing
  5339 ;; This function is called by:
  5340 ;;		_main
  5341 ;; This function uses a non-reentrant model
  5342 ;;
  5343                           
  5344  0004                     _PWM_Set_Duty:	
  5345                           ;psect for function _PWM_Set_Duty
  5346                           
  5347  0004                     l1810:	
  5348                           ;incstack = 0
  5349                           ; Regs used in _PWM_Set_Duty: [wreg+status,2+status,0]
  5350                           
  5351                           
  5352                           ;newmain.c: 60: void PWM_Set_Duty(uint16_t DC);newmain.c: 61: {;newmain.c: 62:     if(DC
      +                          <1024)
  5353  0004  3004               	movlw	4
  5354  0005  0271               	subwf	PWM_Set_Duty@DC+1,w
  5355  0006  3000               	movlw	0
  5356  0007  1903               	skipnz
  5357  0008  0270               	subwf	PWM_Set_Duty@DC,w
  5358  0009  1803               	skipnc
  5359  000A  280C               	goto	u2041
  5360  000B  280D               	goto	u2040
  5361  000C                     u2041:
  5362  000C  2824               	goto	l78
  5363  000D                     u2040:
  5364  000D                     l1812:
  5365                           
  5366                           ;newmain.c: 63:     {;newmain.c: 64:         CCP1Y = DC & 1;
  5367  000D  1870               	btfsc	PWM_Set_Duty@DC,0
  5368  000E  2810               	goto	u2051
  5369  000F  2814               	goto	u2050
  5370  0010                     u2051:
  5371  0010  1283               	bcf	3,5	;RP0=0, select bank0
  5372  0011  1303               	bcf	3,6	;RP1=0, select bank0
  5373  0012  1617               	bsf	23,4	;volatile
  5374  0013  2817               	goto	u2064
  5375  0014                     u2050:
  5376  0014  1283               	bcf	3,5	;RP0=0, select bank0
  5377  0015  1303               	bcf	3,6	;RP1=0, select bank0
  5378  0016  1217               	bcf	23,4	;volatile
  5379  0017                     u2064:
  5380                           
  5381                           ;newmain.c: 65:         CCP1X = DC & 2;
  5382  0017  1297               	bcf	23,5	;volatile
  5383  0018                     l1814:
  5384                           
  5385                           ;newmain.c: 66:         CCPR1L = DC >> 2;
  5386  0018  0871               	movf	PWM_Set_Duty@DC+1,w
  5387  0019  00F3               	movwf	??_PWM_Set_Duty+1
  5388  001A  0870               	movf	PWM_Set_Duty@DC,w
  5389  001B  00F2               	movwf	??_PWM_Set_Duty
  5390  001C  1003               	clrc
  5391  001D  0CF3               	rrf	??_PWM_Set_Duty+1,f
  5392  001E  0CF2               	rrf	??_PWM_Set_Duty,f
  5393  001F  1003               	clrc
  5394  0020  0CF3               	rrf	??_PWM_Set_Duty+1,f
  5395  0021  0CF2               	rrf	??_PWM_Set_Duty,f
  5396  0022  0872               	movf	??_PWM_Set_Duty,w
  5397  0023  0095               	movwf	21	;volatile
  5398  0024                     l78:
  5399  0024  0008               	return
  5400  0025                     __end_of_PWM_Set_Duty:
  5401                           
  5402                           	psect	text13
  5403  0A21                     __ptext13:	
  5404 ;; *************** function _LCDPutStr *****************
  5405 ;; Defined at:
  5406 ;;		line 134 in file "lcd.c"
  5407 ;; Parameters:    Size  Location     Type
  5408 ;;  str             2    7[COMMON] PTR const unsigned char 
  5409 ;;		 -> buffer(20), buffer1(20), STR_2(15), STR_1(11), 
  5410 ;; Auto vars:     Size  Location     Type
  5411 ;;  i               1   10[COMMON] unsigned char 
  5412 ;; Return value:  Size  Location     Type
  5413 ;;                  1    wreg      void 
  5414 ;; Registers used:
  5415 ;;		wreg, fsr0l, fsr0h, status,2, status,0, btemp+1, pclath, cstack
  5416 ;; Tracked objects:
  5417 ;;		On entry : 0/0
  5418 ;;		On exit  : 0/0
  5419 ;;		Unchanged: 0/0
  5420 ;; Data sizes:     COMMON   BANK0   BANK1   BANK3   BANK2
  5421 ;;      Params:         2       0       0       0       0
  5422 ;;      Locals:         1       0       0       0       0
  5423 ;;      Temps:          1       0       0       0       0
  5424 ;;      Totals:         4       0       0       0       0
  5425 ;;Total ram usage:        4 bytes
  5426 ;; Hardware stack levels used: 1
  5427 ;; Hardware stack levels required when called: 2
  5428 ;; This function calls:
  5429 ;;		_LCDPutChar
  5430 ;; This function is called by:
  5431 ;;		_main
  5432 ;; This function uses a non-reentrant model
  5433 ;;
  5434                           
  5435  0A21                     _LCDPutStr:	
  5436                           ;psect for function _LCDPutStr
  5437                           
  5438  0A21                     l1880:	
  5439                           ;incstack = 0
  5440                           ; Regs used in _LCDPutStr: [wreg-fsr0h+status,2+status,0+btemp+1+pclath+cstack]
  5441                           
  5442                           
  5443                           ;lcd.c: 134: void LCDPutStr(const char *str);lcd.c: 135: {;lcd.c: 136:     uint8_t i=0;
  5444  0A21  01FA               	clrf	LCDPutStr@i
  5445                           
  5446                           ;lcd.c: 139:     while (str[i])
  5447  0A22  2A38               	goto	l1886
  5448  0A23                     l1882:
  5449                           
  5450                           ;lcd.c: 140:     {;lcd.c: 142:         LCDPutChar(str[i++]);
  5451  0A23  087A               	movf	LCDPutStr@i,w
  5452  0A24  0777               	addwf	LCDPutStr@str,w
  5453  0A25  0084               	movwf	4
  5454  0A26  0878               	movf	LCDPutStr@str+1,w
  5455  0A27  1803               	skipnc
  5456  0A28  0A78               	incf	LCDPutStr@str+1,w
  5457  0A29  00FF               	movwf	btemp+1
  5458  0A2A  120A  158A  2000  120A  158A  	fcall	stringtab
  5459  0A2F  120A  158A  21F9  120A  158A  	fcall	_LCDPutChar
  5460  0A34                     l1884:
  5461  0A34  3001               	movlw	1
  5462  0A35  00F9               	movwf	??_LCDPutStr
  5463  0A36  0879               	movf	??_LCDPutStr,w
  5464  0A37  07FA               	addwf	LCDPutStr@i,f
  5465  0A38                     l1886:
  5466                           
  5467                           ;lcd.c: 139:     while (str[i])
  5468  0A38  087A               	movf	LCDPutStr@i,w
  5469  0A39  0777               	addwf	LCDPutStr@str,w
  5470  0A3A  0084               	movwf	4
  5471  0A3B  0878               	movf	LCDPutStr@str+1,w
  5472  0A3C  1803               	skipnc
  5473  0A3D  0A78               	incf	LCDPutStr@str+1,w
  5474  0A3E  1283               	bcf	3,5	;RP0=0, select bank0
  5475  0A3F  1303               	bcf	3,6	;RP1=0, select bank0
  5476  0A40  00FF               	movwf	btemp+1
  5477  0A41  120A  158A  2000  120A  158A  	fcall	stringtab
  5478  0A46  3A00               	xorlw	0
  5479  0A47  1D03               	skipz
  5480  0A48  2A4A               	goto	u2191
  5481  0A49  2A4B               	goto	u2190
  5482  0A4A                     u2191:
  5483  0A4A  2A23               	goto	l1882
  5484  0A4B                     u2190:
  5485  0A4B                     l140:
  5486  0A4B  0008               	return
  5487  0A4C                     __end_of_LCDPutStr:
  5488                           
  5489                           	psect	text14
  5490  09F9                     __ptext14:	
  5491 ;; *************** function _LCDPutChar *****************
  5492 ;; Defined at:
  5493 ;;		line 102 in file "lcd.c"
  5494 ;; Parameters:    Size  Location     Type
  5495 ;;  ch              1    wreg     unsigned char 
  5496 ;; Auto vars:     Size  Location     Type
  5497 ;;  ch              1    6[COMMON] unsigned char 
  5498 ;; Return value:  Size  Location     Type
  5499 ;;                  1    wreg      void 
  5500 ;; Registers used:
  5501 ;;		wreg, status,2, status,0, pclath, cstack
  5502 ;; Tracked objects:
  5503 ;;		On entry : 0/0
  5504 ;;		On exit  : 0/0
  5505 ;;		Unchanged: 0/0
  5506 ;; Data sizes:     COMMON   BANK0   BANK1   BANK3   BANK2
  5507 ;;      Params:         0       0       0       0       0
  5508 ;;      Locals:         1       0       0       0       0
  5509 ;;      Temps:          2       0       0       0       0
  5510 ;;      Totals:         3       0       0       0       0
  5511 ;;Total ram usage:        3 bytes
  5512 ;; Hardware stack levels used: 1
  5513 ;; Hardware stack levels required when called: 1
  5514 ;; This function calls:
  5515 ;;		_LCDWriteNibble
  5516 ;; This function is called by:
  5517 ;;		_LCDPutStr
  5518 ;;		_LCDPutStr2
  5519 ;; This function uses a non-reentrant model
  5520 ;;
  5521                           
  5522  09F9                     _LCDPutChar:	
  5523                           ;psect for function _LCDPutChar
  5524                           
  5525                           
  5526                           ;incstack = 0
  5527                           ; Regs used in _LCDPutChar: [wreg+status,2+status,0+pclath+cstack]
  5528                           ;LCDPutChar@ch stored from wreg
  5529  09F9  00F6               	movwf	LCDPutChar@ch
  5530  09FA                     l1734:
  5531                           
  5532                           ;lcd.c: 102: void LCDPutChar(uint8_t ch);lcd.c: 103: {;lcd.c: 104:     _delay((unsigned 
      +                          long)((5)*(8000000/4000.0)));
  5533  09FA  300D               	movlw	13
  5534  09FB  00F5               	movwf	??_LCDPutChar+1
  5535  09FC  30FB               	movlw	251
  5536  09FD  00F4               	movwf	??_LCDPutChar
  5537  09FE                     u3687:
  5538  09FE  0BF4               	decfsz	??_LCDPutChar,f
  5539  09FF  29FE               	goto	u3687
  5540  0A00  0BF5               	decfsz	??_LCDPutChar+1,f
  5541  0A01  29FE               	goto	u3687
  5542  0A02  2A03               	nop2
  5543  0A03                     l1736:
  5544                           
  5545                           ;lcd.c: 107:     LCDWriteNibble(ch,1);
  5546  0A03  01F0               	clrf	LCDWriteNibble@rs
  5547  0A04  0AF0               	incf	LCDWriteNibble@rs,f
  5548  0A05  0876               	movf	LCDPutChar@ch,w
  5549  0A06  120A  158A  218A  120A  158A  	fcall	_LCDWriteNibble
  5550  0A0B                     l1738:
  5551                           
  5552                           ;lcd.c: 110:     ch = (ch << 4);
  5553  0A0B  0876               	movf	LCDPutChar@ch,w
  5554  0A0C  00F4               	movwf	??_LCDPutChar
  5555  0A0D  3003               	movlw	3
  5556  0A0E                     u1865:
  5557  0A0E  1003               	clrc
  5558  0A0F  0DF4               	rlf	??_LCDPutChar,f
  5559  0A10  3EFF               	addlw	-1
  5560  0A11  1D03               	skipz
  5561  0A12  2A0E               	goto	u1865
  5562  0A13  1003               	clrc
  5563  0A14  0D74               	rlf	??_LCDPutChar,w
  5564  0A15  00F5               	movwf	??_LCDPutChar+1
  5565  0A16  0875               	movf	??_LCDPutChar+1,w
  5566  0A17  00F6               	movwf	LCDPutChar@ch
  5567  0A18                     l1740:
  5568                           
  5569                           ;lcd.c: 113:     LCDWriteNibble(ch,1);
  5570  0A18  01F0               	clrf	LCDWriteNibble@rs
  5571  0A19  0AF0               	incf	LCDWriteNibble@rs,f
  5572  0A1A  0876               	movf	LCDPutChar@ch,w
  5573  0A1B  120A  158A  218A  120A  158A  	fcall	_LCDWriteNibble
  5574  0A20                     l131:
  5575  0A20  0008               	return
  5576  0A21                     __end_of_LCDPutChar:
  5577                           
  5578                           	psect	text15
  5579  0A4C                     __ptext15:	
  5580 ;; *************** function _LCDGoto *****************
  5581 ;; Defined at:
  5582 ;;		line 146 in file "lcd.c"
  5583 ;; Parameters:    Size  Location     Type
  5584 ;;  pos             1    wreg     unsigned char 
  5585 ;;  ln              1    7[COMMON] unsigned char 
  5586 ;; Auto vars:     Size  Location     Type
  5587 ;;  pos             1   12[COMMON] unsigned char 
  5588 ;; Return value:  Size  Location     Type
  5589 ;;                  1    wreg      void 
  5590 ;; Registers used:
  5591 ;;		wreg, status,2, status,0, pclath, cstack
  5592 ;; Tracked objects:
  5593 ;;		On entry : 0/0
  5594 ;;		On exit  : 0/0
  5595 ;;		Unchanged: 0/0
  5596 ;; Data sizes:     COMMON   BANK0   BANK1   BANK3   BANK2
  5597 ;;      Params:         1       0       0       0       0
  5598 ;;      Locals:         3       0       0       0       0
  5599 ;;      Temps:          2       0       0       0       0
  5600 ;;      Totals:         6       0       0       0       0
  5601 ;;Total ram usage:        6 bytes
  5602 ;; Hardware stack levels used: 1
  5603 ;; Hardware stack levels required when called: 2
  5604 ;; This function calls:
  5605 ;;		_LCDPutCmd
  5606 ;; This function is called by:
  5607 ;;		_main
  5608 ;; This function uses a non-reentrant model
  5609 ;;
  5610                           
  5611  0A4C                     _LCDGoto:	
  5612                           ;psect for function _LCDGoto
  5613                           
  5614                           
  5615                           ;incstack = 0
  5616                           ; Regs used in _LCDGoto: [wreg+status,2+status,0+pclath+cstack]
  5617                           ;LCDGoto@pos stored from wreg
  5618  0A4C  00FC               	movwf	LCDGoto@pos
  5619  0A4D                     l1866:
  5620                           
  5621                           ;lcd.c: 146: void LCDGoto(uint8_t pos,uint8_t ln);lcd.c: 147: {;lcd.c: 149:     if ((ln 
      +                          > (2 -1)) || (pos > (16 -1)))
  5622  0A4D  3002               	movlw	2
  5623  0A4E  0277               	subwf	LCDGoto@ln,w
  5624  0A4F  1803               	skipnc
  5625  0A50  2A52               	goto	u2161
  5626  0A51  2A53               	goto	u2160
  5627  0A52                     u2161:
  5628  0A52  2A79               	goto	l146
  5629  0A53                     u2160:
  5630  0A53                     l1868:
  5631  0A53  3010               	movlw	16
  5632  0A54  027C               	subwf	LCDGoto@pos,w
  5633  0A55  1C03               	skipc
  5634  0A56  2A58               	goto	u2171
  5635  0A57  2A59               	goto	u2170
  5636  0A58                     u2171:
  5637  0A58  2A5A               	goto	l1870
  5638  0A59                     u2170:
  5639  0A59  2A79               	goto	l146
  5640  0A5A                     l1870:
  5641                           
  5642                           ;lcd.c: 156:     LCDPutCmd((ln == 1) ? (0xC0 | pos) : (0x80 | pos));
  5643  0A5A  0377               	decf	LCDGoto@ln,w
  5644  0A5B  1903               	btfsc	3,2
  5645  0A5C  2A5E               	goto	u2181
  5646  0A5D  2A5F               	goto	u2180
  5647  0A5E                     u2181:
  5648  0A5E  2A65               	goto	l1874
  5649  0A5F                     u2180:
  5650  0A5F                     l1872:
  5651  0A5F  3080               	movlw	128
  5652  0A60  047C               	iorwf	LCDGoto@pos,w
  5653  0A61  00FA               	movwf	_LCDGoto$286
  5654  0A62  3000               	movlw	0
  5655  0A63  00FB               	movwf	_LCDGoto$286+1
  5656  0A64  2A6A               	goto	l1876
  5657  0A65                     l1874:
  5658  0A65  30C0               	movlw	192
  5659  0A66  047C               	iorwf	LCDGoto@pos,w
  5660  0A67  00FA               	movwf	_LCDGoto$286
  5661  0A68  3000               	movlw	0
  5662  0A69  00FB               	movwf	_LCDGoto$286+1
  5663  0A6A                     l1876:
  5664  0A6A  087A               	movf	_LCDGoto$286,w
  5665  0A6B  120A  158A  227A  120A  158A  	fcall	_LCDPutCmd
  5666  0A70                     l1878:
  5667                           
  5668                           ;lcd.c: 159:     _delay((unsigned long)((5)*(8000000/4000.0)));
  5669  0A70  300D               	movlw	13
  5670  0A71  00F9               	movwf	??_LCDGoto+1
  5671  0A72  30FB               	movlw	251
  5672  0A73  00F8               	movwf	??_LCDGoto
  5673  0A74                     u3697:
  5674  0A74  0BF8               	decfsz	??_LCDGoto,f
  5675  0A75  2A74               	goto	u3697
  5676  0A76  0BF9               	decfsz	??_LCDGoto+1,f
  5677  0A77  2A74               	goto	u3697
  5678  0A78  2A79               	nop2
  5679  0A79                     l146:
  5680  0A79  0008               	return
  5681  0A7A                     __end_of_LCDGoto:
  5682                           
  5683                           	psect	text16
  5684  0970                     __ptext16:	
  5685 ;; *************** function _Config *****************
  5686 ;; Defined at:
  5687 ;;		line 69 in file "newmain.c"
  5688 ;; Parameters:    Size  Location     Type
  5689 ;;  flag1           1    wreg     PTR unsigned char 
  5690 ;;		 -> flag1(1), NULL(0), 
  5691 ;; Auto vars:     Size  Location     Type
  5692 ;;  flag1           1    9[COMMON] PTR unsigned char 
  5693 ;;		 -> flag1(1), NULL(0), 
  5694 ;; Return value:  Size  Location     Type
  5695 ;;                  1    wreg      void 
  5696 ;; Registers used:
  5697 ;;		wreg, status,2, status,0, pclath, cstack
  5698 ;; Tracked objects:
  5699 ;;		On entry : 0/0
  5700 ;;		On exit  : 0/0
  5701 ;;		Unchanged: 0/0
  5702 ;; Data sizes:     COMMON   BANK0   BANK1   BANK3   BANK2
  5703 ;;      Params:         0       0       0       0       0
  5704 ;;      Locals:         1       0       0       0       0
  5705 ;;      Temps:          0       0       0       0       0
  5706 ;;      Totals:         1       0       0       0       0
  5707 ;;Total ram usage:        1 bytes
  5708 ;; Hardware stack levels used: 1
  5709 ;; Hardware stack levels required when called: 3
  5710 ;; This function calls:
  5711 ;;		_ADC_Init
  5712 ;;		_LCD_Initialize
  5713 ;;		_PWM_Init
  5714 ;; This function is called by:
  5715 ;;		_main
  5716 ;; This function uses a non-reentrant model
  5717 ;;
  5718                           
  5719  0970                     _Config:	
  5720                           ;psect for function _Config
  5721                           
  5722  0970                     l1816:	
  5723                           ;incstack = 0
  5724                           ; Regs used in _Config: [wreg+status,2+status,0+pclath+cstack]
  5725                           
  5726                           
  5727                           ;newmain.c: 69: void Config(unsigned char *flag1);newmain.c: 70: {;newmain.c: 71:     LC
      +                          D_Initialize();
  5728  0970  120A  158A  22A9  120A  158A  	fcall	_LCD_Initialize
  5729                           
  5730                           ;newmain.c: 72:     PWM_Init();
  5731  0975  120A  158A  2152  120A  158A  	fcall	_PWM_Init
  5732                           
  5733                           ;newmain.c: 73:     ADC_Init();
  5734  097A  120A  158A  2145  120A  158A  	fcall	_ADC_Init
  5735  097F                     l1818:
  5736                           
  5737                           ;newmain.c: 74:     TRISB = 0b00000011;
  5738  097F  3003               	movlw	3
  5739  0980  1683               	bsf	3,5	;RP0=1, select bank1
  5740  0981  1303               	bcf	3,6	;RP1=0, select bank1
  5741  0982  0086               	movwf	6	;volatile
  5742  0983                     l1820:
  5743                           
  5744                           ;newmain.c: 75:     TRISC = 0;
  5745  0983  0187               	clrf	7	;volatile
  5746  0984                     l1822:
  5747                           
  5748                           ;newmain.c: 76:     TRISAbits.TRISA1 = 1;
  5749  0984  1485               	bsf	5,1	;volatile
  5750  0985                     l1824:
  5751                           
  5752                           ;newmain.c: 77:     PORTCbits.RC3 = 1; PORTCbits.RC4 = 0;
  5753  0985  1283               	bcf	3,5	;RP0=0, select bank0
  5754  0986  1303               	bcf	3,6	;RP1=0, select bank0
  5755  0987  1587               	bsf	7,3	;volatile
  5756  0988                     l1826:
  5757  0988  1207               	bcf	7,4	;volatile
  5758  0989                     l1828:
  5759  0989                     l81:
  5760  0989  0008               	return
  5761  098A                     __end_of_Config:
  5762                           
  5763                           	psect	text17
  5764  0952                     __ptext17:	
  5765 ;; *************** function _PWM_Init *****************
  5766 ;; Defined at:
  5767 ;;		line 50 in file "newmain.c"
  5768 ;; Parameters:    Size  Location     Type
  5769 ;;		None
  5770 ;; Auto vars:     Size  Location     Type
  5771 ;;		None
  5772 ;; Return value:  Size  Location     Type
  5773 ;;                  1    wreg      void 
  5774 ;; Registers used:
  5775 ;;		wreg
  5776 ;; Tracked objects:
  5777 ;;		On entry : 0/0
  5778 ;;		On exit  : 0/0
  5779 ;;		Unchanged: 0/0
  5780 ;; Data sizes:     COMMON   BANK0   BANK1   BANK3   BANK2
  5781 ;;      Params:         0       0       0       0       0
  5782 ;;      Locals:         0       0       0       0       0
  5783 ;;      Temps:          0       0       0       0       0
  5784 ;;      Totals:         0       0       0       0       0
  5785 ;;Total ram usage:        0 bytes
  5786 ;; Hardware stack levels used: 1
  5787 ;; This function calls:
  5788 ;;		Nothing
  5789 ;; This function is called by:
  5790 ;;		_Config
  5791 ;; This function uses a non-reentrant model
  5792 ;;
  5793                           
  5794  0952                     _PWM_Init:	
  5795                           ;psect for function _PWM_Init
  5796                           
  5797  0952                     l1708:	
  5798                           ;incstack = 0
  5799                           ; Regs used in _PWM_Init: [wreg]
  5800                           
  5801                           
  5802                           ;newmain.c: 52:       CCP1M3 = 1;
  5803  0952  1283               	bcf	3,5	;RP0=0, select bank0
  5804  0953  1303               	bcf	3,6	;RP1=0, select bank0
  5805  0954  1597               	bsf	23,3	;volatile
  5806                           
  5807                           ;newmain.c: 53:       CCP1M2 = 1;
  5808  0955  1517               	bsf	23,2	;volatile
  5809                           
  5810                           ;newmain.c: 54:       TRISC2 = 0;
  5811  0956  1683               	bsf	3,5	;RP0=1, select bank1
  5812  0957  1303               	bcf	3,6	;RP1=0, select bank1
  5813  0958  1107               	bcf	7,2	;volatile
  5814  0959                     l1710:
  5815                           
  5816                           ;newmain.c: 55:       PR2 = 124;
  5817  0959  307C               	movlw	124
  5818  095A  0092               	movwf	18	;volatile
  5819  095B                     l1712:
  5820                           
  5821                           ;newmain.c: 56:       T2CKPS0 = 1;
  5822  095B  1283               	bcf	3,5	;RP0=0, select bank0
  5823  095C  1303               	bcf	3,6	;RP1=0, select bank0
  5824  095D  1412               	bsf	18,0	;volatile
  5825  095E                     l1714:
  5826                           
  5827                           ;newmain.c: 57:       T2CKPS1 = 0;
  5828  095E  1092               	bcf	18,1	;volatile
  5829  095F                     l1716:
  5830                           
  5831                           ;newmain.c: 58:       TMR2ON = 1;
  5832  095F  1512               	bsf	18,2	;volatile
  5833  0960                     l74:
  5834  0960  0008               	return
  5835  0961                     __end_of_PWM_Init:
  5836                           
  5837                           	psect	text18
  5838  0AA9                     __ptext18:	
  5839 ;; *************** function _LCD_Initialize *****************
  5840 ;; Defined at:
  5841 ;;		line 45 in file "lcd.c"
  5842 ;; Parameters:    Size  Location     Type
  5843 ;;		None
  5844 ;; Auto vars:     Size  Location     Type
  5845 ;;		None
  5846 ;; Return value:  Size  Location     Type
  5847 ;;                  1    wreg      void 
  5848 ;; Registers used:
  5849 ;;		wreg, status,2, status,0, pclath, cstack
  5850 ;; Tracked objects:
  5851 ;;		On entry : 0/0
  5852 ;;		On exit  : 0/0
  5853 ;;		Unchanged: 0/0
  5854 ;; Data sizes:     COMMON   BANK0   BANK1   BANK3   BANK2
  5855 ;;      Params:         0       0       0       0       0
  5856 ;;      Locals:         0       0       0       0       0
  5857 ;;      Temps:          2       0       0       0       0
  5858 ;;      Totals:         2       0       0       0       0
  5859 ;;Total ram usage:        2 bytes
  5860 ;; Hardware stack levels used: 1
  5861 ;; Hardware stack levels required when called: 2
  5862 ;; This function calls:
  5863 ;;		_LCDPutCmd
  5864 ;; This function is called by:
  5865 ;;		_Config
  5866 ;; This function uses a non-reentrant model
  5867 ;;
  5868                           
  5869  0AA9                     _LCD_Initialize:	
  5870                           ;psect for function _LCD_Initialize
  5871                           
  5872  0AA9                     l1718:	
  5873                           ;incstack = 0
  5874                           ; Regs used in _LCD_Initialize: [wreg+status,2+status,0+pclath+cstack]
  5875                           
  5876                           
  5877                           ;lcd.c: 48:     PORTD = 0;
  5878  0AA9  1283               	bcf	3,5	;RP0=0, select bank0
  5879  0AAA  1303               	bcf	3,6	;RP1=0, select bank0
  5880  0AAB  0188               	clrf	8	;volatile
  5881                           
  5882                           ;lcd.c: 50:     TRISD = 0x00;
  5883  0AAC  1683               	bsf	3,5	;RP0=1, select bank1
  5884  0AAD  1303               	bcf	3,6	;RP1=0, select bank1
  5885  0AAE  0188               	clrf	8	;volatile
  5886  0AAF                     l1720:
  5887                           
  5888                           ;lcd.c: 53:     PORTDbits.RD7 = 1;
  5889  0AAF  1283               	bcf	3,5	;RP0=0, select bank0
  5890  0AB0  1303               	bcf	3,6	;RP1=0, select bank0
  5891  0AB1  1788               	bsf	8,7	;volatile
  5892  0AB2                     l1722:
  5893                           
  5894                           ;lcd.c: 56:     _delay((unsigned long)((15)*(8000000/4000.0)));
  5895  0AB2  3027               	movlw	39
  5896  0AB3  00F8               	movwf	??_LCD_Initialize+1
  5897  0AB4  30F5               	movlw	245
  5898  0AB5  00F7               	movwf	??_LCD_Initialize
  5899  0AB6                     u3707:
  5900  0AB6  0BF7               	decfsz	??_LCD_Initialize,f
  5901  0AB7  2AB6               	goto	u3707
  5902  0AB8  0BF8               	decfsz	??_LCD_Initialize+1,f
  5903  0AB9  2AB6               	goto	u3707
  5904  0ABA                     l1724:
  5905                           
  5906                           ;lcd.c: 59:     LCDPutCmd(0x32);
  5907  0ABA  3032               	movlw	50
  5908  0ABB  120A  158A  227A  120A  158A  	fcall	_LCDPutCmd
  5909  0AC0                     l1726:
  5910                           
  5911                           ;lcd.c: 62:     LCDPutCmd(0x28);
  5912  0AC0  3028               	movlw	40
  5913  0AC1  120A  158A  227A  120A  158A  	fcall	_LCDPutCmd
  5914  0AC6                     l1728:
  5915                           
  5916                           ;lcd.c: 65:     LCDPutCmd(0x0C);
  5917  0AC6  300C               	movlw	12
  5918  0AC7  120A  158A  227A  120A  158A  	fcall	_LCDPutCmd
  5919  0ACC                     l1730:
  5920                           
  5921                           ;lcd.c: 67:     LCDPutCmd(0x01);
  5922  0ACC  3001               	movlw	1
  5923  0ACD  120A  158A  227A  120A  158A  	fcall	_LCDPutCmd
  5924  0AD2                     l1732:
  5925                           
  5926                           ;lcd.c: 70:     LCDPutCmd(0x06);
  5927  0AD2  3006               	movlw	6
  5928  0AD3  120A  158A  227A  120A  158A  	fcall	_LCDPutCmd
  5929  0AD8                     l125:
  5930  0AD8  0008               	return
  5931  0AD9                     __end_of_LCD_Initialize:
  5932                           
  5933                           	psect	text19
  5934  0A7A                     __ptext19:	
  5935 ;; *************** function _LCDPutCmd *****************
  5936 ;; Defined at:
  5937 ;;		line 117 in file "lcd.c"
  5938 ;; Parameters:    Size  Location     Type
  5939 ;;  ch              1    wreg     unsigned char 
  5940 ;; Auto vars:     Size  Location     Type
  5941 ;;  ch              1    6[COMMON] unsigned char 
  5942 ;; Return value:  Size  Location     Type
  5943 ;;                  1    wreg      void 
  5944 ;; Registers used:
  5945 ;;		wreg, status,2, status,0, pclath, cstack
  5946 ;; Tracked objects:
  5947 ;;		On entry : 0/0
  5948 ;;		On exit  : 0/0
  5949 ;;		Unchanged: 0/0
  5950 ;; Data sizes:     COMMON   BANK0   BANK1   BANK3   BANK2
  5951 ;;      Params:         0       0       0       0       0
  5952 ;;      Locals:         1       0       0       0       0
  5953 ;;      Temps:          2       0       0       0       0
  5954 ;;      Totals:         3       0       0       0       0
  5955 ;;Total ram usage:        3 bytes
  5956 ;; Hardware stack levels used: 1
  5957 ;; Hardware stack levels required when called: 1
  5958 ;; This function calls:
  5959 ;;		_LCDWriteNibble
  5960 ;; This function is called by:
  5961 ;;		_LCD_Initialize
  5962 ;;		_LCDGoto
  5963 ;;		_LCDPutStr2
  5964 ;; This function uses a non-reentrant model
  5965 ;;
  5966                           
  5967  0A7A                     _LCDPutCmd:	
  5968                           ;psect for function _LCDPutCmd
  5969                           
  5970                           
  5971                           ;incstack = 0
  5972                           ; Regs used in _LCDPutCmd: [wreg+status,2+status,0+pclath+cstack]
  5973                           ;LCDPutCmd@ch stored from wreg
  5974  0A7A  00F6               	movwf	LCDPutCmd@ch
  5975  0A7B                     l1692:
  5976                           
  5977                           ;lcd.c: 117: void LCDPutCmd(uint8_t ch);lcd.c: 118: {;lcd.c: 119:     _delay((unsigned l
      +                          ong)((5)*(8000000/4000.0)));
  5978  0A7B  300D               	movlw	13
  5979  0A7C  00F5               	movwf	??_LCDPutCmd+1
  5980  0A7D  30FB               	movlw	251
  5981  0A7E  00F4               	movwf	??_LCDPutCmd
  5982  0A7F                     u3717:
  5983  0A7F  0BF4               	decfsz	??_LCDPutCmd,f
  5984  0A80  2A7F               	goto	u3717
  5985  0A81  0BF5               	decfsz	??_LCDPutCmd+1,f
  5986  0A82  2A7F               	goto	u3717
  5987  0A83  2A84               	nop2
  5988  0A84                     l1694:
  5989                           
  5990                           ;lcd.c: 122:     LCDWriteNibble(ch,0);
  5991  0A84  01F0               	clrf	LCDWriteNibble@rs
  5992  0A85  0876               	movf	LCDPutCmd@ch,w
  5993  0A86  120A  158A  218A  120A  158A  	fcall	_LCDWriteNibble
  5994  0A8B                     l1696:
  5995                           
  5996                           ;lcd.c: 125:     ch = (ch << 4);
  5997  0A8B  0876               	movf	LCDPutCmd@ch,w
  5998  0A8C  00F4               	movwf	??_LCDPutCmd
  5999  0A8D  3003               	movlw	3
  6000  0A8E                     u1855:
  6001  0A8E  1003               	clrc
  6002  0A8F  0DF4               	rlf	??_LCDPutCmd,f
  6003  0A90  3EFF               	addlw	-1
  6004  0A91  1D03               	skipz
  6005  0A92  2A8E               	goto	u1855
  6006  0A93  1003               	clrc
  6007  0A94  0D74               	rlf	??_LCDPutCmd,w
  6008  0A95  00F5               	movwf	??_LCDPutCmd+1
  6009  0A96  0875               	movf	??_LCDPutCmd+1,w
  6010  0A97  00F6               	movwf	LCDPutCmd@ch
  6011  0A98                     l1698:
  6012                           
  6013                           ;lcd.c: 127:     _delay((unsigned long)((1)*(8000000/4000.0)));
  6014  0A98  3003               	movlw	3
  6015  0A99  00F5               	movwf	??_LCDPutCmd+1
  6016  0A9A  3097               	movlw	151
  6017  0A9B  00F4               	movwf	??_LCDPutCmd
  6018  0A9C                     u3727:
  6019  0A9C  0BF4               	decfsz	??_LCDPutCmd,f
  6020  0A9D  2A9C               	goto	u3727
  6021  0A9E  0BF5               	decfsz	??_LCDPutCmd+1,f
  6022  0A9F  2A9C               	goto	u3727
  6023  0AA0  2AA1               	nop2
  6024  0AA1                     l1700:
  6025                           
  6026                           ;lcd.c: 130:     LCDWriteNibble(ch,0);
  6027  0AA1  01F0               	clrf	LCDWriteNibble@rs
  6028  0AA2  0876               	movf	LCDPutCmd@ch,w
  6029  0AA3  120A  158A  218A  120A  158A  	fcall	_LCDWriteNibble
  6030  0AA8                     l134:
  6031  0AA8  0008               	return
  6032  0AA9                     __end_of_LCDPutCmd:
  6033                           
  6034                           	psect	text20
  6035  098A                     __ptext20:	
  6036 ;; *************** function _LCDWriteNibble *****************
  6037 ;; Defined at:
  6038 ;;		line 75 in file "lcd.c"
  6039 ;; Parameters:    Size  Location     Type
  6040 ;;  ch              1    wreg     unsigned char 
  6041 ;;  rs              1    0[COMMON] unsigned char 
  6042 ;; Auto vars:     Size  Location     Type
  6043 ;;  ch              1    3[COMMON] unsigned char 
  6044 ;; Return value:  Size  Location     Type
  6045 ;;                  1    wreg      void 
  6046 ;; Registers used:
  6047 ;;		wreg, status,2, status,0
  6048 ;; Tracked objects:
  6049 ;;		On entry : 0/0
  6050 ;;		On exit  : 0/0
  6051 ;;		Unchanged: 0/0
  6052 ;; Data sizes:     COMMON   BANK0   BANK1   BANK3   BANK2
  6053 ;;      Params:         1       0       0       0       0
  6054 ;;      Locals:         1       0       0       0       0
  6055 ;;      Temps:          2       0       0       0       0
  6056 ;;      Totals:         4       0       0       0       0
  6057 ;;Total ram usage:        4 bytes
  6058 ;; Hardware stack levels used: 1
  6059 ;; This function calls:
  6060 ;;		Nothing
  6061 ;; This function is called by:
  6062 ;;		_LCDPutChar
  6063 ;;		_LCDPutCmd
  6064 ;; This function uses a non-reentrant model
  6065 ;;
  6066                           
  6067  098A                     _LCDWriteNibble:	
  6068                           ;psect for function _LCDWriteNibble
  6069                           
  6070                           
  6071                           ;incstack = 0
  6072                           ; Regs used in _LCDWriteNibble: [wreg+status,2+status,0]
  6073                           ;LCDWriteNibble@ch stored from wreg
  6074  098A  00F3               	movwf	LCDWriteNibble@ch
  6075  098B                     l1678:
  6076                           
  6077                           ;lcd.c: 75: void LCDWriteNibble(uint8_t ch,uint8_t rs);lcd.c: 76: {;lcd.c: 78:     ch = 
      +                          (ch >> 4);
  6078  098B  0873               	movf	LCDWriteNibble@ch,w
  6079  098C  00F1               	movwf	??_LCDWriteNibble
  6080  098D  3004               	movlw	4
  6081  098E                     u1845:
  6082  098E  1003               	clrc
  6083  098F  0CF1               	rrf	??_LCDWriteNibble,f
  6084  0990  3EFF               	addlw	-1
  6085  0991  1D03               	skipz
  6086  0992  298E               	goto	u1845
  6087  0993  0871               	movf	??_LCDWriteNibble,w
  6088  0994  00F2               	movwf	??_LCDWriteNibble+1
  6089  0995  0872               	movf	??_LCDWriteNibble+1,w
  6090  0996  00F3               	movwf	LCDWriteNibble@ch
  6091  0997                     l1680:
  6092                           
  6093                           ;lcd.c: 81:     ch = (ch & 0x0F);
  6094  0997  0873               	movf	LCDWriteNibble@ch,w
  6095  0998  390F               	andlw	15
  6096  0999  00F1               	movwf	??_LCDWriteNibble
  6097  099A  0871               	movf	??_LCDWriteNibble,w
  6098  099B  00F3               	movwf	LCDWriteNibble@ch
  6099  099C                     l1682:
  6100                           
  6101                           ;lcd.c: 84:     PORTD = (PORTD & 0xF0);
  6102  099C  1283               	bcf	3,5	;RP0=0, select bank0
  6103  099D  1303               	bcf	3,6	;RP1=0, select bank0
  6104  099E  0808               	movf	8,w	;volatile
  6105  099F  39F0               	andlw	240
  6106  09A0  0088               	movwf	8	;volatile
  6107                           
  6108                           ;lcd.c: 87:     PORTD = (PORTD | ch);
  6109  09A1  0808               	movf	8,w	;volatile
  6110  09A2  0473               	iorwf	LCDWriteNibble@ch,w
  6111  09A3  0088               	movwf	8	;volatile
  6112  09A4                     l1684:
  6113                           
  6114                           ;lcd.c: 90:     PORTDbits.RD4 = rs;
  6115  09A4  0C70               	rrf	LCDWriteNibble@rs,w
  6116  09A5  1C03               	skipc
  6117  09A6  1208               	bcf	8,4	;volatile
  6118  09A7  1803               	skipnc
  6119  09A8  1608               	bsf	8,4	;volatile
  6120  09A9                     l1686:
  6121                           
  6122                           ;lcd.c: 93:     PORTDbits.RD5 = 0;
  6123  09A9  1288               	bcf	8,5	;volatile
  6124  09AA                     l1688:
  6125                           
  6126                           ;lcd.c: 96:     PORTDbits.RD6 = 1;
  6127  09AA  1708               	bsf	8,6	;volatile
  6128  09AB                     l1690:
  6129                           
  6130                           ;lcd.c: 99:     PORTDbits.RD6 = 0;
  6131  09AB  1308               	bcf	8,6	;volatile
  6132  09AC                     l128:
  6133  09AC  0008               	return
  6134  09AD                     __end_of_LCDWriteNibble:
  6135                           
  6136                           	psect	text21
  6137  0945                     __ptext21:	
  6138 ;; *************** function _ADC_Init *****************
  6139 ;; Defined at:
  6140 ;;		line 34 in file "newmain.c"
  6141 ;; Parameters:    Size  Location     Type
  6142 ;;		None
  6143 ;; Auto vars:     Size  Location     Type
  6144 ;;		None
  6145 ;; Return value:  Size  Location     Type
  6146 ;;                  1    wreg      void 
  6147 ;; Registers used:
  6148 ;;		wreg, status,2
  6149 ;; Tracked objects:
  6150 ;;		On entry : 0/0
  6151 ;;		On exit  : 0/0
  6152 ;;		Unchanged: 0/0
  6153 ;; Data sizes:     COMMON   BANK0   BANK1   BANK3   BANK2
  6154 ;;      Params:         0       0       0       0       0
  6155 ;;      Locals:         0       0       0       0       0
  6156 ;;      Temps:          0       0       0       0       0
  6157 ;;      Totals:         0       0       0       0       0
  6158 ;;Total ram usage:        0 bytes
  6159 ;; Hardware stack levels used: 1
  6160 ;; This function calls:
  6161 ;;		Nothing
  6162 ;; This function is called by:
  6163 ;;		_Config
  6164 ;; This function uses a non-reentrant model
  6165 ;;
  6166                           
  6167  0945                     _ADC_Init:	
  6168                           ;psect for function _ADC_Init
  6169                           
  6170  0945                     l1702:	
  6171                           ;incstack = 0
  6172                           ; Regs used in _ADC_Init: [wreg+status,2]
  6173                           
  6174                           
  6175                           ;newmain.c: 36:     ADCON0 = 0x80;
  6176  0945  3080               	movlw	128
  6177  0946  1283               	bcf	3,5	;RP0=0, select bank0
  6178  0947  1303               	bcf	3,6	;RP1=0, select bank0
  6179  0948  009F               	movwf	31	;volatile
  6180                           
  6181                           ;newmain.c: 37:     ADCON1 = 0xC0;
  6182  0949  30C0               	movlw	192
  6183  094A  1683               	bsf	3,5	;RP0=1, select bank1
  6184  094B  1303               	bcf	3,6	;RP1=0, select bank1
  6185  094C  009F               	movwf	31	;volatile
  6186  094D                     l1704:
  6187                           
  6188                           ;newmain.c: 38:     ADRESL = 0;
  6189  094D  019E               	clrf	30	;volatile
  6190  094E                     l1706:
  6191                           
  6192                           ;newmain.c: 39:     ADRESH = 0;
  6193  094E  1283               	bcf	3,5	;RP0=0, select bank0
  6194  094F  1303               	bcf	3,6	;RP1=0, select bank0
  6195  0950  019E               	clrf	30	;volatile
  6196  0951                     l65:
  6197  0951  0008               	return
  6198  0952                     __end_of_ADC_Init:
  6199                           
  6200                           	psect	text22
  6201  0B13                     __ptext22:	
  6202 ;; *************** function _CW_CCW *****************
  6203 ;; Defined at:
  6204 ;;		line 80 in file "newmain.c"
  6205 ;; Parameters:    Size  Location     Type
  6206 ;;  flag1           1    wreg     PTR unsigned char 
  6207 ;;		 -> flag1(1), 
  6208 ;; Auto vars:     Size  Location     Type
  6209 ;;  flag1           1    3[COMMON] PTR unsigned char 
  6210 ;;		 -> flag1(1), 
  6211 ;;  flag            1    2[COMMON] unsigned char 
  6212 ;; Return value:  Size  Location     Type
  6213 ;;                  1    wreg      void 
  6214 ;; Registers used:
  6215 ;;		wreg, fsr0l, fsr0h, status,2, status,0
  6216 ;; Tracked objects:
  6217 ;;		On entry : 0/0
  6218 ;;		On exit  : 0/0
  6219 ;;		Unchanged: 0/0
  6220 ;; Data sizes:     COMMON   BANK0   BANK1   BANK3   BANK2
  6221 ;;      Params:         0       0       0       0       0
  6222 ;;      Locals:         2       0       0       0       0
  6223 ;;      Temps:          2       0       0       0       0
  6224 ;;      Totals:         4       0       0       0       0
  6225 ;;Total ram usage:        4 bytes
  6226 ;; Hardware stack levels used: 1
  6227 ;; This function calls:
  6228 ;;		Nothing
  6229 ;; This function is called by:
  6230 ;;		_main
  6231 ;; This function uses a non-reentrant model
  6232 ;;
  6233                           
  6234  0B13                     _CW_CCW:	
  6235                           ;psect for function _CW_CCW
  6236                           
  6237                           
  6238                           ;incstack = 0
  6239                           ; Regs used in _CW_CCW: [wreg-fsr0h+status,2+status,0]
  6240                           ;CW_CCW@flag1 stored from wreg
  6241  0B13  00F3               	movwf	CW_CCW@flag1
  6242  0B14                     l1830:
  6243                           
  6244                           ;newmain.c: 80: void CW_CCW(unsigned char *flag1);newmain.c: 81: {;newmain.c: 82:     un
      +                          signed char flag = 0;
  6245  0B14  01F2               	clrf	CW_CCW@flag
  6246  0B15                     l1832:
  6247                           
  6248                           ;newmain.c: 83:     if(PORTBbits.RB1 == 1)
  6249  0B15  1283               	bcf	3,5	;RP0=0, select bank0
  6250  0B16  1303               	bcf	3,6	;RP1=0, select bank0
  6251  0B17  1C86               	btfss	6,1	;volatile
  6252  0B18  2B1A               	goto	u2071
  6253  0B19  2B1B               	goto	u2070
  6254  0B1A                     u2071:
  6255  0B1A  2B30               	goto	l1840
  6256  0B1B                     u2070:
  6257  0B1B                     l1834:
  6258                           
  6259                           ;newmain.c: 84:     {;newmain.c: 85:         _delay((unsigned long)((20)*(4000000/4000.0
      +                          )));
  6260  0B1B  301A               	movlw	26
  6261  0B1C  00F1               	movwf	??_CW_CCW+1
  6262  0B1D  30F8               	movlw	248
  6263  0B1E  00F0               	movwf	??_CW_CCW
  6264  0B1F                     u3737:
  6265  0B1F  0BF0               	decfsz	??_CW_CCW,f
  6266  0B20  2B1F               	goto	u3737
  6267  0B21  0BF1               	decfsz	??_CW_CCW+1,f
  6268  0B22  2B1F               	goto	u3737
  6269  0B23  0000               	nop
  6270  0B24                     l1836:
  6271                           
  6272                           ;newmain.c: 86:         if(PORTBbits.RB1 == 1)
  6273  0B24  1283               	bcf	3,5	;RP0=0, select bank0
  6274  0B25  1303               	bcf	3,6	;RP1=0, select bank0
  6275  0B26  1C86               	btfss	6,1	;volatile
  6276  0B27  2B29               	goto	u2081
  6277  0B28  2B2A               	goto	u2080
  6278  0B29                     u2081:
  6279  0B29  2B30               	goto	l1840
  6280  0B2A                     u2080:
  6281  0B2A                     l86:
  6282  0B2A  1886               	btfsc	6,1	;volatile
  6283  0B2B  2B2D               	goto	u2091
  6284  0B2C  2B2E               	goto	u2090
  6285  0B2D                     u2091:
  6286  0B2D  2B2A               	goto	l86
  6287  0B2E                     u2090:
  6288  0B2E                     l88:
  6289                           
  6290                           ;newmain.c: 89:             flag = 1;
  6291  0B2E  01F2               	clrf	CW_CCW@flag
  6292  0B2F  0AF2               	incf	CW_CCW@flag,f
  6293  0B30                     l1840:
  6294                           
  6295                           ;newmain.c: 92:     if(flag == 1)
  6296  0B30  0372               	decf	CW_CCW@flag,w
  6297  0B31  1D03               	btfss	3,2
  6298  0B32  2B34               	goto	u2101
  6299  0B33  2B35               	goto	u2100
  6300  0B34                     u2101:
  6301  0B34  2B50               	goto	l1854
  6302  0B35                     u2100:
  6303  0B35                     l1842:
  6304                           
  6305                           ;newmain.c: 93:     {;newmain.c: 94:         if(*flag1 == 1)
  6306  0B35  0873               	movf	CW_CCW@flag1,w
  6307  0B36  0084               	movwf	4
  6308  0B37  1383               	bcf	3,7	;select IRP bank0
  6309  0B38  0300               	decf	0,w
  6310  0B39  1D03               	btfss	3,2
  6311  0B3A  2B3C               	goto	u2111
  6312  0B3B  2B3D               	goto	u2110
  6313  0B3C                     u2111:
  6314  0B3C  2B43               	goto	l1848
  6315  0B3D                     u2110:
  6316  0B3D                     l1844:
  6317                           
  6318                           ;newmain.c: 95:         {;newmain.c: 96:             PORTCbits.RC3 = 1; PORTCbits.RC4 = 
      +                          0;
  6319  0B3D  1587               	bsf	7,3	;volatile
  6320  0B3E  1207               	bcf	7,4	;volatile
  6321  0B3F                     l1846:
  6322                           
  6323                           ;newmain.c: 97:             *flag1 = 0;
  6324  0B3F  0873               	movf	CW_CCW@flag1,w
  6325  0B40  0084               	movwf	4
  6326  0B41  0180               	clrf	0
  6327                           
  6328                           ;newmain.c: 98:         }
  6329  0B42  2B50               	goto	l1854
  6330  0B43                     l1848:
  6331  0B43  0873               	movf	CW_CCW@flag1,w
  6332  0B44  0084               	movwf	4
  6333  0B45  0800               	movf	0,w
  6334  0B46  1D03               	btfss	3,2
  6335  0B47  2B49               	goto	u2121
  6336  0B48  2B4A               	goto	u2120
  6337  0B49                     u2121:
  6338  0B49  2B50               	goto	l1854
  6339  0B4A                     u2120:
  6340  0B4A                     l1850:
  6341                           
  6342                           ;newmain.c: 100:         {;newmain.c: 101:             PORTCbits.RC3 = 0; PORTCbits.RC4 
      +                          = 1;
  6343  0B4A  1187               	bcf	7,3	;volatile
  6344  0B4B  1607               	bsf	7,4	;volatile
  6345  0B4C                     l1852:
  6346                           
  6347                           ;newmain.c: 102:             *flag1 = 1;
  6348  0B4C  0873               	movf	CW_CCW@flag1,w
  6349  0B4D  0084               	movwf	4
  6350  0B4E  0180               	clrf	0
  6351  0B4F  0A80               	incf	0,f
  6352  0B50                     l1854:
  6353  0B50                     l93:
  6354  0B50  0008               	return
  6355  0B51                     __end_of_CW_CCW:
  6356  007E                     btemp	set	126	;btemp
  6357  007E                     wtemp0	set	126
  6358                           
  6359                           	psect	idloc
  6360                           
  6361                           ;Config register IDLOC0 @ 0x2000
  6362                           ;	unspecified, using default values
  6363  2000                     	org	8192
  6364  2000  3FFF               	dw	16383
  6365                           
  6366                           ;Config register IDLOC1 @ 0x2001
  6367                           ;	unspecified, using default values
  6368  2001                     	org	8193
  6369  2001  3FFF               	dw	16383
  6370                           
  6371                           ;Config register IDLOC2 @ 0x2002
  6372                           ;	unspecified, using default values
  6373  2002                     	org	8194
  6374  2002  3FFF               	dw	16383
  6375                           
  6376                           ;Config register IDLOC3 @ 0x2003
  6377                           ;	unspecified, using default values
  6378  2003                     	org	8195
  6379  2003  3FFF               	dw	16383
  6380                           
  6381                           	psect	config
  6382                           
  6383                           ;Config register CONFIG @ 0x2007
  6384                           ;	Oscillator Selection bits
  6385                           ;	FOSC = EXTRC, RC oscillator
  6386                           ;	Watchdog Timer Enable bit
  6387                           ;	WDTE = OFF, WDT disabled
  6388                           ;	Power-up Timer Enable bit
  6389                           ;	PWRTE = OFF, PWRT disabled
  6390                           ;	Brown-out Reset Enable bit
  6391                           ;	BOREN = ON, BOR enabled
  6392                           ;	Low-Voltage (Single-Supply) In-Circuit Serial Programming Enable bit
  6393                           ;	LVP = OFF, RB3 is digital I/O, HV on MCLR must be used for programming
  6394                           ;	Data EEPROM Memory Code Protection bit
  6395                           ;	CPD = OFF, Data EEPROM code protection off
  6396                           ;	Flash Program Memory Write Enable bits
  6397                           ;	WRT = OFF, Write protection off; all program memory may be written to by EECON control
  6398                           ;	In-Circuit Debugger Mode bit
  6399                           ;	DEBUG = 0x1, unprogrammed default
  6400                           ;	Flash Program Memory Code Protection bit
  6401                           ;	CP = OFF, Code protection off
  6402  2007                     	org	8199
  6403  2007  3F7B               	dw	16251

Data Sizes:
    Strings     48
    Constant    10
    Data        0
    BSS         46
    Persistent  0
    Stack       0

Auto Spaces:
    Space          Size  Autos    Used
    COMMON           14     14      14
    BANK0            80     80      80
    BANK1            80     17      63
    BANK3            96      0       0
    BANK2            96      0       0

Pointer List with Targets:

    sprintf@f	PTR const unsigned char  size(1) Largest target is 12
		 -> STR_4(CODE[12]), STR_3(CODE[10]), 

    sprintf@sp	PTR unsigned char  size(1) Largest target is 20
		 -> buffer(BANK1[20]), buffer1(BANK1[20]), 

    sprintf@ap	PTR void [1] size(1) Largest target is 2
		 -> ?_sprintf(BANK0[2]), 

    LCDPutStr@str	PTR const unsigned char  size(2) Largest target is 20
		 -> buffer(BANK1[20]), buffer1(BANK1[20]), STR_2(CODE[15]), STR_1(CODE[11]), 

    Start_Stop@flag2	PTR unsigned char  size(1) Largest target is 1
		 -> flag2(BANK1[1]), 

    CW_CCW@flag1	PTR unsigned char  size(1) Largest target is 1
		 -> flag1(BANK1[1]), 

    Config@flag1	PTR unsigned char  size(1) Largest target is 1
		 -> flag1(BANK1[1]), NULL(NULL[0]), 


Critical Paths under _main in COMMON

    _main->___fladd
    _sprintf->___lwmod
    ___lwmod->___lwdiv
    ___xxtofl->_get_val
    ___fltol->___fladd
    ___flmul->___xxtofl
    ___fldiv->___xxtofl
    ___fladd->___xxtofl
    _LCDPutStr->_LCDPutChar
    _LCDPutChar->_LCDWriteNibble
    _LCDGoto->_LCDPutCmd
    _Config->_LCD_Initialize
    _LCD_Initialize->_LCDPutCmd
    _LCDPutCmd->_LCDWriteNibble

Critical Paths under _main in BANK0

    _main->___fltol
    ___fltol->___fladd
    ___flmul->___xxtofl
    ___fldiv->___flmul
    ___fladd->___fldiv

Critical Paths under _main in BANK1

    _main->___fltol

Critical Paths under _main in BANK3

    None.

Critical Paths under _main in BANK2

    None.

Call Graph Tables:

 ---------------------------------------------------------------------------------
 (Depth) Function   	        Calls       Base Space   Used Autos Params    Refs
 ---------------------------------------------------------------------------------
 (0) _main                                                12    12      0   11753
                                              5 BANK1     12    12      0
                             _CW_CCW
                             _Config
                            _LCDGoto
                          _LCDPutStr
                       _PWM_Set_Duty
                         _Start_Stop
                            ___fladd
                            ___fldiv
                            ___flmul
                            ___fltol
                           ___xxtofl
                            _get_val
                            _sprintf
 ---------------------------------------------------------------------------------
 (1) _sprintf                                             21    18      3    1275
                                              0 BANK0     13    10      3
                            ___lwdiv
                            ___lwmod
 ---------------------------------------------------------------------------------
 (2) ___lwmod                                              6     2      4     311
                                              8 COMMON     6     2      4
                            ___lwdiv (ARG)
 ---------------------------------------------------------------------------------
 (2) ___lwdiv                                              8     4      4     314
                                              0 COMMON     8     4      4
 ---------------------------------------------------------------------------------
 (1) _get_val                                              2     0      2       0
                                              0 COMMON     2     0      2
 ---------------------------------------------------------------------------------
 (1) ___xxtofl                                            14    10      4     474
                                              2 COMMON     8     4      4
                                              0 BANK0      6     6      0
                            _get_val (ARG)
 ---------------------------------------------------------------------------------
 (1) ___fltol                                             11     7      4     381
                                             74 BANK0      6     2      4
                                              0 BANK1      5     5      0
                            ___fladd (ARG)
                            ___fldiv (ARG)
                            ___flmul (ARG)
                           ___xxtofl (ARG)
                            _get_val (ARG)
 ---------------------------------------------------------------------------------
 (1) ___flmul                                             26    18      8    3025
                                              6 BANK0     26    18      8
                          __Umul8_16
                           ___xxtofl (ARG)
                            _get_val (ARG)
 ---------------------------------------------------------------------------------
 (2) __Umul8_16                                            9     7      2     799
                                              0 COMMON     9     7      2
 ---------------------------------------------------------------------------------
 (1) ___fldiv                                             26    18      8    1577
                                             32 BANK0     26    18      8
                            ___flmul (ARG)
                           ___xxtofl (ARG)
                            _get_val (ARG)
 ---------------------------------------------------------------------------------
 (1) ___fladd                                             20    12      8    2262
                                             10 COMMON     4     4      0
                                             58 BANK0     16     8      8
                            ___fldiv (ARG)
                            ___flmul (ARG)
                           ___xxtofl (ARG)
                            _get_val (ARG)
 ---------------------------------------------------------------------------------
 (1) _Start_Stop                                           3     3      0      77
                                              0 COMMON     3     3      0
 ---------------------------------------------------------------------------------
 (1) _PWM_Set_Duty                                         4     2      2     218
                                              0 COMMON     4     2      2
 ---------------------------------------------------------------------------------
 (1) _LCDPutStr                                            4     2      2     855
                                              7 COMMON     4     2      2
                         _LCDPutChar
 ---------------------------------------------------------------------------------
 (2) _LCDPutChar                                           3     3      0     461
                                              4 COMMON     3     3      0
                     _LCDWriteNibble
 ---------------------------------------------------------------------------------
 (1) _LCDGoto                                              6     5      1     899
                                              7 COMMON     6     5      1
                          _LCDPutCmd
 ---------------------------------------------------------------------------------
 (1) _Config                                               1     1      0     495
                                              9 COMMON     1     1      0
                           _ADC_Init
                     _LCD_Initialize
                           _PWM_Init
 ---------------------------------------------------------------------------------
 (2) _PWM_Init                                             0     0      0       0
 ---------------------------------------------------------------------------------
 (2) _LCD_Initialize                                       2     2      0     461
                                              7 COMMON     2     2      0
                          _LCDPutCmd
 ---------------------------------------------------------------------------------
 (2) _LCDPutCmd                                            3     3      0     461
                                              4 COMMON     3     3      0
                     _LCDWriteNibble
 ---------------------------------------------------------------------------------
 (3) _LCDWriteNibble                                       4     3      1     394
                                              0 COMMON     4     3      1
 ---------------------------------------------------------------------------------
 (2) _ADC_Init                                             0     0      0       0
 ---------------------------------------------------------------------------------
 (1) _CW_CCW                                               4     4      0     146
                                              0 COMMON     4     4      0
 ---------------------------------------------------------------------------------
 Estimated maximum stack depth 3
 ---------------------------------------------------------------------------------

 Call Graph Graphs:

 _main (ROOT)
   _CW_CCW
   _Config
     _ADC_Init
     _LCD_Initialize
       _LCDPutCmd
         _LCDWriteNibble
     _PWM_Init
   _LCDGoto
     _LCDPutCmd
   _LCDPutStr
     _LCDPutChar
       _LCDWriteNibble
   _PWM_Set_Duty
   _Start_Stop
   ___fladd
     ___fldiv (ARG)
       ___flmul (ARG)
         __Umul8_16
         ___xxtofl (ARG)
           _get_val (ARG)
         _get_val (ARG)
       ___xxtofl (ARG)
       _get_val (ARG)
     ___flmul (ARG)
     ___xxtofl (ARG)
     _get_val (ARG)
   ___fldiv
   ___flmul
   ___fltol
     ___fladd (ARG)
     ___fldiv (ARG)
     ___flmul (ARG)
     ___xxtofl (ARG)
     _get_val (ARG)
   ___xxtofl
   _get_val
   _sprintf
     ___lwdiv
     ___lwmod
       ___lwdiv (ARG)

 Address spaces:
Name               Size   Autos  Total    Cost      Usage
BITCOMMON            E      0       0       0        0.0%
EEDATA             100      0       0       0        0.0%
NULL                 0      0       0       0        0.0%
CODE                 0      0       0       0        0.0%
COMMON               E      E       E       1      100.0%
BITSFR0              0      0       0       1        0.0%
SFR0                 0      0       0       1        0.0%
BITSFR1              0      0       0       2        0.0%
SFR1                 0      0       0       2        0.0%
STACK                0      0       0       2        0.0%
ABS                  0      0      9D       3        0.0%
BITBANK0            50      0       0       4        0.0%
BITSFR3              0      0       0       4        0.0%
SFR3                 0      0       0       4        0.0%
BANK0               50     50      50       5      100.0%
BITSFR2              0      0       0       5        0.0%
SFR2                 0      0       0       5        0.0%
BITBANK1            50      0       0       6        0.0%
BANK1               50     11      3F       7       78.8%
BITBANK3            60      0       0       8        0.0%
BANK3               60      0       0       9        0.0%
BITBANK2            60      0       0      10        0.0%
BANK2               60      0       0      11        0.0%
DATA                 0      0      9D      12        0.0%


Microchip Technology PIC Macro Assembler V2.36 build 20220127204148 
Symbol Table                                                                                   Fri May 27 15:01:21 2022

           ___fldiv@aexp 0059             ___fldiv@bexp 0058           _LCD_Initialize 0AA9  
                      pc 0002             ___fldiv@sign 0051              ?_LCDPutChar 0070  
                     l71 096F                       l65 0951                       l81 0989  
                     l74 0960                       l68 0965                       l93 0B50  
                     l86 0B2A                       l78 0024                       l88 0B2E  
                     l98 09C3                       fsr 0004      __Umul8_16@word_mpld 0076  
         PWM_Set_Duty@DC 0070                      l101 09D1                      l106 0DC0  
                    l131 0A20                      l140 0A4B                      l125 0AD8  
                    l134 0AA8                      l128 09AC                      l146 0A79  
                    l270 0DB9                      l601 0463                      l610 0491  
                    l460 0C30                      l470 0C30                      l623 0081  
                    l720 0CB6                      l609 0485                      l625 0201  
                    l721 0CC2                      l713 0C9A                      l546 0B94  
                    l571 030E                      l467 0C1B                      l707 0C55  
                    l580 0491                      l556 0B12                      l573 02E3  
                    l645 01E5                      l709 0CEC                      l567 0265  
                    l647 01F5                      l639 0173                      l663 07F2  
                    l592 0403                      l682 09E6                      l675 07E6  
                    l588 03DF                      l684 09F8                      l669 075E  
                    l598 0425                      _PR2 0092                      fsr0 0004  
                    indf 0000             ___flmul@aexp 0038             ___flmul@bexp 0039  
           ___flmul@sign 0033             ___flmul@temp 003E             ___flmul@prod 003A  
        __end_of_LCDGoto 0A7A             ___fltol@exp1 006F                     l2000 0231  
                   l2010 0247                     l2002 0236                     l2100 035C  
                   l2020 025B                     l2012 0248                     l2004 023C  
                   l2110 03C2                     l2102 0361                     l2030 0277  
                   l2014 024D                     l2022 025D                     l2006 023D  
                   l2120 03F5                     l2104 0379                     l2112 03D1  
                   l2040 028B                     l2032 027B                     l2024 026B  
                   l2016 0252                     l2008 0243                     l2200 0063  
                   l2130 040C                     l2122 03FE                     l2114 03E7  
                   l2106 03B7                     l2050 029F                     l2042 028F  
                   l2034 027F                     l2026 026F                     l2018 025A  
                   l2210 0077                     l2202 0064                     l2140 041C  
                   l2132 0411                     l2124 0402                     l2116 03EC  
                   l2108 03BD                     l2060 02B0                     l2052 02A3  
                   l2044 0293                     l2036 0283                     l2028 0273  
                   l2300 01D8                     l2204 0069                     l2212 0079  
                   l2150 043D                     l2142 0422                     l2126 0407  
                   l2134 0413                     l2070 02FA                     l2062 02C7  
                   l2054 02A7                     l2046 0297                     l2038 0287  
                   l2310 01F1                     l2302 01DC                     l2230 00C2  
                   l2214 0089                     l2222 00A2                     l2206 006E  
                   l2160 0475                     l2152 0441                     l2128 040A  
                   l2136 0417                     l2080 0317                     l2072 02FB  
                   l2064 02E7                     l2056 02AB                     l2048 029B  
                   l2304 01E4                     l2240 00E1                     l2232 00CA  
                   l2224 00A7                     l2216 0095                     l2208 0076  
                   l2400 0713                     l2320 049F                     l2170 048C  
                   l2162 047A                     l2154 045F                     l2146 042A  
                   l2138 0418                     l2090 0343                     l2074 0304  
                   l2066 02F2                     l2058 02AF                     l2306 01EB  
                   l2250 0113                     l2242 00F3                     l2234 00D2  
                   l2218 0099                     l2410 0738                     l2402 0721  
                   l2330 04B6                     l2322 04A3                     l1700 0AA1  
                   l2172 0490                     l2164 047B                     l2156 0468  
                   l2148 042F                     l2092 034C                     l2084 0322  
                   l2068 02F4                     l2076 0308                     l2308 01EF  
                   l2260 0134                     l2252 0114                     l2244 00F7  
                   l2236 00DA                     l2228 00B0                     l2180 0036  
                   l2420 075B                     l2404 072A                     l2412 073E  
                   l2340 04CF                     l2332 04B8                     l2324 04A4  
                   l2316 0492                     l2500 0DBA                     l1702 0945  
                   l1710 0959                     l2166 047F                     l2158 046D  
                   l2094 034E                     l2086 033B                     l2078 0312  
                   l2270 014D                     l2262 0136                     l2254 0122  
                   l2246 00F8                     l2238 00DC                     l2190 004A  
                   l2182 0037                     l2174 0025                     l2430 077A  
                   l2414 0742                     l2406 072E                     l2350 04E4  
                   l2342 04D0                     l2334 04C0                     l2326 04A9  
                   l2318 0499                     l2510 0DEF                     l2502 0DC7  
                   l1704 094D                     l1720 0AAF                     l1712 095B  
                   l2168 0481                     l2096 0352                     l2088 033F  
                   l2280 0170                     l2264 013F                     l2272 0153  
                   l2248 0101                     l2256 0126                     l2184 003C  
                   l2192 004C                     l2176 002C                     l1800 09F4  
                   l2440 07C0                     l2432 0793                     l2424 0763  
                   l2416 0743                     l2408 072F                     l2360 04FF  
                   l2352 04EC                     l2344 04D5                     l2336 04C5  
                   l2328 04AE                     l2520 0E4E                     l2512 0DF7  
                   l2504 0DD0                     l1706 094E                     l1730 0ACC  
                   l1722 0AB2                     l1714 095E                     l1810 0004  
                   l2098 0353                     l2290 018F                     l2274 0157  
                   l2266 0143                     l2258 012C                     l2194 0054  
                   l2186 0041                     l2178 0032                     l2450 07DF  
                   l2442 07CA                     l2426 0768                     l2434 0799  
                   l2418 0747                     l2370 0581                     l2362 050F  
                   l2354 04F1                     l2346 04DA                     l2338 04CB  
                   l2530 0FC6                     l2522 0EA0                     l2514 0DF9  
                   l2506 0DE1                     l1732 0AD2                     l1724 0ABA  
                   l1716 095F                     l1708 0952                     l1820 0983  
                   l1740 0A18                     l1812 000D                     l2292 01A8  
                   l2284 0178                     l2276 0158                     l2268 0144  
                   l2196 0059                     l2188 0049                     l2452 07EA  
                   l2444 07CC                     l2436 07A6                     l2428 0776  
                   l2380 05EF                     l2372 059D                     l2364 051C  
                   l2356 04F6                     l2348 04E2                     l2460 0C3D  
                   l1804 0961                     l2532 0FD1                     l2524 0F0C  
                   l2516 0DFE                     l2508 0DE9                     l1830 0B14  
                   l1726 0AC0                     l1718 0AA9                     l1822 0984  
                   l1734 09FA                     l1814 0018                     l2286 017D  
                   l2294 01AE                     l2278 015C                     l2198 005F  
                   l2446 07DA                     l2438 07B1                     l2390 067F  
                   l2382 05FF                     l2374 05B9                     l2366 0539  
                   l2470 0C6B                     l2462 0C4D                     l1806 0969  
                   l1750 0B63                     l1742 0B51                     l1910 0D30  
                   l1902 0D09                     l2526 0F5E                     l2518 0E04  
                   l1840 0B30                     l1832 0B15                     l1680 0997  
                   l1728 0AC6                     l1824 0985                     l1816 0970  
                   l1736 0A03                     l2296 01BB                     l2288 018B  
                   l2448 07DE                     l2392 068F                     l2384 061C  
                   l2376 05C2                     l2368 0555                     l2480 0CA1  
                   l2472 0C78                     l2464 0C5D                     l2456 0C34  
                   l1760 0B83                     l1752 0B67                     l1744 0B53  
                   l1912 0D34                     l2528 0F9C                     l1850 0B4A  
                   l1842 0B35                     l1834 0B1B                     l1690 09AB  
                   l1682 099C                     l1826 0988                     l1818 097F  
                   l1738 0A0B                     l2298 01C9                     l2394 06BC  
                   l2386 0635                     l2378 05D2                     l2490 0CDA  
                   l2482 0CAC                     l2474 0C7F                     l2458 0C39  
                   l1762 0B8A                     l1754 0B6B                     l1746 0B59  
                   l1770 0ADF                     l1930 0D96                     l1922 0D52  
                   l1906 0D0E                     l1852 0B4C                     l1844 0B3D  
                   l1836 0B24                     l1684 09A4                     l1692 0A7B  
                   l1828 0989                     l1860 09BD                     l2396 06E2  
                   l2388 0652                     l2492 0CDF                     l2484 0CB0  
                   l2476 0C83                     l2468 0C66                     l1756 0B7C  
                   l1748 0B5C                     l1764 0B90                     l1780 0AFB  
                   l1772 0AE2                     l1932 0D9A                     l1924 0D5C  
                   l1908 0D28                     l1846 0B3F                     l1854 0B50  
                   l1686 09A9                     l1678 098B                     l1694 0A84  
                   l1870 0A5A                     l1790 09D3                     l2398 070A  
                   l1950 0BAF                     l2494 0CE3                     l2486 0CBA  
                   l2478 0C91                     l1758 0B82                     l1782 0B01  
                   l1774 0AE9                     l1926 0D61                     l1918 0D36  
                   l1934 0DA3                     l1848 0B43                     l1688 09AA  
                   l1696 0A8B                     l1872 0A5F                     l1880 0A21  
                   l1864 09C7                     l1856 09AE                     l1792 09D5  
                   l1960 0BE3                     l1952 0BD4                     l1944 0B95  
                   l2496 0CE4                     l2488 0CC4                     l1784 0B08  
                   l1776 0AED                     l1768 0AD9                     l1928 0D8F  
                   l1936 0DB5                     l2576 0D20                     l1698 0A98  
                   l1874 0A65                     l1866 0A4D                     l1882 0A23  
                   l1858 09B4                     l1794 09DC                     l1954 0BD5  
                   l1946 0BA6                     l1778 0AF1                     l1786 0B0E  
                   l1890 0CF5                     l1876 0A6A                     l1868 0A53  
                   l1884 0A34                     l1980 0202                     l1796 09E0  
                   l1956 0BDD                     l1892 0CFB                     l1878 0A70  
                   l1886 0A38                     l1990 0219                     l1982 0209  
                   l1798 09EF                     l1974 0C08                     l1966 0BEB  
                   l1958 0BDF                     l1894 0D02                     l1992 021E  
                   l1984 020F                     l1976 0C20                     l1968 0C01  
                   l1896 0D07                     l1888 0CF0                     l1994 0226  
                   l1986 0213                     l1978 0C25                     l1996 0227  
                   l1988 0214                     l1998 0229                     STR_1 0835  
                   STR_2 081A                     STR_3 0840                     STR_4 0829  
                   u2000 09E0                     u2001 09DF                     u2100 0B35  
                   u2020 09F4                     u2101 0B34                     u2021 09F3  
                   u2110 0B3D                     u2030 0969                     u2111 0B3C  
                   u2015 09E7                     u2031 0968                     u2120 0B4A  
                   u2040 000D                     u3000 0157                     u2200 0CFB  
                   u2121 0B49                     u2041 000C                     u3001 0156  
                   u2201 0CFA                     u2050 0014                     u2130 09B4  
                   u3010 015C                     u2210 0D51                     u2051 0010  
                   u2131 09B3                     u3011 015B                     u2211 0D50  
                   u2140 09C3                     u3020 0170                     u3100 04A3  
                   u2300 0C00                     u2220 0D5C                     u2141 09C2  
                   u3021 016F                     u3101 04A2                     u2301 0BFF  
                   u2221 0D5B                     u2070 0B1B                     u2150 09C7  
                   u3030 0177                     u3110 04A9                     u2310 0C07  
                   u2230 0DA3                     u2071 0B1A                     u2151 09C6  
                   u3031 0176                     u3111 04A8                     u2311 0C06  
                   u2231 0DA2                     u2215 0D4D                     u2080 0B2A  
                   u2160 0A53                     u2064 0017                     u2400 024D  
                   u3040 017D                     u3120 04AE                     u2240 0DB5  
                   u2081 0B29                     u2161 0A52                     u2401 024C  
                   u3041 017C                     u3201 058F                     u3121 04AD  
                   u2241 0DB4                     u2090 0B2E                     u2170 0A59  
                   u2410 0252                     u3050 018F                     u3202 0596  
                   u3130 04CF                     u2330 0C20                     u2250 0BA6  
                   u2091 0B2D                     u2171 0A58                     u2411 0251  
                   u3051 018E                     u3211 05AB                     u3203 059D  
                   u3131 04CE                     u2331 0C1F                     u2251 0BA5  
                   u2180 0A5F                     u2500 030E                     u2420 026B  
                   u3060 019E                     u3212 05B2                     u3140 04D5  
                   u2340 0C25                     u2260 0BCB                     u2181 0A5E  
                   u2501 030D                     u2421 026A                     u3301 06D4  
                   u3213 05B9                     u3141 04D4                     u2341 0C24  
                   u2325 0C0C                     u2190 0A4B                     u2510 0312  
                   u2430 026F                     u2350 0213                     u3070 01BB  
                   u3310 06F0                     u3302 06DB                     u3150 04DA  
                   u2270 0BE3                     u2191 0A4A                     u2511 0311  
                   u2431 026E                     u2351 0212                     u3071 01BA  
                   u3303 06E2                     u3231 05E1                     u3151 04D9  
                   u2271 0BE2                     u2600 03A4                     u2520 0317  
                   u2440 02C7                     u2360 0219                     u3080 01D8  
                   u3400 0762                     u3232 05E8                     u3160 04F1  
                   u2280 0BEA                     u2601 03A5                     u2521 0316  
                   u2441 02C6                     u2361 0218                     u3081 01D7  
                   u3065 0199                     u3401 0761                     u3321 06FC  
                   u3241 060E                     u3233 05EF                     u3225 05BB  
                   u3161 04F0                     u2281 0BE9                     u2265 0BC6  
                   u2610 03C2                     u2602 03AA                     u2450 02D2  
                   u2370 021E                     u3090 01EF                     u3410 0768  
                   u3322 0703                     u3242 0615                     u3170 04F6  
                   u2611 03C1                     u2603 03AB                     u2531 032D  
                   u2451 02D0                     u2371 021D                     u3091 01EE  
                   u3075 01B7                     u3411 0767                     u3323 070A  
                   u3315 06EB                     u3243 061C                     u3171 04F5  
                   u2700 0422                     u2620 03E7                     u2540 033F  
                   u2532 0334                     u2460 02D3                     u2380 023C  
                   u3420 077A                     u2701 0421                     u2621 03E6  
                   u2541 033E                     u2533 033B                     u2445 02C3  
                   u2381 023B                     u3085 01D4                     u3421 0779  
                   u3261 0644                     u3181 0547                     u2710 0429  
                   u2630 03EC                     u2550 0343                     u2470 02E7  
                   u2390 0247                     u3430 0789                     u3350 072E  
                   u3262 064B                     u3182 054E                     u3510 0C7E  
                   u1910 0B7C                     u2711 0428                     u2631 03EB  
                   u2551 0342                     u2471 02E6                     u2391 0246  
                   u3351 072D                     u3335 070C                     u3271 0671  
                   u3263 0652                     u3255 061E                     u3191 0563  
                   u3183 0555                     u2295 0BEC                     u3511 0C7D  
                   u1911 0B7B                     u2800 0490                     u2720 042F  
                   u2560 0352                     u2480 02FA                     u3440 07A6  
                   u3272 0678                     u3192 056A                     u3600 0CE3  
                   u2801 048F                     u2721 042E                     u2561 0351  
                   u2481 02F9                     u3441 07A5                     u3345 0723  
                   u3281 069E                     u3273 067F                     u3193 0571  
                   u3601 0CE2                     u3505 0C70                     u1905 0B6C  
                   u2730 0441                     u2650 0402                     u2810 0036  
                   u3450 07C0                     u3370 0742                     u3290 06C8  
                   u3282 06A5                     u3530 0CA0                     u1930 0B90  
                   u3610 0DF7                     u2731 0440                     u2651 0401  
                   u2811 0035                     u3451 07BF                     u3435 0784  
                   u3371 0741                     u3283 06AC                     u3531 0C9F  
                   u1931 0B8F                     u1915 0B78                     u3611 0DF6  
                   u2740 0450                     u2660 0407                     u2580 0379  
                   u2820 003C                     u3460 07DE                     u3380 0747  
                   u1940 0ADF                     u3620 0DFE                     u1845 098E  
                   u2661 0406                     u2645 03F7                     u2581 0378  
                   u2821 003B                     u3461 07DD                     u3445 07A2  
                   u3381 0746                     u3365 0731                     u3525 0C92  
                   u1925 0B84                     u1941 0ADE                     u3621 0DFD  
                   u2750 045F                     u2670 0411                     u2830 0041  
                   u3390 075B                     u3550 0CB0                     u3470 0C39  
                   u1870 0B59                     u1855 0A8E                     u2751 045E  
                   u2671 0410                     u2591 0390                     u2583 0375  
                   u2575 0355                     u2495 02FD                     u2831 0040  
                   u3455 07BC                     u3391 075A                     u3295 06C3  
                   u3551 0CAF                     u3471 0C38                     u1871 0B58  
                   u2760 0468                     u2680 0417                     u2592 0391  
                   u2920 00F7                     u2840 0063                     u3560 0CB6  
                   u3480 0C3D                     u1960 0AF1                     u1865 0A0E  
                   u2761 0467                     u2745 044B                     u2681 0416  
                   u2593 0396                     u2921 00F6                     u2905 00E3  
                   u2841 0062                     u3561 0CB5                     u3545 0CA5  
                   u3481 0C3C                     u1961 0AF0                     u2770 046D  
                   u2690 041C                     u2594 0397                     u2850 0069  
                   u3570 0CBA                     u3490 0C5D                     u1890 0B6B  
                   u1970 0AFB                     u3707 0AB6                     u2771 046C  
                   u2691 041B                     u2595 039C                     u2915 00EC  
                   u2851 0068                     u3571 0CB9                     u3491 0C5C  
                   u1891 0B6A                     u1971 0AFA                     u1955 0AE3  
                   u2780 047A                     u2596 039D                     u2940 0113  
                   u2860 006E                     u3580 0CCF                     u3717 0A7F  
                   u2781 0479                     u2941 0112                     u2861 006D  
                   u1885 0B5D                     u2790 047F                     u2950 012C  
                   u2870 0089                     u3590 0CDF                     u1990 0B0E  
                   u3727 0A9C                     u2791 047E                     u2951 012B  
                   u2935 00FA                     u2871 0088                     u3591 0CDE  
                   u1991 0B0D                     u1975 0AF7                     u2960 0134  
                   u2880 00A7                     u3737 0B1F                     u2961 0133  
                   u2945 010F                     u2881 00A6                     u3585 0CCA  
                   u1985 0B02                     u2890 00E1                     u2891 00E0  
                   u2980 0143                     u3677 09B8                     u2981 0142  
                   u3687 09FE                     u2975 0138                     u3697 0A74  
                   u2995 0146                     _main 0DBA                     _temp 00CA  
                   btemp 007E         __end_of_ADC_Init 0952                     start 0000  
           _PWM_Set_Duty 0004          ___fldiv@new_exp 0052   __end_of_LCD_Initialize 0AD9  
            LCDPutCmd@ch 0076            ___fltol@sign1 006E          __end_of___fladd 0492  
                  ?_main 0070                    _CCP1X 00BD          __end_of___fldiv 0202  
                  _CCP1Y 00BC          __end_of___flmul 07F3          __end_of___fltol 0C31  
        __end_of___lwdiv 0B95          __end_of___lwmod 0B13                    _PORTD 0008  
                  _TRISB 0086                    _TRISC 0087                    _TRISD 0088  
        __end_of_get_val 0970                    _flag1 00CD                    _flag2 00CC  
        __end_of_dpowers 081A                    pclath 000A         __end_of_PWM_Init 0961  
                  status 0003                    wtemp0 007E          __end_of_sprintf 0DBA  
        ?_LCD_Initialize 0070          __initialization 07F3             __end_of_main 1000  
            CW_CCW@flag1 0073                   ??_main 00D3                ??_LCDGoto 0078  
      __end_of_LCDPutCmd 0AA9             LCDPutChar@ch 0076        __end_of_LCDPutStr 0A4C  
                 _ADCON0 001F                   _ADCON1 009F                   _CCP1M2 00BA  
                 _CCP1M3 00BB                   _ADRESH 001E                   _ADRESL 009E  
                 _CCPR1L 0015                   _CW_CCW 0B13                   _TMR2ON 0092  
           LCDPutStr@str 0077                   _TRISC2 043A         __end_of___xxtofl 0CED  
         _LCDWriteNibble 098A                   _Config 0970                ??___fladd 0062  
              ??___fldiv 0048                ??___flmul 002E                ??___fltol 00CE  
              ??___lwdiv 0074                ??___lwmod 007C                   _buffer 00B6  
              ??_get_val 0072                ?_ADC_Init 0070               _Start_Stop 09AD  
              ??_sprintf 0023             ___xxtofl@arg 0022             ___xxtofl@exp 0021  
           ___xxtofl@val 0072   __end_of_LCDWriteNibble 09AD  __end_of__initialization 07FC  
             ___fltol@f1 006A                LCDGoto@ln 0077           __pcstackCOMMON 0070  
           ??_LCDPutChar 0074                ?_PWM_Init 0070               ??_ADC_Init 0070  
             __pbssBANK1 00A0                  ?_CW_CCW 0070          ?_LCDWriteNibble 0070  
     __end_of_LCDPutChar 0A21                  ?_Config 0070        __end_of__Umul8_16 09F9  
             __pmaintext 0DBA               ??_PWM_Init 0070                  _T2CKPS0 0090  
                _T2CKPS1 0091                  _LCDGoto 0A4C                ?___xxtofl 0072  
            ?_Start_Stop 0070               __stringtab 0800         ??_LCD_Initialize 0077  
        Start_Stop@flag2 0072                  ___fladd 0202                  ___fldiv 0025  
                ___flmul 0492                  ___fltol 0B95                  ___lwdiv 0B51  
                ___lwmod 0AD9                  __ptext1 0CED                  __ptext2 0AD9  
                __ptext3 0B51                  __ptext4 0961                  __ptext5 0C31  
                __ptext6 0B95                  __ptext7 0492                  __ptext8 09D2  
                __ptext9 0025                  _buffer1 00A2                  _get_val 0961  
                _dpowers 0810               ??___xxtofl 0076                _LCDPutCmd 0A7A  
                _sprintf 0CED                  clrloop0 093E                _LCDPutStr 0A21  
   end_of_initialization 07FC                _PORTBbits 0006                _PORTCbits 0007  
              _PORTDbits 0008              ___fladd@grs 007D            ___xxtofl@sign 0020  
              _TRISAbits 0085              ___fldiv@grs 0054              ___fldiv@rem 004D  
             ?_LCDPutCmd 0070               ?_LCDPutStr 0077              ___flmul@grs 0034  
         __end_of_CW_CCW 0B51               LCDGoto@pos 007C           __end_of_Config 098A  
             LCDPutStr@i 007A      start_initialization 07F3         ??_LCDWriteNibble 0071  
             CW_CCW@flag 0072                 ??_CW_CCW 0070            ?_PWM_Set_Duty 0070  
               ??_Config 0079                __Umul8_16 09D2                ___fladd@a 005E  
              ___fladd@b 005A                 ?_LCDGoto 0077                ___fldiv@a 0040  
              ___fldiv@b 0044                ___flmul@a 002A                ___flmul@b 0026  
              ___latbits 0002            __pcstackBANK0 0020            __pcstackBANK1 00CE  
           ??_Start_Stop 0070              ??_LCDPutCmd 0074              ??_LCDPutStr 0079  
            sprintf@flag 0026              sprintf@prec 002A           ??_PWM_Set_Duty 0072  
       ___lwdiv@dividend 0072                 ?___fladd 005A                 ?___fldiv 0040  
               ?___flmul 0026                 ?___fltol 006A               ?__Umul8_16 0070  
               ?___lwdiv 0070                 ?___lwmod 0078         LCDWriteNibble@ch 0073  
       LCDWriteNibble@rs 0070       __end_of_Start_Stop 09D2                __pstrings 0800  
               ?_get_val 0070                 _ADC_Init 0945         ___lwdiv@quotient 0075  
               ?_sprintf 0020                _dutyCycle 00A0                clear_ram0 093D  
            _LCDGoto$286 007A               _ADCON0bits 001F              __stringbase 080F  
               _PWM_Init 0952              ??__Umul8_16 0072       __end_of__stringtab 0810  
   __end_of_PWM_Set_Duty 0025               sprintf@val 0028                 ___xxtofl 0C31  
               _main$940 00DB                 _main$941 00D7          ___lwdiv@divisor 0070  
        ___lwdiv@counter 0077                 __ptext10 0202                 __ptext11 09AD  
               __ptext20 098A                 __ptext12 0004                 __ptext21 0945  
               __ptext13 0A21                 __ptext22 0B13                 __ptext14 09F9  
               __ptext15 0A4C                 __ptext16 0970                 __ptext17 0952  
               __ptext18 0AA9                 __ptext19 0A7A               _LCDPutChar 09F9  
              sprintf@ap 0027                sprintf@sp 002B         ___lwmod@dividend 007A  
            Config@flag1 0079                stringcode 080A   __Umul8_16@multiplicand 0070  
               sprintf@c 002C                 sprintf@f 0020          ___lwmod@divisor 0078  
        ___lwmod@counter 007D                 stringdir 080A                 stringtab 0800  
          ___fladd@signs 007A             ___fladd@aexp 007B             ___fladd@bexp 007C  
   __Umul8_16@multiplier 0078        __Umul8_16@product 0074  
