

Microchip MPLAB XC8 Assembler V2.36 build 20220127204148 
                                                                                               Sat Apr 30 17:00:37 2022

Microchip MPLAB XC8 C Compiler v2.36 (Free license) build 20220127204148 Og1 
     1                           	processor	16F887
     2                           	pagewidth 120
     3                           	opt	flic
     4                           	psect	idataBANK3,global,class=CODE,delta=2,noexec
     5                           	psect	strings,global,class=STRING,delta=2,noexec
     6                           	psect	cinit,global,class=CODE,merge=1,delta=2
     7                           	psect	bssBANK0,global,class=BANK0,space=1,delta=1,noexec
     8                           	psect	bssBANK1,global,class=BANK1,space=1,delta=1,noexec
     9                           	psect	dataBANK3,global,class=BANK3,space=1,delta=1,noexec
    10                           	psect	inittext,global,class=CODE,delta=2
    11                           	psect	clrtext,global,class=CODE,delta=2
    12                           	psect	cstackBANK1,global,class=BANK1,space=1,delta=1,noexec
    13                           	psect	cstackCOMMON,global,class=COMMON,space=1,delta=1,noexec
    14                           	psect	cstackBANK0,global,class=BANK0,space=1,delta=1,noexec
    15                           	psect	maintext,global,class=CODE,split=1,delta=2
    16                           	psect	text1,local,class=CODE,merge=1,delta=2
    17                           	psect	text2,local,class=CODE,merge=1,delta=2,group=1
    18                           	psect	text3,local,class=CODE,merge=1,delta=2,group=1
    19                           	psect	text4,local,class=CODE,merge=1,delta=2,group=2
    20                           	psect	text5,local,class=CODE,merge=1,delta=2,group=2
    21                           	psect	text6,local,class=CODE,merge=1,delta=2,group=3
    22                           	psect	text7,local,class=CODE,merge=1,delta=2,group=1
    23                           	psect	text8,local,class=CODE,merge=1,delta=2,group=2
    24                           	psect	text9,local,class=CODE,merge=1,delta=2,group=2
    25                           	psect	text10,local,class=CODE,merge=1,delta=2,group=2
    26                           	psect	text11,local,class=CODE,merge=1,delta=2,group=2
    27                           	psect	text12,local,class=CODE,merge=1,delta=2,group=2
    28                           	psect	text13,local,class=CODE,merge=1,delta=2,group=2
    29                           	psect	text14,local,class=CODE,merge=1,delta=2,group=2
    30                           	psect	text15,local,class=CODE,merge=1,delta=2,group=2
    31                           	psect	text16,local,class=CODE,merge=1,delta=2,group=2
    32                           	psect	text17,local,class=CODE,merge=1,delta=2,group=2
    33                           	psect	text18,local,class=CODE,merge=1,delta=2,group=2
    34                           	psect	text19,local,class=CODE,merge=1,delta=2,group=2
    35                           	psect	text20,local,class=CODE,merge=1,delta=2,group=2
    36                           	psect	text21,local,class=CODE,merge=1,delta=2,group=2
    37                           	psect	text22,local,class=CODE,merge=1,delta=2,group=2
    38                           	psect	text23,local,class=CODE,merge=1,delta=2,group=2
    39                           	psect	text24,local,class=CODE,merge=1,delta=2
    40                           	psect	text25,local,class=CODE,merge=1,delta=2,group=2
    41                           	psect	text26,local,class=CODE,merge=1,delta=2
    42                           	psect	text27,local,class=CODE,merge=1,delta=2
    43                           	psect	text28,local,class=CODE,merge=1,delta=2
    44                           	psect	text29,local,class=CODE,merge=1,delta=2
    45                           	psect	text30,local,class=CODE,merge=1,delta=2
    46                           	psect	text31,local,class=CODE,merge=1,delta=2
    47                           	psect	idloc,global,abs,ovrld,class=IDLOC,space=5,delta=2,noexec
    48                           	psect	config,global,abs,ovrld,class=CONFIG,space=4,delta=2,noexec
    49                           	dabs	1,0x7E,2
    50  0000                     
    51                           ; Version 2.40
    52                           ; Generated 17/11/2021 GMT
    53                           ; 
    54                           ; Copyright © 2021, Microchip Technology Inc. and its subsidiaries ("Microchip")
    55                           ; All rights reserved.
    56                           ; 
    57                           ; This software is developed by Microchip Technology Inc. and its subsidiaries ("Microch
      +                          ip").
    58                           ; 
    59                           ; Redistribution and use in source and binary forms, with or without modification, are
    60                           ; permitted provided that the following conditions are met:
    61                           ; 
    62                           ;     1. Redistributions of source code must retain the above copyright notice, this lis
      +                          t of
    63                           ;        conditions and the following disclaimer.
    64                           ; 
    65                           ;     2. Redistributions in binary form must reproduce the above copyright notice, this 
      +                          list
    66                           ;        of conditions and the following disclaimer in the documentation and/or other
    67                           ;        materials provided with the distribution. Publication is not required when
    68                           ;        this file is used in an embedded application.
    69                           ; 
    70                           ;     3. Microchip's name may not be used to endorse or promote products derived from th
      +                          is
    71                           ;        software without specific prior written permission.
    72                           ; 
    73                           ; THIS SOFTWARE IS PROVIDED BY MICROCHIP "AS IS" AND ANY EXPRESS OR IMPLIED WARRANTIES,
    74                           ; INCLUDING, BUT NOT LIMITED TO, THE IMPLIED WARRANTIES OF MERCHANTABILITY AND FITNESS F
      +                          OR
    75                           ; PURPOSE ARE DISCLAIMED.  IN NO EVENT SHALL MICROCHIP BE LIABLE FOR ANY DIRECT, INDIREC
      +                          T,
    76                           ; INCIDENTAL, SPECIAL, EXEMPLARY, OR CONSEQUENTIAL DAMAGES (INCLUDING BUT NOT LIMITED TO
    77                           ; PROCUREMENT OF SUBSTITUTE GOODS OR SERVICES; LOSS OF USE, DATA OR PROFITS; OR BUSINESS
    78                           ; INTERRUPTION) HOWSOEVER CAUSED AND ON ANY THEORY OF LIABILITY, WHETHER IN CONTRACT, ST
      +                          RICT
    79                           ; LIABILITY, OR TORT (INCLUDING NEGLIGENCE OR OTHERWISE) ARISING IN ANY WAY OUT OF THE U
      +                          SE OF
    80                           ; THIS SOFTWARE, EVEN IF ADVISED OF THE POSSIBILITY OF SUCH DAMAGE.
    81                           ; 
    82                           ; 
    83                           ; Code-generator required, PIC16F887 Definitions
    84                           ; 
    85                           ; SFR Addresses
    86  0000                     	;# 
    87  0001                     	;# 
    88  0002                     	;# 
    89  0003                     	;# 
    90  0004                     	;# 
    91  0005                     	;# 
    92  0006                     	;# 
    93  0007                     	;# 
    94  0008                     	;# 
    95  0009                     	;# 
    96  000A                     	;# 
    97  000B                     	;# 
    98  000C                     	;# 
    99  000D                     	;# 
   100  000E                     	;# 
   101  000E                     	;# 
   102  000F                     	;# 
   103  0010                     	;# 
   104  0011                     	;# 
   105  0012                     	;# 
   106  0013                     	;# 
   107  0014                     	;# 
   108  0015                     	;# 
   109  0015                     	;# 
   110  0016                     	;# 
   111  0017                     	;# 
   112  0018                     	;# 
   113  0019                     	;# 
   114  001A                     	;# 
   115  001B                     	;# 
   116  001B                     	;# 
   117  001C                     	;# 
   118  001D                     	;# 
   119  001E                     	;# 
   120  001F                     	;# 
   121  0081                     	;# 
   122  0085                     	;# 
   123  0086                     	;# 
   124  0087                     	;# 
   125  0088                     	;# 
   126  0089                     	;# 
   127  008C                     	;# 
   128  008D                     	;# 
   129  008E                     	;# 
   130  008F                     	;# 
   131  0090                     	;# 
   132  0091                     	;# 
   133  0092                     	;# 
   134  0093                     	;# 
   135  0093                     	;# 
   136  0093                     	;# 
   137  0094                     	;# 
   138  0095                     	;# 
   139  0096                     	;# 
   140  0097                     	;# 
   141  0098                     	;# 
   142  0099                     	;# 
   143  009A                     	;# 
   144  009B                     	;# 
   145  009C                     	;# 
   146  009D                     	;# 
   147  009E                     	;# 
   148  009F                     	;# 
   149  0105                     	;# 
   150  0107                     	;# 
   151  0108                     	;# 
   152  0109                     	;# 
   153  010C                     	;# 
   154  010C                     	;# 
   155  010D                     	;# 
   156  010E                     	;# 
   157  010F                     	;# 
   158  0185                     	;# 
   159  0187                     	;# 
   160  0188                     	;# 
   161  0189                     	;# 
   162  018C                     	;# 
   163  018D                     	;# 
   164  0000                     	;# 
   165  0001                     	;# 
   166  0002                     	;# 
   167  0003                     	;# 
   168  0004                     	;# 
   169  0005                     	;# 
   170  0006                     	;# 
   171  0007                     	;# 
   172  0008                     	;# 
   173  0009                     	;# 
   174  000A                     	;# 
   175  000B                     	;# 
   176  000C                     	;# 
   177  000D                     	;# 
   178  000E                     	;# 
   179  000E                     	;# 
   180  000F                     	;# 
   181  0010                     	;# 
   182  0011                     	;# 
   183  0012                     	;# 
   184  0013                     	;# 
   185  0014                     	;# 
   186  0015                     	;# 
   187  0015                     	;# 
   188  0016                     	;# 
   189  0017                     	;# 
   190  0018                     	;# 
   191  0019                     	;# 
   192  001A                     	;# 
   193  001B                     	;# 
   194  001B                     	;# 
   195  001C                     	;# 
   196  001D                     	;# 
   197  001E                     	;# 
   198  001F                     	;# 
   199  0081                     	;# 
   200  0085                     	;# 
   201  0086                     	;# 
   202  0087                     	;# 
   203  0088                     	;# 
   204  0089                     	;# 
   205  008C                     	;# 
   206  008D                     	;# 
   207  008E                     	;# 
   208  008F                     	;# 
   209  0090                     	;# 
   210  0091                     	;# 
   211  0092                     	;# 
   212  0093                     	;# 
   213  0093                     	;# 
   214  0093                     	;# 
   215  0094                     	;# 
   216  0095                     	;# 
   217  0096                     	;# 
   218  0097                     	;# 
   219  0098                     	;# 
   220  0099                     	;# 
   221  009A                     	;# 
   222  009B                     	;# 
   223  009C                     	;# 
   224  009D                     	;# 
   225  009E                     	;# 
   226  009F                     	;# 
   227  0105                     	;# 
   228  0107                     	;# 
   229  0108                     	;# 
   230  0109                     	;# 
   231  010C                     	;# 
   232  010C                     	;# 
   233  010D                     	;# 
   234  010E                     	;# 
   235  010F                     	;# 
   236  0185                     	;# 
   237  0187                     	;# 
   238  0188                     	;# 
   239  0189                     	;# 
   240  018C                     	;# 
   241  018D                     	;# 
   242  0000                     	;# 
   243  0001                     	;# 
   244  0002                     	;# 
   245  0003                     	;# 
   246  0004                     	;# 
   247  0005                     	;# 
   248  0006                     	;# 
   249  0007                     	;# 
   250  0008                     	;# 
   251  0009                     	;# 
   252  000A                     	;# 
   253  000B                     	;# 
   254  000C                     	;# 
   255  000D                     	;# 
   256  000E                     	;# 
   257  000E                     	;# 
   258  000F                     	;# 
   259  0010                     	;# 
   260  0011                     	;# 
   261  0012                     	;# 
   262  0013                     	;# 
   263  0014                     	;# 
   264  0015                     	;# 
   265  0015                     	;# 
   266  0016                     	;# 
   267  0017                     	;# 
   268  0018                     	;# 
   269  0019                     	;# 
   270  001A                     	;# 
   271  001B                     	;# 
   272  001B                     	;# 
   273  001C                     	;# 
   274  001D                     	;# 
   275  001E                     	;# 
   276  001F                     	;# 
   277  0081                     	;# 
   278  0085                     	;# 
   279  0086                     	;# 
   280  0087                     	;# 
   281  0088                     	;# 
   282  0089                     	;# 
   283  008C                     	;# 
   284  008D                     	;# 
   285  008E                     	;# 
   286  008F                     	;# 
   287  0090                     	;# 
   288  0091                     	;# 
   289  0092                     	;# 
   290  0093                     	;# 
   291  0093                     	;# 
   292  0093                     	;# 
   293  0094                     	;# 
   294  0095                     	;# 
   295  0096                     	;# 
   296  0097                     	;# 
   297  0098                     	;# 
   298  0099                     	;# 
   299  009A                     	;# 
   300  009B                     	;# 
   301  009C                     	;# 
   302  009D                     	;# 
   303  009E                     	;# 
   304  009F                     	;# 
   305  0105                     	;# 
   306  0107                     	;# 
   307  0108                     	;# 
   308  0109                     	;# 
   309  010C                     	;# 
   310  010C                     	;# 
   311  010D                     	;# 
   312  010E                     	;# 
   313  010F                     	;# 
   314  0185                     	;# 
   315  0187                     	;# 
   316  0188                     	;# 
   317  0189                     	;# 
   318  018C                     	;# 
   319  018D                     	;# 
   320                           
   321                           	psect	idataBANK3
   322  1BB6                     __pidataBANK3:
   323                           
   324                           ;initializer for ___cgram
   325  1BB6  340C               	retlw	12
   326  1BB7  3412               	retlw	18
   327  1BB8  3412               	retlw	18
   328  1BB9  340C               	retlw	12
   329  1BBA  3400               	retlw	0
   330  1BBB  3400               	retlw	0
   331  1BBC  3400               	retlw	0
   332  1BBD  3400               	retlw	0
   333  1BBE  3400               	retlw	0
   334  1BBF  3404               	retlw	4
   335  1BC0  340E               	retlw	14
   336  1BC1  341F               	retlw	31
   337  1BC2  340E               	retlw	14
   338  1BC3  3404               	retlw	4
   339  1BC4  3400               	retlw	0
   340  1BC5  3400               	retlw	0
   341  1BC6  3404               	retlw	4
   342  1BC7  3404               	retlw	4
   343  1BC8  3404               	retlw	4
   344  1BC9  3404               	retlw	4
   345  1BCA  341F               	retlw	31
   346  1BCB  340E               	retlw	14
   347  1BCC  3404               	retlw	4
   348  1BCD  3400               	retlw	0
   349  1BCE  340A               	retlw	10
   350  1BCF  3415               	retlw	21
   351  1BD0  3411               	retlw	17
   352  1BD1  340A               	retlw	10
   353  1BD2  3404               	retlw	4
   354  1BD3  3400               	retlw	0
   355  1BD4  3400               	retlw	0
   356  1BD5  3400               	retlw	0
   357  1BD6  340A               	retlw	10
   358  1BD7  341F               	retlw	31
   359  1BD8  341F               	retlw	31
   360  1BD9  340E               	retlw	14
   361  1BDA  3404               	retlw	4
   362  1BDB  3400               	retlw	0
   363  1BDC  3400               	retlw	0
   364  1BDD  3400               	retlw	0
   365  1BDE  3400               	retlw	0
   366  1BDF  3400               	retlw	0
   367  1BE0  3400               	retlw	0
   368  1BE1  3400               	retlw	0
   369  1BE2  3400               	retlw	0
   370  1BE3  3400               	retlw	0
   371  1BE4  3400               	retlw	0
   372  1BE5  3400               	retlw	0
   373  1BE6  3400               	retlw	0
   374  1BE7  3400               	retlw	0
   375  1BE8  3400               	retlw	0
   376  1BE9  3400               	retlw	0
   377  1BEA  3400               	retlw	0
   378  1BEB  3400               	retlw	0
   379  1BEC  3400               	retlw	0
   380  1BED  3400               	retlw	0
   381  1BEE  3400               	retlw	0
   382  1BEF  3400               	retlw	0
   383  1BF0  3400               	retlw	0
   384  1BF1  3400               	retlw	0
   385  1BF2  3400               	retlw	0
   386  1BF3  3400               	retlw	0
   387  1BF4  3400               	retlw	0
   388  1BF5  3400               	retlw	0
   389                           
   390                           	psect	strings
   391  1000                     __pstrings:
   392  1000                     stringtab:
   393  1000                     __stringtab:
   394                           
   395                           ;	String table - string pointers are 1 byte each
   396  1000  1BFF               	btfsc	btemp+1,7
   397  1001  280A               	ljmp	stringcode
   398  1002  1383               	bcf	3,7
   399  1003  187F               	btfsc	btemp+1,0
   400  1004  1783               	bsf	3,7
   401  1005  0800               	movf	0,w
   402  1006  0A84               	incf	4,f
   403  1007  1903               	skipnz
   404  1008  0AFF               	incf	btemp+1,f
   405  1009  0008               	return
   406  100A                     stringcode:
   407  100A                     stringdir:
   408  100A  3010               	movlw	high stringdir
   409  100B  008A               	movwf	10
   410  100C  0804               	movf	4,w
   411  100D  0A84               	incf	4,f
   412  100E  0782               	addwf	2,f
   413  100F                     __stringbase:
   414  100F  3400               	retlw	0
   415  1010                     __end_of__stringtab:
   416  1010                     __powers_:
   417  1010  3400               	retlw	0
   418  1011  3400               	retlw	0
   419  1012  3480               	retlw	128
   420  1013  343F               	retlw	63
   421  1014  3400               	retlw	0
   422  1015  3400               	retlw	0
   423  1016  3420               	retlw	32
   424  1017  3441               	retlw	65
   425  1018  3400               	retlw	0
   426  1019  3400               	retlw	0
   427  101A  34C8               	retlw	200
   428  101B  3442               	retlw	66
   429  101C  3400               	retlw	0
   430  101D  3400               	retlw	0
   431  101E  347A               	retlw	122
   432  101F  3444               	retlw	68
   433  1020  3400               	retlw	0
   434  1021  3440               	retlw	64
   435  1022  341C               	retlw	28
   436  1023  3446               	retlw	70
   437  1024  3400               	retlw	0
   438  1025  3450               	retlw	80
   439  1026  34C3               	retlw	195
   440  1027  3447               	retlw	71
   441  1028  3400               	retlw	0
   442  1029  3424               	retlw	36
   443  102A  3474               	retlw	116
   444  102B  3449               	retlw	73
   445  102C  3480               	retlw	128
   446  102D  3496               	retlw	150
   447  102E  3418               	retlw	24
   448  102F  344B               	retlw	75
   449  1030  3420               	retlw	32
   450  1031  34BC               	retlw	188
   451  1032  34BE               	retlw	190
   452  1033  344C               	retlw	76
   453  1034  3428               	retlw	40
   454  1035  346B               	retlw	107
   455  1036  346E               	retlw	110
   456  1037  344E               	retlw	78
   457  1038  34F9               	retlw	249
   458  1039  3402               	retlw	2
   459  103A  3415               	retlw	21
   460  103B  3450               	retlw	80
   461  103C  34EC               	retlw	236
   462  103D  3478               	retlw	120
   463  103E  34AD               	retlw	173
   464  103F  3460               	retlw	96
   465  1040  34CA               	retlw	202
   466  1041  34F2               	retlw	242
   467  1042  3449               	retlw	73
   468  1043  3471               	retlw	113
   469  1044                     __end_of__powers_:
   470  1044                     __npowers_:
   471  1044  3400               	retlw	0
   472  1045  3400               	retlw	0
   473  1046  3480               	retlw	128
   474  1047  343F               	retlw	63
   475  1048  34CD               	retlw	205
   476  1049  34CC               	retlw	204
   477  104A  34CC               	retlw	204
   478  104B  343D               	retlw	61
   479  104C  340A               	retlw	10
   480  104D  34D7               	retlw	215
   481  104E  3423               	retlw	35
   482  104F  343C               	retlw	60
   483  1050  346F               	retlw	111
   484  1051  3412               	retlw	18
   485  1052  3483               	retlw	131
   486  1053  343A               	retlw	58
   487  1054  3417               	retlw	23
   488  1055  34B7               	retlw	183
   489  1056  34D1               	retlw	209
   490  1057  3438               	retlw	56
   491  1058  34AC               	retlw	172
   492  1059  34C5               	retlw	197
   493  105A  3427               	retlw	39
   494  105B  3437               	retlw	55
   495  105C  34BD               	retlw	189
   496  105D  3437               	retlw	55
   497  105E  3486               	retlw	134
   498  105F  3435               	retlw	53
   499  1060  3495               	retlw	149
   500  1061  34BF               	retlw	191
   501  1062  34D6               	retlw	214
   502  1063  3433               	retlw	51
   503  1064  3477               	retlw	119
   504  1065  34CC               	retlw	204
   505  1066  342B               	retlw	43
   506  1067  3432               	retlw	50
   507  1068  345F               	retlw	95
   508  1069  3470               	retlw	112
   509  106A  3489               	retlw	137
   510  106B  3430               	retlw	48
   511  106C  34FF               	retlw	255
   512  106D  34E6               	retlw	230
   513  106E  34DB               	retlw	219
   514  106F  342E               	retlw	46
   515  1070  3408               	retlw	8
   516  1071  34E5               	retlw	229
   517  1072  343C               	retlw	60
   518  1073  341E               	retlw	30
   519  1074  3460               	retlw	96
   520  1075  3442               	retlw	66
   521  1076  34A2               	retlw	162
   522  1077  340D               	retlw	13
   523  1078                     __end_of__npowers_:
   524  1078                     _dpowers:
   525  1078  3401               	retlw	1
   526  1079  3400               	retlw	0
   527  107A  3400               	retlw	0
   528  107B  3400               	retlw	0
   529  107C  340A               	retlw	10
   530  107D  3400               	retlw	0
   531  107E  3400               	retlw	0
   532  107F  3400               	retlw	0
   533  1080  3464               	retlw	100
   534  1081  3400               	retlw	0
   535  1082  3400               	retlw	0
   536  1083  3400               	retlw	0
   537  1084  34E8               	retlw	232
   538  1085  3403               	retlw	3
   539  1086  3400               	retlw	0
   540  1087  3400               	retlw	0
   541  1088  3410               	retlw	16
   542  1089  3427               	retlw	39
   543  108A  3400               	retlw	0
   544  108B  3400               	retlw	0
   545  108C  34A0               	retlw	160
   546  108D  3486               	retlw	134
   547  108E  3401               	retlw	1
   548  108F  3400               	retlw	0
   549  1090  3440               	retlw	64
   550  1091  3442               	retlw	66
   551  1092  340F               	retlw	15
   552  1093  3400               	retlw	0
   553  1094  3480               	retlw	128
   554  1095  3496               	retlw	150
   555  1096  3498               	retlw	152
   556  1097  3400               	retlw	0
   557  1098  3400               	retlw	0
   558  1099  34E1               	retlw	225
   559  109A  34F5               	retlw	245
   560  109B  3405               	retlw	5
   561  109C  3400               	retlw	0
   562  109D  34CA               	retlw	202
   563  109E  349A               	retlw	154
   564  109F  343B               	retlw	59
   565  10A0                     __end_of_dpowers:
   566  0008                     _PORTD	set	8
   567  001F                     _ADCON0bits	set	31
   568  001E                     _ADRESH	set	30
   569  001F                     _ADCON0	set	31
   570  0045                     _RD5	set	69
   571  0046                     _RD6	set	70
   572  0044                     _RD4	set	68
   573  0088                     _TRISDbits	set	136
   574  0088                     _TRISD	set	136
   575  0085                     _TRISAbits	set	133
   576  009E                     _ADRESL	set	158
   577  009F                     _ADCON1	set	159
   578  0188                     _ANSELbits	set	392
   579  10A0                     STR_2:
   580  10A0  3454               	retlw	84	;'T'
   581  10A1  3448               	retlw	72	;'H'
   582  10A2  3441               	retlw	65	;'A'
   583  10A3  344E               	retlw	78	;'N'
   584  10A4  3447               	retlw	71	;'G'
   585  10A5  3420               	retlw	32	;' '
   586  10A6  3432               	retlw	50	;'2'
   587  10A7  3430               	retlw	48	;'0'
   588  10A8  3431               	retlw	49	;'1'
   589  10A9  3434               	retlw	52	;'4'
   590  10AA  3435               	retlw	53	;'5'
   591  10AB  3431               	retlw	49	;'1'
   592  10AC  3439               	retlw	57	;'9'
   593  10AD  3436               	retlw	54	;'6'
   594  10AE  3400               	retlw	0
   595  10AF                     STR_1:
   596  10AF  3454               	retlw	84	;'T'
   597  10B0  3465               	retlw	101	;'e'
   598  10B1  346D               	retlw	109	;'m'
   599  10B2  3470               	retlw	112	;'p'
   600  10B3  343D               	retlw	61	;'='
   601  10B4  3425               	retlw	37	;'%'
   602  10B5  342E               	retlw	46	;'.'
   603  10B6  3430               	retlw	48	;'0'
   604  10B7  3431               	retlw	49	;'1'
   605  10B8  3466               	retlw	102	;'f'
   606  10B9  3400               	retlw	0
   607                           
   608                           	psect	cinit
   609  07E4                     start_initialization:	
   610                           ; #config settings
   611                           
   612  07E4                     __initialization:
   613                           
   614                           ; Initialize objects allocated to BANK3
   615  07E4  1783               	bsf	3,7	;select IRP bank2
   616  07E5  30D0               	movlw	low (__pdataBANK3+64)
   617  07E6  00FD               	movwf	btemp+-1
   618  07E7  301B               	movlw	high __pidataBANK3
   619  07E8  00FE               	movwf	btemp
   620  07E9  30B6               	movlw	low __pidataBANK3
   621  07EA  00FF               	movwf	btemp+1
   622  07EB  3090               	movlw	low __pdataBANK3
   623  07EC  0084               	movwf	4
   624  07ED  160A  158A  22A3  120A  118A  	fcall	init_ram0
   625                           
   626                           ; Clear objects allocated to BANK1
   627  07F2  1383               	bcf	3,7	;select IRP bank0
   628  07F3  30C7               	movlw	low __pbssBANK1
   629  07F4  0084               	movwf	4
   630  07F5  30DE               	movlw	low (__pbssBANK1+23)
   631  07F6  160A  118A  20BE  120A  118A  	fcall	clear_ram0
   632                           
   633                           ; Clear objects allocated to BANK0
   634  07FB  01EE               	clrf	__pbssBANK0& (0+127)
   635  07FC                     end_of_initialization:	
   636                           ;End of C runtime variable initialization code
   637                           
   638  07FC                     __end_of__initialization:
   639  07FC  0183               	clrf	3
   640  07FD  160A  118A  28C6   	ljmp	_main	;jump to C main() function
   641                           
   642                           	psect	bssBANK0
   643  006E                     __pbssBANK0:
   644  006E                     _get_value:
   645  006E                     	ds	1
   646                           
   647                           	psect	bssBANK1
   648  00C7                     __pbssBANK1:
   649  00C7                     LCDWriteInt@F1326:
   650  00C7                     	ds	5
   651  00CC                     _temp:
   652  00CC                     	ds	4
   653  00D0                     _result:
   654  00D0                     	ds	2
   655  00D2                     _x:
   656  00D2                     	ds	2
   657  00D4                     _text:
   658  00D4                     	ds	10
   659                           
   660                           	psect	dataBANK3
   661  0190                     __pdataBANK3:
   662  0190                     ___cgram:
   663  0190                     	ds	64
   664                           
   665                           	psect	inittext
   666  1A9F                     init_fetch0:	
   667                           ;	Called with low address in FSR and high address in W
   668                           
   669  1A9F  087E               	movf	btemp,w
   670  1AA0  008A               	movwf	10
   671  1AA1  087F               	movf	btemp+1,w
   672  1AA2  0082               	movwf	2
   673  1AA3                     init_ram0:	
   674                           ;Called with:
   675                           ;	high address of idata address in btemp 
   676                           ;	low address of idata address in btemp+1 
   677                           ;	low address of data in FSR
   678                           ;	high address + 1 of data in btemp-1
   679                           
   680  1AA3  160A  158A  229F  160A  158A  	fcall	init_fetch0
   681  1AA8  0080               	movwf	0
   682  1AA9  0A84               	incf	4,f
   683  1AAA  0804               	movf	4,w
   684  1AAB  067D               	xorwf	btemp+-1,w
   685  1AAC  1903               	btfsc	3,2
   686  1AAD  3400               	retlw	0
   687  1AAE  0AFF               	incf	btemp+1,f
   688  1AAF  1903               	btfsc	3,2
   689  1AB0  0AFE               	incf	btemp,f
   690  1AB1  2AA3               	goto	init_ram0
   691                           
   692                           	psect	clrtext
   693  10BE                     clear_ram0:	
   694                           ;	Called with FSR containing the base address, and
   695                           ;	W with the last address+1
   696                           
   697  10BE  0064               	clrwdt	;clear the watchdog before getting into this loop
   698  10BF                     clrloop0:
   699  10BF  0180               	clrf	0	;clear RAM location pointed to by FSR
   700  10C0  0A84               	incf	4,f	;increment pointer
   701  10C1  0604               	xorwf	4,w	;XOR with final address
   702  10C2  1903               	btfsc	3,2	;have we reached the end yet?
   703  10C3  3400               	retlw	0	;all done for this memory range, return
   704  10C4  0604               	xorwf	4,w	;XOR again to restore value
   705  10C5  28BF               	goto	clrloop0	;do the next byte
   706                           
   707                           	psect	cstackBANK1
   708  00A0                     __pcstackBANK1:
   709  00A0                     ?_sprintf:
   710  00A0                     sprintf@f:	
   711                           ; 2 bytes @ 0x0
   712                           
   713                           
   714                           ; 1 bytes @ 0x0
   715  00A0                     	ds	5
   716  00A5                     ??_sprintf:
   717                           
   718                           ; 1 bytes @ 0x5
   719  00A5                     	ds	5
   720  00AA                     _sprintf$939:
   721                           
   722                           ; 4 bytes @ 0xA
   723  00AA                     	ds	4
   724  00AE                     sprintf@ap:
   725                           
   726                           ; 1 bytes @ 0xE
   727  00AE                     	ds	1
   728  00AF                     sprintf@flag:
   729                           
   730                           ; 2 bytes @ 0xF
   731  00AF                     	ds	2
   732  00B1                     sprintf@val:
   733                           
   734                           ; 4 bytes @ 0x11
   735  00B1                     	ds	4
   736  00B5                     sprintf@eexp:
   737                           
   738                           ; 2 bytes @ 0x15
   739  00B5                     	ds	2
   740  00B7                     sprintf@tmpval:
   741                           
   742                           ; 4 bytes @ 0x17
   743  00B7                     	ds	4
   744  00BB                     sprintf@sp:
   745                           
   746                           ; 1 bytes @ 0x1B
   747  00BB                     	ds	1
   748  00BC                     sprintf@prec:
   749                           
   750                           ; 2 bytes @ 0x1C
   751  00BC                     	ds	2
   752  00BE                     sprintf@fval:
   753                           
   754                           ; 4 bytes @ 0x1E
   755  00BE                     	ds	4
   756  00C2                     sprintf@c:
   757                           
   758                           ; 1 bytes @ 0x22
   759  00C2                     	ds	1
   760  00C3                     ??_fun:
   761                           
   762                           ; 1 bytes @ 0x23
   763  00C3                     	ds	4
   764                           
   765                           	psect	cstackCOMMON
   766  0070                     __pcstackCOMMON:
   767  0070                     ?_isdigit:
   768  0070                     ?___fleq:	
   769                           ; 1 bit 
   770                           
   771  0070                     ?___flge:	
   772                           ; 1 bit 
   773                           
   774  0070                     ?_LCDInit:	
   775                           ; 1 bit 
   776                           
   777  0070                     ?_LCDBusyLoop:	
   778                           ; 1 bytes @ 0x0
   779                           
   780  0070                     ??_LCDBusyLoop:	
   781                           ; 1 bytes @ 0x0
   782                           
   783  0070                     ??_isdigit:	
   784                           ; 1 bytes @ 0x0
   785                           
   786  0070                     ?_ADCInit:	
   787                           ; 1 bytes @ 0x0
   788                           
   789  0070                     ??_ADCInit:	
   790                           ; 1 bytes @ 0x0
   791                           
   792  0070                     ?_fun:	
   793                           ; 1 bytes @ 0x0
   794                           
   795  0070                     ?_main:	
   796                           ; 1 bytes @ 0x0
   797                           
   798  0070                     ?__Umul8_16:	
   799                           ; 1 bytes @ 0x0
   800                           
   801  0070                     ?_get_val:	
   802                           ; 2 bytes @ 0x0
   803                           
   804  0070                     ?___wmul:	
   805                           ; 2 bytes @ 0x0
   806                           
   807  0070                     ?___awmod:	
   808                           ; 2 bytes @ 0x0
   809                           
   810  0070                     ?___lwmod:	
   811                           ; 2 bytes @ 0x0
   812                           
   813  0070                     ?__tdiv_to_l_:	
   814                           ; 2 bytes @ 0x0
   815                           
   816  0070                     ?__div_to_l_:	
   817                           ; 4 bytes @ 0x0
   818                           
   819  0070                     ?___lldiv:	
   820                           ; 4 bytes @ 0x0
   821                           
   822  0070                     ?___flneg:	
   823                           ; 4 bytes @ 0x0
   824                           
   825  0070                     ?___llmod:	
   826                           ; 4 bytes @ 0x0
   827                           
   828  0070                     __Umul8_16@multiplicand:	
   829                           ; 4 bytes @ 0x0
   830                           
   831  0070                     _isdigit$759:	
   832                           ; 1 bytes @ 0x0
   833                           
   834  0070                     ___wmul@multiplier:	
   835                           ; 1 bytes @ 0x0
   836                           
   837  0070                     ___awmod@divisor:	
   838                           ; 2 bytes @ 0x0
   839                           
   840  0070                     ___lwmod@divisor:	
   841                           ; 2 bytes @ 0x0
   842                           
   843  0070                     ___lldiv@divisor:	
   844                           ; 2 bytes @ 0x0
   845                           
   846  0070                     __div_to_l_@f1:	
   847                           ; 4 bytes @ 0x0
   848                           
   849  0070                     ___fleq@ff1:	
   850                           ; 4 bytes @ 0x0
   851                           
   852  0070                     ___flge@ff1:	
   853                           ; 4 bytes @ 0x0
   854                           
   855  0070                     ___flneg@f1:	
   856                           ; 4 bytes @ 0x0
   857                           
   858  0070                     __tdiv_to_l_@f1:	
   859                           ; 4 bytes @ 0x0
   860                           
   861  0070                     ___llmod@divisor:	
   862                           ; 4 bytes @ 0x0
   863                           
   864                           
   865                           ; 4 bytes @ 0x0
   866  0070                     	ds	1
   867  0071                     isdigit@c:
   868                           
   869                           ; 1 bytes @ 0x1
   870  0071                     	ds	1
   871  0072                     ??__Umul8_16:
   872  0072                     ??_get_val:	
   873                           ; 1 bytes @ 0x2
   874                           
   875  0072                     LCDBusyLoop@busy:	
   876                           ; 1 bytes @ 0x2
   877                           
   878  0072                     ___wmul@multiplicand:	
   879                           ; 1 bytes @ 0x2
   880                           
   881  0072                     ___awmod@dividend:	
   882                           ; 2 bytes @ 0x2
   883                           
   884  0072                     ___lwmod@dividend:	
   885                           ; 2 bytes @ 0x2
   886                           
   887                           
   888                           ; 2 bytes @ 0x2
   889  0072                     	ds	1
   890  0073                     LCDBusyLoop@temp:
   891                           
   892                           ; 1 bytes @ 0x3
   893  0073                     	ds	1
   894  0074                     ??___wmul:
   895  0074                     ??___awmod:	
   896                           ; 1 bytes @ 0x4
   897                           
   898  0074                     ??___flneg:	
   899                           ; 1 bytes @ 0x4
   900                           
   901  0074                     ??___lwmod:	
   902                           ; 1 bytes @ 0x4
   903                           
   904  0074                     ?___xxtofl:	
   905                           ; 1 bytes @ 0x4
   906                           
   907  0074                     LCDBusyLoop@status:	
   908                           ; 4 bytes @ 0x4
   909                           
   910  0074                     ___wmul@product:	
   911                           ; 1 bytes @ 0x4
   912                           
   913  0074                     __Umul8_16@product:	
   914                           ; 2 bytes @ 0x4
   915                           
   916  0074                     ___lldiv@dividend:	
   917                           ; 2 bytes @ 0x4
   918                           
   919  0074                     __div_to_l_@f2:	
   920                           ; 4 bytes @ 0x4
   921                           
   922  0074                     ___fleq@ff2:	
   923                           ; 4 bytes @ 0x4
   924                           
   925  0074                     ___flge@ff2:	
   926                           ; 4 bytes @ 0x4
   927                           
   928  0074                     __tdiv_to_l_@f2:	
   929                           ; 4 bytes @ 0x4
   930                           
   931  0074                     ___llmod@dividend:	
   932                           ; 4 bytes @ 0x4
   933                           
   934  0074                     ___xxtofl@val:	
   935                           ; 4 bytes @ 0x4
   936                           
   937                           
   938                           ; 4 bytes @ 0x4
   939  0074                     	ds	1
   940  0075                     ?_LCDByte:
   941  0075                     LCDByte@isdata:	
   942                           ; 1 bytes @ 0x5
   943                           
   944  0075                     ___awmod@counter:	
   945                           ; 1 bytes @ 0x5
   946                           
   947  0075                     ___lwmod@counter:	
   948                           ; 1 bytes @ 0x5
   949                           
   950                           
   951                           ; 1 bytes @ 0x5
   952  0075                     	ds	1
   953  0076                     ??_LCDByte:
   954  0076                     ?___lwdiv:	
   955                           ; 1 bytes @ 0x6
   956                           
   957  0076                     ___awmod@sign:	
   958                           ; 2 bytes @ 0x6
   959                           
   960  0076                     ___lwdiv@divisor:	
   961                           ; 1 bytes @ 0x6
   962                           
   963  0076                     __Umul8_16@word_mpld:	
   964                           ; 2 bytes @ 0x6
   965                           
   966                           
   967                           ; 2 bytes @ 0x6
   968  0076                     	ds	1
   969  0077                     ?___awdiv:
   970  0077                     ___awdiv@divisor:	
   971                           ; 2 bytes @ 0x7
   972                           
   973                           
   974                           ; 2 bytes @ 0x7
   975  0077                     	ds	1
   976  0078                     ??__tdiv_to_l_:
   977  0078                     ??__div_to_l_:	
   978                           ; 1 bytes @ 0x8
   979                           
   980  0078                     ??___lldiv:	
   981                           ; 1 bytes @ 0x8
   982                           
   983  0078                     ??___fleq:	
   984                           ; 1 bytes @ 0x8
   985                           
   986  0078                     ??___flge:	
   987                           ; 1 bytes @ 0x8
   988                           
   989  0078                     ??___llmod:	
   990                           ; 1 bytes @ 0x8
   991                           
   992  0078                     ??___xxtofl:	
   993                           ; 1 bytes @ 0x8
   994                           
   995  0078                     LCDByte@hn:	
   996                           ; 1 bytes @ 0x8
   997                           
   998  0078                     __Umul8_16@multiplier:	
   999                           ; 1 bytes @ 0x8
  1000                           
  1001  0078                     ___lwdiv@dividend:	
  1002                           ; 1 bytes @ 0x8
  1003                           
  1004                           
  1005                           ; 2 bytes @ 0x8
  1006  0078                     	ds	1
  1007  0079                     LCDByte@ln:
  1008  0079                     ___llmod@counter:	
  1009                           ; 1 bytes @ 0x9
  1010                           
  1011  0079                     ___awdiv@dividend:	
  1012                           ; 1 bytes @ 0x9
  1013                           
  1014  0079                     ___lldiv@quotient:	
  1015                           ; 2 bytes @ 0x9
  1016                           
  1017                           
  1018                           ; 4 bytes @ 0x9
  1019  0079                     	ds	1
  1020  007A                     ??___lwdiv:
  1021  007A                     LCDByte@c:	
  1022                           ; 1 bytes @ 0xA
  1023                           
  1024                           
  1025                           ; 1 bytes @ 0xA
  1026  007A                     	ds	1
  1027  007B                     ??___awdiv:
  1028  007B                     LCDByte@temp:	
  1029                           ; 1 bytes @ 0xB
  1030                           
  1031  007B                     ___lwdiv@quotient:	
  1032                           ; 1 bytes @ 0xB
  1033                           
  1034                           
  1035                           ; 2 bytes @ 0xB
  1036  007B                     	ds	1
  1037  007C                     ?_LCDGotoXY:
  1038  007C                     ?_LCDWriteString:	
  1039                           ; 1 bytes @ 0xC
  1040                           
  1041  007C                     ??_LCDInit:	
  1042                           ; 1 bytes @ 0xC
  1043                           
  1044  007C                     LCDGotoXY@y:	
  1045                           ; 1 bytes @ 0xC
  1046                           
  1047  007C                     LCDWriteString@msg:	
  1048                           ; 1 bytes @ 0xC
  1049                           
  1050                           
  1051                           ; 2 bytes @ 0xC
  1052  007C                     	ds	1
  1053  007D                     LCDGotoXY@x:
  1054  007D                     ___lldiv@counter:	
  1055                           ; 1 bytes @ 0xD
  1056                           
  1057  007D                     ___lwdiv@counter:	
  1058                           ; 1 bytes @ 0xD
  1059                           
  1060                           
  1061                           ; 1 bytes @ 0xD
  1062  007D                     	ds	1
  1063  007E                     ??_main:
  1064  007E                     ??___flsub:	
  1065                           ; 1 bytes @ 0xE
  1066                           
  1067                           
  1068                           	psect	cstackBANK0
  1069  0020                     __pcstackBANK0:	
  1070                           ; 1 bytes @ 0xE
  1071                           
  1072  0020                     ??_LCDGotoXY:
  1073  0020                     ??_LCDWriteString:	
  1074                           ; 1 bytes @ 0x0
  1075                           
  1076  0020                     LCDInit@style:	
  1077                           ; 1 bytes @ 0x0
  1078                           
  1079  0020                     ___awdiv@counter:	
  1080                           ; 1 bytes @ 0x0
  1081                           
  1082  0020                     ___xxtofl@sign:	
  1083                           ; 1 bytes @ 0x0
  1084                           
  1085  0020                     __div_to_l_@quot:	
  1086                           ; 1 bytes @ 0x0
  1087                           
  1088  0020                     __tdiv_to_l_@quot:	
  1089                           ; 4 bytes @ 0x0
  1090                           
  1091                           
  1092                           ; 4 bytes @ 0x0
  1093  0020                     	ds	1
  1094  0021                     LCDInit@__i:
  1095  0021                     LCDWriteString@cc:	
  1096                           ; 1 bytes @ 0x1
  1097                           
  1098  0021                     ___awdiv@sign:	
  1099                           ; 1 bytes @ 0x1
  1100                           
  1101  0021                     ___xxtofl@exp:	
  1102                           ; 1 bytes @ 0x1
  1103                           
  1104                           
  1105                           ; 1 bytes @ 0x1
  1106  0021                     	ds	1
  1107  0022                     ___awdiv@quotient:
  1108  0022                     ___xxtofl@arg:	
  1109                           ; 2 bytes @ 0x2
  1110                           
  1111                           
  1112                           ; 4 bytes @ 0x2
  1113  0022                     	ds	2
  1114  0024                     ?___flmul:
  1115  0024                     __div_to_l_@cntr:	
  1116                           ; 4 bytes @ 0x4
  1117                           
  1118  0024                     __tdiv_to_l_@cntr:	
  1119                           ; 1 bytes @ 0x4
  1120                           
  1121  0024                     ___flmul@b:	
  1122                           ; 1 bytes @ 0x4
  1123                           
  1124                           
  1125                           ; 4 bytes @ 0x4
  1126  0024                     	ds	1
  1127  0025                     __div_to_l_@exp1:
  1128  0025                     __tdiv_to_l_@exp1:	
  1129                           ; 1 bytes @ 0x5
  1130                           
  1131                           
  1132                           ; 1 bytes @ 0x5
  1133  0025                     	ds	1
  1134  0026                     ?___fldiv:
  1135  0026                     ___fldiv@a:	
  1136                           ; 4 bytes @ 0x6
  1137                           
  1138                           
  1139                           ; 4 bytes @ 0x6
  1140  0026                     	ds	2
  1141  0028                     ___flmul@a:
  1142                           
  1143                           ; 4 bytes @ 0x8
  1144  0028                     	ds	2
  1145  002A                     ___fldiv@b:
  1146                           
  1147                           ; 4 bytes @ 0xA
  1148  002A                     	ds	2
  1149  002C                     ??___flmul:
  1150                           
  1151                           ; 1 bytes @ 0xC
  1152  002C                     	ds	2
  1153  002E                     ??___fldiv:
  1154                           
  1155                           ; 1 bytes @ 0xE
  1156  002E                     	ds	3
  1157  0031                     ___flmul@sign:
  1158                           
  1159                           ; 1 bytes @ 0x11
  1160  0031                     	ds	1
  1161  0032                     ___flmul@grs:
  1162                           
  1163                           ; 4 bytes @ 0x12
  1164  0032                     	ds	1
  1165  0033                     ___fldiv@rem:
  1166                           
  1167                           ; 4 bytes @ 0x13
  1168  0033                     	ds	3
  1169  0036                     ___flmul@aexp:
  1170                           
  1171                           ; 1 bytes @ 0x16
  1172  0036                     	ds	1
  1173  0037                     ___fldiv@sign:
  1174  0037                     ___flmul@bexp:	
  1175                           ; 1 bytes @ 0x17
  1176                           
  1177                           
  1178                           ; 1 bytes @ 0x17
  1179  0037                     	ds	1
  1180  0038                     ___fldiv@new_exp:
  1181  0038                     ___flmul@prod:	
  1182                           ; 2 bytes @ 0x18
  1183                           
  1184                           
  1185                           ; 4 bytes @ 0x18
  1186  0038                     	ds	2
  1187  003A                     ___fldiv@grs:
  1188                           
  1189                           ; 4 bytes @ 0x1A
  1190  003A                     	ds	2
  1191  003C                     ___flmul@temp:
  1192                           
  1193                           ; 2 bytes @ 0x1C
  1194  003C                     	ds	2
  1195  003E                     ?_fround:
  1196  003E                     ?_scale:	
  1197                           ; 4 bytes @ 0x1E
  1198                           
  1199  003E                     ___fldiv@bexp:	
  1200                           ; 4 bytes @ 0x1E
  1201                           
  1202                           
  1203                           ; 1 bytes @ 0x1E
  1204  003E                     	ds	1
  1205  003F                     ___fldiv@aexp:
  1206                           
  1207                           ; 1 bytes @ 0x1F
  1208  003F                     	ds	3
  1209  0042                     ??_fround:
  1210  0042                     ??_scale:	
  1211                           ; 1 bytes @ 0x22
  1212                           
  1213                           
  1214                           ; 1 bytes @ 0x22
  1215  0042                     	ds	7
  1216  0049                     _fround$937:
  1217                           
  1218                           ; 4 bytes @ 0x29
  1219  0049                     	ds	3
  1220  004C                     _scale$938:
  1221                           
  1222                           ; 4 bytes @ 0x2C
  1223  004C                     	ds	1
  1224  004D                     _fround$936:
  1225                           
  1226                           ; 4 bytes @ 0x2D
  1227  004D                     	ds	3
  1228  0050                     scale@scl:
  1229                           
  1230                           ; 1 bytes @ 0x30
  1231  0050                     	ds	1
  1232  0051                     ?___fltol:
  1233  0051                     fround@prec:	
  1234                           ; 4 bytes @ 0x31
  1235                           
  1236  0051                     ___fltol@f1:	
  1237                           ; 1 bytes @ 0x31
  1238                           
  1239                           
  1240                           ; 4 bytes @ 0x31
  1241  0051                     	ds	1
  1242  0052                     ?___fladd:
  1243  0052                     ___fladd@b:	
  1244                           ; 4 bytes @ 0x32
  1245                           
  1246                           
  1247                           ; 4 bytes @ 0x32
  1248  0052                     	ds	3
  1249  0055                     ??___fltol:
  1250                           
  1251                           ; 1 bytes @ 0x35
  1252  0055                     	ds	1
  1253  0056                     ___fladd@a:
  1254                           
  1255                           ; 4 bytes @ 0x36
  1256  0056                     	ds	4
  1257  005A                     ??___fladd:
  1258  005A                     ___fltol@sign1:	
  1259                           ; 1 bytes @ 0x3A
  1260                           
  1261                           
  1262                           ; 1 bytes @ 0x3A
  1263  005A                     	ds	1
  1264  005B                     ___fltol@exp1:
  1265                           
  1266                           ; 1 bytes @ 0x3B
  1267  005B                     	ds	7
  1268  0062                     ___fladd@signs:
  1269                           
  1270                           ; 1 bytes @ 0x42
  1271  0062                     	ds	1
  1272  0063                     ___fladd@aexp:
  1273                           
  1274                           ; 1 bytes @ 0x43
  1275  0063                     	ds	1
  1276  0064                     ___fladd@bexp:
  1277                           
  1278                           ; 1 bytes @ 0x44
  1279  0064                     	ds	1
  1280  0065                     ___fladd@grs:
  1281                           
  1282                           ; 1 bytes @ 0x45
  1283  0065                     	ds	1
  1284  0066                     ?___flsub:
  1285  0066                     ___flsub@a:	
  1286                           ; 4 bytes @ 0x46
  1287                           
  1288                           
  1289                           ; 4 bytes @ 0x46
  1290  0066                     	ds	4
  1291  006A                     ___flsub@b:
  1292                           
  1293                           ; 4 bytes @ 0x4A
  1294  006A                     	ds	4
  1295                           
  1296                           	psect	maintext
  1297  10C6                     __pmaintext:	
  1298 ;;
  1299 ;;Main: autosize = 0, tempsize = 0, incstack = 0, save=0
  1300 ;;
  1301 ;; *************** function _main *****************
  1302 ;; Defined at:
  1303 ;;		line 60 in file "newfile.c"
  1304 ;; Parameters:    Size  Location     Type
  1305 ;;		None
  1306 ;; Auto vars:     Size  Location     Type
  1307 ;;		None
  1308 ;; Return value:  Size  Location     Type
  1309 ;;                  1    wreg      void 
  1310 ;; Registers used:
  1311 ;;		wreg, fsr0l, fsr0h, status,2, status,0, btemp+1, pclath, cstack
  1312 ;; Tracked objects:
  1313 ;;		On entry : B00/0
  1314 ;;		On exit  : 0/0
  1315 ;;		Unchanged: 0/0
  1316 ;; Data sizes:     COMMON   BANK0   BANK1   BANK3   BANK2
  1317 ;;      Params:         0       0       0       0       0
  1318 ;;      Locals:         0       0       0       0       0
  1319 ;;      Temps:          0       0       0       0       0
  1320 ;;      Totals:         0       0       0       0       0
  1321 ;;Total ram usage:        0 bytes
  1322 ;; Hardware stack levels required when called: 5
  1323 ;; This function calls:
  1324 ;;		_ADCInit
  1325 ;;		_LCDGotoXY
  1326 ;;		_LCDInit
  1327 ;;		_LCDWriteString
  1328 ;;		_fun
  1329 ;; This function is called by:
  1330 ;;		Startup code after reset
  1331 ;; This function uses a non-reentrant model
  1332 ;;
  1333                           
  1334  10C6                     _main:	
  1335                           ;psect for function _main
  1336                           
  1337  10C6                     l3731:	
  1338                           ;incstack = 0
  1339                           ; Regs used in _main: [wreg-fsr0h+status,2+status,0+btemp+1+pclath+cstack]
  1340                           
  1341                           
  1342                           ;newfile.c: 62:     TRISAbits.TRISA2 = 1;
  1343  10C6  1683               	bsf	3,5	;RP0=1, select bank1
  1344  10C7  1303               	bcf	3,6	;RP1=0, select bank1
  1345  10C8  1505               	bsf	5,2	;volatile
  1346  10C9                     l3733:
  1347                           
  1348                           ;newfile.c: 63:     TRISD = 0;
  1349  10C9  0188               	clrf	8	;volatile
  1350  10CA                     l3735:
  1351                           
  1352                           ;newfile.c: 64:     LCDInit(0B00000000);
  1353  10CA  3000               	movlw	0
  1354  10CB  160A  158A  25D9  160A  118A  	fcall	_LCDInit
  1355  10D0                     l3737:
  1356                           
  1357                           ;newfile.c: 65:     LCDGotoXY(0,0);
  1358  10D0  01FC               	clrf	LCDGotoXY@y
  1359  10D1  3000               	movlw	0
  1360  10D2  160A  158A  2347  160A  118A  	fcall	_LCDGotoXY
  1361  10D7                     l3739:
  1362                           
  1363                           ;newfile.c: 66:     LCDWriteString("THANG 20145196");
  1364  10D7  3091               	movlw	(low ((STR_2-__stringbase)| (0+32768)))& (0+255)
  1365  10D8  00FC               	movwf	LCDWriteString@msg
  1366  10D9  3080               	movlw	128
  1367  10DA  00FD               	movwf	LCDWriteString@msg+1
  1368  10DB  160A  158A  270C  160A  118A  	fcall	_LCDWriteString
  1369  10E0                     l3741:
  1370                           
  1371                           ;newfile.c: 67:     ADCInit();
  1372  10E0  160A  158A  227D  160A  118A  	fcall	_ADCInit
  1373  10E5                     l3743:
  1374                           
  1375                           ;newfile.c: 69:     {;newfile.c: 70:         fun();
  1376  10E5  120A  158A  2007  160A  118A  	fcall	_fun
  1377  10EA  28E5               	goto	l3743
  1378  10EB  120A  118A  2800   	ljmp	start
  1379  10EE                     __end_of_main:
  1380                           
  1381                           	psect	text1
  1382  0807                     __ptext1:	
  1383 ;; *************** function _fun *****************
  1384 ;; Defined at:
  1385 ;;		line 52 in file "newfile.c"
  1386 ;; Parameters:    Size  Location     Type
  1387 ;;		None
  1388 ;; Auto vars:     Size  Location     Type
  1389 ;;		None
  1390 ;; Return value:  Size  Location     Type
  1391 ;;                  1    wreg      void 
  1392 ;; Registers used:
  1393 ;;		wreg, fsr0l, fsr0h, status,2, status,0, btemp+1, pclath, cstack
  1394 ;; Tracked objects:
  1395 ;;		On entry : 0/0
  1396 ;;		On exit  : 0/0
  1397 ;;		Unchanged: 0/0
  1398 ;; Data sizes:     COMMON   BANK0   BANK1   BANK3   BANK2
  1399 ;;      Params:         0       0       0       0       0
  1400 ;;      Locals:         0       0       0       0       0
  1401 ;;      Temps:          0       0       4       0       0
  1402 ;;      Totals:         0       0       4       0       0
  1403 ;;Total ram usage:        4 bytes
  1404 ;; Hardware stack levels used: 1
  1405 ;; Hardware stack levels required when called: 4
  1406 ;; This function calls:
  1407 ;;		_LCDGotoXY
  1408 ;;		_LCDWriteString
  1409 ;;		___fldiv
  1410 ;;		___xxtofl
  1411 ;;		_get_val
  1412 ;;		_sprintf
  1413 ;; This function is called by:
  1414 ;;		_main
  1415 ;; This function uses a non-reentrant model
  1416 ;;
  1417                           
  1418  0807                     _fun:	
  1419                           ;psect for function _fun
  1420                           
  1421  0807                     l3671:	
  1422                           ;incstack = 0
  1423                           ; Regs used in _fun: [wreg-fsr0h+status,2+status,0+btemp+1+pclath+cstack]
  1424                           
  1425                           
  1426                           ;newfile.c: 54:     temp = get_val() / 2.046;
  1427  0807  3040               	movlw	64
  1428  0808  1283               	bcf	3,5	;RP0=0, select bank0
  1429  0809  1303               	bcf	3,6	;RP1=0, select bank0
  1430  080A  00A9               	movwf	___fldiv@a+3
  1431  080B  3002               	movlw	2
  1432  080C  00A8               	movwf	___fldiv@a+2
  1433  080D  30F1               	movlw	241
  1434  080E  00A7               	movwf	___fldiv@a+1
  1435  080F  30AA               	movlw	170
  1436  0810  00A6               	movwf	___fldiv@a
  1437  0811  160A  158A  22D6  120A  158A  	fcall	_get_val
  1438  0816  0870               	movf	?_get_val,w
  1439  0817  1683               	bsf	3,5	;RP0=1, select bank1
  1440  0818  1303               	bcf	3,6	;RP1=0, select bank1
  1441  0819  00C3               	movwf	??_fun^(0+128)
  1442  081A  0871               	movf	?_get_val+1,w
  1443  081B  00C4               	movwf	(??_fun^(0+128)+1)
  1444  081C  01C5               	clrf	(??_fun^(0+128)+2)
  1445  081D  01C6               	clrf	(??_fun^(0+128)+3)
  1446  081E  0846               	movf	(??_fun+3)^(0+128),w
  1447  081F  00F7               	movwf	___xxtofl@val+3
  1448  0820  0845               	movf	(??_fun+2)^(0+128),w
  1449  0821  00F6               	movwf	___xxtofl@val+2
  1450  0822  0844               	movf	(??_fun+1)^(0+128),w
  1451  0823  00F5               	movwf	___xxtofl@val+1
  1452  0824  0843               	movf	??_fun^(0+128),w
  1453  0825  00F4               	movwf	___xxtofl@val
  1454  0826  3000               	movlw	0
  1455  0827  120A  158A  2084  120A  158A  	fcall	___xxtofl
  1456  082C  0877               	movf	?___xxtofl+3,w
  1457  082D  1283               	bcf	3,5	;RP0=0, select bank0
  1458  082E  1303               	bcf	3,6	;RP1=0, select bank0
  1459  082F  00AD               	movwf	___fldiv@b+3
  1460  0830  0876               	movf	?___xxtofl+2,w
  1461  0831  00AC               	movwf	___fldiv@b+2
  1462  0832  0875               	movf	?___xxtofl+1,w
  1463  0833  00AB               	movwf	___fldiv@b+1
  1464  0834  0874               	movf	?___xxtofl,w
  1465  0835  00AA               	movwf	___fldiv@b
  1466  0836  160A  118A  2190  120A  158A  	fcall	___fldiv
  1467  083B  1283               	bcf	3,5	;RP0=0, select bank0
  1468  083C  1303               	bcf	3,6	;RP1=0, select bank0
  1469  083D  0829               	movf	?___fldiv+3,w
  1470  083E  1683               	bsf	3,5	;RP0=1, select bank1
  1471  083F  1303               	bcf	3,6	;RP1=0, select bank1
  1472  0840  00CF               	movwf	(_temp+3)^(0+128)
  1473  0841  1283               	bcf	3,5	;RP0=0, select bank0
  1474  0842  1303               	bcf	3,6	;RP1=0, select bank0
  1475  0843  0828               	movf	?___fldiv+2,w
  1476  0844  1683               	bsf	3,5	;RP0=1, select bank1
  1477  0845  1303               	bcf	3,6	;RP1=0, select bank1
  1478  0846  00CE               	movwf	(_temp+2)^(0+128)
  1479  0847  1283               	bcf	3,5	;RP0=0, select bank0
  1480  0848  1303               	bcf	3,6	;RP1=0, select bank0
  1481  0849  0827               	movf	?___fldiv+1,w
  1482  084A  1683               	bsf	3,5	;RP0=1, select bank1
  1483  084B  1303               	bcf	3,6	;RP1=0, select bank1
  1484  084C  00CD               	movwf	(_temp+1)^(0+128)
  1485  084D  1283               	bcf	3,5	;RP0=0, select bank0
  1486  084E  1303               	bcf	3,6	;RP1=0, select bank0
  1487  084F  0826               	movf	?___fldiv,w
  1488  0850  1683               	bsf	3,5	;RP0=1, select bank1
  1489  0851  1303               	bcf	3,6	;RP1=0, select bank1
  1490  0852  00CC               	movwf	_temp^(0+128)
  1491  0853                     l3673:
  1492                           
  1493                           ;newfile.c: 55:     _delay((unsigned long)((10)*(8000000/4000.0)));
  1494  0853  301A               	movlw	26
  1495  0854  1683               	bsf	3,5	;RP0=1, select bank1
  1496  0855  1303               	bcf	3,6	;RP1=0, select bank1
  1497  0856  00C4               	movwf	(??_fun^(0+128)+1)
  1498  0857  30F7               	movlw	247
  1499  0858  00C3               	movwf	??_fun^(0+128)
  1500  0859                     u6097:
  1501  0859  0BC3               	decfsz	??_fun^(0+128),f
  1502  085A  2859               	goto	u6097
  1503  085B  0BC4               	decfsz	(??_fun^(0+128)+1),f
  1504  085C  2859               	goto	u6097
  1505  085D  285E               	nop2
  1506  085E                     l3675:
  1507                           
  1508                           ;newfile.c: 56:     LCDGotoXY(0,1);
  1509  085E  01FC               	clrf	LCDGotoXY@y
  1510  085F  0AFC               	incf	LCDGotoXY@y,f
  1511  0860  3000               	movlw	0
  1512  0861  160A  158A  2347  120A  158A  	fcall	_LCDGotoXY
  1513  0866                     l3677:
  1514                           
  1515                           ;newfile.c: 57:     sprintf(text, "Temp=%.01f", temp);
  1516  0866  30A0               	movlw	(low ((STR_1-__stringbase)| (0+32768)))& (0+255)
  1517  0867  1683               	bsf	3,5	;RP0=1, select bank1
  1518  0868  1303               	bcf	3,6	;RP1=0, select bank1
  1519  0869  00C3               	movwf	??_fun^(0+128)
  1520  086A  0843               	movf	??_fun^(0+128),w
  1521  086B  00A0               	movwf	sprintf@f^(0+128)
  1522  086C  084F               	movf	(_temp+3)^(0+128),w
  1523  086D  00A4               	movwf	((?_sprintf+3)^(0+128)+1)
  1524  086E  084E               	movf	(_temp+2)^(0+128),w
  1525  086F  00A3               	movwf	((?_sprintf+2)^(0+128)+1)
  1526  0870  084D               	movf	(_temp+1)^(0+128),w
  1527  0871  00A2               	movwf	((?_sprintf+1)^(0+128)+1)
  1528  0872  084C               	movf	_temp^(0+128),w
  1529  0873  00A1               	movwf	(?_sprintf^(0+128)+1)
  1530  0874  30D4               	movlw	(low (_text| 0))& (0+255)
  1531  0875  120A  118A  218C  120A  158A  	fcall	_sprintf
  1532  087A                     l3679:
  1533                           
  1534                           ;newfile.c: 58:     LCDWriteString(text);
  1535  087A  30D4               	movlw	(low (_text| 0))& (0+255)
  1536  087B  00FC               	movwf	LCDWriteString@msg
  1537  087C  3000               	movlw	0
  1538  087D  00FD               	movwf	LCDWriteString@msg+1
  1539  087E  160A  158A  270C  120A  158A  	fcall	_LCDWriteString
  1540  0883                     l48:
  1541  0883  0008               	return
  1542  0884                     __end_of_fun:
  1543                           
  1544                           	psect	text2
  1545  018C                     __ptext2:	
  1546 ;; *************** function _sprintf *****************
  1547 ;; Defined at:
  1548 ;;		line 505 in file "C:\Program Files\Microchip\xc8\v2.36\pic\sources\c90\common\doprnt.c"
  1549 ;; Parameters:    Size  Location     Type
  1550 ;;  sp              1    wreg     PTR unsigned char 
  1551 ;;		 -> text(10), 
  1552 ;;  f               1    0[BANK1 ] PTR const unsigned char 
  1553 ;;		 -> STR_1(11), 
  1554 ;; Auto vars:     Size  Location     Type
  1555 ;;  sp              1   27[BANK1 ] PTR unsigned char 
  1556 ;;		 -> text(10), 
  1557 ;;  fval            4   30[BANK1 ] PTR unsigned char 
  1558 ;;  tmpval          4   23[BANK1 ] struct .
  1559 ;;  val             4   17[BANK1 ] unsigned long 
  1560 ;;  prec            2   28[BANK1 ] int 
  1561 ;;  eexp            2   21[BANK1 ] int 
  1562 ;;  flag            2   15[BANK1 ] unsigned short 
  1563 ;;  cp              2    0        PTR const unsigned char 
  1564 ;;  len             2    0        unsigned int 
  1565 ;;  width           2    0        int 
  1566 ;;  c               1   34[BANK1 ] unsigned char 
  1567 ;;  ap              1   14[BANK1 ] PTR void [1]
  1568 ;;		 -> ?_sprintf(2), 
  1569 ;;  d               1    0        unsigned char 
  1570 ;; Return value:  Size  Location     Type
  1571 ;;                  2    0[BANK1 ] int 
  1572 ;; Registers used:
  1573 ;;		wreg, fsr0l, fsr0h, status,2, status,0, btemp+1, pclath, cstack
  1574 ;; Tracked objects:
  1575 ;;		On entry : 0/0
  1576 ;;		On exit  : 0/0
  1577 ;;		Unchanged: 0/0
  1578 ;; Data sizes:     COMMON   BANK0   BANK1   BANK3   BANK2
  1579 ;;      Params:         0       0       5       0       0
  1580 ;;      Locals:         0       0      25       0       0
  1581 ;;      Temps:          0       0       5       0       0
  1582 ;;      Totals:         0       0      35       0       0
  1583 ;;Total ram usage:       35 bytes
  1584 ;; Hardware stack levels used: 1
  1585 ;; Hardware stack levels required when called: 3
  1586 ;; This function calls:
  1587 ;;		___awdiv
  1588 ;;		___fladd
  1589 ;;		___fleq
  1590 ;;		___flge
  1591 ;;		___flmul
  1592 ;;		___flneg
  1593 ;;		___flsub
  1594 ;;		___fltol
  1595 ;;		___lldiv
  1596 ;;		___llmod
  1597 ;;		___wmul
  1598 ;;		___xxtofl
  1599 ;;		__div_to_l_
  1600 ;;		__tdiv_to_l_
  1601 ;;		_fround
  1602 ;;		_isdigit
  1603 ;;		_scale
  1604 ;; This function is called by:
  1605 ;;		_fun
  1606 ;; This function uses a non-reentrant model
  1607 ;;
  1608                           
  1609  018C                     _sprintf:	
  1610                           ;psect for function _sprintf
  1611                           
  1612                           
  1613                           ;incstack = 0
  1614                           ; Regs used in _sprintf: [wreg-fsr0h+status,2+status,0+btemp+1+pclath+cstack]
  1615                           ;sprintf@sp stored from wreg
  1616  018C  1683               	bsf	3,5	;RP0=1, select bank1
  1617  018D  1303               	bcf	3,6	;RP1=0, select bank1
  1618  018E  00BB               	movwf	sprintf@sp^(0+128)
  1619  018F                     l3299:
  1620                           
  1621                           ;C:\Program Files\Microchip\xc8\v2.36\pic\sources\c90\common\doprnt.c: 505: sprintf(char
      +                           * sp, const char * f, ...);C:\Program Files\Microchip\xc8\v2.36\pic\sources\c90\common\
      +                          doprnt.c: 506: {;C:\Program Files\Microchip\xc8\v2.36\pic\sources\c90\common\doprnt.c: 5
      +                          07:  va_list ap;;C:\Program Files\Microchip\xc8\v2.36\pic\sources\c90\common\doprnt.c: 5
      +                          12:  char c;;C:\Program Files\Microchip\xc8\v2.36\pic\sources\c90\common\doprnt.c: 514: 
      +                           int width;;C:\Program Files\Microchip\xc8\v2.36\pic\sources\c90\common\doprnt.c: 517:  
      +                          int prec;
  1622  018F  30A1               	movlw	(low ((?_sprintf| 0+1)))& (0+255)
  1623  0190  00A5               	movwf	??_sprintf^(0+128)
  1624  0191  0825               	movf	??_sprintf^(0+128),w
  1625  0192  00AE               	movwf	sprintf@ap^(0+128)
  1626                           
  1627                           ;C:\Program Files\Microchip\xc8\v2.36\pic\sources\c90\common\doprnt.c: 553:  while((c = 
      +                          *f++)) {
  1628  0193  2FCD               	goto	l3493
  1629  0194                     l3301:
  1630                           
  1631                           ;C:\Program Files\Microchip\xc8\v2.36\pic\sources\c90\common\doprnt.c: 555:   if(c != '%
      +                          ')
  1632  0194  3025               	movlw	37
  1633  0195  0642               	xorwf	sprintf@c^(0+128),w
  1634  0196  1903               	btfsc	3,2
  1635  0197  2999               	goto	u5341
  1636  0198  299A               	goto	u5340
  1637  0199                     u5341:
  1638  0199  29A6               	goto	l3307
  1639  019A                     u5340:
  1640  019A                     l3303:
  1641                           
  1642                           ;C:\Program Files\Microchip\xc8\v2.36\pic\sources\c90\common\doprnt.c: 557:   {;C:\Progr
      +                          am Files\Microchip\xc8\v2.36\pic\sources\c90\common\doprnt.c: 558:    ((*sp++ = (c)));
  1643  019A  0842               	movf	sprintf@c^(0+128),w
  1644  019B  00A5               	movwf	??_sprintf^(0+128)
  1645  019C  083B               	movf	sprintf@sp^(0+128),w
  1646  019D  0084               	movwf	4
  1647  019E  0825               	movf	??_sprintf^(0+128),w
  1648  019F  1383               	bcf	3,7	;select IRP bank0
  1649  01A0  0080               	movwf	0
  1650  01A1                     l3305:
  1651  01A1  3001               	movlw	1
  1652  01A2  00A5               	movwf	??_sprintf^(0+128)
  1653  01A3  0825               	movf	??_sprintf^(0+128),w
  1654  01A4  07BB               	addwf	sprintf@sp^(0+128),f
  1655                           
  1656                           ;C:\Program Files\Microchip\xc8\v2.36\pic\sources\c90\common\doprnt.c: 559:    continue;
  1657  01A5  2FCD               	goto	l3493
  1658  01A6                     l3307:
  1659                           
  1660                           ;C:\Program Files\Microchip\xc8\v2.36\pic\sources\c90\common\doprnt.c: 565:   flag = 0;
  1661  01A6  01AF               	clrf	sprintf@flag^(0+128)
  1662  01A7  01B0               	clrf	(sprintf@flag+1)^(0+128)
  1663  01A8                     l3309:
  1664                           
  1665                           ;C:\Program Files\Microchip\xc8\v2.36\pic\sources\c90\common\doprnt.c: 628:   if(*f == '
      +                          .') {
  1666  01A8  0820               	movf	sprintf@f^(0+128),w
  1667  01A9  0084               	movwf	4
  1668  01AA  160A  118A  200A  120A  118A  	fcall	stringdir
  1669  01AF  3A2E               	xorlw	46
  1670  01B0  1D03               	skipz
  1671  01B1  29B3               	goto	u5351
  1672  01B2  29B4               	goto	u5350
  1673  01B3                     u5351:
  1674  01B3  29F9               	goto	l3325
  1675  01B4                     u5350:
  1676  01B4                     l3311:
  1677                           
  1678                           ;C:\Program Files\Microchip\xc8\v2.36\pic\sources\c90\common\doprnt.c: 629:    flag |= 0
      +                          x4000;
  1679  01B4  1730               	bsf	(sprintf@flag^(0+128)+1),6
  1680  01B5                     l3313:
  1681                           
  1682                           ;C:\Program Files\Microchip\xc8\v2.36\pic\sources\c90\common\doprnt.c: 630:    f++;
  1683  01B5  3001               	movlw	1
  1684  01B6  00A5               	movwf	??_sprintf^(0+128)
  1685  01B7  0825               	movf	??_sprintf^(0+128),w
  1686  01B8  07A0               	addwf	sprintf@f^(0+128),f
  1687  01B9                     l3315:
  1688                           
  1689                           ;C:\Program Files\Microchip\xc8\v2.36\pic\sources\c90\common\doprnt.c: 644:    {;C:\Prog
      +                          ram Files\Microchip\xc8\v2.36\pic\sources\c90\common\doprnt.c: 645:     prec = 0;
  1690  01B9  01BC               	clrf	sprintf@prec^(0+128)
  1691  01BA  01BD               	clrf	(sprintf@prec+1)^(0+128)
  1692                           
  1693                           ;C:\Program Files\Microchip\xc8\v2.36\pic\sources\c90\common\doprnt.c: 646:     while(is
      +                          digit((unsigned)*f)) {
  1694  01BB  29E8               	goto	l3323
  1695  01BC                     l3317:
  1696                           
  1697                           ;C:\Program Files\Microchip\xc8\v2.36\pic\sources\c90\common\doprnt.c: 647:      prec *=
      +                           10;
  1698  01BC  300A               	movlw	10
  1699  01BD  00F0               	movwf	___wmul@multiplier
  1700  01BE  3000               	movlw	0
  1701  01BF  00F1               	movwf	___wmul@multiplier+1
  1702  01C0  1683               	bsf	3,5	;RP0=1, select bank1
  1703  01C1  1303               	bcf	3,6	;RP1=0, select bank1
  1704  01C2  083D               	movf	(sprintf@prec+1)^(0+128),w
  1705  01C3  00F3               	movwf	___wmul@multiplicand+1
  1706  01C4  083C               	movf	sprintf@prec^(0+128),w
  1707  01C5  00F2               	movwf	___wmul@multiplicand
  1708  01C6  160A  158A  22FB  120A  118A  	fcall	___wmul
  1709  01CB  0871               	movf	?___wmul+1,w
  1710  01CC  1683               	bsf	3,5	;RP0=1, select bank1
  1711  01CD  1303               	bcf	3,6	;RP1=0, select bank1
  1712  01CE  00BD               	movwf	(sprintf@prec+1)^(0+128)
  1713  01CF  0870               	movf	?___wmul,w
  1714  01D0  00BC               	movwf	sprintf@prec^(0+128)
  1715  01D1                     l3319:
  1716                           
  1717                           ;C:\Program Files\Microchip\xc8\v2.36\pic\sources\c90\common\doprnt.c: 648:         prec
      +                           += *f++ - '0';
  1718  01D1  0820               	movf	sprintf@f^(0+128),w
  1719  01D2  0084               	movwf	4
  1720  01D3  160A  118A  200A  120A  118A  	fcall	stringdir
  1721  01D8  3ED0               	addlw	208
  1722  01D9  00A5               	movwf	??_sprintf^(0+128)
  1723  01DA  30FF               	movlw	255
  1724  01DB  1803               	skipnc
  1725  01DC  3000               	movlw	0
  1726  01DD  00A6               	movwf	(??_sprintf^(0+128)+1)
  1727  01DE  0825               	movf	??_sprintf^(0+128),w
  1728  01DF  07BC               	addwf	sprintf@prec^(0+128),f
  1729  01E0  1803               	skipnc
  1730  01E1  0ABD               	incf	(sprintf@prec+1)^(0+128),f
  1731  01E2  0826               	movf	(??_sprintf+1)^(0+128),w
  1732  01E3  07BD               	addwf	(sprintf@prec+1)^(0+128),f
  1733  01E4                     l3321:
  1734  01E4  3001               	movlw	1
  1735  01E5  00A5               	movwf	??_sprintf^(0+128)
  1736  01E6  0825               	movf	??_sprintf^(0+128),w
  1737  01E7  07A0               	addwf	sprintf@f^(0+128),f
  1738  01E8                     l3323:
  1739                           
  1740                           ;C:\Program Files\Microchip\xc8\v2.36\pic\sources\c90\common\doprnt.c: 646:     while(is
      +                          digit((unsigned)*f)) {
  1741  01E8  0820               	movf	sprintf@f^(0+128),w
  1742  01E9  0084               	movwf	4
  1743  01EA  160A  118A  200A  120A  118A  	fcall	stringdir
  1744  01EF  160A  158A  228D  120A  118A  	fcall	_isdigit
  1745  01F4  1803               	btfsc	3,0
  1746  01F5  29F7               	goto	u5361
  1747  01F6  29F8               	goto	u5360
  1748  01F7                     u5361:
  1749  01F7  29BC               	goto	l3317
  1750  01F8                     u5360:
  1751  01F8  29FF               	goto	l3331
  1752  01F9                     l3325:
  1753                           
  1754                           ;C:\Program Files\Microchip\xc8\v2.36\pic\sources\c90\common\doprnt.c: 652:    prec = 0;
  1755  01F9  01BC               	clrf	sprintf@prec^(0+128)
  1756  01FA  01BD               	clrf	(sprintf@prec+1)^(0+128)
  1757  01FB                     l3327:
  1758                           
  1759                           ;C:\Program Files\Microchip\xc8\v2.36\pic\sources\c90\common\doprnt.c: 654:    flag |= 0
      +                          x1000;
  1760  01FB  1630               	bsf	(sprintf@flag^(0+128)+1),4
  1761  01FC  29FF               	goto	l3331
  1762  01FD                     l253:	
  1763                           ;C:\Program Files\Microchip\xc8\v2.36\pic\sources\c90\common\doprnt.c: 688:   case 'f':
  1764                           
  1765                           
  1766                           ;C:\Program Files\Microchip\xc8\v2.36\pic\sources\c90\common\doprnt.c: 689:    flag |= 0
      +                          x400;
  1767  01FD  1530               	bsf	(sprintf@flag^(0+128)+1),2
  1768                           
  1769                           ;C:\Program Files\Microchip\xc8\v2.36\pic\sources\c90\common\doprnt.c: 690:    break;
  1770  01FE  2A1B               	goto	l3333
  1771  01FF                     l3331:
  1772  01FF  3001               	movlw	1
  1773  0200  1683               	bsf	3,5	;RP0=1, select bank1
  1774  0201  1303               	bcf	3,6	;RP1=0, select bank1
  1775  0202  07A0               	addwf	sprintf@f^(0+128),f
  1776  0203  30FF               	movlw	-1
  1777  0204  0720               	addwf	sprintf@f^(0+128),w
  1778  0205  0084               	movwf	4
  1779  0206  160A  118A  200A  120A  118A  	fcall	stringdir
  1780  020B  00C2               	movwf	sprintf@c^(0+128)
  1781  020C  00A5               	movwf	??_sprintf^(0+128)
  1782  020D  01A6               	clrf	(??_sprintf^(0+128)+1)
  1783                           
  1784                           ; Switch on 2 bytes has been partitioned into a top level switch of size 1, and 1 sub-sw
      +                          itches
  1785                           ; Switch size 1, requested type "simple"
  1786                           ; Number of cases is 1, Range of values is 0 to 0
  1787                           ; switch strategies available:
  1788                           ; Name         Instructions Cycles
  1789                           ; simple_byte            4     3 (average)
  1790                           ; direct_byte           11     8 (fixed)
  1791                           ; jumptable            260     6 (fixed)
  1792                           ;	Chosen strategy is simple_byte
  1793  020E  0826               	movf	(??_sprintf+1)^(0+128),w
  1794  020F  3A00               	xorlw	0	; case 0
  1795  0210  1903               	skipnz
  1796  0211  2A13               	goto	l3845
  1797  0212  2FCD               	goto	l3493
  1798  0213                     l3845:
  1799                           
  1800                           ; Switch size 1, requested type "simple"
  1801                           ; Number of cases is 2, Range of values is 0 to 102
  1802                           ; switch strategies available:
  1803                           ; Name         Instructions Cycles
  1804                           ; simple_byte            7     4 (average)
  1805                           ; jumptable            260     6 (fixed)
  1806                           ;	Chosen strategy is simple_byte
  1807  0213  0825               	movf	??_sprintf^(0+128),w
  1808  0214  3A00               	xorlw	0	; case 0
  1809  0215  1903               	skipnz
  1810  0216  2FDF               	goto	l3495
  1811  0217  3A66               	xorlw	102	; case 102
  1812  0218  1903               	skipnz
  1813  0219  29FD               	goto	l253
  1814  021A  2FCD               	goto	l3493
  1815  021B                     l3333:
  1816                           
  1817                           ;C:\Program Files\Microchip\xc8\v2.36\pic\sources\c90\common\doprnt.c: 851:   if(flag & 
      +                          (0x700)) {
  1818  021B  3000               	movlw	0
  1819  021C  052F               	andwf	sprintf@flag^(0+128),w
  1820  021D  00A5               	movwf	??_sprintf^(0+128)
  1821  021E  3007               	movlw	7
  1822  021F  0530               	andwf	(sprintf@flag+1)^(0+128),w
  1823  0220  00A6               	movwf	(??_sprintf+1)^(0+128)
  1824  0221  0825               	movf	??_sprintf^(0+128),w
  1825  0222  0426               	iorwf	(??_sprintf^(0+128)+1),w
  1826  0223  1903               	btfsc	3,2
  1827  0224  2A26               	goto	u5371
  1828  0225  2A27               	goto	u5370
  1829  0226                     u5371:
  1830  0226  2F88               	goto	l3475
  1831  0227                     u5370:
  1832  0227                     l3335:
  1833                           
  1834                           ;C:\Program Files\Microchip\xc8\v2.36\pic\sources\c90\common\doprnt.c: 853:    if(flag &
      +                           0x1000)
  1835  0227  1E30               	btfss	(sprintf@flag+1)^(0+128),4
  1836  0228  2A2A               	goto	u5381
  1837  0229  2A2B               	goto	u5380
  1838  022A                     u5381:
  1839  022A  2A2F               	goto	l3339
  1840  022B                     u5380:
  1841  022B                     l3337:
  1842                           
  1843                           ;C:\Program Files\Microchip\xc8\v2.36\pic\sources\c90\common\doprnt.c: 855:     prec = 6
      +                          ;
  1844  022B  3006               	movlw	6
  1845  022C  00BC               	movwf	sprintf@prec^(0+128)
  1846  022D  3000               	movlw	0
  1847  022E  00BD               	movwf	(sprintf@prec^(0+128)+1)
  1848  022F                     l3339:
  1849                           
  1850                           ;C:\Program Files\Microchip\xc8\v2.36\pic\sources\c90\common\doprnt.c: 856:    fval = (*
      +                          (double *)__va_arg((*(double **)ap), (double)0));
  1851  022F  082E               	movf	sprintf@ap^(0+128),w
  1852  0230  0084               	movwf	4
  1853  0231  1383               	bcf	3,7	;select IRP bank0
  1854  0232  0800               	movf	0,w
  1855  0233  00BE               	movwf	sprintf@fval^(0+128)
  1856  0234  0A84               	incf	4,f
  1857  0235  0800               	movf	0,w
  1858  0236  00BF               	movwf	(sprintf@fval+1)^(0+128)
  1859  0237  0A84               	incf	4,f
  1860  0238  0800               	movf	0,w
  1861  0239  00C0               	movwf	(sprintf@fval+2)^(0+128)
  1862  023A  0A84               	incf	4,f
  1863  023B  0800               	movf	0,w
  1864  023C  00C1               	movwf	(sprintf@fval+3)^(0+128)
  1865  023D                     l3341:
  1866  023D  3004               	movlw	4
  1867  023E  00A5               	movwf	??_sprintf^(0+128)
  1868  023F  0825               	movf	??_sprintf^(0+128),w
  1869  0240  07AE               	addwf	sprintf@ap^(0+128),f
  1870  0241                     l3343:
  1871                           
  1872                           ;C:\Program Files\Microchip\xc8\v2.36\pic\sources\c90\common\doprnt.c: 857:    if(fval <
      +                           0.0) {
  1873  0241  0841               	movf	(sprintf@fval+3)^(0+128),w
  1874  0242  00F3               	movwf	___flge@ff1+3
  1875  0243  0840               	movf	(sprintf@fval+2)^(0+128),w
  1876  0244  00F2               	movwf	___flge@ff1+2
  1877  0245  083F               	movf	(sprintf@fval+1)^(0+128),w
  1878  0246  00F1               	movwf	___flge@ff1+1
  1879  0247  083E               	movf	sprintf@fval^(0+128),w
  1880  0248  00F0               	movwf	___flge@ff1
  1881  0249  3000               	movlw	0
  1882  024A  00F7               	movwf	___flge@ff2+3
  1883  024B  3000               	movlw	0
  1884  024C  00F6               	movwf	___flge@ff2+2
  1885  024D  3000               	movlw	0
  1886  024E  00F5               	movwf	___flge@ff2+1
  1887  024F  3000               	movlw	0
  1888  0250  00F4               	movwf	___flge@ff2
  1889  0251  160A  118A  20EE  120A  118A  	fcall	___flge
  1890  0256  1803               	btfsc	3,0
  1891  0257  2A59               	goto	u5391
  1892  0258  2A5A               	goto	u5390
  1893  0259                     u5391:
  1894  0259  2A77               	goto	l3349
  1895  025A                     u5390:
  1896  025A                     l3345:
  1897                           
  1898                           ;C:\Program Files\Microchip\xc8\v2.36\pic\sources\c90\common\doprnt.c: 858:     fval = -
      +                          fval;
  1899  025A  1683               	bsf	3,5	;RP0=1, select bank1
  1900  025B  1303               	bcf	3,6	;RP1=0, select bank1
  1901  025C  0841               	movf	(sprintf@fval+3)^(0+128),w
  1902  025D  00F3               	movwf	___flneg@f1+3
  1903  025E  0840               	movf	(sprintf@fval+2)^(0+128),w
  1904  025F  00F2               	movwf	___flneg@f1+2
  1905  0260  083F               	movf	(sprintf@fval+1)^(0+128),w
  1906  0261  00F1               	movwf	___flneg@f1+1
  1907  0262  083E               	movf	sprintf@fval^(0+128),w
  1908  0263  00F0               	movwf	___flneg@f1
  1909  0264  120A  118A  2006  120A  118A  	fcall	___flneg
  1910  0269  0873               	movf	?___flneg+3,w
  1911  026A  1683               	bsf	3,5	;RP0=1, select bank1
  1912  026B  1303               	bcf	3,6	;RP1=0, select bank1
  1913  026C  00C1               	movwf	(sprintf@fval+3)^(0+128)
  1914  026D  0872               	movf	?___flneg+2,w
  1915  026E  00C0               	movwf	(sprintf@fval+2)^(0+128)
  1916  026F  0871               	movf	?___flneg+1,w
  1917  0270  00BF               	movwf	(sprintf@fval+1)^(0+128)
  1918  0271  0870               	movf	?___flneg,w
  1919  0272  00BE               	movwf	sprintf@fval^(0+128)
  1920  0273                     l3347:
  1921                           
  1922                           ;C:\Program Files\Microchip\xc8\v2.36\pic\sources\c90\common\doprnt.c: 859:     flag |= 
      +                          0x03;
  1923  0273  3003               	movlw	3
  1924  0274  04AF               	iorwf	sprintf@flag^(0+128),f
  1925  0275  3000               	movlw	0
  1926  0276  04B0               	iorwf	(sprintf@flag+1)^(0+128),f
  1927  0277                     l3349:
  1928                           
  1929                           ;C:\Program Files\Microchip\xc8\v2.36\pic\sources\c90\common\doprnt.c: 861:    eexp = 0;
  1930  0277  1683               	bsf	3,5	;RP0=1, select bank1
  1931  0278  1303               	bcf	3,6	;RP1=0, select bank1
  1932  0279  01B5               	clrf	sprintf@eexp^(0+128)
  1933  027A  01B6               	clrf	(sprintf@eexp+1)^(0+128)
  1934  027B                     l3351:
  1935                           
  1936                           ;C:\Program Files\Microchip\xc8\v2.36\pic\sources\c90\common\doprnt.c: 862:    if( fval!
      +                          =0) {
  1937  027B  0841               	movf	(sprintf@fval+3)^(0+128),w
  1938  027C  00F3               	movwf	___fleq@ff1+3
  1939  027D  0840               	movf	(sprintf@fval+2)^(0+128),w
  1940  027E  00F2               	movwf	___fleq@ff1+2
  1941  027F  083F               	movf	(sprintf@fval+1)^(0+128),w
  1942  0280  00F1               	movwf	___fleq@ff1+1
  1943  0281  083E               	movf	sprintf@fval^(0+128),w
  1944  0282  00F0               	movwf	___fleq@ff1
  1945  0283  3000               	movlw	0
  1946  0284  00F7               	movwf	___fleq@ff2+3
  1947  0285  3000               	movlw	0
  1948  0286  00F6               	movwf	___fleq@ff2+2
  1949  0287  3000               	movlw	0
  1950  0288  00F5               	movwf	___fleq@ff2+1
  1951  0289  3000               	movlw	0
  1952  028A  00F4               	movwf	___fleq@ff2
  1953  028B  160A  158A  2487  120A  118A  	fcall	___fleq
  1954  0290  1803               	btfsc	3,0
  1955  0291  2A93               	goto	u5401
  1956  0292  2A94               	goto	u5400
  1957  0293                     u5401:
  1958  0293  2B84               	goto	l3377
  1959  0294                     u5400:
  1960  0294                     l3353:
  1961                           
  1962                           ;C:\Program Files\Microchip\xc8\v2.36\pic\sources\c90\common\doprnt.c: 863:     (void)(*
      +                          (&eexp) = (unsigned char)((*(unsigned long *)&fval >> 23) & 255) - 126);
  1963  0294  1003               	clrc
  1964  0295  1683               	bsf	3,5	;RP0=1, select bank1
  1965  0296  1303               	bcf	3,6	;RP1=0, select bank1
  1966  0297  0D40               	rlf	(sprintf@fval+2)^(0+128),w
  1967  0298  0D41               	rlf	(sprintf@fval+3)^(0+128),w
  1968  0299  3E82               	addlw	130
  1969  029A  00B5               	movwf	sprintf@eexp^(0+128)
  1970  029B  30FF               	movlw	255
  1971  029C  1803               	skipnc
  1972  029D  3000               	movlw	0
  1973  029E  00B6               	movwf	(sprintf@eexp^(0+128)+1)
  1974  029F                     l3355:
  1975                           
  1976                           ;C:\Program Files\Microchip\xc8\v2.36\pic\sources\c90\common\doprnt.c: 864:     eexp--;
  1977  029F  30FF               	movlw	255
  1978  02A0  07B5               	addwf	sprintf@eexp^(0+128),f
  1979  02A1  1803               	skipnc
  1980  02A2  0AB6               	incf	(sprintf@eexp+1)^(0+128),f
  1981  02A3  30FF               	movlw	255
  1982  02A4  07B6               	addwf	(sprintf@eexp+1)^(0+128),f
  1983  02A5                     l3357:
  1984                           
  1985                           ;C:\Program Files\Microchip\xc8\v2.36\pic\sources\c90\common\doprnt.c: 865:     eexp *= 
      +                          3;
  1986  02A5  3003               	movlw	3
  1987  02A6  00F0               	movwf	___wmul@multiplier
  1988  02A7  3000               	movlw	0
  1989  02A8  00F1               	movwf	___wmul@multiplier+1
  1990  02A9  0836               	movf	(sprintf@eexp+1)^(0+128),w
  1991  02AA  00F3               	movwf	___wmul@multiplicand+1
  1992  02AB  0835               	movf	sprintf@eexp^(0+128),w
  1993  02AC  00F2               	movwf	___wmul@multiplicand
  1994  02AD  160A  158A  22FB  120A  118A  	fcall	___wmul
  1995  02B2  0871               	movf	?___wmul+1,w
  1996  02B3  1683               	bsf	3,5	;RP0=1, select bank1
  1997  02B4  1303               	bcf	3,6	;RP1=0, select bank1
  1998  02B5  00B6               	movwf	(sprintf@eexp+1)^(0+128)
  1999  02B6  0870               	movf	?___wmul,w
  2000  02B7  00B5               	movwf	sprintf@eexp^(0+128)
  2001  02B8                     l3359:
  2002                           
  2003                           ;C:\Program Files\Microchip\xc8\v2.36\pic\sources\c90\common\doprnt.c: 866:     eexp /= 
      +                          10;
  2004  02B8  300A               	movlw	10
  2005  02B9  00F7               	movwf	___awdiv@divisor
  2006  02BA  3000               	movlw	0
  2007  02BB  00F8               	movwf	___awdiv@divisor+1
  2008  02BC  0836               	movf	(sprintf@eexp+1)^(0+128),w
  2009  02BD  00FA               	movwf	___awdiv@dividend+1
  2010  02BE  0835               	movf	sprintf@eexp^(0+128),w
  2011  02BF  00F9               	movwf	___awdiv@dividend
  2012  02C0  160A  158A  26A3  120A  118A  	fcall	___awdiv
  2013  02C5  0878               	movf	?___awdiv+1,w
  2014  02C6  1683               	bsf	3,5	;RP0=1, select bank1
  2015  02C7  1303               	bcf	3,6	;RP1=0, select bank1
  2016  02C8  00B6               	movwf	(sprintf@eexp+1)^(0+128)
  2017  02C9  0877               	movf	?___awdiv,w
  2018  02CA  00B5               	movwf	sprintf@eexp^(0+128)
  2019  02CB                     l3361:
  2020                           
  2021                           ;C:\Program Files\Microchip\xc8\v2.36\pic\sources\c90\common\doprnt.c: 867:     if(eexp 
      +                          < 0)
  2022  02CB  1FB6               	btfss	(sprintf@eexp+1)^(0+128),7
  2023  02CC  2ACE               	goto	u5411
  2024  02CD  2ACF               	goto	u5410
  2025  02CE                     u5411:
  2026  02CE  2AD5               	goto	l3365
  2027  02CF                     u5410:
  2028  02CF                     l3363:
  2029                           
  2030                           ;C:\Program Files\Microchip\xc8\v2.36\pic\sources\c90\common\doprnt.c: 868:      eexp--;
  2031  02CF  30FF               	movlw	255
  2032  02D0  07B5               	addwf	sprintf@eexp^(0+128),f
  2033  02D1  1803               	skipnc
  2034  02D2  0AB6               	incf	(sprintf@eexp+1)^(0+128),f
  2035  02D3  30FF               	movlw	255
  2036  02D4  07B6               	addwf	(sprintf@eexp+1)^(0+128),f
  2037  02D5                     l3365:
  2038                           
  2039                           ;C:\Program Files\Microchip\xc8\v2.36\pic\sources\c90\common\doprnt.c: 872:     tmpval.i
      +                          nteg = scale(-eexp);
  2040  02D5  0335               	decf	sprintf@eexp^(0+128),w
  2041  02D6  3AFF               	xorlw	255
  2042  02D7  120A  158A  2140  120A  118A  	fcall	_scale
  2043  02DC  1283               	bcf	3,5	;RP0=0, select bank0
  2044  02DD  1303               	bcf	3,6	;RP1=0, select bank0
  2045  02DE  0841               	movf	?_scale+3,w
  2046  02DF  1683               	bsf	3,5	;RP0=1, select bank1
  2047  02E0  1303               	bcf	3,6	;RP1=0, select bank1
  2048  02E1  00BA               	movwf	(sprintf@tmpval+3)^(0+128)
  2049  02E2  1283               	bcf	3,5	;RP0=0, select bank0
  2050  02E3  1303               	bcf	3,6	;RP1=0, select bank0
  2051  02E4  0840               	movf	?_scale+2,w
  2052  02E5  1683               	bsf	3,5	;RP0=1, select bank1
  2053  02E6  1303               	bcf	3,6	;RP1=0, select bank1
  2054  02E7  00B9               	movwf	(sprintf@tmpval+2)^(0+128)
  2055  02E8  1283               	bcf	3,5	;RP0=0, select bank0
  2056  02E9  1303               	bcf	3,6	;RP1=0, select bank0
  2057  02EA  083F               	movf	?_scale+1,w
  2058  02EB  1683               	bsf	3,5	;RP0=1, select bank1
  2059  02EC  1303               	bcf	3,6	;RP1=0, select bank1
  2060  02ED  00B8               	movwf	(sprintf@tmpval+1)^(0+128)
  2061  02EE  1283               	bcf	3,5	;RP0=0, select bank0
  2062  02EF  1303               	bcf	3,6	;RP1=0, select bank0
  2063  02F0  083E               	movf	?_scale,w
  2064  02F1  1683               	bsf	3,5	;RP0=1, select bank1
  2065  02F2  1303               	bcf	3,6	;RP1=0, select bank1
  2066  02F3  00B7               	movwf	sprintf@tmpval^(0+128)
  2067  02F4                     l3367:
  2068                           
  2069                           ;C:\Program Files\Microchip\xc8\v2.36\pic\sources\c90\common\doprnt.c: 873:     tmpval.i
      +                          nteg *= fval;
  2070  02F4  0841               	movf	(sprintf@fval+3)^(0+128),w
  2071  02F5  1283               	bcf	3,5	;RP0=0, select bank0
  2072  02F6  1303               	bcf	3,6	;RP1=0, select bank0
  2073  02F7  00A7               	movwf	___flmul@b+3
  2074  02F8  1683               	bsf	3,5	;RP0=1, select bank1
  2075  02F9  1303               	bcf	3,6	;RP1=0, select bank1
  2076  02FA  0840               	movf	(sprintf@fval+2)^(0+128),w
  2077  02FB  1283               	bcf	3,5	;RP0=0, select bank0
  2078  02FC  1303               	bcf	3,6	;RP1=0, select bank0
  2079  02FD  00A6               	movwf	___flmul@b+2
  2080  02FE  1683               	bsf	3,5	;RP0=1, select bank1
  2081  02FF  1303               	bcf	3,6	;RP1=0, select bank1
  2082  0300  083F               	movf	(sprintf@fval+1)^(0+128),w
  2083  0301  1283               	bcf	3,5	;RP0=0, select bank0
  2084  0302  1303               	bcf	3,6	;RP1=0, select bank0
  2085  0303  00A5               	movwf	___flmul@b+1
  2086  0304  1683               	bsf	3,5	;RP0=1, select bank1
  2087  0305  1303               	bcf	3,6	;RP1=0, select bank1
  2088  0306  083E               	movf	sprintf@fval^(0+128),w
  2089  0307  1283               	bcf	3,5	;RP0=0, select bank0
  2090  0308  1303               	bcf	3,6	;RP1=0, select bank0
  2091  0309  00A4               	movwf	___flmul@b
  2092  030A  1683               	bsf	3,5	;RP0=1, select bank1
  2093  030B  1303               	bcf	3,6	;RP1=0, select bank1
  2094  030C  083A               	movf	(sprintf@tmpval+3)^(0+128),w
  2095  030D  1283               	bcf	3,5	;RP0=0, select bank0
  2096  030E  1303               	bcf	3,6	;RP1=0, select bank0
  2097  030F  00AB               	movwf	___flmul@a+3
  2098  0310  1683               	bsf	3,5	;RP0=1, select bank1
  2099  0311  1303               	bcf	3,6	;RP1=0, select bank1
  2100  0312  0839               	movf	(sprintf@tmpval+2)^(0+128),w
  2101  0313  1283               	bcf	3,5	;RP0=0, select bank0
  2102  0314  1303               	bcf	3,6	;RP1=0, select bank0
  2103  0315  00AA               	movwf	___flmul@a+2
  2104  0316  1683               	bsf	3,5	;RP0=1, select bank1
  2105  0317  1303               	bcf	3,6	;RP1=0, select bank1
  2106  0318  0838               	movf	(sprintf@tmpval+1)^(0+128),w
  2107  0319  1283               	bcf	3,5	;RP0=0, select bank0
  2108  031A  1303               	bcf	3,6	;RP1=0, select bank0
  2109  031B  00A9               	movwf	___flmul@a+1
  2110  031C  1683               	bsf	3,5	;RP0=1, select bank1
  2111  031D  1303               	bcf	3,6	;RP1=0, select bank1
  2112  031E  0837               	movf	sprintf@tmpval^(0+128),w
  2113  031F  1283               	bcf	3,5	;RP0=0, select bank0
  2114  0320  1303               	bcf	3,6	;RP1=0, select bank0
  2115  0321  00A8               	movwf	___flmul@a
  2116  0322  120A  158A  249F  120A  118A  	fcall	___flmul
  2117  0327  1283               	bcf	3,5	;RP0=0, select bank0
  2118  0328  1303               	bcf	3,6	;RP1=0, select bank0
  2119  0329  0827               	movf	?___flmul+3,w
  2120  032A  1683               	bsf	3,5	;RP0=1, select bank1
  2121  032B  1303               	bcf	3,6	;RP1=0, select bank1
  2122  032C  00BA               	movwf	(sprintf@tmpval+3)^(0+128)
  2123  032D  1283               	bcf	3,5	;RP0=0, select bank0
  2124  032E  1303               	bcf	3,6	;RP1=0, select bank0
  2125  032F  0826               	movf	?___flmul+2,w
  2126  0330  1683               	bsf	3,5	;RP0=1, select bank1
  2127  0331  1303               	bcf	3,6	;RP1=0, select bank1
  2128  0332  00B9               	movwf	(sprintf@tmpval+2)^(0+128)
  2129  0333  1283               	bcf	3,5	;RP0=0, select bank0
  2130  0334  1303               	bcf	3,6	;RP1=0, select bank0
  2131  0335  0825               	movf	?___flmul+1,w
  2132  0336  1683               	bsf	3,5	;RP0=1, select bank1
  2133  0337  1303               	bcf	3,6	;RP1=0, select bank1
  2134  0338  00B8               	movwf	(sprintf@tmpval+1)^(0+128)
  2135  0339  1283               	bcf	3,5	;RP0=0, select bank0
  2136  033A  1303               	bcf	3,6	;RP1=0, select bank0
  2137  033B  0824               	movf	?___flmul,w
  2138  033C  1683               	bsf	3,5	;RP0=1, select bank1
  2139  033D  1303               	bcf	3,6	;RP1=0, select bank1
  2140  033E  00B7               	movwf	sprintf@tmpval^(0+128)
  2141  033F                     l3369:
  2142                           
  2143                           ;C:\Program Files\Microchip\xc8\v2.36\pic\sources\c90\common\doprnt.c: 874:     if(tmpva
      +                          l.integ < 1.0)
  2144  033F  083A               	movf	(sprintf@tmpval+3)^(0+128),w
  2145  0340  00F3               	movwf	___flge@ff1+3
  2146  0341  0839               	movf	(sprintf@tmpval+2)^(0+128),w
  2147  0342  00F2               	movwf	___flge@ff1+2
  2148  0343  0838               	movf	(sprintf@tmpval+1)^(0+128),w
  2149  0344  00F1               	movwf	___flge@ff1+1
  2150  0345  0837               	movf	sprintf@tmpval^(0+128),w
  2151  0346  00F0               	movwf	___flge@ff1
  2152  0347  303F               	movlw	63
  2153  0348  00F7               	movwf	___flge@ff2+3
  2154  0349  3080               	movlw	128
  2155  034A  00F6               	movwf	___flge@ff2+2
  2156  034B  3000               	movlw	0
  2157  034C  00F5               	movwf	___flge@ff2+1
  2158  034D  3000               	movlw	0
  2159  034E  00F4               	movwf	___flge@ff2
  2160  034F  160A  118A  20EE  120A  118A  	fcall	___flge
  2161  0354  1803               	btfsc	3,0
  2162  0355  2B57               	goto	u5421
  2163  0356  2B58               	goto	u5420
  2164  0357                     u5421:
  2165  0357  2B61               	goto	l3373
  2166  0358                     u5420:
  2167  0358                     l3371:
  2168                           
  2169                           ;C:\Program Files\Microchip\xc8\v2.36\pic\sources\c90\common\doprnt.c: 875:      eexp--;
  2170  0358  30FF               	movlw	255
  2171  0359  1683               	bsf	3,5	;RP0=1, select bank1
  2172  035A  1303               	bcf	3,6	;RP1=0, select bank1
  2173  035B  07B5               	addwf	sprintf@eexp^(0+128),f
  2174  035C  1803               	skipnc
  2175  035D  0AB6               	incf	(sprintf@eexp+1)^(0+128),f
  2176  035E  30FF               	movlw	255
  2177  035F  07B6               	addwf	(sprintf@eexp+1)^(0+128),f
  2178  0360  2B84               	goto	l3377
  2179  0361                     l3373:
  2180  0361  1683               	bsf	3,5	;RP0=1, select bank1
  2181  0362  1303               	bcf	3,6	;RP1=0, select bank1
  2182  0363  083A               	movf	(sprintf@tmpval+3)^(0+128),w
  2183  0364  00F3               	movwf	___flge@ff1+3
  2184  0365  0839               	movf	(sprintf@tmpval+2)^(0+128),w
  2185  0366  00F2               	movwf	___flge@ff1+2
  2186  0367  0838               	movf	(sprintf@tmpval+1)^(0+128),w
  2187  0368  00F1               	movwf	___flge@ff1+1
  2188  0369  0837               	movf	sprintf@tmpval^(0+128),w
  2189  036A  00F0               	movwf	___flge@ff1
  2190  036B  3041               	movlw	65
  2191  036C  00F7               	movwf	___flge@ff2+3
  2192  036D  3020               	movlw	32
  2193  036E  00F6               	movwf	___flge@ff2+2
  2194  036F  3000               	movlw	0
  2195  0370  00F5               	movwf	___flge@ff2+1
  2196  0371  3000               	movlw	0
  2197  0372  00F4               	movwf	___flge@ff2
  2198  0373  160A  118A  20EE  120A  118A  	fcall	___flge
  2199  0378  1C03               	btfss	3,0
  2200  0379  2B7B               	goto	u5431
  2201  037A  2B7C               	goto	u5430
  2202  037B                     u5431:
  2203  037B  2B84               	goto	l3377
  2204  037C                     u5430:
  2205  037C                     l3375:
  2206                           
  2207                           ;C:\Program Files\Microchip\xc8\v2.36\pic\sources\c90\common\doprnt.c: 877:      eexp++;
  2208  037C  3001               	movlw	1
  2209  037D  1683               	bsf	3,5	;RP0=1, select bank1
  2210  037E  1303               	bcf	3,6	;RP1=0, select bank1
  2211  037F  07B5               	addwf	sprintf@eexp^(0+128),f
  2212  0380  1803               	skipnc
  2213  0381  0AB6               	incf	(sprintf@eexp+1)^(0+128),f
  2214  0382  3000               	movlw	0
  2215  0383  07B6               	addwf	(sprintf@eexp+1)^(0+128),f
  2216  0384                     l3377:
  2217                           
  2218                           ;C:\Program Files\Microchip\xc8\v2.36\pic\sources\c90\common\doprnt.c: 1138:      if(pre
      +                          c <= 12)
  2219  0384  1683               	bsf	3,5	;RP0=1, select bank1
  2220  0385  1303               	bcf	3,6	;RP1=0, select bank1
  2221  0386  083D               	movf	(sprintf@prec+1)^(0+128),w
  2222  0387  3A80               	xorlw	128
  2223  0388  00FF               	movwf	btemp+1
  2224  0389  3080               	movlw	128
  2225  038A  027F               	subwf	btemp+1,w
  2226  038B  1D03               	skipz
  2227  038C  2B8F               	goto	u5445
  2228  038D  300D               	movlw	13
  2229  038E  023C               	subwf	sprintf@prec^(0+128),w
  2230  038F                     u5445:
  2231  038F  1803               	skipnc
  2232  0390  2B92               	goto	u5441
  2233  0391  2B93               	goto	u5440
  2234  0392                     u5441:
  2235  0392  2BDA               	goto	l3381
  2236  0393                     u5440:
  2237  0393                     l3379:
  2238                           
  2239                           ;C:\Program Files\Microchip\xc8\v2.36\pic\sources\c90\common\doprnt.c: 1139:       fval 
      +                          += fround((unsigned int)prec);
  2240  0393  1683               	bsf	3,5	;RP0=1, select bank1
  2241  0394  1303               	bcf	3,6	;RP1=0, select bank1
  2242  0395  083C               	movf	sprintf@prec^(0+128),w
  2243  0396  160A  118A  236D  120A  118A  	fcall	_fround
  2244  039B  1283               	bcf	3,5	;RP0=0, select bank0
  2245  039C  1303               	bcf	3,6	;RP1=0, select bank0
  2246  039D  0841               	movf	?_fround+3,w
  2247  039E  00D5               	movwf	___fladd@b+3
  2248  039F  0840               	movf	?_fround+2,w
  2249  03A0  00D4               	movwf	___fladd@b+2
  2250  03A1  083F               	movf	?_fround+1,w
  2251  03A2  00D3               	movwf	___fladd@b+1
  2252  03A3  083E               	movf	?_fround,w
  2253  03A4  00D2               	movwf	___fladd@b
  2254  03A5  1683               	bsf	3,5	;RP0=1, select bank1
  2255  03A6  1303               	bcf	3,6	;RP1=0, select bank1
  2256  03A7  0841               	movf	(sprintf@fval+3)^(0+128),w
  2257  03A8  1283               	bcf	3,5	;RP0=0, select bank0
  2258  03A9  1303               	bcf	3,6	;RP1=0, select bank0
  2259  03AA  00D9               	movwf	___fladd@a+3
  2260  03AB  1683               	bsf	3,5	;RP0=1, select bank1
  2261  03AC  1303               	bcf	3,6	;RP1=0, select bank1
  2262  03AD  0840               	movf	(sprintf@fval+2)^(0+128),w
  2263  03AE  1283               	bcf	3,5	;RP0=0, select bank0
  2264  03AF  1303               	bcf	3,6	;RP1=0, select bank0
  2265  03B0  00D8               	movwf	___fladd@a+2
  2266  03B1  1683               	bsf	3,5	;RP0=1, select bank1
  2267  03B2  1303               	bcf	3,6	;RP1=0, select bank1
  2268  03B3  083F               	movf	(sprintf@fval+1)^(0+128),w
  2269  03B4  1283               	bcf	3,5	;RP0=0, select bank0
  2270  03B5  1303               	bcf	3,6	;RP1=0, select bank0
  2271  03B6  00D7               	movwf	___fladd@a+1
  2272  03B7  1683               	bsf	3,5	;RP0=1, select bank1
  2273  03B8  1303               	bcf	3,6	;RP1=0, select bank1
  2274  03B9  083E               	movf	sprintf@fval^(0+128),w
  2275  03BA  1283               	bcf	3,5	;RP0=0, select bank0
  2276  03BB  1303               	bcf	3,6	;RP1=0, select bank0
  2277  03BC  00D6               	movwf	___fladd@a
  2278  03BD  160A  118A  2578  120A  118A  	fcall	___fladd
  2279  03C2  1283               	bcf	3,5	;RP0=0, select bank0
  2280  03C3  1303               	bcf	3,6	;RP1=0, select bank0
  2281  03C4  0855               	movf	?___fladd+3,w
  2282  03C5  1683               	bsf	3,5	;RP0=1, select bank1
  2283  03C6  1303               	bcf	3,6	;RP1=0, select bank1
  2284  03C7  00C1               	movwf	(sprintf@fval+3)^(0+128)
  2285  03C8  1283               	bcf	3,5	;RP0=0, select bank0
  2286  03C9  1303               	bcf	3,6	;RP1=0, select bank0
  2287  03CA  0854               	movf	?___fladd+2,w
  2288  03CB  1683               	bsf	3,5	;RP0=1, select bank1
  2289  03CC  1303               	bcf	3,6	;RP1=0, select bank1
  2290  03CD  00C0               	movwf	(sprintf@fval+2)^(0+128)
  2291  03CE  1283               	bcf	3,5	;RP0=0, select bank0
  2292  03CF  1303               	bcf	3,6	;RP1=0, select bank0
  2293  03D0  0853               	movf	?___fladd+1,w
  2294  03D1  1683               	bsf	3,5	;RP0=1, select bank1
  2295  03D2  1303               	bcf	3,6	;RP1=0, select bank1
  2296  03D3  00BF               	movwf	(sprintf@fval+1)^(0+128)
  2297  03D4  1283               	bcf	3,5	;RP0=0, select bank0
  2298  03D5  1303               	bcf	3,6	;RP1=0, select bank0
  2299  03D6  0852               	movf	?___fladd,w
  2300  03D7  1683               	bsf	3,5	;RP0=1, select bank1
  2301  03D8  1303               	bcf	3,6	;RP1=0, select bank1
  2302  03D9  00BE               	movwf	sprintf@fval^(0+128)
  2303  03DA                     l3381:
  2304                           
  2305                           ;C:\Program Files\Microchip\xc8\v2.36\pic\sources\c90\common\doprnt.c: 1142:     if((eex
      +                          p > 9)||(fval != 0 && (unsigned long)fval == 0 && eexp > 1)) {
  2306  03DA  1683               	bsf	3,5	;RP0=1, select bank1
  2307  03DB  1303               	bcf	3,6	;RP1=0, select bank1
  2308  03DC  0836               	movf	(sprintf@eexp+1)^(0+128),w
  2309  03DD  3A80               	xorlw	128
  2310  03DE  00FF               	movwf	btemp+1
  2311  03DF  3080               	movlw	128
  2312  03E0  027F               	subwf	btemp+1,w
  2313  03E1  1D03               	skipz
  2314  03E2  2BE5               	goto	u5455
  2315  03E3  300A               	movlw	10
  2316  03E4  0235               	subwf	sprintf@eexp^(0+128),w
  2317  03E5                     u5455:
  2318  03E5  1803               	skipnc
  2319  03E6  2BE8               	goto	u5451
  2320  03E7  2BE9               	goto	u5450
  2321  03E8                     u5451:
  2322  03E8  2C3A               	goto	l3389
  2323  03E9                     u5450:
  2324  03E9                     l3383:
  2325  03E9  1683               	bsf	3,5	;RP0=1, select bank1
  2326  03EA  1303               	bcf	3,6	;RP1=0, select bank1
  2327  03EB  0841               	movf	(sprintf@fval+3)^(0+128),w
  2328  03EC  00F3               	movwf	___fleq@ff1+3
  2329  03ED  0840               	movf	(sprintf@fval+2)^(0+128),w
  2330  03EE  00F2               	movwf	___fleq@ff1+2
  2331  03EF  083F               	movf	(sprintf@fval+1)^(0+128),w
  2332  03F0  00F1               	movwf	___fleq@ff1+1
  2333  03F1  083E               	movf	sprintf@fval^(0+128),w
  2334  03F2  00F0               	movwf	___fleq@ff1
  2335  03F3  3000               	movlw	0
  2336  03F4  00F7               	movwf	___fleq@ff2+3
  2337  03F5  3000               	movlw	0
  2338  03F6  00F6               	movwf	___fleq@ff2+2
  2339  03F7  3000               	movlw	0
  2340  03F8  00F5               	movwf	___fleq@ff2+1
  2341  03F9  3000               	movlw	0
  2342  03FA  00F4               	movwf	___fleq@ff2
  2343  03FB  160A  158A  2487  120A  118A  	fcall	___fleq
  2344  0400  1803               	btfsc	3,0
  2345  0401  2C03               	goto	u5461
  2346  0402  2C04               	goto	u5460
  2347  0403                     u5461:
  2348  0403  2CAC               	goto	l3403
  2349  0404                     u5460:
  2350  0404                     l3385:
  2351  0404  1683               	bsf	3,5	;RP0=1, select bank1
  2352  0405  1303               	bcf	3,6	;RP1=0, select bank1
  2353  0406  0841               	movf	(sprintf@fval+3)^(0+128),w
  2354  0407  1283               	bcf	3,5	;RP0=0, select bank0
  2355  0408  1303               	bcf	3,6	;RP1=0, select bank0
  2356  0409  00D4               	movwf	___fltol@f1+3
  2357  040A  1683               	bsf	3,5	;RP0=1, select bank1
  2358  040B  1303               	bcf	3,6	;RP1=0, select bank1
  2359  040C  0840               	movf	(sprintf@fval+2)^(0+128),w
  2360  040D  1283               	bcf	3,5	;RP0=0, select bank0
  2361  040E  1303               	bcf	3,6	;RP1=0, select bank0
  2362  040F  00D3               	movwf	___fltol@f1+2
  2363  0410  1683               	bsf	3,5	;RP0=1, select bank1
  2364  0411  1303               	bcf	3,6	;RP1=0, select bank1
  2365  0412  083F               	movf	(sprintf@fval+1)^(0+128),w
  2366  0413  1283               	bcf	3,5	;RP0=0, select bank0
  2367  0414  1303               	bcf	3,6	;RP1=0, select bank0
  2368  0415  00D2               	movwf	___fltol@f1+1
  2369  0416  1683               	bsf	3,5	;RP0=1, select bank1
  2370  0417  1303               	bcf	3,6	;RP1=0, select bank1
  2371  0418  083E               	movf	sprintf@fval^(0+128),w
  2372  0419  1283               	bcf	3,5	;RP0=0, select bank0
  2373  041A  1303               	bcf	3,6	;RP1=0, select bank0
  2374  041B  00D1               	movwf	___fltol@f1
  2375  041C  160A  158A  2784  120A  118A  	fcall	___fltol
  2376  0421  1283               	bcf	3,5	;RP0=0, select bank0
  2377  0422  1303               	bcf	3,6	;RP1=0, select bank0
  2378  0423  0854               	movf	?___fltol+3,w
  2379  0424  0453               	iorwf	?___fltol+2,w
  2380  0425  0452               	iorwf	?___fltol+1,w
  2381  0426  0451               	iorwf	?___fltol,w
  2382  0427  1D03               	skipz
  2383  0428  2C2A               	goto	u5471
  2384  0429  2C2B               	goto	u5470
  2385  042A                     u5471:
  2386  042A  2CAC               	goto	l3403
  2387  042B                     u5470:
  2388  042B                     l3387:
  2389  042B  1683               	bsf	3,5	;RP0=1, select bank1
  2390  042C  1303               	bcf	3,6	;RP1=0, select bank1
  2391  042D  0836               	movf	(sprintf@eexp+1)^(0+128),w
  2392  042E  3A80               	xorlw	128
  2393  042F  00FF               	movwf	btemp+1
  2394  0430  3080               	movlw	128
  2395  0431  027F               	subwf	btemp+1,w
  2396  0432  1D03               	skipz
  2397  0433  2C36               	goto	u5485
  2398  0434  3002               	movlw	2
  2399  0435  0235               	subwf	sprintf@eexp^(0+128),w
  2400  0436                     u5485:
  2401  0436  1C03               	skipc
  2402  0437  2C39               	goto	u5481
  2403  0438  2C3A               	goto	u5480
  2404  0439                     u5481:
  2405  0439  2CAC               	goto	l3403
  2406  043A                     u5480:
  2407  043A                     l3389:
  2408                           
  2409                           ;C:\Program Files\Microchip\xc8\v2.36\pic\sources\c90\common\doprnt.c: 1146:      if(tmp
      +                          val.integ < 4.294967296){
  2410  043A  1683               	bsf	3,5	;RP0=1, select bank1
  2411  043B  1303               	bcf	3,6	;RP1=0, select bank1
  2412  043C  083A               	movf	(sprintf@tmpval+3)^(0+128),w
  2413  043D  00F3               	movwf	___flge@ff1+3
  2414  043E  0839               	movf	(sprintf@tmpval+2)^(0+128),w
  2415  043F  00F2               	movwf	___flge@ff1+2
  2416  0440  0838               	movf	(sprintf@tmpval+1)^(0+128),w
  2417  0441  00F1               	movwf	___flge@ff1+1
  2418  0442  0837               	movf	sprintf@tmpval^(0+128),w
  2419  0443  00F0               	movwf	___flge@ff1
  2420  0444  3040               	movlw	64
  2421  0445  00F7               	movwf	___flge@ff2+3
  2422  0446  3089               	movlw	137
  2423  0447  00F6               	movwf	___flge@ff2+2
  2424  0448  3070               	movlw	112
  2425  0449  00F5               	movwf	___flge@ff2+1
  2426  044A  305F               	movlw	95
  2427  044B  00F4               	movwf	___flge@ff2
  2428  044C  160A  118A  20EE  120A  118A  	fcall	___flge
  2429  0451  1803               	btfsc	3,0
  2430  0452  2C54               	goto	u5491
  2431  0453  2C55               	goto	u5490
  2432  0454                     u5491:
  2433  0454  2C5E               	goto	l3393
  2434  0455                     u5490:
  2435  0455                     l3391:
  2436                           
  2437                           ;C:\Program Files\Microchip\xc8\v2.36\pic\sources\c90\common\doprnt.c: 1147:       eexp 
      +                          -= (sizeof dpowers/sizeof dpowers[0])-1;
  2438  0455  30F7               	movlw	247
  2439  0456  1683               	bsf	3,5	;RP0=1, select bank1
  2440  0457  1303               	bcf	3,6	;RP1=0, select bank1
  2441  0458  07B5               	addwf	sprintf@eexp^(0+128),f
  2442  0459  1803               	skipnc
  2443  045A  0AB6               	incf	(sprintf@eexp+1)^(0+128),f
  2444  045B  30FF               	movlw	255
  2445  045C  07B6               	addwf	(sprintf@eexp+1)^(0+128),f
  2446                           
  2447                           ;C:\Program Files\Microchip\xc8\v2.36\pic\sources\c90\common\doprnt.c: 1148:      }else{
  2448  045D  2C66               	goto	l3395
  2449  045E                     l3393:
  2450                           
  2451                           ;C:\Program Files\Microchip\xc8\v2.36\pic\sources\c90\common\doprnt.c: 1149:       eexp 
      +                          -= (sizeof dpowers/sizeof dpowers[0])-2;
  2452  045E  30F8               	movlw	248
  2453  045F  1683               	bsf	3,5	;RP0=1, select bank1
  2454  0460  1303               	bcf	3,6	;RP1=0, select bank1
  2455  0461  07B5               	addwf	sprintf@eexp^(0+128),f
  2456  0462  1803               	skipnc
  2457  0463  0AB6               	incf	(sprintf@eexp+1)^(0+128),f
  2458  0464  30FF               	movlw	255
  2459  0465  07B6               	addwf	(sprintf@eexp+1)^(0+128),f
  2460  0466                     l3395:
  2461                           
  2462                           ;C:\Program Files\Microchip\xc8\v2.36\pic\sources\c90\common\doprnt.c: 1152:      val = 
      +                          ((sizeof(double)== 3) ? _tdiv_to_l_(fval,tmpval.integ) : _div_to_l_(fval,tmpval.integ));
  2463  0466  0835               	movf	sprintf@eexp^(0+128),w
  2464  0467  120A  158A  2140  120A  118A  	fcall	_scale
  2465  046C  1283               	bcf	3,5	;RP0=0, select bank0
  2466  046D  1303               	bcf	3,6	;RP1=0, select bank0
  2467  046E  0841               	movf	?_scale+3,w
  2468  046F  1683               	bsf	3,5	;RP0=1, select bank1
  2469  0470  1303               	bcf	3,6	;RP1=0, select bank1
  2470  0471  00BA               	movwf	(sprintf@tmpval+3)^(0+128)
  2471  0472  1283               	bcf	3,5	;RP0=0, select bank0
  2472  0473  1303               	bcf	3,6	;RP1=0, select bank0
  2473  0474  0840               	movf	?_scale+2,w
  2474  0475  1683               	bsf	3,5	;RP0=1, select bank1
  2475  0476  1303               	bcf	3,6	;RP1=0, select bank1
  2476  0477  00B9               	movwf	(sprintf@tmpval+2)^(0+128)
  2477  0478  1283               	bcf	3,5	;RP0=0, select bank0
  2478  0479  1303               	bcf	3,6	;RP1=0, select bank0
  2479  047A  083F               	movf	?_scale+1,w
  2480  047B  1683               	bsf	3,5	;RP0=1, select bank1
  2481  047C  1303               	bcf	3,6	;RP1=0, select bank1
  2482  047D  00B8               	movwf	(sprintf@tmpval+1)^(0+128)
  2483  047E  1283               	bcf	3,5	;RP0=0, select bank0
  2484  047F  1303               	bcf	3,6	;RP1=0, select bank0
  2485  0480  083E               	movf	?_scale,w
  2486  0481  1683               	bsf	3,5	;RP0=1, select bank1
  2487  0482  1303               	bcf	3,6	;RP1=0, select bank1
  2488  0483  00B7               	movwf	sprintf@tmpval^(0+128)
  2489  0484                     l3397:
  2490  0484  0841               	movf	(sprintf@fval+3)^(0+128),w
  2491  0485  00F3               	movwf	__div_to_l_@f1+3
  2492  0486  0840               	movf	(sprintf@fval+2)^(0+128),w
  2493  0487  00F2               	movwf	__div_to_l_@f1+2
  2494  0488  083F               	movf	(sprintf@fval+1)^(0+128),w
  2495  0489  00F1               	movwf	__div_to_l_@f1+1
  2496  048A  083E               	movf	sprintf@fval^(0+128),w
  2497  048B  00F0               	movwf	__div_to_l_@f1
  2498  048C  083A               	movf	(sprintf@tmpval+3)^(0+128),w
  2499  048D  00F7               	movwf	__div_to_l_@f2+3
  2500  048E  0839               	movf	(sprintf@tmpval+2)^(0+128),w
  2501  048F  00F6               	movwf	__div_to_l_@f2+2
  2502  0490  0838               	movf	(sprintf@tmpval+1)^(0+128),w
  2503  0491  00F5               	movwf	__div_to_l_@f2+1
  2504  0492  0837               	movf	sprintf@tmpval^(0+128),w
  2505  0493  00F4               	movwf	__div_to_l_@f2
  2506  0494  120A  118A  20CE  120A  118A  	fcall	__div_to_l_
  2507  0499  0873               	movf	?__div_to_l_+3,w
  2508  049A  1683               	bsf	3,5	;RP0=1, select bank1
  2509  049B  1303               	bcf	3,6	;RP1=0, select bank1
  2510  049C  00B4               	movwf	(sprintf@val+3)^(0+128)
  2511  049D  0872               	movf	?__div_to_l_+2,w
  2512  049E  00B3               	movwf	(sprintf@val+2)^(0+128)
  2513  049F  0871               	movf	?__div_to_l_+1,w
  2514  04A0  00B2               	movwf	(sprintf@val+1)^(0+128)
  2515  04A1  0870               	movf	?__div_to_l_,w
  2516  04A2  00B1               	movwf	sprintf@val^(0+128)
  2517  04A3                     l3401:
  2518                           
  2519                           ;C:\Program Files\Microchip\xc8\v2.36\pic\sources\c90\common\doprnt.c: 1155:      fval =
      +                           0.0;
  2520  04A3  3000               	movlw	0
  2521  04A4  00C1               	movwf	(sprintf@fval+3)^(0+128)
  2522  04A5  3000               	movlw	0
  2523  04A6  00C0               	movwf	(sprintf@fval+2)^(0+128)
  2524  04A7  3000               	movlw	0
  2525  04A8  00BF               	movwf	(sprintf@fval+1)^(0+128)
  2526  04A9  3000               	movlw	0
  2527  04AA  00BE               	movwf	sprintf@fval^(0+128)
  2528                           
  2529                           ;C:\Program Files\Microchip\xc8\v2.36\pic\sources\c90\common\doprnt.c: 1156:     } else 
      +                          {
  2530  04AB  2D30               	goto	l3409
  2531  04AC                     l3403:
  2532                           
  2533                           ;C:\Program Files\Microchip\xc8\v2.36\pic\sources\c90\common\doprnt.c: 1157:      val = 
      +                          (unsigned long)fval;
  2534  04AC  1683               	bsf	3,5	;RP0=1, select bank1
  2535  04AD  1303               	bcf	3,6	;RP1=0, select bank1
  2536  04AE  0841               	movf	(sprintf@fval+3)^(0+128),w
  2537  04AF  1283               	bcf	3,5	;RP0=0, select bank0
  2538  04B0  1303               	bcf	3,6	;RP1=0, select bank0
  2539  04B1  00D4               	movwf	___fltol@f1+3
  2540  04B2  1683               	bsf	3,5	;RP0=1, select bank1
  2541  04B3  1303               	bcf	3,6	;RP1=0, select bank1
  2542  04B4  0840               	movf	(sprintf@fval+2)^(0+128),w
  2543  04B5  1283               	bcf	3,5	;RP0=0, select bank0
  2544  04B6  1303               	bcf	3,6	;RP1=0, select bank0
  2545  04B7  00D3               	movwf	___fltol@f1+2
  2546  04B8  1683               	bsf	3,5	;RP0=1, select bank1
  2547  04B9  1303               	bcf	3,6	;RP1=0, select bank1
  2548  04BA  083F               	movf	(sprintf@fval+1)^(0+128),w
  2549  04BB  1283               	bcf	3,5	;RP0=0, select bank0
  2550  04BC  1303               	bcf	3,6	;RP1=0, select bank0
  2551  04BD  00D2               	movwf	___fltol@f1+1
  2552  04BE  1683               	bsf	3,5	;RP0=1, select bank1
  2553  04BF  1303               	bcf	3,6	;RP1=0, select bank1
  2554  04C0  083E               	movf	sprintf@fval^(0+128),w
  2555  04C1  1283               	bcf	3,5	;RP0=0, select bank0
  2556  04C2  1303               	bcf	3,6	;RP1=0, select bank0
  2557  04C3  00D1               	movwf	___fltol@f1
  2558  04C4  160A  158A  2784  120A  118A  	fcall	___fltol
  2559  04C9  1283               	bcf	3,5	;RP0=0, select bank0
  2560  04CA  1303               	bcf	3,6	;RP1=0, select bank0
  2561  04CB  0854               	movf	?___fltol+3,w
  2562  04CC  1683               	bsf	3,5	;RP0=1, select bank1
  2563  04CD  1303               	bcf	3,6	;RP1=0, select bank1
  2564  04CE  00B4               	movwf	(sprintf@val+3)^(0+128)
  2565  04CF  1283               	bcf	3,5	;RP0=0, select bank0
  2566  04D0  1303               	bcf	3,6	;RP1=0, select bank0
  2567  04D1  0853               	movf	?___fltol+2,w
  2568  04D2  1683               	bsf	3,5	;RP0=1, select bank1
  2569  04D3  1303               	bcf	3,6	;RP1=0, select bank1
  2570  04D4  00B3               	movwf	(sprintf@val+2)^(0+128)
  2571  04D5  1283               	bcf	3,5	;RP0=0, select bank0
  2572  04D6  1303               	bcf	3,6	;RP1=0, select bank0
  2573  04D7  0852               	movf	?___fltol+1,w
  2574  04D8  1683               	bsf	3,5	;RP0=1, select bank1
  2575  04D9  1303               	bcf	3,6	;RP1=0, select bank1
  2576  04DA  00B2               	movwf	(sprintf@val+1)^(0+128)
  2577  04DB  1283               	bcf	3,5	;RP0=0, select bank0
  2578  04DC  1303               	bcf	3,6	;RP1=0, select bank0
  2579  04DD  0851               	movf	?___fltol,w
  2580  04DE  1683               	bsf	3,5	;RP0=1, select bank1
  2581  04DF  1303               	bcf	3,6	;RP1=0, select bank1
  2582  04E0  00B1               	movwf	sprintf@val^(0+128)
  2583  04E1                     l3405:
  2584                           
  2585                           ;C:\Program Files\Microchip\xc8\v2.36\pic\sources\c90\common\doprnt.c: 1158:      fval -
      +                          = (double)val;
  2586  04E1  0834               	movf	(sprintf@val+3)^(0+128),w
  2587  04E2  00F7               	movwf	___xxtofl@val+3
  2588  04E3  0833               	movf	(sprintf@val+2)^(0+128),w
  2589  04E4  00F6               	movwf	___xxtofl@val+2
  2590  04E5  0832               	movf	(sprintf@val+1)^(0+128),w
  2591  04E6  00F5               	movwf	___xxtofl@val+1
  2592  04E7  0831               	movf	sprintf@val^(0+128),w
  2593  04E8  00F4               	movwf	___xxtofl@val
  2594  04E9  3000               	movlw	0
  2595  04EA  120A  158A  2084  120A  118A  	fcall	___xxtofl
  2596  04EF  0877               	movf	?___xxtofl+3,w
  2597  04F0  1283               	bcf	3,5	;RP0=0, select bank0
  2598  04F1  1303               	bcf	3,6	;RP1=0, select bank0
  2599  04F2  00E9               	movwf	___flsub@a+3
  2600  04F3  0876               	movf	?___xxtofl+2,w
  2601  04F4  00E8               	movwf	___flsub@a+2
  2602  04F5  0875               	movf	?___xxtofl+1,w
  2603  04F6  00E7               	movwf	___flsub@a+1
  2604  04F7  0874               	movf	?___xxtofl,w
  2605  04F8  00E6               	movwf	___flsub@a
  2606  04F9  1683               	bsf	3,5	;RP0=1, select bank1
  2607  04FA  1303               	bcf	3,6	;RP1=0, select bank1
  2608  04FB  0841               	movf	(sprintf@fval+3)^(0+128),w
  2609  04FC  1283               	bcf	3,5	;RP0=0, select bank0
  2610  04FD  1303               	bcf	3,6	;RP1=0, select bank0
  2611  04FE  00ED               	movwf	___flsub@b+3
  2612  04FF  1683               	bsf	3,5	;RP0=1, select bank1
  2613  0500  1303               	bcf	3,6	;RP1=0, select bank1
  2614  0501  0840               	movf	(sprintf@fval+2)^(0+128),w
  2615  0502  1283               	bcf	3,5	;RP0=0, select bank0
  2616  0503  1303               	bcf	3,6	;RP1=0, select bank0
  2617  0504  00EC               	movwf	___flsub@b+2
  2618  0505  1683               	bsf	3,5	;RP0=1, select bank1
  2619  0506  1303               	bcf	3,6	;RP1=0, select bank1
  2620  0507  083F               	movf	(sprintf@fval+1)^(0+128),w
  2621  0508  1283               	bcf	3,5	;RP0=0, select bank0
  2622  0509  1303               	bcf	3,6	;RP1=0, select bank0
  2623  050A  00EB               	movwf	___flsub@b+1
  2624  050B  1683               	bsf	3,5	;RP0=1, select bank1
  2625  050C  1303               	bcf	3,6	;RP1=0, select bank1
  2626  050D  083E               	movf	sprintf@fval^(0+128),w
  2627  050E  1283               	bcf	3,5	;RP0=0, select bank0
  2628  050F  1303               	bcf	3,6	;RP1=0, select bank0
  2629  0510  00EA               	movwf	___flsub@b
  2630  0511  160A  158A  22B2  120A  118A  	fcall	___flsub
  2631  0516  1283               	bcf	3,5	;RP0=0, select bank0
  2632  0517  1303               	bcf	3,6	;RP1=0, select bank0
  2633  0518  0869               	movf	?___flsub+3,w
  2634  0519  1683               	bsf	3,5	;RP0=1, select bank1
  2635  051A  1303               	bcf	3,6	;RP1=0, select bank1
  2636  051B  00C1               	movwf	(sprintf@fval+3)^(0+128)
  2637  051C  1283               	bcf	3,5	;RP0=0, select bank0
  2638  051D  1303               	bcf	3,6	;RP1=0, select bank0
  2639  051E  0868               	movf	?___flsub+2,w
  2640  051F  1683               	bsf	3,5	;RP0=1, select bank1
  2641  0520  1303               	bcf	3,6	;RP1=0, select bank1
  2642  0521  00C0               	movwf	(sprintf@fval+2)^(0+128)
  2643  0522  1283               	bcf	3,5	;RP0=0, select bank0
  2644  0523  1303               	bcf	3,6	;RP1=0, select bank0
  2645  0524  0867               	movf	?___flsub+1,w
  2646  0525  1683               	bsf	3,5	;RP0=1, select bank1
  2647  0526  1303               	bcf	3,6	;RP1=0, select bank1
  2648  0527  00BF               	movwf	(sprintf@fval+1)^(0+128)
  2649  0528  1283               	bcf	3,5	;RP0=0, select bank0
  2650  0529  1303               	bcf	3,6	;RP1=0, select bank0
  2651  052A  0866               	movf	?___flsub,w
  2652  052B  1683               	bsf	3,5	;RP0=1, select bank1
  2653  052C  1303               	bcf	3,6	;RP1=0, select bank1
  2654  052D  00BE               	movwf	sprintf@fval^(0+128)
  2655  052E                     l3407:
  2656                           
  2657                           ;C:\Program Files\Microchip\xc8\v2.36\pic\sources\c90\common\doprnt.c: 1159:      eexp =
      +                           0;
  2658  052E  01B5               	clrf	sprintf@eexp^(0+128)
  2659  052F  01B6               	clrf	(sprintf@eexp+1)^(0+128)
  2660  0530                     l3409:
  2661                           
  2662                           ;C:\Program Files\Microchip\xc8\v2.36\pic\sources\c90\common\doprnt.c: 1162:     for(c =
      +                           1 ; c != (sizeof dpowers/sizeof dpowers[0]) ; c++)
  2663  0530  01C2               	clrf	sprintf@c^(0+128)
  2664  0531  0AC2               	incf	sprintf@c^(0+128),f
  2665  0532                     l3415:
  2666                           
  2667                           ;C:\Program Files\Microchip\xc8\v2.36\pic\sources\c90\common\doprnt.c: 1163:      if(val
      +                           < dpowers[c])
  2668  0532  0842               	movf	sprintf@c^(0+128),w
  2669  0533  00A5               	movwf	??_sprintf^(0+128)
  2670  0534  3001               	movlw	1
  2671  0535                     u5505:
  2672  0535  1003               	clrc
  2673  0536  0DA5               	rlf	??_sprintf^(0+128),f
  2674  0537  3EFF               	addlw	-1
  2675  0538  1D03               	skipz
  2676  0539  2D35               	goto	u5505
  2677  053A  1003               	clrc
  2678  053B  0D25               	rlf	??_sprintf^(0+128),w
  2679  053C  3E69               	addlw	low ((_dpowers-__stringbase)| (0+32768))
  2680  053D  0084               	movwf	4
  2681  053E  160A  118A  200A  120A  118A  	fcall	stringdir
  2682  0543  00A6               	movwf	(??_sprintf+1)^(0+128)
  2683  0544  160A  118A  200A  120A  118A  	fcall	stringdir
  2684  0549  00A7               	movwf	((??_sprintf+1)^(0+128)+1)
  2685  054A  160A  118A  200A  120A  118A  	fcall	stringdir
  2686  054F  00A8               	movwf	((??_sprintf+1)^(0+128)+2)
  2687  0550  160A  118A  200A  120A  118A  	fcall	stringdir
  2688  0555  00A9               	movwf	((??_sprintf+1)^(0+128)+3)
  2689  0556  0829               	movf	(??_sprintf+4)^(0+128),w
  2690  0557  0234               	subwf	(sprintf@val+3)^(0+128),w
  2691  0558  1D03               	skipz
  2692  0559  2D64               	goto	u5515
  2693  055A  0828               	movf	(??_sprintf+3)^(0+128),w
  2694  055B  0233               	subwf	(sprintf@val+2)^(0+128),w
  2695  055C  1D03               	skipz
  2696  055D  2D64               	goto	u5515
  2697  055E  0827               	movf	(??_sprintf+2)^(0+128),w
  2698  055F  0232               	subwf	(sprintf@val+1)^(0+128),w
  2699  0560  1D03               	skipz
  2700  0561  2D64               	goto	u5515
  2701  0562  0826               	movf	(??_sprintf+1)^(0+128),w
  2702  0563  0231               	subwf	sprintf@val^(0+128),w
  2703  0564                     u5515:
  2704  0564  1803               	skipnc
  2705  0565  2D67               	goto	u5511
  2706  0566  2D68               	goto	u5510
  2707  0567                     u5511:
  2708  0567  2D69               	goto	l3419
  2709  0568                     u5510:
  2710  0568  2D73               	goto	l3421
  2711  0569                     l3419:
  2712  0569  3001               	movlw	1
  2713  056A  00A5               	movwf	??_sprintf^(0+128)
  2714  056B  0825               	movf	??_sprintf^(0+128),w
  2715  056C  07C2               	addwf	sprintf@c^(0+128),f
  2716  056D  300A               	movlw	10
  2717  056E  0642               	xorwf	sprintf@c^(0+128),w
  2718  056F  1D03               	btfss	3,2
  2719  0570  2D72               	goto	u5521
  2720  0571  2D73               	goto	u5520
  2721  0572                     u5521:
  2722  0572  2D32               	goto	l3415
  2723  0573                     u5520:
  2724  0573                     l3421:
  2725                           
  2726                           ;C:\Program Files\Microchip\xc8\v2.36\pic\sources\c90\common\doprnt.c: 1201:     {;C:\Pr
      +                          ogram Files\Microchip\xc8\v2.36\pic\sources\c90\common\doprnt.c: 1214:     if(flag & 0x0
      +                          3)
  2727  0573  3003               	movlw	3
  2728  0574  052F               	andwf	sprintf@flag^(0+128),w
  2729  0575  00A5               	movwf	??_sprintf^(0+128)
  2730  0576  3000               	movlw	0
  2731  0577  0530               	andwf	(sprintf@flag+1)^(0+128),w
  2732  0578  00A6               	movwf	(??_sprintf+1)^(0+128)
  2733  0579  0825               	movf	??_sprintf^(0+128),w
  2734  057A  0426               	iorwf	(??_sprintf^(0+128)+1),w
  2735  057B  1903               	btfsc	3,2
  2736  057C  2D7E               	goto	u5531
  2737  057D  2D7F               	goto	u5530
  2738  057E                     u5531:
  2739  057E  2DF1               	goto	l279
  2740  057F                     u5530:
  2741  057F                     l3423:
  2742                           
  2743                           ;C:\Program Files\Microchip\xc8\v2.36\pic\sources\c90\common\doprnt.c: 1216:      ((*sp+
      +                          + = ('-')));
  2744  057F  302D               	movlw	45
  2745  0580  00A5               	movwf	??_sprintf^(0+128)
  2746  0581  083B               	movf	sprintf@sp^(0+128),w
  2747  0582  0084               	movwf	4
  2748  0583  0825               	movf	??_sprintf^(0+128),w
  2749  0584  1383               	bcf	3,7	;select IRP bank0
  2750  0585  0080               	movwf	0
  2751  0586                     l3425:
  2752  0586  3001               	movlw	1
  2753  0587  00A5               	movwf	??_sprintf^(0+128)
  2754  0588  0825               	movf	??_sprintf^(0+128),w
  2755  0589  07BB               	addwf	sprintf@sp^(0+128),f
  2756  058A  2DF1               	goto	l279
  2757  058B                     l3427:
  2758                           
  2759                           ;C:\Program Files\Microchip\xc8\v2.36\pic\sources\c90\common\doprnt.c: 1226:     {;C:\Pr
      +                          ogram Files\Microchip\xc8\v2.36\pic\sources\c90\common\doprnt.c: 1227:      tmpval.vd = 
      +                          val/dpowers[c];
  2760  058B  0842               	movf	sprintf@c^(0+128),w
  2761  058C  00A5               	movwf	??_sprintf^(0+128)
  2762  058D  3001               	movlw	1
  2763  058E                     u5545:
  2764  058E  1003               	clrc
  2765  058F  0DA5               	rlf	??_sprintf^(0+128),f
  2766  0590  3EFF               	addlw	-1
  2767  0591  1D03               	skipz
  2768  0592  2D8E               	goto	u5545
  2769  0593  1003               	clrc
  2770  0594  0D25               	rlf	??_sprintf^(0+128),w
  2771  0595  3E69               	addlw	low ((_dpowers-__stringbase)| (0+32768))
  2772  0596  0084               	movwf	4
  2773  0597  160A  118A  200A  120A  118A  	fcall	stringdir
  2774  059C  00F0               	movwf	___lldiv@divisor
  2775  059D  160A  118A  200A  120A  118A  	fcall	stringdir
  2776  05A2  00F1               	movwf	___lldiv@divisor+1
  2777  05A3  160A  118A  200A  120A  118A  	fcall	stringdir
  2778  05A8  00F2               	movwf	___lldiv@divisor+2
  2779  05A9  160A  118A  200A  120A  118A  	fcall	stringdir
  2780  05AE  00F3               	movwf	___lldiv@divisor+3
  2781  05AF  0834               	movf	(sprintf@val+3)^(0+128),w
  2782  05B0  00F7               	movwf	___lldiv@dividend+3
  2783  05B1  0833               	movf	(sprintf@val+2)^(0+128),w
  2784  05B2  00F6               	movwf	___lldiv@dividend+2
  2785  05B3  0832               	movf	(sprintf@val+1)^(0+128),w
  2786  05B4  00F5               	movwf	___lldiv@dividend+1
  2787  05B5  0831               	movf	sprintf@val^(0+128),w
  2788  05B6  00F4               	movwf	___lldiv@dividend
  2789  05B7  160A  158A  263D  120A  118A  	fcall	___lldiv
  2790  05BC  0873               	movf	?___lldiv+3,w
  2791  05BD  1683               	bsf	3,5	;RP0=1, select bank1
  2792  05BE  1303               	bcf	3,6	;RP1=0, select bank1
  2793  05BF  00BA               	movwf	(sprintf@tmpval+3)^(0+128)
  2794  05C0  0872               	movf	?___lldiv+2,w
  2795  05C1  00B9               	movwf	(sprintf@tmpval+2)^(0+128)
  2796  05C2  0871               	movf	?___lldiv+1,w
  2797  05C3  00B8               	movwf	(sprintf@tmpval+1)^(0+128)
  2798  05C4  0870               	movf	?___lldiv,w
  2799  05C5  00B7               	movwf	sprintf@tmpval^(0+128)
  2800  05C6                     l3429:
  2801                           
  2802                           ;C:\Program Files\Microchip\xc8\v2.36\pic\sources\c90\common\doprnt.c: 1228:      tmpval
      +                          .vd %= 10;
  2803  05C6  3000               	movlw	0
  2804  05C7  00F3               	movwf	___llmod@divisor+3
  2805  05C8  3000               	movlw	0
  2806  05C9  00F2               	movwf	___llmod@divisor+2
  2807  05CA  3000               	movlw	0
  2808  05CB  00F1               	movwf	___llmod@divisor+1
  2809  05CC  300A               	movlw	10
  2810  05CD  00F0               	movwf	___llmod@divisor
  2811  05CE  083A               	movf	(sprintf@tmpval+3)^(0+128),w
  2812  05CF  00F7               	movwf	___llmod@dividend+3
  2813  05D0  0839               	movf	(sprintf@tmpval+2)^(0+128),w
  2814  05D1  00F6               	movwf	___llmod@dividend+2
  2815  05D2  0838               	movf	(sprintf@tmpval+1)^(0+128),w
  2816  05D3  00F5               	movwf	___llmod@dividend+1
  2817  05D4  0837               	movf	sprintf@tmpval^(0+128),w
  2818  05D5  00F4               	movwf	___llmod@dividend
  2819  05D6  160A  158A  24D5  120A  118A  	fcall	___llmod
  2820  05DB  0873               	movf	?___llmod+3,w
  2821  05DC  1683               	bsf	3,5	;RP0=1, select bank1
  2822  05DD  1303               	bcf	3,6	;RP1=0, select bank1
  2823  05DE  00BA               	movwf	(sprintf@tmpval+3)^(0+128)
  2824  05DF  0872               	movf	?___llmod+2,w
  2825  05E0  00B9               	movwf	(sprintf@tmpval+2)^(0+128)
  2826  05E1  0871               	movf	?___llmod+1,w
  2827  05E2  00B8               	movwf	(sprintf@tmpval+1)^(0+128)
  2828  05E3  0870               	movf	?___llmod,w
  2829  05E4  00B7               	movwf	sprintf@tmpval^(0+128)
  2830  05E5                     l3431:
  2831                           
  2832                           ;C:\Program Files\Microchip\xc8\v2.36\pic\sources\c90\common\doprnt.c: 1229:      ((*sp+
      +                          + = ('0' + tmpval.vd)));
  2833  05E5  0837               	movf	sprintf@tmpval^(0+128),w
  2834  05E6  3E30               	addlw	48
  2835  05E7  00A5               	movwf	??_sprintf^(0+128)
  2836  05E8  083B               	movf	sprintf@sp^(0+128),w
  2837  05E9  0084               	movwf	4
  2838  05EA  0825               	movf	??_sprintf^(0+128),w
  2839  05EB  1383               	bcf	3,7	;select IRP bank0
  2840  05EC  0080               	movwf	0
  2841  05ED  3001               	movlw	1
  2842  05EE  00A5               	movwf	??_sprintf^(0+128)
  2843  05EF  0825               	movf	??_sprintf^(0+128),w
  2844  05F0  07BB               	addwf	sprintf@sp^(0+128),f
  2845  05F1                     l279:	
  2846                           ;C:\Program Files\Microchip\xc8\v2.36\pic\sources\c90\common\doprnt.c: 1230:     };C:\Pr
      +                          ogram Files\Microchip\xc8\v2.36\pic\sources\c90\common\doprnt.c: 1232:    }
  2847                           
  2848                           
  2849                           ;C:\Program Files\Microchip\xc8\v2.36\pic\sources\c90\common\doprnt.c: 1222:    while(c-
      +                          -) {
  2850  05F1  3001               	movlw	1
  2851  05F2  02C2               	subwf	sprintf@c^(0+128),f
  2852  05F3  0A42               	incf	sprintf@c^(0+128),w
  2853  05F4  1D03               	btfss	3,2
  2854  05F5  2DF7               	goto	u5551
  2855  05F6  2DF8               	goto	u5550
  2856  05F7                     u5551:
  2857  05F7  2D8B               	goto	l3427
  2858  05F8                     u5550:
  2859  05F8  2E0C               	goto	l3439
  2860  05F9                     l3433:
  2861                           
  2862                           ;C:\Program Files\Microchip\xc8\v2.36\pic\sources\c90\common\doprnt.c: 1234:     ((*sp++
      +                           = ('0')));
  2863  05F9  3030               	movlw	48
  2864  05FA  1683               	bsf	3,5	;RP0=1, select bank1
  2865  05FB  1303               	bcf	3,6	;RP1=0, select bank1
  2866  05FC  00A5               	movwf	??_sprintf^(0+128)
  2867  05FD  083B               	movf	sprintf@sp^(0+128),w
  2868  05FE  0084               	movwf	4
  2869  05FF  0825               	movf	??_sprintf^(0+128),w
  2870  0600  1383               	bcf	3,7	;select IRP bank0
  2871  0601  0080               	movwf	0
  2872  0602                     l3435:
  2873  0602  3001               	movlw	1
  2874  0603  00A5               	movwf	??_sprintf^(0+128)
  2875  0604  0825               	movf	??_sprintf^(0+128),w
  2876  0605  07BB               	addwf	sprintf@sp^(0+128),f
  2877  0606                     l3437:
  2878                           
  2879                           ;C:\Program Files\Microchip\xc8\v2.36\pic\sources\c90\common\doprnt.c: 1235:     eexp--;
  2880  0606  30FF               	movlw	255
  2881  0607  07B5               	addwf	sprintf@eexp^(0+128),f
  2882  0608  1803               	skipnc
  2883  0609  0AB6               	incf	(sprintf@eexp+1)^(0+128),f
  2884  060A  30FF               	movlw	255
  2885  060B  07B6               	addwf	(sprintf@eexp+1)^(0+128),f
  2886  060C                     l3439:
  2887                           
  2888                           ;C:\Program Files\Microchip\xc8\v2.36\pic\sources\c90\common\doprnt.c: 1233:    while(ee
      +                          xp > 0) {
  2889  060C  0836               	movf	(sprintf@eexp+1)^(0+128),w
  2890  060D  3A80               	xorlw	128
  2891  060E  00FF               	movwf	btemp+1
  2892  060F  3080               	movlw	128
  2893  0610  027F               	subwf	btemp+1,w
  2894  0611  1D03               	skipz
  2895  0612  2E15               	goto	u5565
  2896  0613  3001               	movlw	1
  2897  0614  0235               	subwf	sprintf@eexp^(0+128),w
  2898  0615                     u5565:
  2899  0615  1803               	skipnc
  2900  0616  2E18               	goto	u5561
  2901  0617  2E19               	goto	u5560
  2902  0618                     u5561:
  2903  0618  2DF9               	goto	l3433
  2904  0619                     u5560:
  2905  0619                     l3441:
  2906                           
  2907                           ;C:\Program Files\Microchip\xc8\v2.36\pic\sources\c90\common\doprnt.c: 1237:    if(prec 
      +                          > (int)((sizeof dpowers/sizeof dpowers[0])-2))
  2908  0619  1683               	bsf	3,5	;RP0=1, select bank1
  2909  061A  1303               	bcf	3,6	;RP1=0, select bank1
  2910  061B  083D               	movf	(sprintf@prec+1)^(0+128),w
  2911  061C  3A80               	xorlw	128
  2912  061D  00FF               	movwf	btemp+1
  2913  061E  3080               	movlw	128
  2914  061F  027F               	subwf	btemp+1,w
  2915  0620  1D03               	skipz
  2916  0621  2E24               	goto	u5575
  2917  0622  3009               	movlw	9
  2918  0623  023C               	subwf	sprintf@prec^(0+128),w
  2919  0624                     u5575:
  2920  0624  1C03               	skipc
  2921  0625  2E27               	goto	u5571
  2922  0626  2E28               	goto	u5570
  2923  0627                     u5571:
  2924  0627  2E2F               	goto	l3445
  2925  0628                     u5570:
  2926  0628                     l3443:
  2927                           
  2928                           ;C:\Program Files\Microchip\xc8\v2.36\pic\sources\c90\common\doprnt.c: 1238:     c = (si
      +                          zeof dpowers/sizeof dpowers[0])-2;
  2929  0628  3008               	movlw	8
  2930  0629  1683               	bsf	3,5	;RP0=1, select bank1
  2931  062A  1303               	bcf	3,6	;RP1=0, select bank1
  2932  062B  00A5               	movwf	??_sprintf^(0+128)
  2933  062C  0825               	movf	??_sprintf^(0+128),w
  2934  062D  00C2               	movwf	sprintf@c^(0+128)
  2935  062E  2E35               	goto	l286
  2936  062F                     l3445:
  2937                           
  2938                           ;C:\Program Files\Microchip\xc8\v2.36\pic\sources\c90\common\doprnt.c: 1240:     c = (ch
      +                          ar)prec;
  2939  062F  1683               	bsf	3,5	;RP0=1, select bank1
  2940  0630  1303               	bcf	3,6	;RP1=0, select bank1
  2941  0631  083C               	movf	sprintf@prec^(0+128),w
  2942  0632  00A5               	movwf	??_sprintf^(0+128)
  2943  0633  0825               	movf	??_sprintf^(0+128),w
  2944  0634  00C2               	movwf	sprintf@c^(0+128)
  2945  0635                     l286:
  2946                           
  2947                           ;C:\Program Files\Microchip\xc8\v2.36\pic\sources\c90\common\doprnt.c: 1241:    prec -= 
      +                          (int)c;
  2948  0635  0842               	movf	sprintf@c^(0+128),w
  2949  0636  00A5               	movwf	??_sprintf^(0+128)
  2950  0637  01A6               	clrf	(??_sprintf^(0+128)+1)
  2951  0638  0825               	movf	??_sprintf^(0+128),w
  2952  0639  02BC               	subwf	sprintf@prec^(0+128),f
  2953  063A  0826               	movf	(??_sprintf+1)^(0+128),w
  2954  063B  1C03               	skipc
  2955  063C  03BD               	decf	(sprintf@prec+1)^(0+128),f
  2956  063D  02BD               	subwf	(sprintf@prec+1)^(0+128),f
  2957  063E                     l3447:
  2958                           
  2959                           ;C:\Program Files\Microchip\xc8\v2.36\pic\sources\c90\common\doprnt.c: 1245:    if(c)
  2960  063E  0842               	movf	sprintf@c^(0+128),w
  2961  063F  1903               	btfsc	3,2
  2962  0640  2E42               	goto	u5581
  2963  0641  2E43               	goto	u5580
  2964  0642                     u5581:
  2965  0642  2E4E               	goto	l3453
  2966  0643                     u5580:
  2967  0643                     l3449:
  2968                           
  2969                           ;C:\Program Files\Microchip\xc8\v2.36\pic\sources\c90\common\doprnt.c: 1247:     ((*sp++
      +                           = ('.')));
  2970  0643  302E               	movlw	46
  2971  0644  00A5               	movwf	??_sprintf^(0+128)
  2972  0645  083B               	movf	sprintf@sp^(0+128),w
  2973  0646  0084               	movwf	4
  2974  0647  0825               	movf	??_sprintf^(0+128),w
  2975  0648  1383               	bcf	3,7	;select IRP bank0
  2976  0649  0080               	movwf	0
  2977  064A                     l3451:
  2978  064A  3001               	movlw	1
  2979  064B  00A5               	movwf	??_sprintf^(0+128)
  2980  064C  0825               	movf	??_sprintf^(0+128),w
  2981  064D  07BB               	addwf	sprintf@sp^(0+128),f
  2982  064E                     l3453:
  2983                           
  2984                           ;C:\Program Files\Microchip\xc8\v2.36\pic\sources\c90\common\doprnt.c: 1253:    val = (u
      +                          nsigned long)(fval * scale((signed char)c));
  2985  064E  0842               	movf	sprintf@c^(0+128),w
  2986  064F  120A  158A  2140  120A  118A  	fcall	_scale
  2987  0654  1283               	bcf	3,5	;RP0=0, select bank0
  2988  0655  1303               	bcf	3,6	;RP1=0, select bank0
  2989  0656  0841               	movf	?_scale+3,w
  2990  0657  1683               	bsf	3,5	;RP0=1, select bank1
  2991  0658  1303               	bcf	3,6	;RP1=0, select bank1
  2992  0659  00AD               	movwf	(_sprintf$939+3)^(0+128)
  2993  065A  1283               	bcf	3,5	;RP0=0, select bank0
  2994  065B  1303               	bcf	3,6	;RP1=0, select bank0
  2995  065C  0840               	movf	?_scale+2,w
  2996  065D  1683               	bsf	3,5	;RP0=1, select bank1
  2997  065E  1303               	bcf	3,6	;RP1=0, select bank1
  2998  065F  00AC               	movwf	(_sprintf$939+2)^(0+128)
  2999  0660  1283               	bcf	3,5	;RP0=0, select bank0
  3000  0661  1303               	bcf	3,6	;RP1=0, select bank0
  3001  0662  083F               	movf	?_scale+1,w
  3002  0663  1683               	bsf	3,5	;RP0=1, select bank1
  3003  0664  1303               	bcf	3,6	;RP1=0, select bank1
  3004  0665  00AB               	movwf	(_sprintf$939+1)^(0+128)
  3005  0666  1283               	bcf	3,5	;RP0=0, select bank0
  3006  0667  1303               	bcf	3,6	;RP1=0, select bank0
  3007  0668  083E               	movf	?_scale,w
  3008  0669  1683               	bsf	3,5	;RP0=1, select bank1
  3009  066A  1303               	bcf	3,6	;RP1=0, select bank1
  3010  066B  00AA               	movwf	_sprintf$939^(0+128)
  3011  066C                     l3455:
  3012                           
  3013                           ;C:\Program Files\Microchip\xc8\v2.36\pic\sources\c90\common\doprnt.c: 1253:    val = (u
      +                          nsigned long)(fval * scale((signed char)c));
  3014  066C  082D               	movf	(_sprintf$939+3)^(0+128),w
  3015  066D  1283               	bcf	3,5	;RP0=0, select bank0
  3016  066E  1303               	bcf	3,6	;RP1=0, select bank0
  3017  066F  00AB               	movwf	___flmul@a+3
  3018  0670  1683               	bsf	3,5	;RP0=1, select bank1
  3019  0671  1303               	bcf	3,6	;RP1=0, select bank1
  3020  0672  082C               	movf	(_sprintf$939+2)^(0+128),w
  3021  0673  1283               	bcf	3,5	;RP0=0, select bank0
  3022  0674  1303               	bcf	3,6	;RP1=0, select bank0
  3023  0675  00AA               	movwf	___flmul@a+2
  3024  0676  1683               	bsf	3,5	;RP0=1, select bank1
  3025  0677  1303               	bcf	3,6	;RP1=0, select bank1
  3026  0678  082B               	movf	(_sprintf$939+1)^(0+128),w
  3027  0679  1283               	bcf	3,5	;RP0=0, select bank0
  3028  067A  1303               	bcf	3,6	;RP1=0, select bank0
  3029  067B  00A9               	movwf	___flmul@a+1
  3030  067C  1683               	bsf	3,5	;RP0=1, select bank1
  3031  067D  1303               	bcf	3,6	;RP1=0, select bank1
  3032  067E  082A               	movf	_sprintf$939^(0+128),w
  3033  067F  1283               	bcf	3,5	;RP0=0, select bank0
  3034  0680  1303               	bcf	3,6	;RP1=0, select bank0
  3035  0681  00A8               	movwf	___flmul@a
  3036  0682  1683               	bsf	3,5	;RP0=1, select bank1
  3037  0683  1303               	bcf	3,6	;RP1=0, select bank1
  3038  0684  0841               	movf	(sprintf@fval+3)^(0+128),w
  3039  0685  1283               	bcf	3,5	;RP0=0, select bank0
  3040  0686  1303               	bcf	3,6	;RP1=0, select bank0
  3041  0687  00A7               	movwf	___flmul@b+3
  3042  0688  1683               	bsf	3,5	;RP0=1, select bank1
  3043  0689  1303               	bcf	3,6	;RP1=0, select bank1
  3044  068A  0840               	movf	(sprintf@fval+2)^(0+128),w
  3045  068B  1283               	bcf	3,5	;RP0=0, select bank0
  3046  068C  1303               	bcf	3,6	;RP1=0, select bank0
  3047  068D  00A6               	movwf	___flmul@b+2
  3048  068E  1683               	bsf	3,5	;RP0=1, select bank1
  3049  068F  1303               	bcf	3,6	;RP1=0, select bank1
  3050  0690  083F               	movf	(sprintf@fval+1)^(0+128),w
  3051  0691  1283               	bcf	3,5	;RP0=0, select bank0
  3052  0692  1303               	bcf	3,6	;RP1=0, select bank0
  3053  0693  00A5               	movwf	___flmul@b+1
  3054  0694  1683               	bsf	3,5	;RP0=1, select bank1
  3055  0695  1303               	bcf	3,6	;RP1=0, select bank1
  3056  0696  083E               	movf	sprintf@fval^(0+128),w
  3057  0697  1283               	bcf	3,5	;RP0=0, select bank0
  3058  0698  1303               	bcf	3,6	;RP1=0, select bank0
  3059  0699  00A4               	movwf	___flmul@b
  3060  069A  120A  158A  249F  120A  118A  	fcall	___flmul
  3061  069F  1283               	bcf	3,5	;RP0=0, select bank0
  3062  06A0  1303               	bcf	3,6	;RP1=0, select bank0
  3063  06A1  0827               	movf	?___flmul+3,w
  3064  06A2  00D4               	movwf	___fltol@f1+3
  3065  06A3  0826               	movf	?___flmul+2,w
  3066  06A4  00D3               	movwf	___fltol@f1+2
  3067  06A5  0825               	movf	?___flmul+1,w
  3068  06A6  00D2               	movwf	___fltol@f1+1
  3069  06A7  0824               	movf	?___flmul,w
  3070  06A8  00D1               	movwf	___fltol@f1
  3071  06A9  160A  158A  2784  120A  118A  	fcall	___fltol
  3072  06AE  1283               	bcf	3,5	;RP0=0, select bank0
  3073  06AF  1303               	bcf	3,6	;RP1=0, select bank0
  3074  06B0  0854               	movf	?___fltol+3,w
  3075  06B1  1683               	bsf	3,5	;RP0=1, select bank1
  3076  06B2  1303               	bcf	3,6	;RP1=0, select bank1
  3077  06B3  00B4               	movwf	(sprintf@val+3)^(0+128)
  3078  06B4  1283               	bcf	3,5	;RP0=0, select bank0
  3079  06B5  1303               	bcf	3,6	;RP1=0, select bank0
  3080  06B6  0853               	movf	?___fltol+2,w
  3081  06B7  1683               	bsf	3,5	;RP0=1, select bank1
  3082  06B8  1303               	bcf	3,6	;RP1=0, select bank1
  3083  06B9  00B3               	movwf	(sprintf@val+2)^(0+128)
  3084  06BA  1283               	bcf	3,5	;RP0=0, select bank0
  3085  06BB  1303               	bcf	3,6	;RP1=0, select bank0
  3086  06BC  0852               	movf	?___fltol+1,w
  3087  06BD  1683               	bsf	3,5	;RP0=1, select bank1
  3088  06BE  1303               	bcf	3,6	;RP1=0, select bank1
  3089  06BF  00B2               	movwf	(sprintf@val+1)^(0+128)
  3090  06C0  1283               	bcf	3,5	;RP0=0, select bank0
  3091  06C1  1303               	bcf	3,6	;RP1=0, select bank0
  3092  06C2  0851               	movf	?___fltol,w
  3093  06C3  1683               	bsf	3,5	;RP0=1, select bank1
  3094  06C4  1303               	bcf	3,6	;RP1=0, select bank1
  3095  06C5  00B1               	movwf	sprintf@val^(0+128)
  3096                           
  3097                           ;C:\Program Files\Microchip\xc8\v2.36\pic\sources\c90\common\doprnt.c: 1254:    while(c-
      +                          -) {
  3098  06C6  2F68               	goto	l3465
  3099  06C7                     l3457:
  3100                           
  3101                           ;C:\Program Files\Microchip\xc8\v2.36\pic\sources\c90\common\doprnt.c: 1255:     tmpval.
      +                          vd = val/dpowers[c];
  3102  06C7  0842               	movf	sprintf@c^(0+128),w
  3103  06C8  00A5               	movwf	??_sprintf^(0+128)
  3104  06C9  3001               	movlw	1
  3105  06CA                     u5595:
  3106  06CA  1003               	clrc
  3107  06CB  0DA5               	rlf	??_sprintf^(0+128),f
  3108  06CC  3EFF               	addlw	-1
  3109  06CD  1D03               	skipz
  3110  06CE  2ECA               	goto	u5595
  3111  06CF  1003               	clrc
  3112  06D0  0D25               	rlf	??_sprintf^(0+128),w
  3113  06D1  3E69               	addlw	low ((_dpowers-__stringbase)| (0+32768))
  3114  06D2  0084               	movwf	4
  3115  06D3  160A  118A  200A  120A  118A  	fcall	stringdir
  3116  06D8  00F0               	movwf	___lldiv@divisor
  3117  06D9  160A  118A  200A  120A  118A  	fcall	stringdir
  3118  06DE  00F1               	movwf	___lldiv@divisor+1
  3119  06DF  160A  118A  200A  120A  118A  	fcall	stringdir
  3120  06E4  00F2               	movwf	___lldiv@divisor+2
  3121  06E5  160A  118A  200A  120A  118A  	fcall	stringdir
  3122  06EA  00F3               	movwf	___lldiv@divisor+3
  3123  06EB  0834               	movf	(sprintf@val+3)^(0+128),w
  3124  06EC  00F7               	movwf	___lldiv@dividend+3
  3125  06ED  0833               	movf	(sprintf@val+2)^(0+128),w
  3126  06EE  00F6               	movwf	___lldiv@dividend+2
  3127  06EF  0832               	movf	(sprintf@val+1)^(0+128),w
  3128  06F0  00F5               	movwf	___lldiv@dividend+1
  3129  06F1  0831               	movf	sprintf@val^(0+128),w
  3130  06F2  00F4               	movwf	___lldiv@dividend
  3131  06F3  160A  158A  263D  120A  118A  	fcall	___lldiv
  3132  06F8  0873               	movf	?___lldiv+3,w
  3133  06F9  1683               	bsf	3,5	;RP0=1, select bank1
  3134  06FA  1303               	bcf	3,6	;RP1=0, select bank1
  3135  06FB  00BA               	movwf	(sprintf@tmpval+3)^(0+128)
  3136  06FC  0872               	movf	?___lldiv+2,w
  3137  06FD  00B9               	movwf	(sprintf@tmpval+2)^(0+128)
  3138  06FE  0871               	movf	?___lldiv+1,w
  3139  06FF  00B8               	movwf	(sprintf@tmpval+1)^(0+128)
  3140  0700  0870               	movf	?___lldiv,w
  3141  0701  00B7               	movwf	sprintf@tmpval^(0+128)
  3142  0702                     l3459:
  3143                           
  3144                           ;C:\Program Files\Microchip\xc8\v2.36\pic\sources\c90\common\doprnt.c: 1256:     tmpval.
      +                          vd %= 10;
  3145  0702  3000               	movlw	0
  3146  0703  00F3               	movwf	___llmod@divisor+3
  3147  0704  3000               	movlw	0
  3148  0705  00F2               	movwf	___llmod@divisor+2
  3149  0706  3000               	movlw	0
  3150  0707  00F1               	movwf	___llmod@divisor+1
  3151  0708  300A               	movlw	10
  3152  0709  00F0               	movwf	___llmod@divisor
  3153  070A  083A               	movf	(sprintf@tmpval+3)^(0+128),w
  3154  070B  00F7               	movwf	___llmod@dividend+3
  3155  070C  0839               	movf	(sprintf@tmpval+2)^(0+128),w
  3156  070D  00F6               	movwf	___llmod@dividend+2
  3157  070E  0838               	movf	(sprintf@tmpval+1)^(0+128),w
  3158  070F  00F5               	movwf	___llmod@dividend+1
  3159  0710  0837               	movf	sprintf@tmpval^(0+128),w
  3160  0711  00F4               	movwf	___llmod@dividend
  3161  0712  160A  158A  24D5  120A  118A  	fcall	___llmod
  3162  0717  0873               	movf	?___llmod+3,w
  3163  0718  1683               	bsf	3,5	;RP0=1, select bank1
  3164  0719  1303               	bcf	3,6	;RP1=0, select bank1
  3165  071A  00BA               	movwf	(sprintf@tmpval+3)^(0+128)
  3166  071B  0872               	movf	?___llmod+2,w
  3167  071C  00B9               	movwf	(sprintf@tmpval+2)^(0+128)
  3168  071D  0871               	movf	?___llmod+1,w
  3169  071E  00B8               	movwf	(sprintf@tmpval+1)^(0+128)
  3170  071F  0870               	movf	?___llmod,w
  3171  0720  00B7               	movwf	sprintf@tmpval^(0+128)
  3172  0721                     l3461:
  3173                           
  3174                           ;C:\Program Files\Microchip\xc8\v2.36\pic\sources\c90\common\doprnt.c: 1257:     ((*sp++
      +                           = ('0' + tmpval.vd)));
  3175  0721  0837               	movf	sprintf@tmpval^(0+128),w
  3176  0722  3E30               	addlw	48
  3177  0723  00A5               	movwf	??_sprintf^(0+128)
  3178  0724  083B               	movf	sprintf@sp^(0+128),w
  3179  0725  0084               	movwf	4
  3180  0726  0825               	movf	??_sprintf^(0+128),w
  3181  0727  1383               	bcf	3,7	;select IRP bank0
  3182  0728  0080               	movwf	0
  3183  0729  3001               	movlw	1
  3184  072A  00A5               	movwf	??_sprintf^(0+128)
  3185  072B  0825               	movf	??_sprintf^(0+128),w
  3186  072C  07BB               	addwf	sprintf@sp^(0+128),f
  3187  072D                     l3463:
  3188                           
  3189                           ;C:\Program Files\Microchip\xc8\v2.36\pic\sources\c90\common\doprnt.c: 1258:     val %= 
      +                          dpowers[c];
  3190  072D  0842               	movf	sprintf@c^(0+128),w
  3191  072E  00A5               	movwf	??_sprintf^(0+128)
  3192  072F  3001               	movlw	1
  3193  0730                     u5605:
  3194  0730  1003               	clrc
  3195  0731  0DA5               	rlf	??_sprintf^(0+128),f
  3196  0732  3EFF               	addlw	-1
  3197  0733  1D03               	skipz
  3198  0734  2F30               	goto	u5605
  3199  0735  1003               	clrc
  3200  0736  0D25               	rlf	??_sprintf^(0+128),w
  3201  0737  3E69               	addlw	low ((_dpowers-__stringbase)| (0+32768))
  3202  0738  0084               	movwf	4
  3203  0739  160A  118A  200A  120A  118A  	fcall	stringdir
  3204  073E  00F0               	movwf	___llmod@divisor
  3205  073F  160A  118A  200A  120A  118A  	fcall	stringdir
  3206  0744  00F1               	movwf	___llmod@divisor+1
  3207  0745  160A  118A  200A  120A  118A  	fcall	stringdir
  3208  074A  00F2               	movwf	___llmod@divisor+2
  3209  074B  160A  118A  200A  120A  118A  	fcall	stringdir
  3210  0750  00F3               	movwf	___llmod@divisor+3
  3211  0751  0834               	movf	(sprintf@val+3)^(0+128),w
  3212  0752  00F7               	movwf	___llmod@dividend+3
  3213  0753  0833               	movf	(sprintf@val+2)^(0+128),w
  3214  0754  00F6               	movwf	___llmod@dividend+2
  3215  0755  0832               	movf	(sprintf@val+1)^(0+128),w
  3216  0756  00F5               	movwf	___llmod@dividend+1
  3217  0757  0831               	movf	sprintf@val^(0+128),w
  3218  0758  00F4               	movwf	___llmod@dividend
  3219  0759  160A  158A  24D5  120A  118A  	fcall	___llmod
  3220  075E  0873               	movf	?___llmod+3,w
  3221  075F  1683               	bsf	3,5	;RP0=1, select bank1
  3222  0760  1303               	bcf	3,6	;RP1=0, select bank1
  3223  0761  00B4               	movwf	(sprintf@val+3)^(0+128)
  3224  0762  0872               	movf	?___llmod+2,w
  3225  0763  00B3               	movwf	(sprintf@val+2)^(0+128)
  3226  0764  0871               	movf	?___llmod+1,w
  3227  0765  00B2               	movwf	(sprintf@val+1)^(0+128)
  3228  0766  0870               	movf	?___llmod,w
  3229  0767  00B1               	movwf	sprintf@val^(0+128)
  3230  0768                     l3465:
  3231                           
  3232                           ;C:\Program Files\Microchip\xc8\v2.36\pic\sources\c90\common\doprnt.c: 1254:    while(c-
      +                          -) {
  3233  0768  3001               	movlw	1
  3234  0769  02C2               	subwf	sprintf@c^(0+128),f
  3235  076A  0A42               	incf	sprintf@c^(0+128),w
  3236  076B  1D03               	btfss	3,2
  3237  076C  2F6E               	goto	u5611
  3238  076D  2F6F               	goto	u5610
  3239  076E                     u5611:
  3240  076E  2EC7               	goto	l3457
  3241  076F                     u5610:
  3242  076F  2F81               	goto	l3473
  3243  0770                     l3467:
  3244                           
  3245                           ;C:\Program Files\Microchip\xc8\v2.36\pic\sources\c90\common\doprnt.c: 1262:     ((*sp++
      +                           = ('0')));
  3246  0770  3030               	movlw	48
  3247  0771  00A5               	movwf	??_sprintf^(0+128)
  3248  0772  083B               	movf	sprintf@sp^(0+128),w
  3249  0773  0084               	movwf	4
  3250  0774  0825               	movf	??_sprintf^(0+128),w
  3251  0775  1383               	bcf	3,7	;select IRP bank0
  3252  0776  0080               	movwf	0
  3253  0777                     l3469:
  3254  0777  3001               	movlw	1
  3255  0778  00A5               	movwf	??_sprintf^(0+128)
  3256  0779  0825               	movf	??_sprintf^(0+128),w
  3257  077A  07BB               	addwf	sprintf@sp^(0+128),f
  3258  077B                     l3471:
  3259                           
  3260                           ;C:\Program Files\Microchip\xc8\v2.36\pic\sources\c90\common\doprnt.c: 1263:     prec--;
  3261  077B  30FF               	movlw	255
  3262  077C  07BC               	addwf	sprintf@prec^(0+128),f
  3263  077D  1803               	skipnc
  3264  077E  0ABD               	incf	(sprintf@prec+1)^(0+128),f
  3265  077F  30FF               	movlw	255
  3266  0780  07BD               	addwf	(sprintf@prec+1)^(0+128),f
  3267  0781                     l3473:
  3268                           
  3269                           ;C:\Program Files\Microchip\xc8\v2.36\pic\sources\c90\common\doprnt.c: 1261:    while(pr
      +                          ec) {
  3270  0781  083C               	movf	sprintf@prec^(0+128),w
  3271  0782  043D               	iorwf	(sprintf@prec+1)^(0+128),w
  3272  0783  1D03               	btfss	3,2
  3273  0784  2F86               	goto	u5621
  3274  0785  2F87               	goto	u5620
  3275  0786                     u5621:
  3276  0786  2F70               	goto	l3467
  3277  0787                     u5620:
  3278  0787  2FCD               	goto	l3493
  3279  0788                     l3475:
  3280                           
  3281                           ;C:\Program Files\Microchip\xc8\v2.36\pic\sources\c90\common\doprnt.c: 1316:   if(prec =
      +                          = 0 && val == 0)
  3282  0788  083C               	movf	sprintf@prec^(0+128),w
  3283  0789  043D               	iorwf	(sprintf@prec+1)^(0+128),w
  3284  078A  1D03               	btfss	3,2
  3285  078B  2F8D               	goto	u5631
  3286  078C  2F8E               	goto	u5630
  3287  078D                     u5631:
  3288  078D  2F9C               	goto	l294
  3289  078E                     u5630:
  3290  078E                     l3477:
  3291  078E  0834               	movf	(sprintf@val+3)^(0+128),w
  3292  078F  0433               	iorwf	(sprintf@val+2)^(0+128),w
  3293  0790  0432               	iorwf	(sprintf@val+1)^(0+128),w
  3294  0791  0431               	iorwf	sprintf@val^(0+128),w
  3295  0792  1D03               	skipz
  3296  0793  2F95               	goto	u5641
  3297  0794  2F96               	goto	u5640
  3298  0795                     u5641:
  3299  0795  2F9C               	goto	l294
  3300  0796                     u5640:
  3301  0796                     l3479:
  3302                           
  3303                           ;C:\Program Files\Microchip\xc8\v2.36\pic\sources\c90\common\doprnt.c: 1317:    prec++;
  3304  0796  3001               	movlw	1
  3305  0797  07BC               	addwf	sprintf@prec^(0+128),f
  3306  0798  1803               	skipnc
  3307  0799  0ABD               	incf	(sprintf@prec+1)^(0+128),f
  3308  079A  3000               	movlw	0
  3309  079B  07BD               	addwf	(sprintf@prec+1)^(0+128),f
  3310  079C                     l294:
  3311                           
  3312                           ;C:\Program Files\Microchip\xc8\v2.36\pic\sources\c90\common\doprnt.c: 1365:   if(c < pr
      +                          ec)
  3313  079C  083D               	movf	(sprintf@prec+1)^(0+128),w
  3314  079D  3A80               	xorlw	128
  3315  079E  3C80               	sublw	128
  3316  079F  1D03               	skipz
  3317  07A0  2FA3               	goto	u5655
  3318  07A1  083C               	movf	sprintf@prec^(0+128),w
  3319  07A2  0242               	subwf	sprintf@c^(0+128),w
  3320  07A3                     u5655:
  3321  07A3  1803               	skipnc
  3322  07A4  2FA6               	goto	u5651
  3323  07A5  2FA7               	goto	u5650
  3324  07A6                     u5651:
  3325  07A6  2FA8               	goto	l3483
  3326  07A7                     u5650:
  3327  07A7                     l3481:
  3328  07A7  2FB7               	goto	l3487
  3329  07A8                     l3483:
  3330  07A8  1683               	bsf	3,5	;RP0=1, select bank1
  3331  07A9  1303               	bcf	3,6	;RP1=0, select bank1
  3332  07AA  083D               	movf	(sprintf@prec+1)^(0+128),w
  3333  07AB  3A80               	xorlw	128
  3334  07AC  00A5               	movwf	??_sprintf^(0+128)
  3335  07AD  3080               	movlw	128
  3336  07AE  0225               	subwf	??_sprintf^(0+128),w
  3337  07AF  1D03               	skipz
  3338  07B0  2FB3               	goto	u5665
  3339  07B1  0842               	movf	sprintf@c^(0+128),w
  3340  07B2  023C               	subwf	sprintf@prec^(0+128),w
  3341  07B3                     u5665:
  3342  07B3  1803               	skipnc
  3343  07B4  2FB6               	goto	u5661
  3344  07B5  2FB7               	goto	u5660
  3345  07B6                     u5661:
  3346  07B6  2FB7               	goto	l3487
  3347  07B7                     u5660:
  3348  07B7                     l3485:
  3349  07B7                     l3487:
  3350                           
  3351                           ;C:\Program Files\Microchip\xc8\v2.36\pic\sources\c90\common\doprnt.c: 1448:   {;C:\Prog
      +                          ram Files\Microchip\xc8\v2.36\pic\sources\c90\common\doprnt.c: 1464:    if(flag & 0x03)
  3352  07B7  3003               	movlw	3
  3353  07B8  1683               	bsf	3,5	;RP0=1, select bank1
  3354  07B9  1303               	bcf	3,6	;RP1=0, select bank1
  3355  07BA  052F               	andwf	sprintf@flag^(0+128),w
  3356  07BB  00A5               	movwf	??_sprintf^(0+128)
  3357  07BC  3000               	movlw	0
  3358  07BD  0530               	andwf	(sprintf@flag+1)^(0+128),w
  3359  07BE  00A6               	movwf	(??_sprintf+1)^(0+128)
  3360  07BF  0825               	movf	??_sprintf^(0+128),w
  3361  07C0  0426               	iorwf	(??_sprintf^(0+128)+1),w
  3362  07C1  1903               	btfsc	3,2
  3363  07C2  2FC4               	goto	u5671
  3364  07C3  2FC5               	goto	u5670
  3365  07C4                     u5671:
  3366  07C4  2FCD               	goto	l3493
  3367  07C5                     u5670:
  3368  07C5                     l3489:
  3369                           
  3370                           ;C:\Program Files\Microchip\xc8\v2.36\pic\sources\c90\common\doprnt.c: 1465:     ((*sp++
      +                           = ('-')));
  3371  07C5  302D               	movlw	45
  3372  07C6  00A5               	movwf	??_sprintf^(0+128)
  3373  07C7  083B               	movf	sprintf@sp^(0+128),w
  3374  07C8  0084               	movwf	4
  3375  07C9  0825               	movf	??_sprintf^(0+128),w
  3376  07CA  1383               	bcf	3,7	;select IRP bank0
  3377  07CB  0080               	movwf	0
  3378  07CC  29A1               	goto	l3305
  3379  07CD                     l3493:
  3380                           
  3381                           ;C:\Program Files\Microchip\xc8\v2.36\pic\sources\c90\common\doprnt.c: 553:  while((c = 
      +                          *f++)) {
  3382  07CD  3001               	movlw	1
  3383  07CE  07A0               	addwf	sprintf@f^(0+128),f
  3384  07CF  30FF               	movlw	-1
  3385  07D0  0720               	addwf	sprintf@f^(0+128),w
  3386  07D1  0084               	movwf	4
  3387  07D2  160A  118A  200A  120A  118A  	fcall	stringdir
  3388  07D7  00A5               	movwf	??_sprintf^(0+128)
  3389  07D8  0825               	movf	??_sprintf^(0+128),w
  3390  07D9  00C2               	movwf	sprintf@c^(0+128)
  3391  07DA  0842               	movf	sprintf@c^(0+128),w
  3392  07DB  1D03               	btfss	3,2
  3393  07DC  2FDE               	goto	u5681
  3394  07DD  2FDF               	goto	u5680
  3395  07DE                     u5681:
  3396  07DE  2994               	goto	l3301
  3397  07DF                     u5680:
  3398  07DF                     l3495:
  3399                           
  3400                           ;C:\Program Files\Microchip\xc8\v2.36\pic\sources\c90\common\doprnt.c: 1564:  *sp = 0;
  3401  07DF  083B               	movf	sprintf@sp^(0+128),w
  3402  07E0  0084               	movwf	4
  3403  07E1  1383               	bcf	3,7	;select IRP bank0
  3404  07E2  0180               	clrf	0
  3405  07E3                     l300:
  3406  07E3  0008               	return
  3407  07E4                     __end_of_sprintf:
  3408                           
  3409                           	psect	text3
  3410  0940                     __ptext3:	
  3411 ;; *************** function _scale *****************
  3412 ;; Defined at:
  3413 ;;		line 433 in file "C:\Program Files\Microchip\xc8\v2.36\pic\sources\c90\common\doprnt.c"
  3414 ;; Parameters:    Size  Location     Type
  3415 ;;  scl             1    wreg     char 
  3416 ;; Auto vars:     Size  Location     Type
  3417 ;;  scl             1   48[BANK0 ] char 
  3418 ;; Return value:  Size  Location     Type
  3419 ;;                  4   30[BANK0 ] char 
  3420 ;; Registers used:
  3421 ;;		wreg, fsr0l, fsr0h, status,2, status,0, btemp+1, pclath, cstack
  3422 ;; Tracked objects:
  3423 ;;		On entry : 0/0
  3424 ;;		On exit  : 0/0
  3425 ;;		Unchanged: 0/0
  3426 ;; Data sizes:     COMMON   BANK0   BANK1   BANK3   BANK2
  3427 ;;      Params:         0       4       0       0       0
  3428 ;;      Locals:         0       5       0       0       0
  3429 ;;      Temps:          0      10       0       0       0
  3430 ;;      Totals:         0      19       0       0       0
  3431 ;;Total ram usage:       19 bytes
  3432 ;; Hardware stack levels used: 1
  3433 ;; Hardware stack levels required when called: 2
  3434 ;; This function calls:
  3435 ;;		___awdiv
  3436 ;;		___awmod
  3437 ;;		___flmul
  3438 ;; This function is called by:
  3439 ;;		_sprintf
  3440 ;; This function uses a non-reentrant model
  3441 ;;
  3442                           
  3443  0940                     _scale:	
  3444                           ;psect for function _scale
  3445                           
  3446                           
  3447                           ;incstack = 0
  3448                           ; Regs used in _scale: [wreg-fsr0h+status,2+status,0+btemp+1+pclath+cstack]
  3449                           ;scale@scl stored from wreg
  3450  0940  1283               	bcf	3,5	;RP0=0, select bank0
  3451  0941  1303               	bcf	3,6	;RP1=0, select bank0
  3452  0942  00D0               	movwf	scale@scl
  3453  0943                     l2929:
  3454                           
  3455                           ;C:\Program Files\Microchip\xc8\v2.36\pic\sources\c90\common\doprnt.c: 433: scale(signed
      +                           char scl);C:\Program Files\Microchip\xc8\v2.36\pic\sources\c90\common\doprnt.c: 434: {;
      +                          C:\Program Files\Microchip\xc8\v2.36\pic\sources\c90\common\doprnt.c: 436:  if(scl < 0) 
      +                          {
  3456  0943  1FD0               	btfss	scale@scl,7
  3457  0944  2946               	goto	u4351
  3458  0945  2947               	goto	u4350
  3459  0946                     u4351:
  3460  0946  2AF4               	goto	l2951
  3461  0947                     u4350:
  3462  0947                     l2931:
  3463                           
  3464                           ;C:\Program Files\Microchip\xc8\v2.36\pic\sources\c90\common\doprnt.c: 437:   scl = -scl
      +                          ;
  3465  0947  09D0               	comf	scale@scl,f
  3466  0948  0AD0               	incf	scale@scl,f
  3467  0949                     l2933:
  3468                           
  3469                           ;C:\Program Files\Microchip\xc8\v2.36\pic\sources\c90\common\doprnt.c: 438:   if(scl>=11
      +                          0)
  3470  0949  0850               	movf	scale@scl,w
  3471  094A  3A80               	xorlw	128
  3472  094B  3E12               	addlw	-238
  3473  094C  1C03               	skipc
  3474  094D  294F               	goto	u4361
  3475  094E  2950               	goto	u4360
  3476  094F                     u4361:
  3477  094F  2A38               	goto	l2941
  3478  0950                     u4360:
  3479  0950                     l2935:
  3480                           
  3481                           ;C:\Program Files\Microchip\xc8\v2.36\pic\sources\c90\common\doprnt.c: 439:    return _n
      +                          powers_[(unsigned char)(scl/100+18)] * _npowers_[(unsigned char)((scl%100)/10+9)] * _npo
      +                          wers_[(unsigned char)(scl%10)];
  3482  0950  300A               	movlw	10
  3483  0951  00F7               	movwf	___awdiv@divisor
  3484  0952  3000               	movlw	0
  3485  0953  00F8               	movwf	___awdiv@divisor+1
  3486  0954  0850               	movf	scale@scl,w
  3487  0955  00F2               	movwf	___awmod@dividend
  3488  0956  01F3               	clrf	___awmod@dividend+1
  3489  0957  1BF2               	btfsc	___awmod@dividend,7
  3490  0958  03F3               	decf	___awmod@dividend+1,f
  3491  0959  3064               	movlw	100
  3492  095A  00F0               	movwf	___awmod@divisor
  3493  095B  3000               	movlw	0
  3494  095C  00F1               	movwf	___awmod@divisor+1
  3495  095D  160A  158A  2580  120A  158A  	fcall	___awmod
  3496  0962  0871               	movf	?___awmod+1,w
  3497  0963  00FA               	movwf	___awdiv@dividend+1
  3498  0964  0870               	movf	?___awmod,w
  3499  0965  00F9               	movwf	___awdiv@dividend
  3500  0966  160A  158A  26A3  120A  158A  	fcall	___awdiv
  3501  096B  0877               	movf	?___awdiv,w
  3502  096C  1283               	bcf	3,5	;RP0=0, select bank0
  3503  096D  1303               	bcf	3,6	;RP1=0, select bank0
  3504  096E  00C2               	movwf	??_scale
  3505  096F  3001               	movlw	1
  3506  0970                     u4375:
  3507  0970  1003               	clrc
  3508  0971  0DC2               	rlf	??_scale,f
  3509  0972  3EFF               	addlw	-1
  3510  0973  1D03               	skipz
  3511  0974  2970               	goto	u4375
  3512  0975  1003               	clrc
  3513  0976  0D42               	rlf	??_scale,w
  3514  0977  3E59               	addlw	low (((__npowers_-__stringbase)| (0+32768)+36))
  3515  0978  0084               	movwf	4
  3516  0979  160A  118A  200A  120A  158A  	fcall	stringdir
  3517  097E  00C3               	movwf	??_scale+1
  3518  097F  160A  118A  200A  120A  158A  	fcall	stringdir
  3519  0984  00C4               	movwf	??_scale+2
  3520  0985  160A  118A  200A  120A  158A  	fcall	stringdir
  3521  098A  00C5               	movwf	??_scale+3
  3522  098B  160A  118A  200A  120A  158A  	fcall	stringdir
  3523  0990  00C6               	movwf	??_scale+4
  3524  0991  0846               	movf	??_scale+4,w
  3525  0992  00A7               	movwf	___flmul@b+3
  3526  0993  0845               	movf	??_scale+3,w
  3527  0994  00A6               	movwf	___flmul@b+2
  3528  0995  0844               	movf	??_scale+2,w
  3529  0996  00A5               	movwf	___flmul@b+1
  3530  0997  0843               	movf	??_scale+1,w
  3531  0998  00A4               	movwf	___flmul@b
  3532  0999  3064               	movlw	100
  3533  099A  00F7               	movwf	___awdiv@divisor
  3534  099B  3000               	movlw	0
  3535  099C  00F8               	movwf	___awdiv@divisor+1
  3536  099D  0850               	movf	scale@scl,w
  3537  099E  00F9               	movwf	___awdiv@dividend
  3538  099F  01FA               	clrf	___awdiv@dividend+1
  3539  09A0  1BF9               	btfsc	___awdiv@dividend,7
  3540  09A1  03FA               	decf	___awdiv@dividend+1,f
  3541  09A2  160A  158A  26A3  120A  158A  	fcall	___awdiv
  3542  09A7  0877               	movf	?___awdiv,w
  3543  09A8  1283               	bcf	3,5	;RP0=0, select bank0
  3544  09A9  1303               	bcf	3,6	;RP1=0, select bank0
  3545  09AA  00C7               	movwf	??_scale+5
  3546  09AB  3001               	movlw	1
  3547  09AC                     u4385:
  3548  09AC  1003               	clrc
  3549  09AD  0DC7               	rlf	??_scale+5,f
  3550  09AE  3EFF               	addlw	-1
  3551  09AF  1D03               	skipz
  3552  09B0  29AC               	goto	u4385
  3553  09B1  1003               	clrc
  3554  09B2  0D47               	rlf	??_scale+5,w
  3555  09B3  3E7D               	addlw	low (((__npowers_-__stringbase)| (0+32768)+72))
  3556  09B4  0084               	movwf	4
  3557  09B5  160A  118A  200A  120A  158A  	fcall	stringdir
  3558  09BA  00C8               	movwf	??_scale+6
  3559  09BB  160A  118A  200A  120A  158A  	fcall	stringdir
  3560  09C0  00C9               	movwf	??_scale+7
  3561  09C1  160A  118A  200A  120A  158A  	fcall	stringdir
  3562  09C6  00CA               	movwf	??_scale+8
  3563  09C7  160A  118A  200A  120A  158A  	fcall	stringdir
  3564  09CC  00CB               	movwf	??_scale+9
  3565  09CD  084B               	movf	??_scale+9,w
  3566  09CE  00AB               	movwf	___flmul@a+3
  3567  09CF  084A               	movf	??_scale+8,w
  3568  09D0  00AA               	movwf	___flmul@a+2
  3569  09D1  0849               	movf	??_scale+7,w
  3570  09D2  00A9               	movwf	___flmul@a+1
  3571  09D3  0848               	movf	??_scale+6,w
  3572  09D4  00A8               	movwf	___flmul@a
  3573  09D5  120A  158A  249F  120A  158A  	fcall	___flmul
  3574  09DA  1283               	bcf	3,5	;RP0=0, select bank0
  3575  09DB  1303               	bcf	3,6	;RP1=0, select bank0
  3576  09DC  0827               	movf	?___flmul+3,w
  3577  09DD  00CF               	movwf	_scale$938+3
  3578  09DE  0826               	movf	?___flmul+2,w
  3579  09DF  00CE               	movwf	_scale$938+2
  3580  09E0  0825               	movf	?___flmul+1,w
  3581  09E1  00CD               	movwf	_scale$938+1
  3582  09E2  0824               	movf	?___flmul,w
  3583  09E3  00CC               	movwf	_scale$938
  3584                           
  3585                           ;C:\Program Files\Microchip\xc8\v2.36\pic\sources\c90\common\doprnt.c: 439:    return _n
      +                          powers_[(unsigned char)(scl/100+18)] * _npowers_[(unsigned char)((scl%100)/10+9)] * _npo
      +                          wers_[(unsigned char)(scl%10)];
  3586  09E4  300A               	movlw	10
  3587  09E5  00F0               	movwf	___awmod@divisor
  3588  09E6  3000               	movlw	0
  3589  09E7  00F1               	movwf	___awmod@divisor+1
  3590  09E8  0850               	movf	scale@scl,w
  3591  09E9  00F2               	movwf	___awmod@dividend
  3592  09EA  01F3               	clrf	___awmod@dividend+1
  3593  09EB  1BF2               	btfsc	___awmod@dividend,7
  3594  09EC  03F3               	decf	___awmod@dividend+1,f
  3595  09ED  160A  158A  2580  120A  158A  	fcall	___awmod
  3596  09F2  0870               	movf	?___awmod,w
  3597  09F3  1283               	bcf	3,5	;RP0=0, select bank0
  3598  09F4  1303               	bcf	3,6	;RP1=0, select bank0
  3599  09F5  00C2               	movwf	??_scale
  3600  09F6  3001               	movlw	1
  3601  09F7                     u4395:
  3602  09F7  1003               	clrc
  3603  09F8  0DC2               	rlf	??_scale,f
  3604  09F9  3EFF               	addlw	-1
  3605  09FA  1D03               	skipz
  3606  09FB  29F7               	goto	u4395
  3607  09FC  1003               	clrc
  3608  09FD  0D42               	rlf	??_scale,w
  3609  09FE  3E35               	addlw	low ((__npowers_-__stringbase)| (0+32768))
  3610  09FF  0084               	movwf	4
  3611  0A00  160A  118A  200A  120A  158A  	fcall	stringdir
  3612  0A05  00C3               	movwf	??_scale+1
  3613  0A06  160A  118A  200A  120A  158A  	fcall	stringdir
  3614  0A0B  00C4               	movwf	??_scale+2
  3615  0A0C  160A  118A  200A  120A  158A  	fcall	stringdir
  3616  0A11  00C5               	movwf	??_scale+3
  3617  0A12  160A  118A  200A  120A  158A  	fcall	stringdir
  3618  0A17  00C6               	movwf	??_scale+4
  3619  0A18  0846               	movf	??_scale+4,w
  3620  0A19  00A7               	movwf	___flmul@b+3
  3621  0A1A  0845               	movf	??_scale+3,w
  3622  0A1B  00A6               	movwf	___flmul@b+2
  3623  0A1C  0844               	movf	??_scale+2,w
  3624  0A1D  00A5               	movwf	___flmul@b+1
  3625  0A1E  0843               	movf	??_scale+1,w
  3626  0A1F  00A4               	movwf	___flmul@b
  3627  0A20  084F               	movf	_scale$938+3,w
  3628  0A21  00AB               	movwf	___flmul@a+3
  3629  0A22  084E               	movf	_scale$938+2,w
  3630  0A23  00AA               	movwf	___flmul@a+2
  3631  0A24  084D               	movf	_scale$938+1,w
  3632  0A25  00A9               	movwf	___flmul@a+1
  3633  0A26  084C               	movf	_scale$938,w
  3634  0A27  00A8               	movwf	___flmul@a
  3635  0A28  120A  158A  249F  120A  158A  	fcall	___flmul
  3636  0A2D  1283               	bcf	3,5	;RP0=0, select bank0
  3637  0A2E  1303               	bcf	3,6	;RP1=0, select bank0
  3638  0A2F  0827               	movf	?___flmul+3,w
  3639  0A30  00C1               	movwf	?_scale+3
  3640  0A31  0826               	movf	?___flmul+2,w
  3641  0A32  00C0               	movwf	?_scale+2
  3642  0A33  0825               	movf	?___flmul+1,w
  3643  0A34  00BF               	movwf	?_scale+1
  3644  0A35  0824               	movf	?___flmul,w
  3645  0A36  00BE               	movwf	?_scale
  3646  0A37  2C9E               	goto	l234
  3647  0A38                     l2941:
  3648  0A38  0850               	movf	scale@scl,w
  3649  0A39  3A80               	xorlw	128
  3650  0A3A  3E75               	addlw	-139
  3651  0A3B  1C03               	skipc
  3652  0A3C  2A3E               	goto	u4401
  3653  0A3D  2A3F               	goto	u4400
  3654  0A3E                     u4401:
  3655  0A3E  2AC7               	goto	l2947
  3656  0A3F                     u4400:
  3657  0A3F                     l2943:
  3658                           
  3659                           ;C:\Program Files\Microchip\xc8\v2.36\pic\sources\c90\common\doprnt.c: 441:    return _n
      +                          powers_[(unsigned char)(scl/10+9)] * _npowers_[(unsigned char)(scl%10)];
  3660  0A3F  300A               	movlw	10
  3661  0A40  00F0               	movwf	___awmod@divisor
  3662  0A41  3000               	movlw	0
  3663  0A42  00F1               	movwf	___awmod@divisor+1
  3664  0A43  0850               	movf	scale@scl,w
  3665  0A44  00F2               	movwf	___awmod@dividend
  3666  0A45  01F3               	clrf	___awmod@dividend+1
  3667  0A46  1BF2               	btfsc	___awmod@dividend,7
  3668  0A47  03F3               	decf	___awmod@dividend+1,f
  3669  0A48  160A  158A  2580  120A  158A  	fcall	___awmod
  3670  0A4D  0870               	movf	?___awmod,w
  3671  0A4E  1283               	bcf	3,5	;RP0=0, select bank0
  3672  0A4F  1303               	bcf	3,6	;RP1=0, select bank0
  3673  0A50  00C2               	movwf	??_scale
  3674  0A51  3001               	movlw	1
  3675  0A52                     u4415:
  3676  0A52  1003               	clrc
  3677  0A53  0DC2               	rlf	??_scale,f
  3678  0A54  3EFF               	addlw	-1
  3679  0A55  1D03               	skipz
  3680  0A56  2A52               	goto	u4415
  3681  0A57  1003               	clrc
  3682  0A58  0D42               	rlf	??_scale,w
  3683  0A59  3E35               	addlw	low ((__npowers_-__stringbase)| (0+32768))
  3684  0A5A  0084               	movwf	4
  3685  0A5B  160A  118A  200A  120A  158A  	fcall	stringdir
  3686  0A60  00C3               	movwf	??_scale+1
  3687  0A61  160A  118A  200A  120A  158A  	fcall	stringdir
  3688  0A66  00C4               	movwf	??_scale+2
  3689  0A67  160A  118A  200A  120A  158A  	fcall	stringdir
  3690  0A6C  00C5               	movwf	??_scale+3
  3691  0A6D  160A  118A  200A  120A  158A  	fcall	stringdir
  3692  0A72  00C6               	movwf	??_scale+4
  3693  0A73  0846               	movf	??_scale+4,w
  3694  0A74  00A7               	movwf	___flmul@b+3
  3695  0A75  0845               	movf	??_scale+3,w
  3696  0A76  00A6               	movwf	___flmul@b+2
  3697  0A77  0844               	movf	??_scale+2,w
  3698  0A78  00A5               	movwf	___flmul@b+1
  3699  0A79  0843               	movf	??_scale+1,w
  3700  0A7A  00A4               	movwf	___flmul@b
  3701  0A7B  300A               	movlw	10
  3702  0A7C  00F7               	movwf	___awdiv@divisor
  3703  0A7D  3000               	movlw	0
  3704  0A7E  00F8               	movwf	___awdiv@divisor+1
  3705  0A7F  0850               	movf	scale@scl,w
  3706  0A80  00F9               	movwf	___awdiv@dividend
  3707  0A81  01FA               	clrf	___awdiv@dividend+1
  3708  0A82  1BF9               	btfsc	___awdiv@dividend,7
  3709  0A83  03FA               	decf	___awdiv@dividend+1,f
  3710  0A84  160A  158A  26A3  120A  158A  	fcall	___awdiv
  3711  0A89  0877               	movf	?___awdiv,w
  3712  0A8A  1283               	bcf	3,5	;RP0=0, select bank0
  3713  0A8B  1303               	bcf	3,6	;RP1=0, select bank0
  3714  0A8C  00C7               	movwf	??_scale+5
  3715  0A8D  3001               	movlw	1
  3716  0A8E                     u4425:
  3717  0A8E  1003               	clrc
  3718  0A8F  0DC7               	rlf	??_scale+5,f
  3719  0A90  3EFF               	addlw	-1
  3720  0A91  1D03               	skipz
  3721  0A92  2A8E               	goto	u4425
  3722  0A93  1003               	clrc
  3723  0A94  0D47               	rlf	??_scale+5,w
  3724  0A95  3E59               	addlw	low (((__npowers_-__stringbase)| (0+32768)+36))
  3725  0A96  0084               	movwf	4
  3726  0A97  160A  118A  200A  120A  158A  	fcall	stringdir
  3727  0A9C  00C8               	movwf	??_scale+6
  3728  0A9D  160A  118A  200A  120A  158A  	fcall	stringdir
  3729  0AA2  00C9               	movwf	??_scale+7
  3730  0AA3  160A  118A  200A  120A  158A  	fcall	stringdir
  3731  0AA8  00CA               	movwf	??_scale+8
  3732  0AA9  160A  118A  200A  120A  158A  	fcall	stringdir
  3733  0AAE  00CB               	movwf	??_scale+9
  3734  0AAF  084B               	movf	??_scale+9,w
  3735  0AB0  00AB               	movwf	___flmul@a+3
  3736  0AB1  084A               	movf	??_scale+8,w
  3737  0AB2  00AA               	movwf	___flmul@a+2
  3738  0AB3  0849               	movf	??_scale+7,w
  3739  0AB4  00A9               	movwf	___flmul@a+1
  3740  0AB5  0848               	movf	??_scale+6,w
  3741  0AB6  00A8               	movwf	___flmul@a
  3742  0AB7  120A  158A  249F  120A  158A  	fcall	___flmul
  3743  0ABC  1283               	bcf	3,5	;RP0=0, select bank0
  3744  0ABD  1303               	bcf	3,6	;RP1=0, select bank0
  3745  0ABE  0827               	movf	?___flmul+3,w
  3746  0ABF  00C1               	movwf	?_scale+3
  3747  0AC0  0826               	movf	?___flmul+2,w
  3748  0AC1  00C0               	movwf	?_scale+2
  3749  0AC2  0825               	movf	?___flmul+1,w
  3750  0AC3  00BF               	movwf	?_scale+1
  3751  0AC4  0824               	movf	?___flmul,w
  3752  0AC5  00BE               	movwf	?_scale
  3753  0AC6  2C9E               	goto	l234
  3754  0AC7                     l2947:
  3755                           
  3756                           ;C:\Program Files\Microchip\xc8\v2.36\pic\sources\c90\common\doprnt.c: 442:   return _np
      +                          owers_[(unsigned char)scl];
  3757  0AC7  0850               	movf	scale@scl,w
  3758  0AC8  00C2               	movwf	??_scale
  3759  0AC9  3001               	movlw	1
  3760  0ACA                     u4435:
  3761  0ACA  1003               	clrc
  3762  0ACB  0DC2               	rlf	??_scale,f
  3763  0ACC  3EFF               	addlw	-1
  3764  0ACD  1D03               	skipz
  3765  0ACE  2ACA               	goto	u4435
  3766  0ACF  1003               	clrc
  3767  0AD0  0D42               	rlf	??_scale,w
  3768  0AD1  3E35               	addlw	low ((__npowers_-__stringbase)| (0+32768))
  3769  0AD2  0084               	movwf	4
  3770  0AD3  160A  118A  200A  120A  158A  	fcall	stringdir
  3771  0AD8  00C3               	movwf	??_scale+1
  3772  0AD9  160A  118A  200A  120A  158A  	fcall	stringdir
  3773  0ADE  00C4               	movwf	??_scale+2
  3774  0ADF  160A  118A  200A  120A  158A  	fcall	stringdir
  3775  0AE4  00C5               	movwf	??_scale+3
  3776  0AE5  160A  118A  200A  120A  158A  	fcall	stringdir
  3777  0AEA  00C6               	movwf	??_scale+4
  3778  0AEB  0846               	movf	??_scale+4,w
  3779  0AEC  00C1               	movwf	?_scale+3
  3780  0AED  0845               	movf	??_scale+3,w
  3781  0AEE  00C0               	movwf	?_scale+2
  3782  0AEF  0844               	movf	??_scale+2,w
  3783  0AF0  00BF               	movwf	?_scale+1
  3784  0AF1  0843               	movf	??_scale+1,w
  3785  0AF2  00BE               	movwf	?_scale
  3786  0AF3  2C9E               	goto	l234
  3787  0AF4                     l2951:
  3788                           
  3789                           ;C:\Program Files\Microchip\xc8\v2.36\pic\sources\c90\common\doprnt.c: 444:  if(scl>=110
      +                          )
  3790  0AF4  0850               	movf	scale@scl,w
  3791  0AF5  3A80               	xorlw	128
  3792  0AF6  3E12               	addlw	-238
  3793  0AF7  1C03               	skipc
  3794  0AF8  2AFA               	goto	u4441
  3795  0AF9  2AFB               	goto	u4440
  3796  0AFA                     u4441:
  3797  0AFA  2BE3               	goto	l2959
  3798  0AFB                     u4440:
  3799  0AFB                     l2953:
  3800                           
  3801                           ;C:\Program Files\Microchip\xc8\v2.36\pic\sources\c90\common\doprnt.c: 445:   return _po
      +                          wers_[(unsigned char)(scl/100+18)] * _powers_[(unsigned char)((scl%100)/10+9)] * _powers
      +                          _[(unsigned char)(scl%10)];
  3802  0AFB  300A               	movlw	10
  3803  0AFC  00F7               	movwf	___awdiv@divisor
  3804  0AFD  3000               	movlw	0
  3805  0AFE  00F8               	movwf	___awdiv@divisor+1
  3806  0AFF  0850               	movf	scale@scl,w
  3807  0B00  00F2               	movwf	___awmod@dividend
  3808  0B01  01F3               	clrf	___awmod@dividend+1
  3809  0B02  1BF2               	btfsc	___awmod@dividend,7
  3810  0B03  03F3               	decf	___awmod@dividend+1,f
  3811  0B04  3064               	movlw	100
  3812  0B05  00F0               	movwf	___awmod@divisor
  3813  0B06  3000               	movlw	0
  3814  0B07  00F1               	movwf	___awmod@divisor+1
  3815  0B08  160A  158A  2580  120A  158A  	fcall	___awmod
  3816  0B0D  0871               	movf	?___awmod+1,w
  3817  0B0E  00FA               	movwf	___awdiv@dividend+1
  3818  0B0F  0870               	movf	?___awmod,w
  3819  0B10  00F9               	movwf	___awdiv@dividend
  3820  0B11  160A  158A  26A3  120A  158A  	fcall	___awdiv
  3821  0B16  0877               	movf	?___awdiv,w
  3822  0B17  1283               	bcf	3,5	;RP0=0, select bank0
  3823  0B18  1303               	bcf	3,6	;RP1=0, select bank0
  3824  0B19  00C2               	movwf	??_scale
  3825  0B1A  3001               	movlw	1
  3826  0B1B                     u4455:
  3827  0B1B  1003               	clrc
  3828  0B1C  0DC2               	rlf	??_scale,f
  3829  0B1D  3EFF               	addlw	-1
  3830  0B1E  1D03               	skipz
  3831  0B1F  2B1B               	goto	u4455
  3832  0B20  1003               	clrc
  3833  0B21  0D42               	rlf	??_scale,w
  3834  0B22  3E25               	addlw	low (((__powers_-__stringbase)| (0+32768)+36))
  3835  0B23  0084               	movwf	4
  3836  0B24  160A  118A  200A  120A  158A  	fcall	stringdir
  3837  0B29  00C3               	movwf	??_scale+1
  3838  0B2A  160A  118A  200A  120A  158A  	fcall	stringdir
  3839  0B2F  00C4               	movwf	??_scale+2
  3840  0B30  160A  118A  200A  120A  158A  	fcall	stringdir
  3841  0B35  00C5               	movwf	??_scale+3
  3842  0B36  160A  118A  200A  120A  158A  	fcall	stringdir
  3843  0B3B  00C6               	movwf	??_scale+4
  3844  0B3C  0846               	movf	??_scale+4,w
  3845  0B3D  00A7               	movwf	___flmul@b+3
  3846  0B3E  0845               	movf	??_scale+3,w
  3847  0B3F  00A6               	movwf	___flmul@b+2
  3848  0B40  0844               	movf	??_scale+2,w
  3849  0B41  00A5               	movwf	___flmul@b+1
  3850  0B42  0843               	movf	??_scale+1,w
  3851  0B43  00A4               	movwf	___flmul@b
  3852  0B44  3064               	movlw	100
  3853  0B45  00F7               	movwf	___awdiv@divisor
  3854  0B46  3000               	movlw	0
  3855  0B47  00F8               	movwf	___awdiv@divisor+1
  3856  0B48  0850               	movf	scale@scl,w
  3857  0B49  00F9               	movwf	___awdiv@dividend
  3858  0B4A  01FA               	clrf	___awdiv@dividend+1
  3859  0B4B  1BF9               	btfsc	___awdiv@dividend,7
  3860  0B4C  03FA               	decf	___awdiv@dividend+1,f
  3861  0B4D  160A  158A  26A3  120A  158A  	fcall	___awdiv
  3862  0B52  0877               	movf	?___awdiv,w
  3863  0B53  1283               	bcf	3,5	;RP0=0, select bank0
  3864  0B54  1303               	bcf	3,6	;RP1=0, select bank0
  3865  0B55  00C7               	movwf	??_scale+5
  3866  0B56  3001               	movlw	1
  3867  0B57                     u4465:
  3868  0B57  1003               	clrc
  3869  0B58  0DC7               	rlf	??_scale+5,f
  3870  0B59  3EFF               	addlw	-1
  3871  0B5A  1D03               	skipz
  3872  0B5B  2B57               	goto	u4465
  3873  0B5C  1003               	clrc
  3874  0B5D  0D47               	rlf	??_scale+5,w
  3875  0B5E  3E49               	addlw	low (((__powers_-__stringbase)| (0+32768)+72))
  3876  0B5F  0084               	movwf	4
  3877  0B60  160A  118A  200A  120A  158A  	fcall	stringdir
  3878  0B65  00C8               	movwf	??_scale+6
  3879  0B66  160A  118A  200A  120A  158A  	fcall	stringdir
  3880  0B6B  00C9               	movwf	??_scale+7
  3881  0B6C  160A  118A  200A  120A  158A  	fcall	stringdir
  3882  0B71  00CA               	movwf	??_scale+8
  3883  0B72  160A  118A  200A  120A  158A  	fcall	stringdir
  3884  0B77  00CB               	movwf	??_scale+9
  3885  0B78  084B               	movf	??_scale+9,w
  3886  0B79  00AB               	movwf	___flmul@a+3
  3887  0B7A  084A               	movf	??_scale+8,w
  3888  0B7B  00AA               	movwf	___flmul@a+2
  3889  0B7C  0849               	movf	??_scale+7,w
  3890  0B7D  00A9               	movwf	___flmul@a+1
  3891  0B7E  0848               	movf	??_scale+6,w
  3892  0B7F  00A8               	movwf	___flmul@a
  3893  0B80  120A  158A  249F  120A  158A  	fcall	___flmul
  3894  0B85  1283               	bcf	3,5	;RP0=0, select bank0
  3895  0B86  1303               	bcf	3,6	;RP1=0, select bank0
  3896  0B87  0827               	movf	?___flmul+3,w
  3897  0B88  00CF               	movwf	_scale$938+3
  3898  0B89  0826               	movf	?___flmul+2,w
  3899  0B8A  00CE               	movwf	_scale$938+2
  3900  0B8B  0825               	movf	?___flmul+1,w
  3901  0B8C  00CD               	movwf	_scale$938+1
  3902  0B8D  0824               	movf	?___flmul,w
  3903  0B8E  00CC               	movwf	_scale$938
  3904                           
  3905                           ;C:\Program Files\Microchip\xc8\v2.36\pic\sources\c90\common\doprnt.c: 445:   return _po
      +                          wers_[(unsigned char)(scl/100+18)] * _powers_[(unsigned char)((scl%100)/10+9)] * _powers
      +                          _[(unsigned char)(scl%10)];
  3906  0B8F  300A               	movlw	10
  3907  0B90  00F0               	movwf	___awmod@divisor
  3908  0B91  3000               	movlw	0
  3909  0B92  00F1               	movwf	___awmod@divisor+1
  3910  0B93  0850               	movf	scale@scl,w
  3911  0B94  00F2               	movwf	___awmod@dividend
  3912  0B95  01F3               	clrf	___awmod@dividend+1
  3913  0B96  1BF2               	btfsc	___awmod@dividend,7
  3914  0B97  03F3               	decf	___awmod@dividend+1,f
  3915  0B98  160A  158A  2580  120A  158A  	fcall	___awmod
  3916  0B9D  0870               	movf	?___awmod,w
  3917  0B9E  1283               	bcf	3,5	;RP0=0, select bank0
  3918  0B9F  1303               	bcf	3,6	;RP1=0, select bank0
  3919  0BA0  00C2               	movwf	??_scale
  3920  0BA1  3001               	movlw	1
  3921  0BA2                     u4475:
  3922  0BA2  1003               	clrc
  3923  0BA3  0DC2               	rlf	??_scale,f
  3924  0BA4  3EFF               	addlw	-1
  3925  0BA5  1D03               	skipz
  3926  0BA6  2BA2               	goto	u4475
  3927  0BA7  1003               	clrc
  3928  0BA8  0D42               	rlf	??_scale,w
  3929  0BA9  3E01               	addlw	low ((__powers_-__stringbase)| (0+32768))
  3930  0BAA  0084               	movwf	4
  3931  0BAB  160A  118A  200A  120A  158A  	fcall	stringdir
  3932  0BB0  00C3               	movwf	??_scale+1
  3933  0BB1  160A  118A  200A  120A  158A  	fcall	stringdir
  3934  0BB6  00C4               	movwf	??_scale+2
  3935  0BB7  160A  118A  200A  120A  158A  	fcall	stringdir
  3936  0BBC  00C5               	movwf	??_scale+3
  3937  0BBD  160A  118A  200A  120A  158A  	fcall	stringdir
  3938  0BC2  00C6               	movwf	??_scale+4
  3939  0BC3  0846               	movf	??_scale+4,w
  3940  0BC4  00A7               	movwf	___flmul@b+3
  3941  0BC5  0845               	movf	??_scale+3,w
  3942  0BC6  00A6               	movwf	___flmul@b+2
  3943  0BC7  0844               	movf	??_scale+2,w
  3944  0BC8  00A5               	movwf	___flmul@b+1
  3945  0BC9  0843               	movf	??_scale+1,w
  3946  0BCA  00A4               	movwf	___flmul@b
  3947  0BCB  084F               	movf	_scale$938+3,w
  3948  0BCC  00AB               	movwf	___flmul@a+3
  3949  0BCD  084E               	movf	_scale$938+2,w
  3950  0BCE  00AA               	movwf	___flmul@a+2
  3951  0BCF  084D               	movf	_scale$938+1,w
  3952  0BD0  00A9               	movwf	___flmul@a+1
  3953  0BD1  084C               	movf	_scale$938,w
  3954  0BD2  00A8               	movwf	___flmul@a
  3955  0BD3  120A  158A  249F  120A  158A  	fcall	___flmul
  3956  0BD8  1283               	bcf	3,5	;RP0=0, select bank0
  3957  0BD9  1303               	bcf	3,6	;RP1=0, select bank0
  3958  0BDA  0827               	movf	?___flmul+3,w
  3959  0BDB  00C1               	movwf	?_scale+3
  3960  0BDC  0826               	movf	?___flmul+2,w
  3961  0BDD  00C0               	movwf	?_scale+2
  3962  0BDE  0825               	movf	?___flmul+1,w
  3963  0BDF  00BF               	movwf	?_scale+1
  3964  0BE0  0824               	movf	?___flmul,w
  3965  0BE1  00BE               	movwf	?_scale
  3966  0BE2  2C9E               	goto	l234
  3967  0BE3                     l2959:
  3968  0BE3  0850               	movf	scale@scl,w
  3969  0BE4  3A80               	xorlw	128
  3970  0BE5  3E75               	addlw	-139
  3971  0BE6  1C03               	skipc
  3972  0BE7  2BE9               	goto	u4481
  3973  0BE8  2BEA               	goto	u4480
  3974  0BE9                     u4481:
  3975  0BE9  2C72               	goto	l2965
  3976  0BEA                     u4480:
  3977  0BEA                     l2961:
  3978                           
  3979                           ;C:\Program Files\Microchip\xc8\v2.36\pic\sources\c90\common\doprnt.c: 447:   return _po
      +                          wers_[(unsigned char)(scl/10+9)] * _powers_[(unsigned char)(scl%10)];
  3980  0BEA  300A               	movlw	10
  3981  0BEB  00F0               	movwf	___awmod@divisor
  3982  0BEC  3000               	movlw	0
  3983  0BED  00F1               	movwf	___awmod@divisor+1
  3984  0BEE  0850               	movf	scale@scl,w
  3985  0BEF  00F2               	movwf	___awmod@dividend
  3986  0BF0  01F3               	clrf	___awmod@dividend+1
  3987  0BF1  1BF2               	btfsc	___awmod@dividend,7
  3988  0BF2  03F3               	decf	___awmod@dividend+1,f
  3989  0BF3  160A  158A  2580  120A  158A  	fcall	___awmod
  3990  0BF8  0870               	movf	?___awmod,w
  3991  0BF9  1283               	bcf	3,5	;RP0=0, select bank0
  3992  0BFA  1303               	bcf	3,6	;RP1=0, select bank0
  3993  0BFB  00C2               	movwf	??_scale
  3994  0BFC  3001               	movlw	1
  3995  0BFD                     u4495:
  3996  0BFD  1003               	clrc
  3997  0BFE  0DC2               	rlf	??_scale,f
  3998  0BFF  3EFF               	addlw	-1
  3999  0C00  1D03               	skipz
  4000  0C01  2BFD               	goto	u4495
  4001  0C02  1003               	clrc
  4002  0C03  0D42               	rlf	??_scale,w
  4003  0C04  3E01               	addlw	low ((__powers_-__stringbase)| (0+32768))
  4004  0C05  0084               	movwf	4
  4005  0C06  160A  118A  200A  120A  158A  	fcall	stringdir
  4006  0C0B  00C3               	movwf	??_scale+1
  4007  0C0C  160A  118A  200A  120A  158A  	fcall	stringdir
  4008  0C11  00C4               	movwf	??_scale+2
  4009  0C12  160A  118A  200A  120A  158A  	fcall	stringdir
  4010  0C17  00C5               	movwf	??_scale+3
  4011  0C18  160A  118A  200A  120A  158A  	fcall	stringdir
  4012  0C1D  00C6               	movwf	??_scale+4
  4013  0C1E  0846               	movf	??_scale+4,w
  4014  0C1F  00A7               	movwf	___flmul@b+3
  4015  0C20  0845               	movf	??_scale+3,w
  4016  0C21  00A6               	movwf	___flmul@b+2
  4017  0C22  0844               	movf	??_scale+2,w
  4018  0C23  00A5               	movwf	___flmul@b+1
  4019  0C24  0843               	movf	??_scale+1,w
  4020  0C25  00A4               	movwf	___flmul@b
  4021  0C26  300A               	movlw	10
  4022  0C27  00F7               	movwf	___awdiv@divisor
  4023  0C28  3000               	movlw	0
  4024  0C29  00F8               	movwf	___awdiv@divisor+1
  4025  0C2A  0850               	movf	scale@scl,w
  4026  0C2B  00F9               	movwf	___awdiv@dividend
  4027  0C2C  01FA               	clrf	___awdiv@dividend+1
  4028  0C2D  1BF9               	btfsc	___awdiv@dividend,7
  4029  0C2E  03FA               	decf	___awdiv@dividend+1,f
  4030  0C2F  160A  158A  26A3  120A  158A  	fcall	___awdiv
  4031  0C34  0877               	movf	?___awdiv,w
  4032  0C35  1283               	bcf	3,5	;RP0=0, select bank0
  4033  0C36  1303               	bcf	3,6	;RP1=0, select bank0
  4034  0C37  00C7               	movwf	??_scale+5
  4035  0C38  3001               	movlw	1
  4036  0C39                     u4505:
  4037  0C39  1003               	clrc
  4038  0C3A  0DC7               	rlf	??_scale+5,f
  4039  0C3B  3EFF               	addlw	-1
  4040  0C3C  1D03               	skipz
  4041  0C3D  2C39               	goto	u4505
  4042  0C3E  1003               	clrc
  4043  0C3F  0D47               	rlf	??_scale+5,w
  4044  0C40  3E25               	addlw	low (((__powers_-__stringbase)| (0+32768)+36))
  4045  0C41  0084               	movwf	4
  4046  0C42  160A  118A  200A  120A  158A  	fcall	stringdir
  4047  0C47  00C8               	movwf	??_scale+6
  4048  0C48  160A  118A  200A  120A  158A  	fcall	stringdir
  4049  0C4D  00C9               	movwf	??_scale+7
  4050  0C4E  160A  118A  200A  120A  158A  	fcall	stringdir
  4051  0C53  00CA               	movwf	??_scale+8
  4052  0C54  160A  118A  200A  120A  158A  	fcall	stringdir
  4053  0C59  00CB               	movwf	??_scale+9
  4054  0C5A  084B               	movf	??_scale+9,w
  4055  0C5B  00AB               	movwf	___flmul@a+3
  4056  0C5C  084A               	movf	??_scale+8,w
  4057  0C5D  00AA               	movwf	___flmul@a+2
  4058  0C5E  0849               	movf	??_scale+7,w
  4059  0C5F  00A9               	movwf	___flmul@a+1
  4060  0C60  0848               	movf	??_scale+6,w
  4061  0C61  00A8               	movwf	___flmul@a
  4062  0C62  120A  158A  249F  120A  158A  	fcall	___flmul
  4063  0C67  1283               	bcf	3,5	;RP0=0, select bank0
  4064  0C68  1303               	bcf	3,6	;RP1=0, select bank0
  4065  0C69  0827               	movf	?___flmul+3,w
  4066  0C6A  00C1               	movwf	?_scale+3
  4067  0C6B  0826               	movf	?___flmul+2,w
  4068  0C6C  00C0               	movwf	?_scale+2
  4069  0C6D  0825               	movf	?___flmul+1,w
  4070  0C6E  00BF               	movwf	?_scale+1
  4071  0C6F  0824               	movf	?___flmul,w
  4072  0C70  00BE               	movwf	?_scale
  4073  0C71  2C9E               	goto	l234
  4074  0C72                     l2965:
  4075                           
  4076                           ;C:\Program Files\Microchip\xc8\v2.36\pic\sources\c90\common\doprnt.c: 448:  return _pow
      +                          ers_[(unsigned char)scl];
  4077  0C72  0850               	movf	scale@scl,w
  4078  0C73  00C2               	movwf	??_scale
  4079  0C74  3001               	movlw	1
  4080  0C75                     u4515:
  4081  0C75  1003               	clrc
  4082  0C76  0DC2               	rlf	??_scale,f
  4083  0C77  3EFF               	addlw	-1
  4084  0C78  1D03               	skipz
  4085  0C79  2C75               	goto	u4515
  4086  0C7A  1003               	clrc
  4087  0C7B  0D42               	rlf	??_scale,w
  4088  0C7C  3E01               	addlw	low ((__powers_-__stringbase)| (0+32768))
  4089  0C7D  0084               	movwf	4
  4090  0C7E  160A  118A  200A  120A  158A  	fcall	stringdir
  4091  0C83  00C3               	movwf	??_scale+1
  4092  0C84  160A  118A  200A  120A  158A  	fcall	stringdir
  4093  0C89  00C4               	movwf	??_scale+2
  4094  0C8A  160A  118A  200A  120A  158A  	fcall	stringdir
  4095  0C8F  00C5               	movwf	??_scale+3
  4096  0C90  160A  118A  200A  120A  158A  	fcall	stringdir
  4097  0C95  00C6               	movwf	??_scale+4
  4098  0C96  0846               	movf	??_scale+4,w
  4099  0C97  00C1               	movwf	?_scale+3
  4100  0C98  0845               	movf	??_scale+3,w
  4101  0C99  00C0               	movwf	?_scale+2
  4102  0C9A  0844               	movf	??_scale+2,w
  4103  0C9B  00BF               	movwf	?_scale+1
  4104  0C9C  0843               	movf	??_scale+1,w
  4105  0C9D  00BE               	movwf	?_scale
  4106  0C9E                     l234:
  4107  0C9E  0008               	return
  4108  0C9F                     __end_of_scale:
  4109                           
  4110                           	psect	text4
  4111  1D80                     __ptext4:	
  4112 ;; *************** function ___awmod *****************
  4113 ;; Defined at:
  4114 ;;		line 5 in file "C:\Program Files\Microchip\xc8\v2.36\pic\sources\c90\common\awmod.c"
  4115 ;; Parameters:    Size  Location     Type
  4116 ;;  divisor         2    0[COMMON] int 
  4117 ;;  dividend        2    2[COMMON] int 
  4118 ;; Auto vars:     Size  Location     Type
  4119 ;;  sign            1    6[COMMON] unsigned char 
  4120 ;;  counter         1    5[COMMON] unsigned char 
  4121 ;; Return value:  Size  Location     Type
  4122 ;;                  2    0[COMMON] int 
  4123 ;; Registers used:
  4124 ;;		wreg, status,2, status,0
  4125 ;; Tracked objects:
  4126 ;;		On entry : 0/0
  4127 ;;		On exit  : 0/0
  4128 ;;		Unchanged: 0/0
  4129 ;; Data sizes:     COMMON   BANK0   BANK1   BANK3   BANK2
  4130 ;;      Params:         4       0       0       0       0
  4131 ;;      Locals:         2       0       0       0       0
  4132 ;;      Temps:          1       0       0       0       0
  4133 ;;      Totals:         7       0       0       0       0
  4134 ;;Total ram usage:        7 bytes
  4135 ;; Hardware stack levels used: 1
  4136 ;; This function calls:
  4137 ;;		Nothing
  4138 ;; This function is called by:
  4139 ;;		_scale
  4140 ;;		_LCDWriteInt
  4141 ;; This function uses a non-reentrant model
  4142 ;;
  4143                           
  4144  1D80                     ___awmod:	
  4145                           ;psect for function ___awmod
  4146                           
  4147  1D80                     l2461:	
  4148                           ;incstack = 0
  4149                           ; Regs used in ___awmod: [wreg+status,2+status,0]
  4150                           
  4151  1D80  01F6               	clrf	___awmod@sign
  4152  1D81                     l2463:
  4153  1D81  1FF3               	btfss	___awmod@dividend+1,7
  4154  1D82  2D84               	goto	u3201
  4155  1D83  2D85               	goto	u3200
  4156  1D84                     u3201:
  4157  1D84  2D8C               	goto	l2469
  4158  1D85                     u3200:
  4159  1D85                     l2465:
  4160  1D85  09F2               	comf	___awmod@dividend,f
  4161  1D86  09F3               	comf	___awmod@dividend+1,f
  4162  1D87  0AF2               	incf	___awmod@dividend,f
  4163  1D88  1903               	skipnz
  4164  1D89  0AF3               	incf	___awmod@dividend+1,f
  4165  1D8A                     l2467:
  4166  1D8A  01F6               	clrf	___awmod@sign
  4167  1D8B  0AF6               	incf	___awmod@sign,f
  4168  1D8C                     l2469:
  4169  1D8C  1FF1               	btfss	___awmod@divisor+1,7
  4170  1D8D  2D8F               	goto	u3211
  4171  1D8E  2D90               	goto	u3210
  4172  1D8F                     u3211:
  4173  1D8F  2D95               	goto	l2473
  4174  1D90                     u3210:
  4175  1D90                     l2471:
  4176  1D90  09F0               	comf	___awmod@divisor,f
  4177  1D91  09F1               	comf	___awmod@divisor+1,f
  4178  1D92  0AF0               	incf	___awmod@divisor,f
  4179  1D93  1903               	skipnz
  4180  1D94  0AF1               	incf	___awmod@divisor+1,f
  4181  1D95                     l2473:
  4182  1D95  0870               	movf	___awmod@divisor,w
  4183  1D96  0471               	iorwf	___awmod@divisor+1,w
  4184  1D97  1903               	btfsc	3,2
  4185  1D98  2D9A               	goto	u3221
  4186  1D99  2D9B               	goto	u3220
  4187  1D9A                     u3221:
  4188  1D9A  2DCA               	goto	l2491
  4189  1D9B                     u3220:
  4190  1D9B                     l2475:
  4191  1D9B  01F5               	clrf	___awmod@counter
  4192  1D9C  0AF5               	incf	___awmod@counter,f
  4193  1D9D  2DA9               	goto	l2481
  4194  1D9E                     l2477:
  4195  1D9E  3001               	movlw	1
  4196  1D9F                     u3235:
  4197  1D9F  1003               	clrc
  4198  1DA0  0DF0               	rlf	___awmod@divisor,f
  4199  1DA1  0DF1               	rlf	___awmod@divisor+1,f
  4200  1DA2  3EFF               	addlw	-1
  4201  1DA3  1D03               	skipz
  4202  1DA4  2D9F               	goto	u3235
  4203  1DA5                     l2479:
  4204  1DA5  3001               	movlw	1
  4205  1DA6  00F4               	movwf	??___awmod
  4206  1DA7  0874               	movf	??___awmod,w
  4207  1DA8  07F5               	addwf	___awmod@counter,f
  4208  1DA9                     l2481:
  4209  1DA9  1FF1               	btfss	___awmod@divisor+1,7
  4210  1DAA  2DAC               	goto	u3241
  4211  1DAB  2DAD               	goto	u3240
  4212  1DAC                     u3241:
  4213  1DAC  2D9E               	goto	l2477
  4214  1DAD                     u3240:
  4215  1DAD                     l2483:
  4216  1DAD  0871               	movf	___awmod@divisor+1,w
  4217  1DAE  0273               	subwf	___awmod@dividend+1,w
  4218  1DAF  1D03               	skipz
  4219  1DB0  2DB3               	goto	u3255
  4220  1DB1  0870               	movf	___awmod@divisor,w
  4221  1DB2  0272               	subwf	___awmod@dividend,w
  4222  1DB3                     u3255:
  4223  1DB3  1C03               	skipc
  4224  1DB4  2DB6               	goto	u3251
  4225  1DB5  2DB7               	goto	u3250
  4226  1DB6                     u3251:
  4227  1DB6  2DBD               	goto	l2487
  4228  1DB7                     u3250:
  4229  1DB7                     l2485:
  4230  1DB7  0870               	movf	___awmod@divisor,w
  4231  1DB8  02F2               	subwf	___awmod@dividend,f
  4232  1DB9  0871               	movf	___awmod@divisor+1,w
  4233  1DBA  1C03               	skipc
  4234  1DBB  03F3               	decf	___awmod@dividend+1,f
  4235  1DBC  02F3               	subwf	___awmod@dividend+1,f
  4236  1DBD                     l2487:
  4237  1DBD  3001               	movlw	1
  4238  1DBE                     u3265:
  4239  1DBE  1003               	clrc
  4240  1DBF  0CF1               	rrf	___awmod@divisor+1,f
  4241  1DC0  0CF0               	rrf	___awmod@divisor,f
  4242  1DC1  3EFF               	addlw	-1
  4243  1DC2  1D03               	skipz
  4244  1DC3  2DBE               	goto	u3265
  4245  1DC4                     l2489:
  4246  1DC4  3001               	movlw	1
  4247  1DC5  02F5               	subwf	___awmod@counter,f
  4248  1DC6  1D03               	btfss	3,2
  4249  1DC7  2DC9               	goto	u3271
  4250  1DC8  2DCA               	goto	u3270
  4251  1DC9                     u3271:
  4252  1DC9  2DAD               	goto	l2483
  4253  1DCA                     u3270:
  4254  1DCA                     l2491:
  4255  1DCA  0876               	movf	___awmod@sign,w
  4256  1DCB  1903               	btfsc	3,2
  4257  1DCC  2DCE               	goto	u3281
  4258  1DCD  2DCF               	goto	u3280
  4259  1DCE                     u3281:
  4260  1DCE  2DD4               	goto	l2495
  4261  1DCF                     u3280:
  4262  1DCF                     l2493:
  4263  1DCF  09F2               	comf	___awmod@dividend,f
  4264  1DD0  09F3               	comf	___awmod@dividend+1,f
  4265  1DD1  0AF2               	incf	___awmod@dividend,f
  4266  1DD2  1903               	skipnz
  4267  1DD3  0AF3               	incf	___awmod@dividend+1,f
  4268  1DD4                     l2495:
  4269  1DD4  0873               	movf	___awmod@dividend+1,w
  4270  1DD5  00F1               	movwf	?___awmod+1
  4271  1DD6  0872               	movf	___awmod@dividend,w
  4272  1DD7  00F0               	movwf	?___awmod
  4273  1DD8                     l470:
  4274  1DD8  0008               	return
  4275  1DD9                     __end_of___awmod:
  4276                           
  4277                           	psect	text5
  4278  1EA3                     __ptext5:	
  4279 ;; *************** function ___awdiv *****************
  4280 ;; Defined at:
  4281 ;;		line 5 in file "C:\Program Files\Microchip\xc8\v2.36\pic\sources\c90\common\awdiv.c"
  4282 ;; Parameters:    Size  Location     Type
  4283 ;;  divisor         2    7[COMMON] int 
  4284 ;;  dividend        2    9[COMMON] int 
  4285 ;; Auto vars:     Size  Location     Type
  4286 ;;  quotient        2    2[BANK0 ] int 
  4287 ;;  sign            1    1[BANK0 ] unsigned char 
  4288 ;;  counter         1    0[BANK0 ] unsigned char 
  4289 ;; Return value:  Size  Location     Type
  4290 ;;                  2    7[COMMON] int 
  4291 ;; Registers used:
  4292 ;;		wreg, status,2, status,0
  4293 ;; Tracked objects:
  4294 ;;		On entry : 0/0
  4295 ;;		On exit  : 0/0
  4296 ;;		Unchanged: 0/0
  4297 ;; Data sizes:     COMMON   BANK0   BANK1   BANK3   BANK2
  4298 ;;      Params:         4       0       0       0       0
  4299 ;;      Locals:         0       4       0       0       0
  4300 ;;      Temps:          1       0       0       0       0
  4301 ;;      Totals:         5       4       0       0       0
  4302 ;;Total ram usage:        9 bytes
  4303 ;; Hardware stack levels used: 1
  4304 ;; This function calls:
  4305 ;;		Nothing
  4306 ;; This function is called by:
  4307 ;;		_scale
  4308 ;;		_sprintf
  4309 ;;		_LCDWriteInt
  4310 ;; This function uses a non-reentrant model
  4311 ;;
  4312                           
  4313  1EA3                     ___awdiv:	
  4314                           ;psect for function ___awdiv
  4315                           
  4316  1EA3                     l2417:	
  4317                           ;incstack = 0
  4318                           ; Regs used in ___awdiv: [wreg+status,2+status,0]
  4319                           
  4320  1EA3  1283               	bcf	3,5	;RP0=0, select bank0
  4321  1EA4  1303               	bcf	3,6	;RP1=0, select bank0
  4322  1EA5  01A1               	clrf	___awdiv@sign
  4323  1EA6                     l2419:
  4324  1EA6  1FF8               	btfss	___awdiv@divisor+1,7
  4325  1EA7  2EA9               	goto	u3101
  4326  1EA8  2EAA               	goto	u3100
  4327  1EA9                     u3101:
  4328  1EA9  2EB1               	goto	l2425
  4329  1EAA                     u3100:
  4330  1EAA                     l2421:
  4331  1EAA  09F7               	comf	___awdiv@divisor,f
  4332  1EAB  09F8               	comf	___awdiv@divisor+1,f
  4333  1EAC  0AF7               	incf	___awdiv@divisor,f
  4334  1EAD  1903               	skipnz
  4335  1EAE  0AF8               	incf	___awdiv@divisor+1,f
  4336  1EAF                     l2423:
  4337  1EAF  01A1               	clrf	___awdiv@sign
  4338  1EB0  0AA1               	incf	___awdiv@sign,f
  4339  1EB1                     l2425:
  4340  1EB1  1FFA               	btfss	___awdiv@dividend+1,7
  4341  1EB2  2EB4               	goto	u3111
  4342  1EB3  2EB5               	goto	u3110
  4343  1EB4                     u3111:
  4344  1EB4  2EBE               	goto	l2431
  4345  1EB5                     u3110:
  4346  1EB5                     l2427:
  4347  1EB5  09F9               	comf	___awdiv@dividend,f
  4348  1EB6  09FA               	comf	___awdiv@dividend+1,f
  4349  1EB7  0AF9               	incf	___awdiv@dividend,f
  4350  1EB8  1903               	skipnz
  4351  1EB9  0AFA               	incf	___awdiv@dividend+1,f
  4352  1EBA                     l2429:
  4353  1EBA  3001               	movlw	1
  4354  1EBB  00FB               	movwf	??___awdiv
  4355  1EBC  087B               	movf	??___awdiv,w
  4356  1EBD  06A1               	xorwf	___awdiv@sign,f
  4357  1EBE                     l2431:
  4358  1EBE  01A2               	clrf	___awdiv@quotient
  4359  1EBF  01A3               	clrf	___awdiv@quotient+1
  4360  1EC0                     l2433:
  4361  1EC0  0877               	movf	___awdiv@divisor,w
  4362  1EC1  0478               	iorwf	___awdiv@divisor+1,w
  4363  1EC2  1903               	btfsc	3,2
  4364  1EC3  2EC5               	goto	u3121
  4365  1EC4  2EC6               	goto	u3120
  4366  1EC5                     u3121:
  4367  1EC5  2EFD               	goto	l2453
  4368  1EC6                     u3120:
  4369  1EC6                     l2435:
  4370  1EC6  01A0               	clrf	___awdiv@counter
  4371  1EC7  0AA0               	incf	___awdiv@counter,f
  4372  1EC8  2ED4               	goto	l2441
  4373  1EC9                     l2437:
  4374  1EC9  3001               	movlw	1
  4375  1ECA                     u3135:
  4376  1ECA  1003               	clrc
  4377  1ECB  0DF7               	rlf	___awdiv@divisor,f
  4378  1ECC  0DF8               	rlf	___awdiv@divisor+1,f
  4379  1ECD  3EFF               	addlw	-1
  4380  1ECE  1D03               	skipz
  4381  1ECF  2ECA               	goto	u3135
  4382  1ED0                     l2439:
  4383  1ED0  3001               	movlw	1
  4384  1ED1  00FB               	movwf	??___awdiv
  4385  1ED2  087B               	movf	??___awdiv,w
  4386  1ED3  07A0               	addwf	___awdiv@counter,f
  4387  1ED4                     l2441:
  4388  1ED4  1FF8               	btfss	___awdiv@divisor+1,7
  4389  1ED5  2ED7               	goto	u3141
  4390  1ED6  2ED8               	goto	u3140
  4391  1ED7                     u3141:
  4392  1ED7  2EC9               	goto	l2437
  4393  1ED8                     u3140:
  4394  1ED8                     l2443:
  4395  1ED8  3001               	movlw	1
  4396  1ED9                     u3155:
  4397  1ED9  1003               	clrc
  4398  1EDA  0DA2               	rlf	___awdiv@quotient,f
  4399  1EDB  0DA3               	rlf	___awdiv@quotient+1,f
  4400  1EDC  3EFF               	addlw	-1
  4401  1EDD  1D03               	skipz
  4402  1EDE  2ED9               	goto	u3155
  4403  1EDF  0878               	movf	___awdiv@divisor+1,w
  4404  1EE0  027A               	subwf	___awdiv@dividend+1,w
  4405  1EE1  1D03               	skipz
  4406  1EE2  2EE5               	goto	u3165
  4407  1EE3  0877               	movf	___awdiv@divisor,w
  4408  1EE4  0279               	subwf	___awdiv@dividend,w
  4409  1EE5                     u3165:
  4410  1EE5  1C03               	skipc
  4411  1EE6  2EE8               	goto	u3161
  4412  1EE7  2EE9               	goto	u3160
  4413  1EE8                     u3161:
  4414  1EE8  2EF0               	goto	l2449
  4415  1EE9                     u3160:
  4416  1EE9                     l2445:
  4417  1EE9  0877               	movf	___awdiv@divisor,w
  4418  1EEA  02F9               	subwf	___awdiv@dividend,f
  4419  1EEB  0878               	movf	___awdiv@divisor+1,w
  4420  1EEC  1C03               	skipc
  4421  1EED  03FA               	decf	___awdiv@dividend+1,f
  4422  1EEE  02FA               	subwf	___awdiv@dividend+1,f
  4423  1EEF                     l2447:
  4424  1EEF  1422               	bsf	___awdiv@quotient,0
  4425  1EF0                     l2449:
  4426  1EF0  3001               	movlw	1
  4427  1EF1                     u3175:
  4428  1EF1  1003               	clrc
  4429  1EF2  0CF8               	rrf	___awdiv@divisor+1,f
  4430  1EF3  0CF7               	rrf	___awdiv@divisor,f
  4431  1EF4  3EFF               	addlw	-1
  4432  1EF5  1D03               	skipz
  4433  1EF6  2EF1               	goto	u3175
  4434  1EF7                     l2451:
  4435  1EF7  3001               	movlw	1
  4436  1EF8  02A0               	subwf	___awdiv@counter,f
  4437  1EF9  1D03               	btfss	3,2
  4438  1EFA  2EFC               	goto	u3181
  4439  1EFB  2EFD               	goto	u3180
  4440  1EFC                     u3181:
  4441  1EFC  2ED8               	goto	l2443
  4442  1EFD                     u3180:
  4443  1EFD                     l2453:
  4444  1EFD  0821               	movf	___awdiv@sign,w
  4445  1EFE  1903               	btfsc	3,2
  4446  1EFF  2F01               	goto	u3191
  4447  1F00  2F02               	goto	u3190
  4448  1F01                     u3191:
  4449  1F01  2F07               	goto	l2457
  4450  1F02                     u3190:
  4451  1F02                     l2455:
  4452  1F02  09A2               	comf	___awdiv@quotient,f
  4453  1F03  09A3               	comf	___awdiv@quotient+1,f
  4454  1F04  0AA2               	incf	___awdiv@quotient,f
  4455  1F05  1903               	skipnz
  4456  1F06  0AA3               	incf	___awdiv@quotient+1,f
  4457  1F07                     l2457:
  4458  1F07  0823               	movf	___awdiv@quotient+1,w
  4459  1F08  00F8               	movwf	?___awdiv+1
  4460  1F09  0822               	movf	___awdiv@quotient,w
  4461  1F0A  00F7               	movwf	?___awdiv
  4462  1F0B                     l457:
  4463  1F0B  0008               	return
  4464  1F0C                     __end_of___awdiv:
  4465                           
  4466                           	psect	text6
  4467  1A8D                     __ptext6:	
  4468 ;; *************** function _isdigit *****************
  4469 ;; Defined at:
  4470 ;;		line 8 in file "C:\Program Files\Microchip\xc8\v2.36\pic\sources\c90\common\isdigit.c"
  4471 ;; Parameters:    Size  Location     Type
  4472 ;;  c               1    wreg     unsigned char 
  4473 ;; Auto vars:     Size  Location     Type
  4474 ;;  c               1    1[COMMON] unsigned char 
  4475 ;; Return value:  Size  Location     Type
  4476 ;;		None               void
  4477 ;; Registers used:
  4478 ;;		wreg, status,2, status,0
  4479 ;; Tracked objects:
  4480 ;;		On entry : 0/0
  4481 ;;		On exit  : 0/0
  4482 ;;		Unchanged: 0/0
  4483 ;; Data sizes:     COMMON   BANK0   BANK1   BANK3   BANK2
  4484 ;;      Params:         0       0       0       0       0
  4485 ;;      Locals:         2       0       0       0       0
  4486 ;;      Temps:          0       0       0       0       0
  4487 ;;      Totals:         2       0       0       0       0
  4488 ;;Total ram usage:        2 bytes
  4489 ;; Hardware stack levels used: 1
  4490 ;; This function calls:
  4491 ;;		Nothing
  4492 ;; This function is called by:
  4493 ;;		_sprintf
  4494 ;; This function uses a non-reentrant model
  4495 ;;
  4496                           
  4497  1A8D                     _isdigit:	
  4498                           ;psect for function _isdigit
  4499                           
  4500                           
  4501                           ;incstack = 0
  4502                           ; Regs used in _isdigit: [wreg+status,2+status,0]
  4503                           ;isdigit@c stored from wreg
  4504  1A8D  00F1               	movwf	isdigit@c
  4505  1A8E                     l2969:
  4506  1A8E  01F0               	clrf	_isdigit$759
  4507  1A8F                     l2971:
  4508  1A8F  303A               	movlw	58
  4509  1A90  0271               	subwf	isdigit@c,w
  4510  1A91  1803               	skipnc
  4511  1A92  2A94               	goto	u4521
  4512  1A93  2A95               	goto	u4520
  4513  1A94                     u4521:
  4514  1A94  2A9D               	goto	l2977
  4515  1A95                     u4520:
  4516  1A95                     l2973:
  4517  1A95  3030               	movlw	48
  4518  1A96  0271               	subwf	isdigit@c,w
  4519  1A97  1C03               	skipc
  4520  1A98  2A9A               	goto	u4531
  4521  1A99  2A9B               	goto	u4530
  4522  1A9A                     u4531:
  4523  1A9A  2A9D               	goto	l2977
  4524  1A9B                     u4530:
  4525  1A9B                     l2975:
  4526  1A9B  01F0               	clrf	_isdigit$759
  4527  1A9C  0AF0               	incf	_isdigit$759,f
  4528  1A9D                     l2977:
  4529  1A9D  0C70               	rrf	_isdigit$759,w
  4530  1A9E                     l791:
  4531  1A9E  0008               	return
  4532  1A9F                     __end_of_isdigit:
  4533                           
  4534                           	psect	text7
  4535  136D                     __ptext7:	
  4536 ;; *************** function _fround *****************
  4537 ;; Defined at:
  4538 ;;		line 417 in file "C:\Program Files\Microchip\xc8\v2.36\pic\sources\c90\common\doprnt.c"
  4539 ;; Parameters:    Size  Location     Type
  4540 ;;  prec            1    wreg     unsigned char 
  4541 ;; Auto vars:     Size  Location     Type
  4542 ;;  prec            1   49[BANK0 ] unsigned char 
  4543 ;; Return value:  Size  Location     Type
  4544 ;;                  4   30[BANK0 ] unsigned char 
  4545 ;; Registers used:
  4546 ;;		wreg, fsr0l, fsr0h, status,2, status,0, btemp+1, pclath, cstack
  4547 ;; Tracked objects:
  4548 ;;		On entry : 0/0
  4549 ;;		On exit  : 0/0
  4550 ;;		Unchanged: 0/0
  4551 ;; Data sizes:     COMMON   BANK0   BANK1   BANK3   BANK2
  4552 ;;      Params:         0       4       0       0       0
  4553 ;;      Locals:         0       9       0       0       0
  4554 ;;      Temps:          0       7       0       0       0
  4555 ;;      Totals:         0      20       0       0       0
  4556 ;;Total ram usage:       20 bytes
  4557 ;; Hardware stack levels used: 1
  4558 ;; Hardware stack levels required when called: 2
  4559 ;; This function calls:
  4560 ;;		___flmul
  4561 ;;		___lwdiv
  4562 ;;		___lwmod
  4563 ;; This function is called by:
  4564 ;;		_sprintf
  4565 ;; This function uses a non-reentrant model
  4566 ;;
  4567                           
  4568  136D                     _fround:	
  4569                           ;psect for function _fround
  4570                           
  4571                           
  4572                           ;incstack = 0
  4573                           ; Regs used in _fround: [wreg-fsr0h+status,2+status,0+btemp+1+pclath+cstack]
  4574                           ;fround@prec stored from wreg
  4575  136D  1283               	bcf	3,5	;RP0=0, select bank0
  4576  136E  1303               	bcf	3,6	;RP1=0, select bank0
  4577  136F  00D1               	movwf	fround@prec
  4578  1370                     l2911:
  4579                           
  4580                           ;C:\Program Files\Microchip\xc8\v2.36\pic\sources\c90\common\doprnt.c: 417: fround(unsig
      +                          ned char prec);C:\Program Files\Microchip\xc8\v2.36\pic\sources\c90\common\doprnt.c: 418
      +                          : {;C:\Program Files\Microchip\xc8\v2.36\pic\sources\c90\common\doprnt.c: 421:  if(prec>
      +                          =110)
  4581  1370  306E               	movlw	110
  4582  1371  0251               	subwf	fround@prec,w
  4583  1372  1C03               	skipc
  4584  1373  2B75               	goto	u4271
  4585  1374  2B76               	goto	u4270
  4586  1375                     u4271:
  4587  1375  2C83               	goto	l2919
  4588  1376                     u4270:
  4589  1376                     l2913:
  4590                           
  4591                           ;C:\Program Files\Microchip\xc8\v2.36\pic\sources\c90\common\doprnt.c: 422:   return 0.5
      +                           * _npowers_[prec/100U+18U] * _npowers_[(prec%100U)/10U+9U] * _npowers_[prec%10U];
  4592  1376  303F               	movlw	63
  4593  1377  00A7               	movwf	___flmul@b+3
  4594  1378  3000               	movlw	0
  4595  1379  00A6               	movwf	___flmul@b+2
  4596  137A  3000               	movlw	0
  4597  137B  00A5               	movwf	___flmul@b+1
  4598  137C  3000               	movlw	0
  4599  137D  00A4               	movwf	___flmul@b
  4600  137E  3064               	movlw	100
  4601  137F  00F6               	movwf	___lwdiv@divisor
  4602  1380  3000               	movlw	0
  4603  1381  00F7               	movwf	___lwdiv@divisor+1
  4604  1382  0851               	movf	fround@prec,w
  4605  1383  00C2               	movwf	??_fround
  4606  1384  01C3               	clrf	??_fround+1
  4607  1385  0842               	movf	??_fround,w
  4608  1386  00F8               	movwf	___lwdiv@dividend
  4609  1387  0843               	movf	??_fround+1,w
  4610  1388  00F9               	movwf	___lwdiv@dividend+1
  4611  1389  160A  158A  23F6  160A  118A  	fcall	___lwdiv
  4612  138E  0876               	movf	?___lwdiv,w
  4613  138F  1283               	bcf	3,5	;RP0=0, select bank0
  4614  1390  1303               	bcf	3,6	;RP1=0, select bank0
  4615  1391  00C4               	movwf	??_fround+2
  4616  1392  3001               	movlw	1
  4617  1393                     u4285:
  4618  1393  1003               	clrc
  4619  1394  0DC4               	rlf	??_fround+2,f
  4620  1395  3EFF               	addlw	-1
  4621  1396  1D03               	skipz
  4622  1397  2B93               	goto	u4285
  4623  1398  1003               	clrc
  4624  1399  0D44               	rlf	??_fround+2,w
  4625  139A  3E7D               	addlw	low (((__npowers_-__stringbase)| (0+32768)+72))
  4626  139B  0084               	movwf	4
  4627  139C  160A  118A  200A  160A  118A  	fcall	stringdir
  4628  13A1  00C5               	movwf	??_fround+3
  4629  13A2  160A  118A  200A  160A  118A  	fcall	stringdir
  4630  13A7  00C6               	movwf	??_fround+4
  4631  13A8  160A  118A  200A  160A  118A  	fcall	stringdir
  4632  13AD  00C7               	movwf	??_fround+5
  4633  13AE  160A  118A  200A  160A  118A  	fcall	stringdir
  4634  13B3  00C8               	movwf	??_fround+6
  4635  13B4  0848               	movf	??_fround+6,w
  4636  13B5  00AB               	movwf	___flmul@a+3
  4637  13B6  0847               	movf	??_fround+5,w
  4638  13B7  00AA               	movwf	___flmul@a+2
  4639  13B8  0846               	movf	??_fround+4,w
  4640  13B9  00A9               	movwf	___flmul@a+1
  4641  13BA  0845               	movf	??_fround+3,w
  4642  13BB  00A8               	movwf	___flmul@a
  4643  13BC  120A  158A  249F  160A  118A  	fcall	___flmul
  4644  13C1  1283               	bcf	3,5	;RP0=0, select bank0
  4645  13C2  1303               	bcf	3,6	;RP1=0, select bank0
  4646  13C3  0827               	movf	?___flmul+3,w
  4647  13C4  00D0               	movwf	_fround$936+3
  4648  13C5  0826               	movf	?___flmul+2,w
  4649  13C6  00CF               	movwf	_fround$936+2
  4650  13C7  0825               	movf	?___flmul+1,w
  4651  13C8  00CE               	movwf	_fround$936+1
  4652  13C9  0824               	movf	?___flmul,w
  4653  13CA  00CD               	movwf	_fround$936
  4654                           
  4655                           ;C:\Program Files\Microchip\xc8\v2.36\pic\sources\c90\common\doprnt.c: 422:   return 0.5
      +                           * _npowers_[prec/100U+18U] * _npowers_[(prec%100U)/10U+9U] * _npowers_[prec%10U];
  4656  13CB  300A               	movlw	10
  4657  13CC  00F6               	movwf	___lwdiv@divisor
  4658  13CD  3000               	movlw	0
  4659  13CE  00F7               	movwf	___lwdiv@divisor+1
  4660  13CF  0851               	movf	fround@prec,w
  4661  13D0  00C2               	movwf	??_fround
  4662  13D1  01C3               	clrf	??_fround+1
  4663  13D2  0842               	movf	??_fround,w
  4664  13D3  00F2               	movwf	___lwmod@dividend
  4665  13D4  0843               	movf	??_fround+1,w
  4666  13D5  00F3               	movwf	___lwmod@dividend+1
  4667  13D6  3064               	movlw	100
  4668  13D7  00F0               	movwf	___lwmod@divisor
  4669  13D8  3000               	movlw	0
  4670  13D9  00F1               	movwf	___lwmod@divisor+1
  4671  13DA  160A  158A  237C  160A  118A  	fcall	___lwmod
  4672  13DF  0871               	movf	?___lwmod+1,w
  4673  13E0  00F9               	movwf	___lwdiv@dividend+1
  4674  13E1  0870               	movf	?___lwmod,w
  4675  13E2  00F8               	movwf	___lwdiv@dividend
  4676  13E3  160A  158A  23F6  160A  118A  	fcall	___lwdiv
  4677  13E8  0876               	movf	?___lwdiv,w
  4678  13E9  1283               	bcf	3,5	;RP0=0, select bank0
  4679  13EA  1303               	bcf	3,6	;RP1=0, select bank0
  4680  13EB  00C4               	movwf	??_fround+2
  4681  13EC  3001               	movlw	1
  4682  13ED                     u4295:
  4683  13ED  1003               	clrc
  4684  13EE  0DC4               	rlf	??_fround+2,f
  4685  13EF  3EFF               	addlw	-1
  4686  13F0  1D03               	skipz
  4687  13F1  2BED               	goto	u4295
  4688  13F2  1003               	clrc
  4689  13F3  0D44               	rlf	??_fround+2,w
  4690  13F4  3E59               	addlw	low (((__npowers_-__stringbase)| (0+32768)+36))
  4691  13F5  0084               	movwf	4
  4692  13F6  160A  118A  200A  160A  118A  	fcall	stringdir
  4693  13FB  00C5               	movwf	??_fround+3
  4694  13FC  160A  118A  200A  160A  118A  	fcall	stringdir
  4695  1401  00C6               	movwf	??_fround+4
  4696  1402  160A  118A  200A  160A  118A  	fcall	stringdir
  4697  1407  00C7               	movwf	??_fround+5
  4698  1408  160A  118A  200A  160A  118A  	fcall	stringdir
  4699  140D  00C8               	movwf	??_fround+6
  4700  140E  0848               	movf	??_fround+6,w
  4701  140F  00A7               	movwf	___flmul@b+3
  4702  1410  0847               	movf	??_fround+5,w
  4703  1411  00A6               	movwf	___flmul@b+2
  4704  1412  0846               	movf	??_fround+4,w
  4705  1413  00A5               	movwf	___flmul@b+1
  4706  1414  0845               	movf	??_fround+3,w
  4707  1415  00A4               	movwf	___flmul@b
  4708  1416  0850               	movf	_fround$936+3,w
  4709  1417  00AB               	movwf	___flmul@a+3
  4710  1418  084F               	movf	_fround$936+2,w
  4711  1419  00AA               	movwf	___flmul@a+2
  4712  141A  084E               	movf	_fround$936+1,w
  4713  141B  00A9               	movwf	___flmul@a+1
  4714  141C  084D               	movf	_fround$936,w
  4715  141D  00A8               	movwf	___flmul@a
  4716  141E  120A  158A  249F  160A  118A  	fcall	___flmul
  4717  1423  1283               	bcf	3,5	;RP0=0, select bank0
  4718  1424  1303               	bcf	3,6	;RP1=0, select bank0
  4719  1425  0827               	movf	?___flmul+3,w
  4720  1426  00CC               	movwf	_fround$937+3
  4721  1427  0826               	movf	?___flmul+2,w
  4722  1428  00CB               	movwf	_fround$937+2
  4723  1429  0825               	movf	?___flmul+1,w
  4724  142A  00CA               	movwf	_fround$937+1
  4725  142B  0824               	movf	?___flmul,w
  4726  142C  00C9               	movwf	_fround$937
  4727                           
  4728                           ;C:\Program Files\Microchip\xc8\v2.36\pic\sources\c90\common\doprnt.c: 422:   return 0.5
      +                           * _npowers_[prec/100U+18U] * _npowers_[(prec%100U)/10U+9U] * _npowers_[prec%10U];
  4729  142D  300A               	movlw	10
  4730  142E  00F0               	movwf	___lwmod@divisor
  4731  142F  3000               	movlw	0
  4732  1430  00F1               	movwf	___lwmod@divisor+1
  4733  1431  0851               	movf	fround@prec,w
  4734  1432  00C2               	movwf	??_fround
  4735  1433  01C3               	clrf	??_fround+1
  4736  1434  0842               	movf	??_fround,w
  4737  1435  00F2               	movwf	___lwmod@dividend
  4738  1436  0843               	movf	??_fround+1,w
  4739  1437  00F3               	movwf	___lwmod@dividend+1
  4740  1438  160A  158A  237C  160A  118A  	fcall	___lwmod
  4741  143D  0870               	movf	?___lwmod,w
  4742  143E  1283               	bcf	3,5	;RP0=0, select bank0
  4743  143F  1303               	bcf	3,6	;RP1=0, select bank0
  4744  1440  00C4               	movwf	??_fround+2
  4745  1441  3001               	movlw	1
  4746  1442                     u4305:
  4747  1442  1003               	clrc
  4748  1443  0DC4               	rlf	??_fround+2,f
  4749  1444  3EFF               	addlw	-1
  4750  1445  1D03               	skipz
  4751  1446  2C42               	goto	u4305
  4752  1447  1003               	clrc
  4753  1448  0D44               	rlf	??_fround+2,w
  4754  1449  3E35               	addlw	low ((__npowers_-__stringbase)| (0+32768))
  4755  144A  0084               	movwf	4
  4756  144B  160A  118A  200A  160A  118A  	fcall	stringdir
  4757  1450  00C5               	movwf	??_fround+3
  4758  1451  160A  118A  200A  160A  118A  	fcall	stringdir
  4759  1456  00C6               	movwf	??_fround+4
  4760  1457  160A  118A  200A  160A  118A  	fcall	stringdir
  4761  145C  00C7               	movwf	??_fround+5
  4762  145D  160A  118A  200A  160A  118A  	fcall	stringdir
  4763  1462  00C8               	movwf	??_fround+6
  4764  1463  0848               	movf	??_fround+6,w
  4765  1464  00A7               	movwf	___flmul@b+3
  4766  1465  0847               	movf	??_fround+5,w
  4767  1466  00A6               	movwf	___flmul@b+2
  4768  1467  0846               	movf	??_fround+4,w
  4769  1468  00A5               	movwf	___flmul@b+1
  4770  1469  0845               	movf	??_fround+3,w
  4771  146A  00A4               	movwf	___flmul@b
  4772  146B  084C               	movf	_fround$937+3,w
  4773  146C  00AB               	movwf	___flmul@a+3
  4774  146D  084B               	movf	_fround$937+2,w
  4775  146E  00AA               	movwf	___flmul@a+2
  4776  146F  084A               	movf	_fround$937+1,w
  4777  1470  00A9               	movwf	___flmul@a+1
  4778  1471  0849               	movf	_fround$937,w
  4779  1472  00A8               	movwf	___flmul@a
  4780  1473  120A  158A  249F  160A  118A  	fcall	___flmul
  4781  1478  1283               	bcf	3,5	;RP0=0, select bank0
  4782  1479  1303               	bcf	3,6	;RP1=0, select bank0
  4783  147A  0827               	movf	?___flmul+3,w
  4784  147B  00C1               	movwf	?_fround+3
  4785  147C  0826               	movf	?___flmul+2,w
  4786  147D  00C0               	movwf	?_fround+2
  4787  147E  0825               	movf	?___flmul+1,w
  4788  147F  00BF               	movwf	?_fround+1
  4789  1480  0824               	movf	?___flmul,w
  4790  1481  00BE               	movwf	?_fround
  4791  1482  2D77               	goto	l227
  4792  1483                     l2919:
  4793  1483  300B               	movlw	11
  4794  1484  0251               	subwf	fround@prec,w
  4795  1485  1C03               	skipc
  4796  1486  2C88               	goto	u4311
  4797  1487  2C89               	goto	u4310
  4798  1488                     u4311:
  4799  1488  2D34               	goto	l2925
  4800  1489                     u4310:
  4801  1489                     l2921:
  4802                           
  4803                           ;C:\Program Files\Microchip\xc8\v2.36\pic\sources\c90\common\doprnt.c: 424:   return 0.5
      +                           * _npowers_[prec/10U+9U] * _npowers_[prec%10U];
  4804  1489  303F               	movlw	63
  4805  148A  00A7               	movwf	___flmul@b+3
  4806  148B  3000               	movlw	0
  4807  148C  00A6               	movwf	___flmul@b+2
  4808  148D  3000               	movlw	0
  4809  148E  00A5               	movwf	___flmul@b+1
  4810  148F  3000               	movlw	0
  4811  1490  00A4               	movwf	___flmul@b
  4812  1491  300A               	movlw	10
  4813  1492  00F6               	movwf	___lwdiv@divisor
  4814  1493  3000               	movlw	0
  4815  1494  00F7               	movwf	___lwdiv@divisor+1
  4816  1495  0851               	movf	fround@prec,w
  4817  1496  00C2               	movwf	??_fround
  4818  1497  01C3               	clrf	??_fround+1
  4819  1498  0842               	movf	??_fround,w
  4820  1499  00F8               	movwf	___lwdiv@dividend
  4821  149A  0843               	movf	??_fround+1,w
  4822  149B  00F9               	movwf	___lwdiv@dividend+1
  4823  149C  160A  158A  23F6  160A  118A  	fcall	___lwdiv
  4824  14A1  0876               	movf	?___lwdiv,w
  4825  14A2  1283               	bcf	3,5	;RP0=0, select bank0
  4826  14A3  1303               	bcf	3,6	;RP1=0, select bank0
  4827  14A4  00C4               	movwf	??_fround+2
  4828  14A5  3001               	movlw	1
  4829  14A6                     u4325:
  4830  14A6  1003               	clrc
  4831  14A7  0DC4               	rlf	??_fround+2,f
  4832  14A8  3EFF               	addlw	-1
  4833  14A9  1D03               	skipz
  4834  14AA  2CA6               	goto	u4325
  4835  14AB  1003               	clrc
  4836  14AC  0D44               	rlf	??_fround+2,w
  4837  14AD  3E59               	addlw	low (((__npowers_-__stringbase)| (0+32768)+36))
  4838  14AE  0084               	movwf	4
  4839  14AF  160A  118A  200A  160A  118A  	fcall	stringdir
  4840  14B4  00C5               	movwf	??_fround+3
  4841  14B5  160A  118A  200A  160A  118A  	fcall	stringdir
  4842  14BA  00C6               	movwf	??_fround+4
  4843  14BB  160A  118A  200A  160A  118A  	fcall	stringdir
  4844  14C0  00C7               	movwf	??_fround+5
  4845  14C1  160A  118A  200A  160A  118A  	fcall	stringdir
  4846  14C6  00C8               	movwf	??_fround+6
  4847  14C7  0848               	movf	??_fround+6,w
  4848  14C8  00AB               	movwf	___flmul@a+3
  4849  14C9  0847               	movf	??_fround+5,w
  4850  14CA  00AA               	movwf	___flmul@a+2
  4851  14CB  0846               	movf	??_fround+4,w
  4852  14CC  00A9               	movwf	___flmul@a+1
  4853  14CD  0845               	movf	??_fround+3,w
  4854  14CE  00A8               	movwf	___flmul@a
  4855  14CF  120A  158A  249F  160A  118A  	fcall	___flmul
  4856  14D4  1283               	bcf	3,5	;RP0=0, select bank0
  4857  14D5  1303               	bcf	3,6	;RP1=0, select bank0
  4858  14D6  0827               	movf	?___flmul+3,w
  4859  14D7  00D0               	movwf	_fround$936+3
  4860  14D8  0826               	movf	?___flmul+2,w
  4861  14D9  00CF               	movwf	_fround$936+2
  4862  14DA  0825               	movf	?___flmul+1,w
  4863  14DB  00CE               	movwf	_fround$936+1
  4864  14DC  0824               	movf	?___flmul,w
  4865  14DD  00CD               	movwf	_fround$936
  4866                           
  4867                           ;C:\Program Files\Microchip\xc8\v2.36\pic\sources\c90\common\doprnt.c: 424:   return 0.5
      +                           * _npowers_[prec/10U+9U] * _npowers_[prec%10U];
  4868  14DE  300A               	movlw	10
  4869  14DF  00F0               	movwf	___lwmod@divisor
  4870  14E0  3000               	movlw	0
  4871  14E1  00F1               	movwf	___lwmod@divisor+1
  4872  14E2  0851               	movf	fround@prec,w
  4873  14E3  00C2               	movwf	??_fround
  4874  14E4  01C3               	clrf	??_fround+1
  4875  14E5  0842               	movf	??_fround,w
  4876  14E6  00F2               	movwf	___lwmod@dividend
  4877  14E7  0843               	movf	??_fround+1,w
  4878  14E8  00F3               	movwf	___lwmod@dividend+1
  4879  14E9  160A  158A  237C  160A  118A  	fcall	___lwmod
  4880  14EE  0870               	movf	?___lwmod,w
  4881  14EF  1283               	bcf	3,5	;RP0=0, select bank0
  4882  14F0  1303               	bcf	3,6	;RP1=0, select bank0
  4883  14F1  00C4               	movwf	??_fround+2
  4884  14F2  3001               	movlw	1
  4885  14F3                     u4335:
  4886  14F3  1003               	clrc
  4887  14F4  0DC4               	rlf	??_fround+2,f
  4888  14F5  3EFF               	addlw	-1
  4889  14F6  1D03               	skipz
  4890  14F7  2CF3               	goto	u4335
  4891  14F8  1003               	clrc
  4892  14F9  0D44               	rlf	??_fround+2,w
  4893  14FA  3E35               	addlw	low ((__npowers_-__stringbase)| (0+32768))
  4894  14FB  0084               	movwf	4
  4895  14FC  160A  118A  200A  160A  118A  	fcall	stringdir
  4896  1501  00C5               	movwf	??_fround+3
  4897  1502  160A  118A  200A  160A  118A  	fcall	stringdir
  4898  1507  00C6               	movwf	??_fround+4
  4899  1508  160A  118A  200A  160A  118A  	fcall	stringdir
  4900  150D  00C7               	movwf	??_fround+5
  4901  150E  160A  118A  200A  160A  118A  	fcall	stringdir
  4902  1513  00C8               	movwf	??_fround+6
  4903  1514  0848               	movf	??_fround+6,w
  4904  1515  00A7               	movwf	___flmul@b+3
  4905  1516  0847               	movf	??_fround+5,w
  4906  1517  00A6               	movwf	___flmul@b+2
  4907  1518  0846               	movf	??_fround+4,w
  4908  1519  00A5               	movwf	___flmul@b+1
  4909  151A  0845               	movf	??_fround+3,w
  4910  151B  00A4               	movwf	___flmul@b
  4911  151C  0850               	movf	_fround$936+3,w
  4912  151D  00AB               	movwf	___flmul@a+3
  4913  151E  084F               	movf	_fround$936+2,w
  4914  151F  00AA               	movwf	___flmul@a+2
  4915  1520  084E               	movf	_fround$936+1,w
  4916  1521  00A9               	movwf	___flmul@a+1
  4917  1522  084D               	movf	_fround$936,w
  4918  1523  00A8               	movwf	___flmul@a
  4919  1524  120A  158A  249F  160A  118A  	fcall	___flmul
  4920  1529  1283               	bcf	3,5	;RP0=0, select bank0
  4921  152A  1303               	bcf	3,6	;RP1=0, select bank0
  4922  152B  0827               	movf	?___flmul+3,w
  4923  152C  00C1               	movwf	?_fround+3
  4924  152D  0826               	movf	?___flmul+2,w
  4925  152E  00C0               	movwf	?_fround+2
  4926  152F  0825               	movf	?___flmul+1,w
  4927  1530  00BF               	movwf	?_fround+1
  4928  1531  0824               	movf	?___flmul,w
  4929  1532  00BE               	movwf	?_fround
  4930  1533  2D77               	goto	l227
  4931  1534                     l2925:
  4932                           
  4933                           ;C:\Program Files\Microchip\xc8\v2.36\pic\sources\c90\common\doprnt.c: 425:  return 0.5 
      +                          * _npowers_[prec];
  4934  1534  303F               	movlw	63
  4935  1535  00A7               	movwf	___flmul@b+3
  4936  1536  3000               	movlw	0
  4937  1537  00A6               	movwf	___flmul@b+2
  4938  1538  3000               	movlw	0
  4939  1539  00A5               	movwf	___flmul@b+1
  4940  153A  3000               	movlw	0
  4941  153B  00A4               	movwf	___flmul@b
  4942  153C  0851               	movf	fround@prec,w
  4943  153D  00C2               	movwf	??_fround
  4944  153E  3001               	movlw	1
  4945  153F                     u4345:
  4946  153F  1003               	clrc
  4947  1540  0DC2               	rlf	??_fround,f
  4948  1541  3EFF               	addlw	-1
  4949  1542  1D03               	skipz
  4950  1543  2D3F               	goto	u4345
  4951  1544  1003               	clrc
  4952  1545  0D42               	rlf	??_fround,w
  4953  1546  3E35               	addlw	low ((__npowers_-__stringbase)| (0+32768))
  4954  1547  0084               	movwf	4
  4955  1548  160A  118A  200A  160A  118A  	fcall	stringdir
  4956  154D  00C3               	movwf	??_fround+1
  4957  154E  160A  118A  200A  160A  118A  	fcall	stringdir
  4958  1553  00C4               	movwf	??_fround+2
  4959  1554  160A  118A  200A  160A  118A  	fcall	stringdir
  4960  1559  00C5               	movwf	??_fround+3
  4961  155A  160A  118A  200A  160A  118A  	fcall	stringdir
  4962  155F  00C6               	movwf	??_fround+4
  4963  1560  0846               	movf	??_fround+4,w
  4964  1561  00AB               	movwf	___flmul@a+3
  4965  1562  0845               	movf	??_fround+3,w
  4966  1563  00AA               	movwf	___flmul@a+2
  4967  1564  0844               	movf	??_fround+2,w
  4968  1565  00A9               	movwf	___flmul@a+1
  4969  1566  0843               	movf	??_fround+1,w
  4970  1567  00A8               	movwf	___flmul@a
  4971  1568  120A  158A  249F  160A  118A  	fcall	___flmul
  4972  156D  1283               	bcf	3,5	;RP0=0, select bank0
  4973  156E  1303               	bcf	3,6	;RP1=0, select bank0
  4974  156F  0827               	movf	?___flmul+3,w
  4975  1570  00C1               	movwf	?_fround+3
  4976  1571  0826               	movf	?___flmul+2,w
  4977  1572  00C0               	movwf	?_fround+2
  4978  1573  0825               	movf	?___flmul+1,w
  4979  1574  00BF               	movwf	?_fround+1
  4980  1575  0824               	movf	?___flmul,w
  4981  1576  00BE               	movwf	?_fround
  4982  1577                     l227:
  4983  1577  0008               	return
  4984  1578                     __end_of_fround:
  4985                           
  4986                           	psect	text8
  4987  1B7C                     __ptext8:	
  4988 ;; *************** function ___lwmod *****************
  4989 ;; Defined at:
  4990 ;;		line 5 in file "C:\Program Files\Microchip\xc8\v2.36\pic\sources\c90\common\lwmod.c"
  4991 ;; Parameters:    Size  Location     Type
  4992 ;;  divisor         2    0[COMMON] unsigned int 
  4993 ;;  dividend        2    2[COMMON] unsigned int 
  4994 ;; Auto vars:     Size  Location     Type
  4995 ;;  counter         1    5[COMMON] unsigned char 
  4996 ;; Return value:  Size  Location     Type
  4997 ;;                  2    0[COMMON] unsigned int 
  4998 ;; Registers used:
  4999 ;;		wreg, status,2, status,0
  5000 ;; Tracked objects:
  5001 ;;		On entry : 0/0
  5002 ;;		On exit  : 0/0
  5003 ;;		Unchanged: 0/0
  5004 ;; Data sizes:     COMMON   BANK0   BANK1   BANK3   BANK2
  5005 ;;      Params:         4       0       0       0       0
  5006 ;;      Locals:         1       0       0       0       0
  5007 ;;      Temps:          1       0       0       0       0
  5008 ;;      Totals:         6       0       0       0       0
  5009 ;;Total ram usage:        6 bytes
  5010 ;; Hardware stack levels used: 1
  5011 ;; This function calls:
  5012 ;;		Nothing
  5013 ;; This function is called by:
  5014 ;;		_fround
  5015 ;; This function uses a non-reentrant model
  5016 ;;
  5017                           
  5018  1B7C                     ___lwmod:	
  5019                           ;psect for function ___lwmod
  5020                           
  5021  1B7C                     l2525:	
  5022                           ;incstack = 0
  5023                           ; Regs used in ___lwmod: [wreg+status,2+status,0]
  5024                           
  5025  1B7C  0870               	movf	___lwmod@divisor,w
  5026  1B7D  0471               	iorwf	___lwmod@divisor+1,w
  5027  1B7E  1903               	btfsc	3,2
  5028  1B7F  2B81               	goto	u3361
  5029  1B80  2B82               	goto	u3360
  5030  1B81                     u3361:
  5031  1B81  2BB1               	goto	l2543
  5032  1B82                     u3360:
  5033  1B82                     l2527:
  5034  1B82  01F5               	clrf	___lwmod@counter
  5035  1B83  0AF5               	incf	___lwmod@counter,f
  5036  1B84  2B90               	goto	l2533
  5037  1B85                     l2529:
  5038  1B85  3001               	movlw	1
  5039  1B86                     u3375:
  5040  1B86  1003               	clrc
  5041  1B87  0DF0               	rlf	___lwmod@divisor,f
  5042  1B88  0DF1               	rlf	___lwmod@divisor+1,f
  5043  1B89  3EFF               	addlw	-1
  5044  1B8A  1D03               	skipz
  5045  1B8B  2B86               	goto	u3375
  5046  1B8C                     l2531:
  5047  1B8C  3001               	movlw	1
  5048  1B8D  00F4               	movwf	??___lwmod
  5049  1B8E  0874               	movf	??___lwmod,w
  5050  1B8F  07F5               	addwf	___lwmod@counter,f
  5051  1B90                     l2533:
  5052  1B90  1FF1               	btfss	___lwmod@divisor+1,7
  5053  1B91  2B93               	goto	u3381
  5054  1B92  2B94               	goto	u3380
  5055  1B93                     u3381:
  5056  1B93  2B85               	goto	l2529
  5057  1B94                     u3380:
  5058  1B94                     l2535:
  5059  1B94  0871               	movf	___lwmod@divisor+1,w
  5060  1B95  0273               	subwf	___lwmod@dividend+1,w
  5061  1B96  1D03               	skipz
  5062  1B97  2B9A               	goto	u3395
  5063  1B98  0870               	movf	___lwmod@divisor,w
  5064  1B99  0272               	subwf	___lwmod@dividend,w
  5065  1B9A                     u3395:
  5066  1B9A  1C03               	skipc
  5067  1B9B  2B9D               	goto	u3391
  5068  1B9C  2B9E               	goto	u3390
  5069  1B9D                     u3391:
  5070  1B9D  2BA4               	goto	l2539
  5071  1B9E                     u3390:
  5072  1B9E                     l2537:
  5073  1B9E  0870               	movf	___lwmod@divisor,w
  5074  1B9F  02F2               	subwf	___lwmod@dividend,f
  5075  1BA0  0871               	movf	___lwmod@divisor+1,w
  5076  1BA1  1C03               	skipc
  5077  1BA2  03F3               	decf	___lwmod@dividend+1,f
  5078  1BA3  02F3               	subwf	___lwmod@dividend+1,f
  5079  1BA4                     l2539:
  5080  1BA4  3001               	movlw	1
  5081  1BA5                     u3405:
  5082  1BA5  1003               	clrc
  5083  1BA6  0CF1               	rrf	___lwmod@divisor+1,f
  5084  1BA7  0CF0               	rrf	___lwmod@divisor,f
  5085  1BA8  3EFF               	addlw	-1
  5086  1BA9  1D03               	skipz
  5087  1BAA  2BA5               	goto	u3405
  5088  1BAB                     l2541:
  5089  1BAB  3001               	movlw	1
  5090  1BAC  02F5               	subwf	___lwmod@counter,f
  5091  1BAD  1D03               	btfss	3,2
  5092  1BAE  2BB0               	goto	u3411
  5093  1BAF  2BB1               	goto	u3410
  5094  1BB0                     u3411:
  5095  1BB0  2B94               	goto	l2535
  5096  1BB1                     u3410:
  5097  1BB1                     l2543:
  5098  1BB1  0873               	movf	___lwmod@dividend+1,w
  5099  1BB2  00F1               	movwf	?___lwmod+1
  5100  1BB3  0872               	movf	___lwmod@dividend,w
  5101  1BB4  00F0               	movwf	?___lwmod
  5102  1BB5                     l620:
  5103  1BB5  0008               	return
  5104  1BB6                     __end_of___lwmod:
  5105                           
  5106                           	psect	text9
  5107  1BF6                     __ptext9:	
  5108 ;; *************** function ___lwdiv *****************
  5109 ;; Defined at:
  5110 ;;		line 5 in file "C:\Program Files\Microchip\xc8\v2.36\pic\sources\c90\common\lwdiv.c"
  5111 ;; Parameters:    Size  Location     Type
  5112 ;;  divisor         2    6[COMMON] unsigned int 
  5113 ;;  dividend        2    8[COMMON] unsigned int 
  5114 ;; Auto vars:     Size  Location     Type
  5115 ;;  quotient        2   11[COMMON] unsigned int 
  5116 ;;  counter         1   13[COMMON] unsigned char 
  5117 ;; Return value:  Size  Location     Type
  5118 ;;                  2    6[COMMON] unsigned int 
  5119 ;; Registers used:
  5120 ;;		wreg, status,2, status,0
  5121 ;; Tracked objects:
  5122 ;;		On entry : 0/0
  5123 ;;		On exit  : 0/0
  5124 ;;		Unchanged: 0/0
  5125 ;; Data sizes:     COMMON   BANK0   BANK1   BANK3   BANK2
  5126 ;;      Params:         4       0       0       0       0
  5127 ;;      Locals:         3       0       0       0       0
  5128 ;;      Temps:          1       0       0       0       0
  5129 ;;      Totals:         8       0       0       0       0
  5130 ;;Total ram usage:        8 bytes
  5131 ;; Hardware stack levels used: 1
  5132 ;; This function calls:
  5133 ;;		Nothing
  5134 ;; This function is called by:
  5135 ;;		_fround
  5136 ;; This function uses a non-reentrant model
  5137 ;;
  5138                           
  5139  1BF6                     ___lwdiv:	
  5140                           ;psect for function ___lwdiv
  5141                           
  5142  1BF6                     l2499:	
  5143                           ;incstack = 0
  5144                           ; Regs used in ___lwdiv: [wreg+status,2+status,0]
  5145                           
  5146  1BF6  01FB               	clrf	___lwdiv@quotient
  5147  1BF7  01FC               	clrf	___lwdiv@quotient+1
  5148  1BF8                     l2501:
  5149  1BF8  0876               	movf	___lwdiv@divisor,w
  5150  1BF9  0477               	iorwf	___lwdiv@divisor+1,w
  5151  1BFA  1903               	btfsc	3,2
  5152  1BFB  2BFD               	goto	u3291
  5153  1BFC  2BFE               	goto	u3290
  5154  1BFD                     u3291:
  5155  1BFD  2C35               	goto	l2521
  5156  1BFE                     u3290:
  5157  1BFE                     l2503:
  5158  1BFE  01FD               	clrf	___lwdiv@counter
  5159  1BFF  0AFD               	incf	___lwdiv@counter,f
  5160  1C00  2C0C               	goto	l2509
  5161  1C01                     l2505:
  5162  1C01  3001               	movlw	1
  5163  1C02                     u3305:
  5164  1C02  1003               	clrc
  5165  1C03  0DF6               	rlf	___lwdiv@divisor,f
  5166  1C04  0DF7               	rlf	___lwdiv@divisor+1,f
  5167  1C05  3EFF               	addlw	-1
  5168  1C06  1D03               	skipz
  5169  1C07  2C02               	goto	u3305
  5170  1C08                     l2507:
  5171  1C08  3001               	movlw	1
  5172  1C09  00FA               	movwf	??___lwdiv
  5173  1C0A  087A               	movf	??___lwdiv,w
  5174  1C0B  07FD               	addwf	___lwdiv@counter,f
  5175  1C0C                     l2509:
  5176  1C0C  1FF7               	btfss	___lwdiv@divisor+1,7
  5177  1C0D  2C0F               	goto	u3311
  5178  1C0E  2C10               	goto	u3310
  5179  1C0F                     u3311:
  5180  1C0F  2C01               	goto	l2505
  5181  1C10                     u3310:
  5182  1C10                     l2511:
  5183  1C10  3001               	movlw	1
  5184  1C11                     u3325:
  5185  1C11  1003               	clrc
  5186  1C12  0DFB               	rlf	___lwdiv@quotient,f
  5187  1C13  0DFC               	rlf	___lwdiv@quotient+1,f
  5188  1C14  3EFF               	addlw	-1
  5189  1C15  1D03               	skipz
  5190  1C16  2C11               	goto	u3325
  5191  1C17  0877               	movf	___lwdiv@divisor+1,w
  5192  1C18  0279               	subwf	___lwdiv@dividend+1,w
  5193  1C19  1D03               	skipz
  5194  1C1A  2C1D               	goto	u3335
  5195  1C1B  0876               	movf	___lwdiv@divisor,w
  5196  1C1C  0278               	subwf	___lwdiv@dividend,w
  5197  1C1D                     u3335:
  5198  1C1D  1C03               	skipc
  5199  1C1E  2C20               	goto	u3331
  5200  1C1F  2C21               	goto	u3330
  5201  1C20                     u3331:
  5202  1C20  2C28               	goto	l2517
  5203  1C21                     u3330:
  5204  1C21                     l2513:
  5205  1C21  0876               	movf	___lwdiv@divisor,w
  5206  1C22  02F8               	subwf	___lwdiv@dividend,f
  5207  1C23  0877               	movf	___lwdiv@divisor+1,w
  5208  1C24  1C03               	skipc
  5209  1C25  03F9               	decf	___lwdiv@dividend+1,f
  5210  1C26  02F9               	subwf	___lwdiv@dividend+1,f
  5211  1C27                     l2515:
  5212  1C27  147B               	bsf	___lwdiv@quotient,0
  5213  1C28                     l2517:
  5214  1C28  3001               	movlw	1
  5215  1C29                     u3345:
  5216  1C29  1003               	clrc
  5217  1C2A  0CF7               	rrf	___lwdiv@divisor+1,f
  5218  1C2B  0CF6               	rrf	___lwdiv@divisor,f
  5219  1C2C  3EFF               	addlw	-1
  5220  1C2D  1D03               	skipz
  5221  1C2E  2C29               	goto	u3345
  5222  1C2F                     l2519:
  5223  1C2F  3001               	movlw	1
  5224  1C30  02FD               	subwf	___lwdiv@counter,f
  5225  1C31  1D03               	btfss	3,2
  5226  1C32  2C34               	goto	u3351
  5227  1C33  2C35               	goto	u3350
  5228  1C34                     u3351:
  5229  1C34  2C10               	goto	l2511
  5230  1C35                     u3350:
  5231  1C35                     l2521:
  5232  1C35  087C               	movf	___lwdiv@quotient+1,w
  5233  1C36  00F7               	movwf	?___lwdiv+1
  5234  1C37  087B               	movf	___lwdiv@quotient,w
  5235  1C38  00F6               	movwf	?___lwdiv
  5236  1C39                     l610:
  5237  1C39  0008               	return
  5238  1C3A                     __end_of___lwdiv:
  5239                           
  5240                           	psect	text10
  5241  0C9F                     __ptext10:	
  5242 ;; *************** function ___flmul *****************
  5243 ;; Defined at:
  5244 ;;		line 8 in file "C:\Program Files\Microchip\xc8\v2.36\pic\sources\c90\common\sprcmul.c"
  5245 ;; Parameters:    Size  Location     Type
  5246 ;;  b               4    4[BANK0 ] unsigned int 
  5247 ;;  a               4    8[BANK0 ] unsigned int 
  5248 ;; Auto vars:     Size  Location     Type
  5249 ;;  prod            4   24[BANK0 ] struct .
  5250 ;;  grs             4   18[BANK0 ] unsigned long 
  5251 ;;  temp            2   28[BANK0 ] struct .
  5252 ;;  bexp            1   23[BANK0 ] unsigned char 
  5253 ;;  aexp            1   22[BANK0 ] unsigned char 
  5254 ;;  sign            1   17[BANK0 ] unsigned char 
  5255 ;; Return value:  Size  Location     Type
  5256 ;;                  4    4[BANK0 ] unsigned char 
  5257 ;; Registers used:
  5258 ;;		wreg, status,2, status,0, btemp+1, pclath, cstack
  5259 ;; Tracked objects:
  5260 ;;		On entry : 0/0
  5261 ;;		On exit  : 0/0
  5262 ;;		Unchanged: 0/0
  5263 ;; Data sizes:     COMMON   BANK0   BANK1   BANK3   BANK2
  5264 ;;      Params:         0       8       0       0       0
  5265 ;;      Locals:         0      13       0       0       0
  5266 ;;      Temps:          0       5       0       0       0
  5267 ;;      Totals:         0      26       0       0       0
  5268 ;;Total ram usage:       26 bytes
  5269 ;; Hardware stack levels used: 1
  5270 ;; Hardware stack levels required when called: 1
  5271 ;; This function calls:
  5272 ;;		__Umul8_16
  5273 ;; This function is called by:
  5274 ;;		_fround
  5275 ;;		_scale
  5276 ;;		_sprintf
  5277 ;; This function uses a non-reentrant model
  5278 ;;
  5279                           
  5280  0C9F                     ___flmul:	
  5281                           ;psect for function ___flmul
  5282                           
  5283  0C9F                     l2741:	
  5284                           ;incstack = 0
  5285                           ; Regs used in ___flmul: [wreg+status,2+status,0+btemp+1+pclath+cstack]
  5286                           
  5287  0C9F  1283               	bcf	3,5	;RP0=0, select bank0
  5288  0CA0  1303               	bcf	3,6	;RP1=0, select bank0
  5289  0CA1  0827               	movf	___flmul@b+3,w
  5290  0CA2  3980               	andlw	128
  5291  0CA3  00AC               	movwf	??___flmul
  5292  0CA4  082C               	movf	??___flmul,w
  5293  0CA5  00B1               	movwf	___flmul@sign
  5294  0CA6                     l2743:
  5295  0CA6  0827               	movf	___flmul@b+3,w
  5296  0CA7  00AC               	movwf	??___flmul
  5297  0CA8  072C               	addwf	??___flmul,w
  5298  0CA9  00AD               	movwf	??___flmul+1
  5299  0CAA  082D               	movf	??___flmul+1,w
  5300  0CAB  00B7               	movwf	___flmul@bexp
  5301  0CAC                     l2745:
  5302  0CAC  1FA6               	btfss	___flmul@b+2,7
  5303  0CAD  2CAF               	goto	u3881
  5304  0CAE  2CB0               	goto	u3880
  5305  0CAF                     u3881:
  5306  0CAF  2CB1               	goto	l2749
  5307  0CB0                     u3880:
  5308  0CB0                     l2747:
  5309  0CB0  1437               	bsf	___flmul@bexp,0
  5310  0CB1                     l2749:
  5311  0CB1  0837               	movf	___flmul@bexp,w
  5312  0CB2  1903               	btfsc	3,2
  5313  0CB3  2CB5               	goto	u3891
  5314  0CB4  2CB6               	goto	u3890
  5315  0CB5                     u3891:
  5316  0CB5  2CC5               	goto	l2757
  5317  0CB6                     u3890:
  5318  0CB6                     l2751:
  5319  0CB6  0A37               	incf	___flmul@bexp,w
  5320  0CB7  1D03               	btfss	3,2
  5321  0CB8  2CBA               	goto	u3901
  5322  0CB9  2CBB               	goto	u3900
  5323  0CBA                     u3901:
  5324  0CBA  2CC3               	goto	l2755
  5325  0CBB                     u3900:
  5326  0CBB                     l2753:
  5327  0CBB  3000               	movlw	0
  5328  0CBC  00A7               	movwf	___flmul@b+3
  5329  0CBD  3000               	movlw	0
  5330  0CBE  00A6               	movwf	___flmul@b+2
  5331  0CBF  3000               	movlw	0
  5332  0CC0  00A5               	movwf	___flmul@b+1
  5333  0CC1  3000               	movlw	0
  5334  0CC2  00A4               	movwf	___flmul@b
  5335  0CC3                     l2755:
  5336  0CC3  17A6               	bsf	___flmul@b+2,7
  5337  0CC4  2CCD               	goto	l2759
  5338  0CC5                     l2757:
  5339  0CC5  3000               	movlw	0
  5340  0CC6  00A7               	movwf	___flmul@b+3
  5341  0CC7  3000               	movlw	0
  5342  0CC8  00A6               	movwf	___flmul@b+2
  5343  0CC9  3000               	movlw	0
  5344  0CCA  00A5               	movwf	___flmul@b+1
  5345  0CCB  3000               	movlw	0
  5346  0CCC  00A4               	movwf	___flmul@b
  5347  0CCD                     l2759:
  5348  0CCD  082B               	movf	___flmul@a+3,w
  5349  0CCE  3980               	andlw	128
  5350  0CCF  00AC               	movwf	??___flmul
  5351  0CD0  082C               	movf	??___flmul,w
  5352  0CD1  06B1               	xorwf	___flmul@sign,f
  5353  0CD2                     l2761:
  5354  0CD2  082B               	movf	___flmul@a+3,w
  5355  0CD3  00AC               	movwf	??___flmul
  5356  0CD4  072C               	addwf	??___flmul,w
  5357  0CD5  00AD               	movwf	??___flmul+1
  5358  0CD6  082D               	movf	??___flmul+1,w
  5359  0CD7  00B6               	movwf	___flmul@aexp
  5360  0CD8                     l2763:
  5361  0CD8  1FAA               	btfss	___flmul@a+2,7
  5362  0CD9  2CDB               	goto	u3911
  5363  0CDA  2CDC               	goto	u3910
  5364  0CDB                     u3911:
  5365  0CDB  2CDD               	goto	l2767
  5366  0CDC                     u3910:
  5367  0CDC                     l2765:
  5368  0CDC  1436               	bsf	___flmul@aexp,0
  5369  0CDD                     l2767:
  5370  0CDD  0836               	movf	___flmul@aexp,w
  5371  0CDE  1903               	btfsc	3,2
  5372  0CDF  2CE1               	goto	u3921
  5373  0CE0  2CE2               	goto	u3920
  5374  0CE1                     u3921:
  5375  0CE1  2CF1               	goto	l2775
  5376  0CE2                     u3920:
  5377  0CE2                     l2769:
  5378  0CE2  0A36               	incf	___flmul@aexp,w
  5379  0CE3  1D03               	btfss	3,2
  5380  0CE4  2CE6               	goto	u3931
  5381  0CE5  2CE7               	goto	u3930
  5382  0CE6                     u3931:
  5383  0CE6  2CEF               	goto	l2773
  5384  0CE7                     u3930:
  5385  0CE7                     l2771:
  5386  0CE7  3000               	movlw	0
  5387  0CE8  00AB               	movwf	___flmul@a+3
  5388  0CE9  3000               	movlw	0
  5389  0CEA  00AA               	movwf	___flmul@a+2
  5390  0CEB  3000               	movlw	0
  5391  0CEC  00A9               	movwf	___flmul@a+1
  5392  0CED  3000               	movlw	0
  5393  0CEE  00A8               	movwf	___flmul@a
  5394  0CEF                     l2773:
  5395  0CEF  17AA               	bsf	___flmul@a+2,7
  5396  0CF0  2CF9               	goto	l2777
  5397  0CF1                     l2775:
  5398  0CF1  3000               	movlw	0
  5399  0CF2  00AB               	movwf	___flmul@a+3
  5400  0CF3  3000               	movlw	0
  5401  0CF4  00AA               	movwf	___flmul@a+2
  5402  0CF5  3000               	movlw	0
  5403  0CF6  00A9               	movwf	___flmul@a+1
  5404  0CF7  3000               	movlw	0
  5405  0CF8  00A8               	movwf	___flmul@a
  5406  0CF9                     l2777:
  5407  0CF9  0836               	movf	___flmul@aexp,w
  5408  0CFA  1903               	btfsc	3,2
  5409  0CFB  2CFD               	goto	u3941
  5410  0CFC  2CFE               	goto	u3940
  5411  0CFD                     u3941:
  5412  0CFD  2D03               	goto	l2781
  5413  0CFE                     u3940:
  5414  0CFE                     l2779:
  5415  0CFE  0837               	movf	___flmul@bexp,w
  5416  0CFF  1D03               	btfss	3,2
  5417  0D00  2D02               	goto	u3951
  5418  0D01  2D03               	goto	u3950
  5419  0D02                     u3951:
  5420  0D02  2D0C               	goto	l2785
  5421  0D03                     u3950:
  5422  0D03                     l2781:
  5423  0D03  3000               	movlw	0
  5424  0D04  00A7               	movwf	?___flmul+3
  5425  0D05  3000               	movlw	0
  5426  0D06  00A6               	movwf	?___flmul+2
  5427  0D07  3000               	movlw	0
  5428  0D08  00A5               	movwf	?___flmul+1
  5429  0D09  3000               	movlw	0
  5430  0D0A  00A4               	movwf	?___flmul
  5431  0D0B  2FFF               	goto	l727
  5432  0D0C                     l2785:
  5433  0D0C  0824               	movf	___flmul@b,w
  5434  0D0D  00AC               	movwf	??___flmul
  5435  0D0E  082C               	movf	??___flmul,w
  5436  0D0F  00F0               	movwf	__Umul8_16@multiplicand
  5437  0D10  082A               	movf	___flmul@a+2,w
  5438  0D11  160A  158A  2320  120A  158A  	fcall	__Umul8_16
  5439  0D16  0871               	movf	?__Umul8_16+1,w
  5440  0D17  1283               	bcf	3,5	;RP0=0, select bank0
  5441  0D18  1303               	bcf	3,6	;RP1=0, select bank0
  5442  0D19  00BD               	movwf	___flmul@temp+1
  5443  0D1A  0870               	movf	?__Umul8_16,w
  5444  0D1B  00BC               	movwf	___flmul@temp
  5445  0D1C                     l2787:
  5446  0D1C  083C               	movf	___flmul@temp,w
  5447  0D1D  00AC               	movwf	??___flmul
  5448  0D1E  01AD               	clrf	??___flmul+1
  5449  0D1F  01AE               	clrf	??___flmul+2
  5450  0D20  01AF               	clrf	??___flmul+3
  5451  0D21  082F               	movf	??___flmul+3,w
  5452  0D22  00B5               	movwf	___flmul@grs+3
  5453  0D23  082E               	movf	??___flmul+2,w
  5454  0D24  00B4               	movwf	___flmul@grs+2
  5455  0D25  082D               	movf	??___flmul+1,w
  5456  0D26  00B3               	movwf	___flmul@grs+1
  5457  0D27  082C               	movf	??___flmul,w
  5458  0D28  00B2               	movwf	___flmul@grs
  5459  0D29                     l2789:
  5460  0D29  083D               	movf	___flmul@temp+1,w
  5461  0D2A  00AC               	movwf	??___flmul
  5462  0D2B  01AD               	clrf	??___flmul+1
  5463  0D2C  01AE               	clrf	??___flmul+2
  5464  0D2D  01AF               	clrf	??___flmul+3
  5465  0D2E  082F               	movf	??___flmul+3,w
  5466  0D2F  00BB               	movwf	___flmul@prod+3
  5467  0D30  082E               	movf	??___flmul+2,w
  5468  0D31  00BA               	movwf	___flmul@prod+2
  5469  0D32  082D               	movf	??___flmul+1,w
  5470  0D33  00B9               	movwf	___flmul@prod+1
  5471  0D34  082C               	movf	??___flmul,w
  5472  0D35  00B8               	movwf	___flmul@prod
  5473  0D36  0825               	movf	___flmul@b+1,w
  5474  0D37  00AC               	movwf	??___flmul
  5475  0D38  082C               	movf	??___flmul,w
  5476  0D39  00F0               	movwf	__Umul8_16@multiplicand
  5477  0D3A  0829               	movf	___flmul@a+1,w
  5478  0D3B  160A  158A  2320  120A  158A  	fcall	__Umul8_16
  5479  0D40  0871               	movf	?__Umul8_16+1,w
  5480  0D41  1283               	bcf	3,5	;RP0=0, select bank0
  5481  0D42  1303               	bcf	3,6	;RP1=0, select bank0
  5482  0D43  00BD               	movwf	___flmul@temp+1
  5483  0D44  0870               	movf	?__Umul8_16,w
  5484  0D45  00BC               	movwf	___flmul@temp
  5485  0D46                     l2791:
  5486  0D46  083C               	movf	___flmul@temp,w
  5487  0D47  00AC               	movwf	??___flmul
  5488  0D48  01AD               	clrf	??___flmul+1
  5489  0D49  01AE               	clrf	??___flmul+2
  5490  0D4A  01AF               	clrf	??___flmul+3
  5491  0D4B  082C               	movf	??___flmul,w
  5492  0D4C  07B2               	addwf	___flmul@grs,f
  5493  0D4D  082D               	movf	??___flmul+1,w
  5494  0D4E  1103               	clrz
  5495  0D4F  1803               	skipnc
  5496  0D50  3E01               	addlw	1
  5497  0D51  1903               	skipnz
  5498  0D52  2D54               	goto	u3961
  5499  0D53  07B3               	addwf	___flmul@grs+1,f
  5500  0D54                     u3961:
  5501  0D54  082E               	movf	??___flmul+2,w
  5502  0D55  1103               	clrz
  5503  0D56  1803               	skipnc
  5504  0D57  3E01               	addlw	1
  5505  0D58  1903               	skipnz
  5506  0D59  2D5B               	goto	u3962
  5507  0D5A  07B4               	addwf	___flmul@grs+2,f
  5508  0D5B                     u3962:
  5509  0D5B  082F               	movf	??___flmul+3,w
  5510  0D5C  1103               	clrz
  5511  0D5D  1803               	skipnc
  5512  0D5E  3E01               	addlw	1
  5513  0D5F  1903               	skipnz
  5514  0D60  2D62               	goto	u3963
  5515  0D61  07B5               	addwf	___flmul@grs+3,f
  5516  0D62                     u3963:
  5517  0D62                     l2793:
  5518  0D62  083D               	movf	___flmul@temp+1,w
  5519  0D63  00AC               	movwf	??___flmul
  5520  0D64  01AD               	clrf	??___flmul+1
  5521  0D65  01AE               	clrf	??___flmul+2
  5522  0D66  01AF               	clrf	??___flmul+3
  5523  0D67  082C               	movf	??___flmul,w
  5524  0D68  07B8               	addwf	___flmul@prod,f
  5525  0D69  082D               	movf	??___flmul+1,w
  5526  0D6A  1103               	clrz
  5527  0D6B  1803               	skipnc
  5528  0D6C  3E01               	addlw	1
  5529  0D6D  1903               	skipnz
  5530  0D6E  2D70               	goto	u3971
  5531  0D6F  07B9               	addwf	___flmul@prod+1,f
  5532  0D70                     u3971:
  5533  0D70  082E               	movf	??___flmul+2,w
  5534  0D71  1103               	clrz
  5535  0D72  1803               	skipnc
  5536  0D73  3E01               	addlw	1
  5537  0D74  1903               	skipnz
  5538  0D75  2D77               	goto	u3972
  5539  0D76  07BA               	addwf	___flmul@prod+2,f
  5540  0D77                     u3972:
  5541  0D77  082F               	movf	??___flmul+3,w
  5542  0D78  1103               	clrz
  5543  0D79  1803               	skipnc
  5544  0D7A  3E01               	addlw	1
  5545  0D7B  1903               	skipnz
  5546  0D7C  2D7E               	goto	u3973
  5547  0D7D  07BB               	addwf	___flmul@prod+3,f
  5548  0D7E                     u3973:
  5549  0D7E  0826               	movf	___flmul@b+2,w
  5550  0D7F  00AC               	movwf	??___flmul
  5551  0D80  082C               	movf	??___flmul,w
  5552  0D81  00F0               	movwf	__Umul8_16@multiplicand
  5553  0D82  0828               	movf	___flmul@a,w
  5554  0D83  160A  158A  2320  120A  158A  	fcall	__Umul8_16
  5555  0D88  0871               	movf	?__Umul8_16+1,w
  5556  0D89  1283               	bcf	3,5	;RP0=0, select bank0
  5557  0D8A  1303               	bcf	3,6	;RP1=0, select bank0
  5558  0D8B  00BD               	movwf	___flmul@temp+1
  5559  0D8C  0870               	movf	?__Umul8_16,w
  5560  0D8D  00BC               	movwf	___flmul@temp
  5561  0D8E                     l2795:
  5562  0D8E  083C               	movf	___flmul@temp,w
  5563  0D8F  00AC               	movwf	??___flmul
  5564  0D90  01AD               	clrf	??___flmul+1
  5565  0D91  01AE               	clrf	??___flmul+2
  5566  0D92  01AF               	clrf	??___flmul+3
  5567  0D93  082C               	movf	??___flmul,w
  5568  0D94  07B2               	addwf	___flmul@grs,f
  5569  0D95  082D               	movf	??___flmul+1,w
  5570  0D96  1103               	clrz
  5571  0D97  1803               	skipnc
  5572  0D98  3E01               	addlw	1
  5573  0D99  1903               	skipnz
  5574  0D9A  2D9C               	goto	u3981
  5575  0D9B  07B3               	addwf	___flmul@grs+1,f
  5576  0D9C                     u3981:
  5577  0D9C  082E               	movf	??___flmul+2,w
  5578  0D9D  1103               	clrz
  5579  0D9E  1803               	skipnc
  5580  0D9F  3E01               	addlw	1
  5581  0DA0  1903               	skipnz
  5582  0DA1  2DA3               	goto	u3982
  5583  0DA2  07B4               	addwf	___flmul@grs+2,f
  5584  0DA3                     u3982:
  5585  0DA3  082F               	movf	??___flmul+3,w
  5586  0DA4  1103               	clrz
  5587  0DA5  1803               	skipnc
  5588  0DA6  3E01               	addlw	1
  5589  0DA7  1903               	skipnz
  5590  0DA8  2DAA               	goto	u3983
  5591  0DA9  07B5               	addwf	___flmul@grs+3,f
  5592  0DAA                     u3983:
  5593  0DAA                     l2797:
  5594  0DAA  083D               	movf	___flmul@temp+1,w
  5595  0DAB  00AC               	movwf	??___flmul
  5596  0DAC  01AD               	clrf	??___flmul+1
  5597  0DAD  01AE               	clrf	??___flmul+2
  5598  0DAE  01AF               	clrf	??___flmul+3
  5599  0DAF  082C               	movf	??___flmul,w
  5600  0DB0  07B8               	addwf	___flmul@prod,f
  5601  0DB1  082D               	movf	??___flmul+1,w
  5602  0DB2  1103               	clrz
  5603  0DB3  1803               	skipnc
  5604  0DB4  3E01               	addlw	1
  5605  0DB5  1903               	skipnz
  5606  0DB6  2DB8               	goto	u3991
  5607  0DB7  07B9               	addwf	___flmul@prod+1,f
  5608  0DB8                     u3991:
  5609  0DB8  082E               	movf	??___flmul+2,w
  5610  0DB9  1103               	clrz
  5611  0DBA  1803               	skipnc
  5612  0DBB  3E01               	addlw	1
  5613  0DBC  1903               	skipnz
  5614  0DBD  2DBF               	goto	u3992
  5615  0DBE  07BA               	addwf	___flmul@prod+2,f
  5616  0DBF                     u3992:
  5617  0DBF  082F               	movf	??___flmul+3,w
  5618  0DC0  1103               	clrz
  5619  0DC1  1803               	skipnc
  5620  0DC2  3E01               	addlw	1
  5621  0DC3  1903               	skipnz
  5622  0DC4  2DC6               	goto	u3993
  5623  0DC5  07BB               	addwf	___flmul@prod+3,f
  5624  0DC6                     u3993:
  5625  0DC6                     l2799:
  5626  0DC6  3008               	movlw	8
  5627  0DC7  00AC               	movwf	??___flmul
  5628  0DC8                     u4005:
  5629  0DC8  1003               	clrc
  5630  0DC9  0DB2               	rlf	___flmul@grs,f
  5631  0DCA  0DB3               	rlf	___flmul@grs+1,f
  5632  0DCB  0DB4               	rlf	___flmul@grs+2,f
  5633  0DCC  0DB5               	rlf	___flmul@grs+3,f
  5634  0DCD  0BAC               	decfsz	??___flmul,f
  5635  0DCE  2DC8               	goto	u4005
  5636  0DCF                     l2801:
  5637  0DCF  0825               	movf	___flmul@b+1,w
  5638  0DD0  00AC               	movwf	??___flmul
  5639  0DD1  082C               	movf	??___flmul,w
  5640  0DD2  00F0               	movwf	__Umul8_16@multiplicand
  5641  0DD3  0828               	movf	___flmul@a,w
  5642  0DD4  160A  158A  2320  120A  158A  	fcall	__Umul8_16
  5643  0DD9  0871               	movf	?__Umul8_16+1,w
  5644  0DDA  1283               	bcf	3,5	;RP0=0, select bank0
  5645  0DDB  1303               	bcf	3,6	;RP1=0, select bank0
  5646  0DDC  00BD               	movwf	___flmul@temp+1
  5647  0DDD  0870               	movf	?__Umul8_16,w
  5648  0DDE  00BC               	movwf	___flmul@temp
  5649  0DDF                     l2803:
  5650  0DDF  083C               	movf	___flmul@temp,w
  5651  0DE0  00AC               	movwf	??___flmul
  5652  0DE1  083D               	movf	___flmul@temp+1,w
  5653  0DE2  00AD               	movwf	??___flmul+1
  5654  0DE3  01AE               	clrf	??___flmul+2
  5655  0DE4  01AF               	clrf	??___flmul+3
  5656  0DE5  082C               	movf	??___flmul,w
  5657  0DE6  07B2               	addwf	___flmul@grs,f
  5658  0DE7  082D               	movf	??___flmul+1,w
  5659  0DE8  1103               	clrz
  5660  0DE9  1803               	skipnc
  5661  0DEA  3E01               	addlw	1
  5662  0DEB  1903               	skipnz
  5663  0DEC  2DEE               	goto	u4011
  5664  0DED  07B3               	addwf	___flmul@grs+1,f
  5665  0DEE                     u4011:
  5666  0DEE  082E               	movf	??___flmul+2,w
  5667  0DEF  1103               	clrz
  5668  0DF0  1803               	skipnc
  5669  0DF1  3E01               	addlw	1
  5670  0DF2  1903               	skipnz
  5671  0DF3  2DF5               	goto	u4012
  5672  0DF4  07B4               	addwf	___flmul@grs+2,f
  5673  0DF5                     u4012:
  5674  0DF5  082F               	movf	??___flmul+3,w
  5675  0DF6  1103               	clrz
  5676  0DF7  1803               	skipnc
  5677  0DF8  3E01               	addlw	1
  5678  0DF9  1903               	skipnz
  5679  0DFA  2DFC               	goto	u4013
  5680  0DFB  07B5               	addwf	___flmul@grs+3,f
  5681  0DFC                     u4013:
  5682  0DFC                     l2805:
  5683  0DFC  0824               	movf	___flmul@b,w
  5684  0DFD  00AC               	movwf	??___flmul
  5685  0DFE  082C               	movf	??___flmul,w
  5686  0DFF  00F0               	movwf	__Umul8_16@multiplicand
  5687  0E00  0829               	movf	___flmul@a+1,w
  5688  0E01  160A  158A  2320  120A  158A  	fcall	__Umul8_16
  5689  0E06  0871               	movf	?__Umul8_16+1,w
  5690  0E07  1283               	bcf	3,5	;RP0=0, select bank0
  5691  0E08  1303               	bcf	3,6	;RP1=0, select bank0
  5692  0E09  00BD               	movwf	___flmul@temp+1
  5693  0E0A  0870               	movf	?__Umul8_16,w
  5694  0E0B  00BC               	movwf	___flmul@temp
  5695  0E0C                     l2807:
  5696  0E0C  083C               	movf	___flmul@temp,w
  5697  0E0D  00AC               	movwf	??___flmul
  5698  0E0E  083D               	movf	___flmul@temp+1,w
  5699  0E0F  00AD               	movwf	??___flmul+1
  5700  0E10  01AE               	clrf	??___flmul+2
  5701  0E11  01AF               	clrf	??___flmul+3
  5702  0E12  082C               	movf	??___flmul,w
  5703  0E13  07B2               	addwf	___flmul@grs,f
  5704  0E14  082D               	movf	??___flmul+1,w
  5705  0E15  1103               	clrz
  5706  0E16  1803               	skipnc
  5707  0E17  3E01               	addlw	1
  5708  0E18  1903               	skipnz
  5709  0E19  2E1B               	goto	u4021
  5710  0E1A  07B3               	addwf	___flmul@grs+1,f
  5711  0E1B                     u4021:
  5712  0E1B  082E               	movf	??___flmul+2,w
  5713  0E1C  1103               	clrz
  5714  0E1D  1803               	skipnc
  5715  0E1E  3E01               	addlw	1
  5716  0E1F  1903               	skipnz
  5717  0E20  2E22               	goto	u4022
  5718  0E21  07B4               	addwf	___flmul@grs+2,f
  5719  0E22                     u4022:
  5720  0E22  082F               	movf	??___flmul+3,w
  5721  0E23  1103               	clrz
  5722  0E24  1803               	skipnc
  5723  0E25  3E01               	addlw	1
  5724  0E26  1903               	skipnz
  5725  0E27  2E29               	goto	u4023
  5726  0E28  07B5               	addwf	___flmul@grs+3,f
  5727  0E29                     u4023:
  5728  0E29                     l2809:
  5729  0E29  3008               	movlw	8
  5730  0E2A  00AC               	movwf	??___flmul
  5731  0E2B                     u4035:
  5732  0E2B  1003               	clrc
  5733  0E2C  0DB2               	rlf	___flmul@grs,f
  5734  0E2D  0DB3               	rlf	___flmul@grs+1,f
  5735  0E2E  0DB4               	rlf	___flmul@grs+2,f
  5736  0E2F  0DB5               	rlf	___flmul@grs+3,f
  5737  0E30  0BAC               	decfsz	??___flmul,f
  5738  0E31  2E2B               	goto	u4035
  5739  0E32  0824               	movf	___flmul@b,w
  5740  0E33  00AC               	movwf	??___flmul
  5741  0E34  082C               	movf	??___flmul,w
  5742  0E35  00F0               	movwf	__Umul8_16@multiplicand
  5743  0E36  0828               	movf	___flmul@a,w
  5744  0E37  160A  158A  2320  120A  158A  	fcall	__Umul8_16
  5745  0E3C  0871               	movf	?__Umul8_16+1,w
  5746  0E3D  1283               	bcf	3,5	;RP0=0, select bank0
  5747  0E3E  1303               	bcf	3,6	;RP1=0, select bank0
  5748  0E3F  00BD               	movwf	___flmul@temp+1
  5749  0E40  0870               	movf	?__Umul8_16,w
  5750  0E41  00BC               	movwf	___flmul@temp
  5751  0E42                     l2811:
  5752  0E42  083C               	movf	___flmul@temp,w
  5753  0E43  00AC               	movwf	??___flmul
  5754  0E44  083D               	movf	___flmul@temp+1,w
  5755  0E45  00AD               	movwf	??___flmul+1
  5756  0E46  01AE               	clrf	??___flmul+2
  5757  0E47  01AF               	clrf	??___flmul+3
  5758  0E48  082C               	movf	??___flmul,w
  5759  0E49  07B2               	addwf	___flmul@grs,f
  5760  0E4A  082D               	movf	??___flmul+1,w
  5761  0E4B  1103               	clrz
  5762  0E4C  1803               	skipnc
  5763  0E4D  3E01               	addlw	1
  5764  0E4E  1903               	skipnz
  5765  0E4F  2E51               	goto	u4041
  5766  0E50  07B3               	addwf	___flmul@grs+1,f
  5767  0E51                     u4041:
  5768  0E51  082E               	movf	??___flmul+2,w
  5769  0E52  1103               	clrz
  5770  0E53  1803               	skipnc
  5771  0E54  3E01               	addlw	1
  5772  0E55  1903               	skipnz
  5773  0E56  2E58               	goto	u4042
  5774  0E57  07B4               	addwf	___flmul@grs+2,f
  5775  0E58                     u4042:
  5776  0E58  082F               	movf	??___flmul+3,w
  5777  0E59  1103               	clrz
  5778  0E5A  1803               	skipnc
  5779  0E5B  3E01               	addlw	1
  5780  0E5C  1903               	skipnz
  5781  0E5D  2E5F               	goto	u4043
  5782  0E5E  07B5               	addwf	___flmul@grs+3,f
  5783  0E5F                     u4043:
  5784  0E5F                     l2813:
  5785  0E5F  0825               	movf	___flmul@b+1,w
  5786  0E60  00AC               	movwf	??___flmul
  5787  0E61  082C               	movf	??___flmul,w
  5788  0E62  00F0               	movwf	__Umul8_16@multiplicand
  5789  0E63  082A               	movf	___flmul@a+2,w
  5790  0E64  160A  158A  2320  120A  158A  	fcall	__Umul8_16
  5791  0E69  0871               	movf	?__Umul8_16+1,w
  5792  0E6A  1283               	bcf	3,5	;RP0=0, select bank0
  5793  0E6B  1303               	bcf	3,6	;RP1=0, select bank0
  5794  0E6C  00BD               	movwf	___flmul@temp+1
  5795  0E6D  0870               	movf	?__Umul8_16,w
  5796  0E6E  00BC               	movwf	___flmul@temp
  5797  0E6F  083C               	movf	___flmul@temp,w
  5798  0E70  00AC               	movwf	??___flmul
  5799  0E71  083D               	movf	___flmul@temp+1,w
  5800  0E72  00AD               	movwf	??___flmul+1
  5801  0E73  01AE               	clrf	??___flmul+2
  5802  0E74  01AF               	clrf	??___flmul+3
  5803  0E75  082C               	movf	??___flmul,w
  5804  0E76  07B8               	addwf	___flmul@prod,f
  5805  0E77  082D               	movf	??___flmul+1,w
  5806  0E78  1103               	clrz
  5807  0E79  1803               	skipnc
  5808  0E7A  3E01               	addlw	1
  5809  0E7B  1903               	skipnz
  5810  0E7C  2E7E               	goto	u4051
  5811  0E7D  07B9               	addwf	___flmul@prod+1,f
  5812  0E7E                     u4051:
  5813  0E7E  082E               	movf	??___flmul+2,w
  5814  0E7F  1103               	clrz
  5815  0E80  1803               	skipnc
  5816  0E81  3E01               	addlw	1
  5817  0E82  1903               	skipnz
  5818  0E83  2E85               	goto	u4052
  5819  0E84  07BA               	addwf	___flmul@prod+2,f
  5820  0E85                     u4052:
  5821  0E85  082F               	movf	??___flmul+3,w
  5822  0E86  1103               	clrz
  5823  0E87  1803               	skipnc
  5824  0E88  3E01               	addlw	1
  5825  0E89  1903               	skipnz
  5826  0E8A  2E8C               	goto	u4053
  5827  0E8B  07BB               	addwf	___flmul@prod+3,f
  5828  0E8C                     u4053:
  5829  0E8C                     l2815:
  5830  0E8C  0826               	movf	___flmul@b+2,w
  5831  0E8D  00AC               	movwf	??___flmul
  5832  0E8E  082C               	movf	??___flmul,w
  5833  0E8F  00F0               	movwf	__Umul8_16@multiplicand
  5834  0E90  0829               	movf	___flmul@a+1,w
  5835  0E91  160A  158A  2320  120A  158A  	fcall	__Umul8_16
  5836  0E96  0871               	movf	?__Umul8_16+1,w
  5837  0E97  1283               	bcf	3,5	;RP0=0, select bank0
  5838  0E98  1303               	bcf	3,6	;RP1=0, select bank0
  5839  0E99  00BD               	movwf	___flmul@temp+1
  5840  0E9A  0870               	movf	?__Umul8_16,w
  5841  0E9B  00BC               	movwf	___flmul@temp
  5842  0E9C                     l2817:
  5843  0E9C  083C               	movf	___flmul@temp,w
  5844  0E9D  00AC               	movwf	??___flmul
  5845  0E9E  083D               	movf	___flmul@temp+1,w
  5846  0E9F  00AD               	movwf	??___flmul+1
  5847  0EA0  01AE               	clrf	??___flmul+2
  5848  0EA1  01AF               	clrf	??___flmul+3
  5849  0EA2  082C               	movf	??___flmul,w
  5850  0EA3  07B8               	addwf	___flmul@prod,f
  5851  0EA4  082D               	movf	??___flmul+1,w
  5852  0EA5  1103               	clrz
  5853  0EA6  1803               	skipnc
  5854  0EA7  3E01               	addlw	1
  5855  0EA8  1903               	skipnz
  5856  0EA9  2EAB               	goto	u4061
  5857  0EAA  07B9               	addwf	___flmul@prod+1,f
  5858  0EAB                     u4061:
  5859  0EAB  082E               	movf	??___flmul+2,w
  5860  0EAC  1103               	clrz
  5861  0EAD  1803               	skipnc
  5862  0EAE  3E01               	addlw	1
  5863  0EAF  1903               	skipnz
  5864  0EB0  2EB2               	goto	u4062
  5865  0EB1  07BA               	addwf	___flmul@prod+2,f
  5866  0EB2                     u4062:
  5867  0EB2  082F               	movf	??___flmul+3,w
  5868  0EB3  1103               	clrz
  5869  0EB4  1803               	skipnc
  5870  0EB5  3E01               	addlw	1
  5871  0EB6  1903               	skipnz
  5872  0EB7  2EB9               	goto	u4063
  5873  0EB8  07BB               	addwf	___flmul@prod+3,f
  5874  0EB9                     u4063:
  5875  0EB9  0826               	movf	___flmul@b+2,w
  5876  0EBA  00AC               	movwf	??___flmul
  5877  0EBB  082C               	movf	??___flmul,w
  5878  0EBC  00F0               	movwf	__Umul8_16@multiplicand
  5879  0EBD  082A               	movf	___flmul@a+2,w
  5880  0EBE  160A  158A  2320  120A  158A  	fcall	__Umul8_16
  5881  0EC3  0871               	movf	?__Umul8_16+1,w
  5882  0EC4  1283               	bcf	3,5	;RP0=0, select bank0
  5883  0EC5  1303               	bcf	3,6	;RP1=0, select bank0
  5884  0EC6  00BD               	movwf	___flmul@temp+1
  5885  0EC7  0870               	movf	?__Umul8_16,w
  5886  0EC8  00BC               	movwf	___flmul@temp
  5887  0EC9                     l2819:
  5888  0EC9  083C               	movf	___flmul@temp,w
  5889  0ECA  00AC               	movwf	??___flmul
  5890  0ECB  083D               	movf	___flmul@temp+1,w
  5891  0ECC  00AD               	movwf	??___flmul+1
  5892  0ECD  01AE               	clrf	??___flmul+2
  5893  0ECE  01AF               	clrf	??___flmul+3
  5894  0ECF  3008               	movlw	8
  5895  0ED0                     u4075:
  5896  0ED0  1003               	clrc
  5897  0ED1  0DAC               	rlf	??___flmul,f
  5898  0ED2  0DAD               	rlf	??___flmul+1,f
  5899  0ED3  0DAE               	rlf	??___flmul+2,f
  5900  0ED4  0DAF               	rlf	??___flmul+3,f
  5901  0ED5                     u4070:
  5902  0ED5  3EFF               	addlw	-1
  5903  0ED6  1D03               	skipz
  5904  0ED7  2ED0               	goto	u4075
  5905  0ED8  082C               	movf	??___flmul,w
  5906  0ED9  07B8               	addwf	___flmul@prod,f
  5907  0EDA  082D               	movf	??___flmul+1,w
  5908  0EDB  1103               	clrz
  5909  0EDC  1803               	skipnc
  5910  0EDD  3E01               	addlw	1
  5911  0EDE  1903               	skipnz
  5912  0EDF  2EE1               	goto	u4081
  5913  0EE0  07B9               	addwf	___flmul@prod+1,f
  5914  0EE1                     u4081:
  5915  0EE1  082E               	movf	??___flmul+2,w
  5916  0EE2  1103               	clrz
  5917  0EE3  1803               	skipnc
  5918  0EE4  3E01               	addlw	1
  5919  0EE5  1903               	skipnz
  5920  0EE6  2EE8               	goto	u4082
  5921  0EE7  07BA               	addwf	___flmul@prod+2,f
  5922  0EE8                     u4082:
  5923  0EE8  082F               	movf	??___flmul+3,w
  5924  0EE9  1103               	clrz
  5925  0EEA  1803               	skipnc
  5926  0EEB  3E01               	addlw	1
  5927  0EEC  1903               	skipnz
  5928  0EED  2EEF               	goto	u4083
  5929  0EEE  07BB               	addwf	___flmul@prod+3,f
  5930  0EEF                     u4083:
  5931  0EEF                     l2821:
  5932  0EEF  0832               	movf	___flmul@grs,w
  5933  0EF0  00AC               	movwf	??___flmul
  5934  0EF1  0833               	movf	___flmul@grs+1,w
  5935  0EF2  00AD               	movwf	??___flmul+1
  5936  0EF3  0834               	movf	___flmul@grs+2,w
  5937  0EF4  00AE               	movwf	??___flmul+2
  5938  0EF5  0835               	movf	___flmul@grs+3,w
  5939  0EF6  00AF               	movwf	??___flmul+3
  5940  0EF7  3018               	movlw	24
  5941  0EF8                     u4095:
  5942  0EF8  1003               	clrc
  5943  0EF9  0CAF               	rrf	??___flmul+3,f
  5944  0EFA  0CAE               	rrf	??___flmul+2,f
  5945  0EFB  0CAD               	rrf	??___flmul+1,f
  5946  0EFC  0CAC               	rrf	??___flmul,f
  5947  0EFD                     u4090:
  5948  0EFD  3EFF               	addlw	-1
  5949  0EFE  1D03               	skipz
  5950  0EFF  2EF8               	goto	u4095
  5951  0F00  082C               	movf	??___flmul,w
  5952  0F01  07B8               	addwf	___flmul@prod,f
  5953  0F02  082D               	movf	??___flmul+1,w
  5954  0F03  1103               	clrz
  5955  0F04  1803               	skipnc
  5956  0F05  3E01               	addlw	1
  5957  0F06  1903               	skipnz
  5958  0F07  2F09               	goto	u4101
  5959  0F08  07B9               	addwf	___flmul@prod+1,f
  5960  0F09                     u4101:
  5961  0F09  082E               	movf	??___flmul+2,w
  5962  0F0A  1103               	clrz
  5963  0F0B  1803               	skipnc
  5964  0F0C  3E01               	addlw	1
  5965  0F0D  1903               	skipnz
  5966  0F0E  2F10               	goto	u4102
  5967  0F0F  07BA               	addwf	___flmul@prod+2,f
  5968  0F10                     u4102:
  5969  0F10  082F               	movf	??___flmul+3,w
  5970  0F11  1103               	clrz
  5971  0F12  1803               	skipnc
  5972  0F13  3E01               	addlw	1
  5973  0F14  1903               	skipnz
  5974  0F15  2F17               	goto	u4103
  5975  0F16  07BB               	addwf	___flmul@prod+3,f
  5976  0F17                     u4103:
  5977  0F17                     l2823:
  5978  0F17  3008               	movlw	8
  5979  0F18  00AC               	movwf	??___flmul
  5980  0F19                     u4115:
  5981  0F19  1003               	clrc
  5982  0F1A  0DB2               	rlf	___flmul@grs,f
  5983  0F1B  0DB3               	rlf	___flmul@grs+1,f
  5984  0F1C  0DB4               	rlf	___flmul@grs+2,f
  5985  0F1D  0DB5               	rlf	___flmul@grs+3,f
  5986  0F1E  0BAC               	decfsz	??___flmul,f
  5987  0F1F  2F19               	goto	u4115
  5988  0F20                     l2825:
  5989  0F20  0837               	movf	___flmul@bexp,w
  5990  0F21  0736               	addwf	___flmul@aexp,w
  5991  0F22  00AC               	movwf	??___flmul
  5992  0F23  01AD               	clrf	??___flmul+1
  5993  0F24  0DAD               	rlf	??___flmul+1,f
  5994  0F25  082C               	movf	??___flmul,w
  5995  0F26  3E82               	addlw	130
  5996  0F27  00BC               	movwf	___flmul@temp
  5997  0F28  082D               	movf	??___flmul+1,w
  5998  0F29  1803               	skipnc
  5999  0F2A  3E01               	addlw	1
  6000  0F2B  3EFF               	addlw	255
  6001  0F2C  00BD               	movwf	___flmul@temp+1
  6002  0F2D  2F4B               	goto	l2837
  6003  0F2E                     l2827:
  6004  0F2E  3001               	movlw	1
  6005  0F2F  00AC               	movwf	??___flmul
  6006  0F30                     u4125:
  6007  0F30  1003               	clrc
  6008  0F31  0DB8               	rlf	___flmul@prod,f
  6009  0F32  0DB9               	rlf	___flmul@prod+1,f
  6010  0F33  0DBA               	rlf	___flmul@prod+2,f
  6011  0F34  0DBB               	rlf	___flmul@prod+3,f
  6012  0F35  0BAC               	decfsz	??___flmul,f
  6013  0F36  2F30               	goto	u4125
  6014  0F37                     l2829:
  6015  0F37  1FB5               	btfss	___flmul@grs+3,7
  6016  0F38  2F3A               	goto	u4131
  6017  0F39  2F3B               	goto	u4130
  6018  0F3A                     u4131:
  6019  0F3A  2F3C               	goto	l2833
  6020  0F3B                     u4130:
  6021  0F3B                     l2831:
  6022  0F3B  1438               	bsf	___flmul@prod,0
  6023  0F3C                     l2833:
  6024  0F3C  3001               	movlw	1
  6025  0F3D  00AC               	movwf	??___flmul
  6026  0F3E                     u4145:
  6027  0F3E  1003               	clrc
  6028  0F3F  0DB2               	rlf	___flmul@grs,f
  6029  0F40  0DB3               	rlf	___flmul@grs+1,f
  6030  0F41  0DB4               	rlf	___flmul@grs+2,f
  6031  0F42  0DB5               	rlf	___flmul@grs+3,f
  6032  0F43  0BAC               	decfsz	??___flmul,f
  6033  0F44  2F3E               	goto	u4145
  6034  0F45                     l2835:
  6035  0F45  30FF               	movlw	255
  6036  0F46  07BC               	addwf	___flmul@temp,f
  6037  0F47  1803               	skipnc
  6038  0F48  0ABD               	incf	___flmul@temp+1,f
  6039  0F49  30FF               	movlw	255
  6040  0F4A  07BD               	addwf	___flmul@temp+1,f
  6041  0F4B                     l2837:
  6042  0F4B  1FBA               	btfss	___flmul@prod+2,7
  6043  0F4C  2F4E               	goto	u4151
  6044  0F4D  2F4F               	goto	u4150
  6045  0F4E                     u4151:
  6046  0F4E  2F2E               	goto	l2827
  6047  0F4F                     u4150:
  6048  0F4F                     l2839:
  6049  0F4F  01B6               	clrf	___flmul@aexp
  6050  0F50                     l2841:
  6051  0F50  1FB5               	btfss	___flmul@grs+3,7
  6052  0F51  2F53               	goto	u4161
  6053  0F52  2F54               	goto	u4160
  6054  0F53                     u4161:
  6055  0F53  2F70               	goto	l2849
  6056  0F54                     u4160:
  6057  0F54                     l2843:
  6058  0F54  30FF               	movlw	255
  6059  0F55  0532               	andwf	___flmul@grs,w
  6060  0F56  00AC               	movwf	??___flmul
  6061  0F57  30FF               	movlw	255
  6062  0F58  0533               	andwf	___flmul@grs+1,w
  6063  0F59  00AD               	movwf	??___flmul+1
  6064  0F5A  30FF               	movlw	255
  6065  0F5B  0534               	andwf	___flmul@grs+2,w
  6066  0F5C  00AE               	movwf	??___flmul+2
  6067  0F5D  307F               	movlw	127
  6068  0F5E  0535               	andwf	___flmul@grs+3,w
  6069  0F5F  00AF               	movwf	??___flmul+3
  6070  0F60  082F               	movf	??___flmul+3,w
  6071  0F61  042E               	iorwf	??___flmul+2,w
  6072  0F62  042D               	iorwf	??___flmul+1,w
  6073  0F63  042C               	iorwf	??___flmul,w
  6074  0F64  1903               	skipnz
  6075  0F65  2F67               	goto	u4171
  6076  0F66  2F68               	goto	u4170
  6077  0F67                     u4171:
  6078  0F67  2F6B               	goto	l733
  6079  0F68                     u4170:
  6080  0F68                     l2845:
  6081  0F68  01B6               	clrf	___flmul@aexp
  6082  0F69  0AB6               	incf	___flmul@aexp,f
  6083  0F6A  2F70               	goto	l2849
  6084  0F6B                     l733:
  6085  0F6B  1C38               	btfss	___flmul@prod,0
  6086  0F6C  2F6E               	goto	u4181
  6087  0F6D  2F6F               	goto	u4180
  6088  0F6E                     u4181:
  6089  0F6E  2F70               	goto	l2849
  6090  0F6F                     u4180:
  6091  0F6F  2F68               	goto	l2845
  6092  0F70                     l2849:
  6093  0F70  0836               	movf	___flmul@aexp,w
  6094  0F71  1903               	btfsc	3,2
  6095  0F72  2F74               	goto	u4191
  6096  0F73  2F75               	goto	u4190
  6097  0F74                     u4191:
  6098  0F74  2FA6               	goto	l2859
  6099  0F75                     u4190:
  6100  0F75                     l2851:
  6101  0F75  3001               	movlw	1
  6102  0F76  07B8               	addwf	___flmul@prod,f
  6103  0F77  3000               	movlw	0
  6104  0F78  1803               	skipnc
  6105  0F79  3001               	movlw	1
  6106  0F7A  07B9               	addwf	___flmul@prod+1,f
  6107  0F7B  3000               	movlw	0
  6108  0F7C  1803               	skipnc
  6109  0F7D  3001               	movlw	1
  6110  0F7E  07BA               	addwf	___flmul@prod+2,f
  6111  0F7F  3000               	movlw	0
  6112  0F80  1803               	skipnc
  6113  0F81  3001               	movlw	1
  6114  0F82  07BB               	addwf	___flmul@prod+3,f
  6115  0F83                     l2853:
  6116  0F83  1C3B               	btfss	___flmul@prod+3,0
  6117  0F84  2F86               	goto	u4201
  6118  0F85  2F87               	goto	u4200
  6119  0F86                     u4201:
  6120  0F86  2FA6               	goto	l2859
  6121  0F87                     u4200:
  6122  0F87                     l2855:
  6123  0F87  0838               	movf	___flmul@prod,w
  6124  0F88  00AC               	movwf	??___flmul
  6125  0F89  0839               	movf	___flmul@prod+1,w
  6126  0F8A  00AD               	movwf	??___flmul+1
  6127  0F8B  083A               	movf	___flmul@prod+2,w
  6128  0F8C  00AE               	movwf	??___flmul+2
  6129  0F8D  083B               	movf	___flmul@prod+3,w
  6130  0F8E  00AF               	movwf	??___flmul+3
  6131  0F8F  3001               	movlw	1
  6132  0F90  00B0               	movwf	??___flmul+4
  6133  0F91                     u4215:
  6134  0F91  0D2F               	rlf	??___flmul+3,w
  6135  0F92  0CAF               	rrf	??___flmul+3,f
  6136  0F93  0CAE               	rrf	??___flmul+2,f
  6137  0F94  0CAD               	rrf	??___flmul+1,f
  6138  0F95  0CAC               	rrf	??___flmul,f
  6139  0F96                     u4210:
  6140  0F96  0BB0               	decfsz	??___flmul+4,f
  6141  0F97  2F91               	goto	u4215
  6142  0F98  082F               	movf	??___flmul+3,w
  6143  0F99  00BB               	movwf	___flmul@prod+3
  6144  0F9A  082E               	movf	??___flmul+2,w
  6145  0F9B  00BA               	movwf	___flmul@prod+2
  6146  0F9C  082D               	movf	??___flmul+1,w
  6147  0F9D  00B9               	movwf	___flmul@prod+1
  6148  0F9E  082C               	movf	??___flmul,w
  6149  0F9F  00B8               	movwf	___flmul@prod
  6150  0FA0                     l2857:
  6151  0FA0  3001               	movlw	1
  6152  0FA1  07BC               	addwf	___flmul@temp,f
  6153  0FA2  1803               	skipnc
  6154  0FA3  0ABD               	incf	___flmul@temp+1,f
  6155  0FA4  3000               	movlw	0
  6156  0FA5  07BD               	addwf	___flmul@temp+1,f
  6157  0FA6                     l2859:
  6158  0FA6  083D               	movf	___flmul@temp+1,w
  6159  0FA7  3A80               	xorlw	128
  6160  0FA8  00FF               	movwf	btemp+1
  6161  0FA9  3080               	movlw	128
  6162  0FAA  027F               	subwf	btemp+1,w
  6163  0FAB  1D03               	skipz
  6164  0FAC  2FAF               	goto	u4225
  6165  0FAD  30FF               	movlw	255
  6166  0FAE  023C               	subwf	___flmul@temp,w
  6167  0FAF                     u4225:
  6168  0FAF  1C03               	skipc
  6169  0FB0  2FB2               	goto	u4221
  6170  0FB1  2FB3               	goto	u4220
  6171  0FB2                     u4221:
  6172  0FB2  2FBE               	goto	l2863
  6173  0FB3                     u4220:
  6174  0FB3                     l2861:
  6175  0FB3  307F               	movlw	127
  6176  0FB4  1283               	bcf	3,5	;RP0=0, select bank0
  6177  0FB5  1303               	bcf	3,6	;RP1=0, select bank0
  6178  0FB6  00BB               	movwf	___flmul@prod+3
  6179  0FB7  3080               	movlw	128
  6180  0FB8  00BA               	movwf	___flmul@prod+2
  6181  0FB9  3000               	movlw	0
  6182  0FBA  00B9               	movwf	___flmul@prod+1
  6183  0FBB  3000               	movlw	0
  6184  0FBC  00B8               	movwf	___flmul@prod
  6185  0FBD  2FF3               	goto	l739
  6186  0FBE                     l2863:
  6187  0FBE  1283               	bcf	3,5	;RP0=0, select bank0
  6188  0FBF  1303               	bcf	3,6	;RP1=0, select bank0
  6189  0FC0  083D               	movf	___flmul@temp+1,w
  6190  0FC1  3A80               	xorlw	128
  6191  0FC2  00FF               	movwf	btemp+1
  6192  0FC3  3080               	movlw	128
  6193  0FC4  027F               	subwf	btemp+1,w
  6194  0FC5  1D03               	skipz
  6195  0FC6  2FC9               	goto	u4235
  6196  0FC7  3001               	movlw	1
  6197  0FC8  023C               	subwf	___flmul@temp,w
  6198  0FC9                     u4235:
  6199  0FC9  1803               	skipnc
  6200  0FCA  2FCC               	goto	u4231
  6201  0FCB  2FCD               	goto	u4230
  6202  0FCC                     u4231:
  6203  0FCC  2FD9               	goto	l2869
  6204  0FCD                     u4230:
  6205  0FCD                     l2865:
  6206  0FCD  3000               	movlw	0
  6207  0FCE  1283               	bcf	3,5	;RP0=0, select bank0
  6208  0FCF  1303               	bcf	3,6	;RP1=0, select bank0
  6209  0FD0  00BB               	movwf	___flmul@prod+3
  6210  0FD1  3000               	movlw	0
  6211  0FD2  00BA               	movwf	___flmul@prod+2
  6212  0FD3  3000               	movlw	0
  6213  0FD4  00B9               	movwf	___flmul@prod+1
  6214  0FD5  3000               	movlw	0
  6215  0FD6  00B8               	movwf	___flmul@prod
  6216  0FD7                     l2867:
  6217  0FD7  01B1               	clrf	___flmul@sign
  6218  0FD8  2FF3               	goto	l739
  6219  0FD9                     l2869:
  6220  0FD9  1283               	bcf	3,5	;RP0=0, select bank0
  6221  0FDA  1303               	bcf	3,6	;RP1=0, select bank0
  6222  0FDB  083C               	movf	___flmul@temp,w
  6223  0FDC  00AC               	movwf	??___flmul
  6224  0FDD  082C               	movf	??___flmul,w
  6225  0FDE  00B7               	movwf	___flmul@bexp
  6226  0FDF  30FF               	movlw	255
  6227  0FE0  05B8               	andwf	___flmul@prod,f
  6228  0FE1  30FF               	movlw	255
  6229  0FE2  05B9               	andwf	___flmul@prod+1,f
  6230  0FE3  307F               	movlw	127
  6231  0FE4  05BA               	andwf	___flmul@prod+2,f
  6232  0FE5  3000               	movlw	0
  6233  0FE6  05BB               	andwf	___flmul@prod+3,f
  6234  0FE7                     l2871:
  6235  0FE7  1C37               	btfss	___flmul@bexp,0
  6236  0FE8  2FEA               	goto	u4241
  6237  0FE9  2FEB               	goto	u4240
  6238  0FEA                     u4241:
  6239  0FEA  2FEC               	goto	l2875
  6240  0FEB                     u4240:
  6241  0FEB                     l2873:
  6242  0FEB  17BA               	bsf	___flmul@prod+2,7
  6243  0FEC                     l2875:
  6244  0FEC  0837               	movf	___flmul@bexp,w
  6245  0FED  00AC               	movwf	??___flmul
  6246  0FEE  1003               	clrc
  6247  0FEF  0C2C               	rrf	??___flmul,w
  6248  0FF0  00AD               	movwf	??___flmul+1
  6249  0FF1  082D               	movf	??___flmul+1,w
  6250  0FF2  00BB               	movwf	___flmul@prod+3
  6251  0FF3                     l739:
  6252  0FF3  0831               	movf	___flmul@sign,w
  6253  0FF4  00AC               	movwf	??___flmul
  6254  0FF5  082C               	movf	??___flmul,w
  6255  0FF6  04BB               	iorwf	___flmul@prod+3,f
  6256  0FF7                     l2877:
  6257  0FF7  083B               	movf	___flmul@prod+3,w
  6258  0FF8  00A7               	movwf	?___flmul+3
  6259  0FF9  083A               	movf	___flmul@prod+2,w
  6260  0FFA  00A6               	movwf	?___flmul+2
  6261  0FFB  0839               	movf	___flmul@prod+1,w
  6262  0FFC  00A5               	movwf	?___flmul+1
  6263  0FFD  0838               	movf	___flmul@prod,w
  6264  0FFE  00A4               	movwf	?___flmul
  6265  0FFF                     l727:
  6266  0FFF  0008               	return
  6267  1000                     __end_of___flmul:
  6268                           
  6269                           	psect	text11
  6270  1B20                     __ptext11:	
  6271 ;; *************** function __Umul8_16 *****************
  6272 ;; Defined at:
  6273 ;;		line 4 in file "C:\Program Files\Microchip\xc8\v2.36\pic\sources\c90\common\Umul8_16.c"
  6274 ;; Parameters:    Size  Location     Type
  6275 ;;  multiplier      1    wreg     unsigned char 
  6276 ;;  multiplicand    1    0[COMMON] unsigned char 
  6277 ;; Auto vars:     Size  Location     Type
  6278 ;;  multiplier      1    8[COMMON] unsigned char 
  6279 ;;  word_mpld       2    6[COMMON] unsigned int 
  6280 ;;  product         2    4[COMMON] unsigned int 
  6281 ;; Return value:  Size  Location     Type
  6282 ;;                  2    0[COMMON] unsigned int 
  6283 ;; Registers used:
  6284 ;;		wreg, status,2, status,0
  6285 ;; Tracked objects:
  6286 ;;		On entry : 0/0
  6287 ;;		On exit  : 0/0
  6288 ;;		Unchanged: 0/0
  6289 ;; Data sizes:     COMMON   BANK0   BANK1   BANK3   BANK2
  6290 ;;      Params:         2       0       0       0       0
  6291 ;;      Locals:         5       0       0       0       0
  6292 ;;      Temps:          2       0       0       0       0
  6293 ;;      Totals:         9       0       0       0       0
  6294 ;;Total ram usage:        9 bytes
  6295 ;; Hardware stack levels used: 1
  6296 ;; This function calls:
  6297 ;;		Nothing
  6298 ;; This function is called by:
  6299 ;;		___flmul
  6300 ;; This function uses a non-reentrant model
  6301 ;;
  6302                           
  6303  1B20                     __Umul8_16:	
  6304                           ;psect for function __Umul8_16
  6305                           
  6306                           
  6307                           ;incstack = 0
  6308                           ; Regs used in __Umul8_16: [wreg+status,2+status,0]
  6309                           ;__Umul8_16@multiplier stored from wreg
  6310  1B20  00F8               	movwf	__Umul8_16@multiplier
  6311  1B21                     l2357:
  6312  1B21  01F4               	clrf	__Umul8_16@product
  6313  1B22  01F5               	clrf	__Umul8_16@product+1
  6314  1B23                     l2359:
  6315  1B23  0870               	movf	__Umul8_16@multiplicand,w
  6316  1B24  00F2               	movwf	??__Umul8_16
  6317  1B25  01F3               	clrf	??__Umul8_16+1
  6318  1B26  0872               	movf	??__Umul8_16,w
  6319  1B27  00F6               	movwf	__Umul8_16@word_mpld
  6320  1B28  0873               	movf	??__Umul8_16+1,w
  6321  1B29  00F7               	movwf	__Umul8_16@word_mpld+1
  6322  1B2A                     l2361:
  6323  1B2A  1C78               	btfss	__Umul8_16@multiplier,0
  6324  1B2B  2B2D               	goto	u3051
  6325  1B2C  2B2E               	goto	u3050
  6326  1B2D                     u3051:
  6327  1B2D  2B34               	goto	l746
  6328  1B2E                     u3050:
  6329  1B2E                     l2363:
  6330  1B2E  0876               	movf	__Umul8_16@word_mpld,w
  6331  1B2F  07F4               	addwf	__Umul8_16@product,f
  6332  1B30  1803               	skipnc
  6333  1B31  0AF5               	incf	__Umul8_16@product+1,f
  6334  1B32  0877               	movf	__Umul8_16@word_mpld+1,w
  6335  1B33  07F5               	addwf	__Umul8_16@product+1,f
  6336  1B34                     l746:
  6337  1B34  3001               	movlw	1
  6338  1B35                     u3065:
  6339  1B35  1003               	clrc
  6340  1B36  0DF6               	rlf	__Umul8_16@word_mpld,f
  6341  1B37  0DF7               	rlf	__Umul8_16@word_mpld+1,f
  6342  1B38  3EFF               	addlw	-1
  6343  1B39  1D03               	skipz
  6344  1B3A  2B35               	goto	u3065
  6345  1B3B  1003               	clrc
  6346  1B3C  0CF8               	rrf	__Umul8_16@multiplier,f
  6347  1B3D                     l2365:
  6348  1B3D  0878               	movf	__Umul8_16@multiplier,w
  6349  1B3E  1D03               	btfss	3,2
  6350  1B3F  2B41               	goto	u3071
  6351  1B40  2B42               	goto	u3070
  6352  1B41                     u3071:
  6353  1B41  2B2A               	goto	l2361
  6354  1B42                     u3070:
  6355  1B42                     l2367:
  6356  1B42  0875               	movf	__Umul8_16@product+1,w
  6357  1B43  00F1               	movwf	?__Umul8_16+1
  6358  1B44  0874               	movf	__Umul8_16@product,w
  6359  1B45  00F0               	movwf	?__Umul8_16
  6360  1B46                     l748:
  6361  1B46  0008               	return
  6362  1B47                     __end_of__Umul8_16:
  6363                           
  6364                           	psect	text12
  6365  0011                     __ptext12:	
  6366 ;; *************** function __tdiv_to_l_ *****************
  6367 ;; Defined at:
  6368 ;;		line 60 in file "C:\Program Files\Microchip\xc8\v2.36\pic\sources\c90\common\ftdivl.c"
  6369 ;; Parameters:    Size  Location     Type
  6370 ;;  f1              4    0[COMMON] float 
  6371 ;;  f2              4    4[COMMON] float 
  6372 ;; Auto vars:     Size  Location     Type
  6373 ;;  quot            4    0[BANK0 ] unsigned long 
  6374 ;;  exp1            1    5[BANK0 ] unsigned char 
  6375 ;;  cntr            1    4[BANK0 ] unsigned char 
  6376 ;; Return value:  Size  Location     Type
  6377 ;;                  4    0[COMMON] unsigned long 
  6378 ;; Registers used:
  6379 ;;		wreg, status,2, status,0
  6380 ;; Tracked objects:
  6381 ;;		On entry : 0/0
  6382 ;;		On exit  : 0/0
  6383 ;;		Unchanged: 0/0
  6384 ;; Data sizes:     COMMON   BANK0   BANK1   BANK3   BANK2
  6385 ;;      Params:         8       0       0       0       0
  6386 ;;      Locals:         0       6       0       0       0
  6387 ;;      Temps:          4       0       0       0       0
  6388 ;;      Totals:        12       6       0       0       0
  6389 ;;Total ram usage:       18 bytes
  6390 ;; Hardware stack levels used: 1
  6391 ;; This function calls:
  6392 ;;		Nothing
  6393 ;; This function is called by:
  6394 ;;		_sprintf
  6395 ;; This function uses a non-reentrant model
  6396 ;;
  6397                           
  6398  0011                     __tdiv_to_l_:	
  6399                           ;psect for function __tdiv_to_l_
  6400                           
  6401  0011                     l2981:	
  6402                           ;incstack = 0
  6403                           ; Regs used in __tdiv_to_l_: [wreg+status,2+status,0]
  6404                           
  6405  0011  0870               	movf	__tdiv_to_l_@f1,w
  6406  0012  00F8               	movwf	??__tdiv_to_l_
  6407  0013  0871               	movf	__tdiv_to_l_@f1+1,w
  6408  0014  00F9               	movwf	??__tdiv_to_l_+1
  6409  0015  0872               	movf	__tdiv_to_l_@f1+2,w
  6410  0016  00FA               	movwf	??__tdiv_to_l_+2
  6411  0017  1003               	clrc
  6412  0018  0D79               	rlf	??__tdiv_to_l_+1,w
  6413  0019  0D7A               	rlf	??__tdiv_to_l_+2,w
  6414  001A  00FB               	movwf	??__tdiv_to_l_+3
  6415  001B  087B               	movf	??__tdiv_to_l_+3,w
  6416  001C  1283               	bcf	3,5	;RP0=0, select bank0
  6417  001D  1303               	bcf	3,6	;RP1=0, select bank0
  6418  001E  00A5               	movwf	__tdiv_to_l_@exp1
  6419  001F  0825               	movf	__tdiv_to_l_@exp1,w
  6420  0020  1D03               	btfss	3,2
  6421  0021  2823               	goto	u4541
  6422  0022  2824               	goto	u4540
  6423  0023                     u4541:
  6424  0023  282D               	goto	l2987
  6425  0024                     u4540:
  6426  0024                     l2983:
  6427  0024  3000               	movlw	0
  6428  0025  00F3               	movwf	?__tdiv_to_l_+3
  6429  0026  3000               	movlw	0
  6430  0027  00F2               	movwf	?__tdiv_to_l_+2
  6431  0028  3000               	movlw	0
  6432  0029  00F1               	movwf	?__tdiv_to_l_+1
  6433  002A  3000               	movlw	0
  6434  002B  00F0               	movwf	?__tdiv_to_l_
  6435  002C  28CD               	goto	l521
  6436  002D                     l2987:
  6437  002D  0874               	movf	__tdiv_to_l_@f2,w
  6438  002E  00F8               	movwf	??__tdiv_to_l_
  6439  002F  0875               	movf	__tdiv_to_l_@f2+1,w
  6440  0030  00F9               	movwf	??__tdiv_to_l_+1
  6441  0031  0876               	movf	__tdiv_to_l_@f2+2,w
  6442  0032  00FA               	movwf	??__tdiv_to_l_+2
  6443  0033  1003               	clrc
  6444  0034  0D79               	rlf	??__tdiv_to_l_+1,w
  6445  0035  0D7A               	rlf	??__tdiv_to_l_+2,w
  6446  0036  00FB               	movwf	??__tdiv_to_l_+3
  6447  0037  087B               	movf	??__tdiv_to_l_+3,w
  6448  0038  00A4               	movwf	__tdiv_to_l_@cntr
  6449  0039  0824               	movf	__tdiv_to_l_@cntr,w
  6450  003A  1D03               	btfss	3,2
  6451  003B  283D               	goto	u4551
  6452  003C  283E               	goto	u4550
  6453  003D                     u4551:
  6454  003D  283F               	goto	l522
  6455  003E                     u4550:
  6456  003E  2824               	goto	l2983
  6457  003F                     l522:
  6458  003F  17F1               	bsf	__tdiv_to_l_@f1+1,7
  6459  0040                     l2993:
  6460  0040  30FF               	movlw	255
  6461  0041  05F0               	andwf	__tdiv_to_l_@f1,f
  6462  0042  30FF               	movlw	255
  6463  0043  05F1               	andwf	__tdiv_to_l_@f1+1,f
  6464  0044  3000               	movlw	0
  6465  0045  05F2               	andwf	__tdiv_to_l_@f1+2,f
  6466  0046                     l2995:
  6467  0046  17F5               	bsf	__tdiv_to_l_@f2+1,7
  6468  0047  30FF               	movlw	255
  6469  0048  05F4               	andwf	__tdiv_to_l_@f2,f
  6470  0049  30FF               	movlw	255
  6471  004A  05F5               	andwf	__tdiv_to_l_@f2+1,f
  6472  004B  3000               	movlw	0
  6473  004C  05F6               	andwf	__tdiv_to_l_@f2+2,f
  6474  004D  3000               	movlw	0
  6475  004E  00A3               	movwf	__tdiv_to_l_@quot+3
  6476  004F  3000               	movlw	0
  6477  0050  00A2               	movwf	__tdiv_to_l_@quot+2
  6478  0051  3000               	movlw	0
  6479  0052  00A1               	movwf	__tdiv_to_l_@quot+1
  6480  0053  3000               	movlw	0
  6481  0054  00A0               	movwf	__tdiv_to_l_@quot
  6482  0055                     l2997:
  6483  0055  307F               	movlw	127
  6484  0056  02A5               	subwf	__tdiv_to_l_@exp1,f
  6485  0057                     l2999:
  6486  0057  3098               	movlw	152
  6487  0058  0724               	addwf	__tdiv_to_l_@cntr,w
  6488  0059  00F8               	movwf	??__tdiv_to_l_
  6489  005A  0878               	movf	??__tdiv_to_l_,w
  6490  005B  02A5               	subwf	__tdiv_to_l_@exp1,f
  6491  005C  3018               	movlw	24
  6492  005D  00F8               	movwf	??__tdiv_to_l_
  6493  005E  0878               	movf	??__tdiv_to_l_,w
  6494  005F  00A4               	movwf	__tdiv_to_l_@cntr
  6495  0060                     l3001:
  6496  0060  3001               	movlw	1
  6497  0061  00F8               	movwf	??__tdiv_to_l_
  6498  0062                     u4565:
  6499  0062  1003               	clrc
  6500  0063  0DA0               	rlf	__tdiv_to_l_@quot,f
  6501  0064  0DA1               	rlf	__tdiv_to_l_@quot+1,f
  6502  0065  0DA2               	rlf	__tdiv_to_l_@quot+2,f
  6503  0066  0DA3               	rlf	__tdiv_to_l_@quot+3,f
  6504  0067  0BF8               	decfsz	??__tdiv_to_l_,f
  6505  0068  2862               	goto	u4565
  6506  0069                     l3003:
  6507  0069  0876               	movf	__tdiv_to_l_@f2+2,w
  6508  006A  0272               	subwf	__tdiv_to_l_@f1+2,w
  6509  006B  1D03               	skipz
  6510  006C  2873               	goto	u4575
  6511  006D  0875               	movf	__tdiv_to_l_@f2+1,w
  6512  006E  0271               	subwf	__tdiv_to_l_@f1+1,w
  6513  006F  1D03               	skipz
  6514  0070  2873               	goto	u4575
  6515  0071  0874               	movf	__tdiv_to_l_@f2,w
  6516  0072  0270               	subwf	__tdiv_to_l_@f1,w
  6517  0073                     u4575:
  6518  0073  1C03               	skipc
  6519  0074  2876               	goto	u4571
  6520  0075  2877               	goto	u4570
  6521  0076                     u4571:
  6522  0076  2882               	goto	l3009
  6523  0077                     u4570:
  6524  0077                     l3005:
  6525  0077  0874               	movf	__tdiv_to_l_@f2,w
  6526  0078  02F0               	subwf	__tdiv_to_l_@f1,f
  6527  0079  0875               	movf	__tdiv_to_l_@f2+1,w
  6528  007A  1C03               	skipc
  6529  007B  0F75               	incfsz	__tdiv_to_l_@f2+1,w
  6530  007C  02F1               	subwf	__tdiv_to_l_@f1+1,f
  6531  007D  0876               	movf	__tdiv_to_l_@f2+2,w
  6532  007E  1C03               	skipc
  6533  007F  0A76               	incf	__tdiv_to_l_@f2+2,w
  6534  0080  02F2               	subwf	__tdiv_to_l_@f1+2,f
  6535  0081                     l3007:
  6536  0081  1420               	bsf	__tdiv_to_l_@quot,0
  6537  0082                     l3009:
  6538  0082  3001               	movlw	1
  6539  0083                     u4585:
  6540  0083  1003               	clrc
  6541  0084  0DF0               	rlf	__tdiv_to_l_@f1,f
  6542  0085  0DF1               	rlf	__tdiv_to_l_@f1+1,f
  6543  0086  0DF2               	rlf	__tdiv_to_l_@f1+2,f
  6544  0087  3EFF               	addlw	-1
  6545  0088  1D03               	skipz
  6546  0089  2883               	goto	u4585
  6547  008A                     l3011:
  6548  008A  3001               	movlw	1
  6549  008B  02A4               	subwf	__tdiv_to_l_@cntr,f
  6550  008C  1D03               	btfss	3,2
  6551  008D  288F               	goto	u4591
  6552  008E  2890               	goto	u4590
  6553  008F                     u4591:
  6554  008F  2860               	goto	l3001
  6555  0090                     u4590:
  6556  0090                     l525:
  6557  0090  1FA5               	btfss	__tdiv_to_l_@exp1,7
  6558  0091  2893               	goto	u4601
  6559  0092  2894               	goto	u4600
  6560  0093                     u4601:
  6561  0093  28AE               	goto	l3021
  6562  0094                     u4600:
  6563  0094                     l3013:
  6564  0094  0825               	movf	__tdiv_to_l_@exp1,w
  6565  0095  3A80               	xorlw	128
  6566  0096  3E97               	addlw	151
  6567  0097  1803               	skipnc
  6568  0098  289A               	goto	u4611
  6569  0099  289B               	goto	u4610
  6570  009A                     u4611:
  6571  009A  289C               	goto	l3019
  6572  009B                     u4610:
  6573  009B  2824               	goto	l2983
  6574  009C                     l3019:
  6575  009C  3001               	movlw	1
  6576  009D                     u4625:
  6577  009D  1003               	clrc
  6578  009E  0CA3               	rrf	__tdiv_to_l_@quot+3,f
  6579  009F  0CA2               	rrf	__tdiv_to_l_@quot+2,f
  6580  00A0  0CA1               	rrf	__tdiv_to_l_@quot+1,f
  6581  00A1  0CA0               	rrf	__tdiv_to_l_@quot,f
  6582  00A2  3EFF               	addlw	-1
  6583  00A3  1D03               	skipz
  6584  00A4  289D               	goto	u4625
  6585  00A5  3001               	movlw	1
  6586  00A6  00F8               	movwf	??__tdiv_to_l_
  6587  00A7  0878               	movf	??__tdiv_to_l_,w
  6588  00A8  07A5               	addwf	__tdiv_to_l_@exp1,f
  6589  00A9  1D03               	btfss	3,2
  6590  00AA  28AC               	goto	u4631
  6591  00AB  28AD               	goto	u4630
  6592  00AC                     u4631:
  6593  00AC  289C               	goto	l3019
  6594  00AD                     u4630:
  6595  00AD  28C5               	goto	l3029
  6596  00AE                     l3021:
  6597  00AE  3018               	movlw	24
  6598  00AF  0225               	subwf	__tdiv_to_l_@exp1,w
  6599  00B0  1C03               	skipc
  6600  00B1  28B3               	goto	u4641
  6601  00B2  28B4               	goto	u4640
  6602  00B3                     u4641:
  6603  00B3  28C0               	goto	l532
  6604  00B4                     u4640:
  6605  00B4  2824               	goto	l2983
  6606  00B5                     l3027:
  6607  00B5  3001               	movlw	1
  6608  00B6  00F8               	movwf	??__tdiv_to_l_
  6609  00B7                     u4655:
  6610  00B7  1003               	clrc
  6611  00B8  0DA0               	rlf	__tdiv_to_l_@quot,f
  6612  00B9  0DA1               	rlf	__tdiv_to_l_@quot+1,f
  6613  00BA  0DA2               	rlf	__tdiv_to_l_@quot+2,f
  6614  00BB  0DA3               	rlf	__tdiv_to_l_@quot+3,f
  6615  00BC  0BF8               	decfsz	??__tdiv_to_l_,f
  6616  00BD  28B7               	goto	u4655
  6617  00BE  3001               	movlw	1
  6618  00BF  02A5               	subwf	__tdiv_to_l_@exp1,f
  6619  00C0                     l532:
  6620  00C0  0825               	movf	__tdiv_to_l_@exp1,w
  6621  00C1  1D03               	btfss	3,2
  6622  00C2  28C4               	goto	u4661
  6623  00C3  28C5               	goto	u4660
  6624  00C4                     u4661:
  6625  00C4  28B5               	goto	l3027
  6626  00C5                     u4660:
  6627  00C5                     l3029:
  6628  00C5  0823               	movf	__tdiv_to_l_@quot+3,w
  6629  00C6  00F3               	movwf	?__tdiv_to_l_+3
  6630  00C7  0822               	movf	__tdiv_to_l_@quot+2,w
  6631  00C8  00F2               	movwf	?__tdiv_to_l_+2
  6632  00C9  0821               	movf	__tdiv_to_l_@quot+1,w
  6633  00CA  00F1               	movwf	?__tdiv_to_l_+1
  6634  00CB  0820               	movf	__tdiv_to_l_@quot,w
  6635  00CC  00F0               	movwf	?__tdiv_to_l_
  6636  00CD                     l521:
  6637  00CD  0008               	return
  6638  00CE                     __end_of__tdiv_to_l_:
  6639                           
  6640                           	psect	text13
  6641  00CE                     __ptext13:	
  6642 ;; *************** function __div_to_l_ *****************
  6643 ;; Defined at:
  6644 ;;		line 60 in file "C:\Program Files\Microchip\xc8\v2.36\pic\sources\c90\common\fldivl.c"
  6645 ;; Parameters:    Size  Location     Type
  6646 ;;  f1              4    0[COMMON] unsigned long 
  6647 ;;  f2              4    4[COMMON] unsigned long 
  6648 ;; Auto vars:     Size  Location     Type
  6649 ;;  quot            4    0[BANK0 ] unsigned long 
  6650 ;;  exp1            1    5[BANK0 ] unsigned char 
  6651 ;;  cntr            1    4[BANK0 ] unsigned char 
  6652 ;; Return value:  Size  Location     Type
  6653 ;;                  4    0[COMMON] unsigned long 
  6654 ;; Registers used:
  6655 ;;		wreg, status,2, status,0
  6656 ;; Tracked objects:
  6657 ;;		On entry : 0/0
  6658 ;;		On exit  : 0/0
  6659 ;;		Unchanged: 0/0
  6660 ;; Data sizes:     COMMON   BANK0   BANK1   BANK3   BANK2
  6661 ;;      Params:         8       0       0       0       0
  6662 ;;      Locals:         0       6       0       0       0
  6663 ;;      Temps:          1       0       0       0       0
  6664 ;;      Totals:         9       6       0       0       0
  6665 ;;Total ram usage:       15 bytes
  6666 ;; Hardware stack levels used: 1
  6667 ;; This function calls:
  6668 ;;		Nothing
  6669 ;; This function is called by:
  6670 ;;		_sprintf
  6671 ;; This function uses a non-reentrant model
  6672 ;;
  6673                           
  6674  00CE                     __div_to_l_:	
  6675                           ;psect for function __div_to_l_
  6676                           
  6677  00CE                     l3033:	
  6678                           ;incstack = 0
  6679                           ; Regs used in __div_to_l_: [wreg+status,2+status,0]
  6680                           
  6681  00CE  1003               	clrc
  6682  00CF  0D72               	rlf	__div_to_l_@f1+2,w
  6683  00D0  0D73               	rlf	__div_to_l_@f1+3,w
  6684  00D1  00F8               	movwf	??__div_to_l_
  6685  00D2  0878               	movf	??__div_to_l_,w
  6686  00D3  1283               	bcf	3,5	;RP0=0, select bank0
  6687  00D4  1303               	bcf	3,6	;RP1=0, select bank0
  6688  00D5  00A5               	movwf	__div_to_l_@exp1
  6689  00D6  0825               	movf	__div_to_l_@exp1,w
  6690  00D7  1D03               	btfss	3,2
  6691  00D8  28DA               	goto	u4671
  6692  00D9  28DB               	goto	u4670
  6693  00DA                     u4671:
  6694  00DA  28E4               	goto	l3039
  6695  00DB                     u4670:
  6696  00DB                     l3035:
  6697  00DB  3000               	movlw	0
  6698  00DC  00F3               	movwf	?__div_to_l_+3
  6699  00DD  3000               	movlw	0
  6700  00DE  00F2               	movwf	?__div_to_l_+2
  6701  00DF  3000               	movlw	0
  6702  00E0  00F1               	movwf	?__div_to_l_+1
  6703  00E1  3000               	movlw	0
  6704  00E2  00F0               	movwf	?__div_to_l_
  6705  00E3  298B               	goto	l474
  6706  00E4                     l3039:
  6707  00E4  1003               	clrc
  6708  00E5  0D76               	rlf	__div_to_l_@f2+2,w
  6709  00E6  0D77               	rlf	__div_to_l_@f2+3,w
  6710  00E7  00F8               	movwf	??__div_to_l_
  6711  00E8  0878               	movf	??__div_to_l_,w
  6712  00E9  00A4               	movwf	__div_to_l_@cntr
  6713  00EA  0824               	movf	__div_to_l_@cntr,w
  6714  00EB  1D03               	btfss	3,2
  6715  00EC  28EE               	goto	u4681
  6716  00ED  28EF               	goto	u4680
  6717  00EE                     u4681:
  6718  00EE  28F0               	goto	l475
  6719  00EF                     u4680:
  6720  00EF  28DB               	goto	l3035
  6721  00F0                     l475:
  6722  00F0  17F2               	bsf	__div_to_l_@f1+2,7
  6723  00F1                     l3045:
  6724  00F1  30FF               	movlw	255
  6725  00F2  05F0               	andwf	__div_to_l_@f1,f
  6726  00F3  30FF               	movlw	255
  6727  00F4  05F1               	andwf	__div_to_l_@f1+1,f
  6728  00F5  30FF               	movlw	255
  6729  00F6  05F2               	andwf	__div_to_l_@f1+2,f
  6730  00F7  3000               	movlw	0
  6731  00F8  05F3               	andwf	__div_to_l_@f1+3,f
  6732  00F9                     l3047:
  6733  00F9  17F6               	bsf	__div_to_l_@f2+2,7
  6734  00FA  30FF               	movlw	255
  6735  00FB  05F4               	andwf	__div_to_l_@f2,f
  6736  00FC  30FF               	movlw	255
  6737  00FD  05F5               	andwf	__div_to_l_@f2+1,f
  6738  00FE  30FF               	movlw	255
  6739  00FF  05F6               	andwf	__div_to_l_@f2+2,f
  6740  0100  3000               	movlw	0
  6741  0101  05F7               	andwf	__div_to_l_@f2+3,f
  6742  0102  3000               	movlw	0
  6743  0103  00A3               	movwf	__div_to_l_@quot+3
  6744  0104  3000               	movlw	0
  6745  0105  00A2               	movwf	__div_to_l_@quot+2
  6746  0106  3000               	movlw	0
  6747  0107  00A1               	movwf	__div_to_l_@quot+1
  6748  0108  3000               	movlw	0
  6749  0109  00A0               	movwf	__div_to_l_@quot
  6750  010A                     l3049:
  6751  010A  307F               	movlw	127
  6752  010B  02A5               	subwf	__div_to_l_@exp1,f
  6753  010C                     l3051:
  6754  010C  30A0               	movlw	160
  6755  010D  0724               	addwf	__div_to_l_@cntr,w
  6756  010E  00F8               	movwf	??__div_to_l_
  6757  010F  0878               	movf	??__div_to_l_,w
  6758  0110  02A5               	subwf	__div_to_l_@exp1,f
  6759  0111  3020               	movlw	32
  6760  0112  00F8               	movwf	??__div_to_l_
  6761  0113  0878               	movf	??__div_to_l_,w
  6762  0114  00A4               	movwf	__div_to_l_@cntr
  6763  0115                     l3053:
  6764  0115  3001               	movlw	1
  6765  0116  00F8               	movwf	??__div_to_l_
  6766  0117                     u4695:
  6767  0117  1003               	clrc
  6768  0118  0DA0               	rlf	__div_to_l_@quot,f
  6769  0119  0DA1               	rlf	__div_to_l_@quot+1,f
  6770  011A  0DA2               	rlf	__div_to_l_@quot+2,f
  6771  011B  0DA3               	rlf	__div_to_l_@quot+3,f
  6772  011C  0BF8               	decfsz	??__div_to_l_,f
  6773  011D  2917               	goto	u4695
  6774  011E                     l3055:
  6775  011E  0877               	movf	__div_to_l_@f2+3,w
  6776  011F  0273               	subwf	__div_to_l_@f1+3,w
  6777  0120  1D03               	skipz
  6778  0121  292C               	goto	u4705
  6779  0122  0876               	movf	__div_to_l_@f2+2,w
  6780  0123  0272               	subwf	__div_to_l_@f1+2,w
  6781  0124  1D03               	skipz
  6782  0125  292C               	goto	u4705
  6783  0126  0875               	movf	__div_to_l_@f2+1,w
  6784  0127  0271               	subwf	__div_to_l_@f1+1,w
  6785  0128  1D03               	skipz
  6786  0129  292C               	goto	u4705
  6787  012A  0874               	movf	__div_to_l_@f2,w
  6788  012B  0270               	subwf	__div_to_l_@f1,w
  6789  012C                     u4705:
  6790  012C  1C03               	skipc
  6791  012D  292F               	goto	u4701
  6792  012E  2930               	goto	u4700
  6793  012F                     u4701:
  6794  012F  293F               	goto	l3061
  6795  0130                     u4700:
  6796  0130                     l3057:
  6797  0130  0874               	movf	__div_to_l_@f2,w
  6798  0131  02F0               	subwf	__div_to_l_@f1,f
  6799  0132  0875               	movf	__div_to_l_@f2+1,w
  6800  0133  1C03               	skipc
  6801  0134  0F75               	incfsz	__div_to_l_@f2+1,w
  6802  0135  02F1               	subwf	__div_to_l_@f1+1,f
  6803  0136  0876               	movf	__div_to_l_@f2+2,w
  6804  0137  1C03               	skipc
  6805  0138  0F76               	incfsz	__div_to_l_@f2+2,w
  6806  0139  02F2               	subwf	__div_to_l_@f1+2,f
  6807  013A  0877               	movf	__div_to_l_@f2+3,w
  6808  013B  1C03               	skipc
  6809  013C  0F77               	incfsz	__div_to_l_@f2+3,w
  6810  013D  02F3               	subwf	__div_to_l_@f1+3,f
  6811  013E                     l3059:
  6812  013E  1420               	bsf	__div_to_l_@quot,0
  6813  013F                     l3061:
  6814  013F  3001               	movlw	1
  6815  0140  00F8               	movwf	??__div_to_l_
  6816  0141                     u4715:
  6817  0141  1003               	clrc
  6818  0142  0DF0               	rlf	__div_to_l_@f1,f
  6819  0143  0DF1               	rlf	__div_to_l_@f1+1,f
  6820  0144  0DF2               	rlf	__div_to_l_@f1+2,f
  6821  0145  0DF3               	rlf	__div_to_l_@f1+3,f
  6822  0146  0BF8               	decfsz	??__div_to_l_,f
  6823  0147  2941               	goto	u4715
  6824  0148                     l3063:
  6825  0148  3001               	movlw	1
  6826  0149  02A4               	subwf	__div_to_l_@cntr,f
  6827  014A  1D03               	btfss	3,2
  6828  014B  294D               	goto	u4721
  6829  014C  294E               	goto	u4720
  6830  014D                     u4721:
  6831  014D  2915               	goto	l3053
  6832  014E                     u4720:
  6833  014E                     l478:
  6834  014E  1FA5               	btfss	__div_to_l_@exp1,7
  6835  014F  2951               	goto	u4731
  6836  0150  2952               	goto	u4730
  6837  0151                     u4731:
  6838  0151  296C               	goto	l3073
  6839  0152                     u4730:
  6840  0152                     l3065:
  6841  0152  0825               	movf	__div_to_l_@exp1,w
  6842  0153  3A80               	xorlw	128
  6843  0154  3E9F               	addlw	159
  6844  0155  1803               	skipnc
  6845  0156  2958               	goto	u4741
  6846  0157  2959               	goto	u4740
  6847  0158                     u4741:
  6848  0158  295A               	goto	l3071
  6849  0159                     u4740:
  6850  0159  28DB               	goto	l3035
  6851  015A                     l3071:
  6852  015A  3001               	movlw	1
  6853  015B                     u4755:
  6854  015B  1003               	clrc
  6855  015C  0CA3               	rrf	__div_to_l_@quot+3,f
  6856  015D  0CA2               	rrf	__div_to_l_@quot+2,f
  6857  015E  0CA1               	rrf	__div_to_l_@quot+1,f
  6858  015F  0CA0               	rrf	__div_to_l_@quot,f
  6859  0160  3EFF               	addlw	-1
  6860  0161  1D03               	skipz
  6861  0162  295B               	goto	u4755
  6862  0163  3001               	movlw	1
  6863  0164  00F8               	movwf	??__div_to_l_
  6864  0165  0878               	movf	??__div_to_l_,w
  6865  0166  07A5               	addwf	__div_to_l_@exp1,f
  6866  0167  1D03               	btfss	3,2
  6867  0168  296A               	goto	u4761
  6868  0169  296B               	goto	u4760
  6869  016A                     u4761:
  6870  016A  295A               	goto	l3071
  6871  016B                     u4760:
  6872  016B  2983               	goto	l3081
  6873  016C                     l3073:
  6874  016C  3020               	movlw	32
  6875  016D  0225               	subwf	__div_to_l_@exp1,w
  6876  016E  1C03               	skipc
  6877  016F  2971               	goto	u4771
  6878  0170  2972               	goto	u4770
  6879  0171                     u4771:
  6880  0171  297E               	goto	l485
  6881  0172                     u4770:
  6882  0172  28DB               	goto	l3035
  6883  0173                     l3079:
  6884  0173  3001               	movlw	1
  6885  0174  00F8               	movwf	??__div_to_l_
  6886  0175                     u4785:
  6887  0175  1003               	clrc
  6888  0176  0DA0               	rlf	__div_to_l_@quot,f
  6889  0177  0DA1               	rlf	__div_to_l_@quot+1,f
  6890  0178  0DA2               	rlf	__div_to_l_@quot+2,f
  6891  0179  0DA3               	rlf	__div_to_l_@quot+3,f
  6892  017A  0BF8               	decfsz	??__div_to_l_,f
  6893  017B  2975               	goto	u4785
  6894  017C  3001               	movlw	1
  6895  017D  02A5               	subwf	__div_to_l_@exp1,f
  6896  017E                     l485:
  6897  017E  0825               	movf	__div_to_l_@exp1,w
  6898  017F  1D03               	btfss	3,2
  6899  0180  2982               	goto	u4791
  6900  0181  2983               	goto	u4790
  6901  0182                     u4791:
  6902  0182  2973               	goto	l3079
  6903  0183                     u4790:
  6904  0183                     l3081:
  6905  0183  0823               	movf	__div_to_l_@quot+3,w
  6906  0184  00F3               	movwf	?__div_to_l_+3
  6907  0185  0822               	movf	__div_to_l_@quot+2,w
  6908  0186  00F2               	movwf	?__div_to_l_+2
  6909  0187  0821               	movf	__div_to_l_@quot+1,w
  6910  0188  00F1               	movwf	?__div_to_l_+1
  6911  0189  0820               	movf	__div_to_l_@quot,w
  6912  018A  00F0               	movwf	?__div_to_l_
  6913  018B                     l474:
  6914  018B  0008               	return
  6915  018C                     __end_of__div_to_l_:
  6916                           
  6917                           	psect	text14
  6918  0884                     __ptext14:	
  6919 ;; *************** function ___xxtofl *****************
  6920 ;; Defined at:
  6921 ;;		line 10 in file "C:\Program Files\Microchip\xc8\v2.36\pic\sources\c90\common\xxtofl.c"
  6922 ;; Parameters:    Size  Location     Type
  6923 ;;  sign            1    wreg     unsigned char 
  6924 ;;  val             4    4[COMMON] long 
  6925 ;; Auto vars:     Size  Location     Type
  6926 ;;  sign            1    0[BANK0 ] unsigned char 
  6927 ;;  arg             4    2[BANK0 ] unsigned long 
  6928 ;;  exp             1    1[BANK0 ] unsigned char 
  6929 ;; Return value:  Size  Location     Type
  6930 ;;                  4    4[COMMON] unsigned char 
  6931 ;; Registers used:
  6932 ;;		wreg, status,2, status,0
  6933 ;; Tracked objects:
  6934 ;;		On entry : 0/0
  6935 ;;		On exit  : 0/0
  6936 ;;		Unchanged: 0/0
  6937 ;; Data sizes:     COMMON   BANK0   BANK1   BANK3   BANK2
  6938 ;;      Params:         4       0       0       0       0
  6939 ;;      Locals:         0       6       0       0       0
  6940 ;;      Temps:          4       0       0       0       0
  6941 ;;      Totals:         8       6       0       0       0
  6942 ;;Total ram usage:       14 bytes
  6943 ;; Hardware stack levels used: 1
  6944 ;; This function calls:
  6945 ;;		Nothing
  6946 ;; This function is called by:
  6947 ;;		_fun
  6948 ;;		_sprintf
  6949 ;; This function uses a non-reentrant model
  6950 ;;
  6951                           
  6952  0884                     ___xxtofl:	
  6953                           ;psect for function ___xxtofl
  6954                           
  6955                           
  6956                           ;incstack = 0
  6957                           ; Regs used in ___xxtofl: [wreg+status,2+status,0]
  6958                           ;___xxtofl@sign stored from wreg
  6959  0884  1283               	bcf	3,5	;RP0=0, select bank0
  6960  0885  1303               	bcf	3,6	;RP1=0, select bank0
  6961  0886  00A0               	movwf	___xxtofl@sign
  6962  0887                     l3225:
  6963  0887  0820               	movf	___xxtofl@sign,w
  6964  0888  1903               	btfsc	3,2
  6965  0889  288B               	goto	u5181
  6966  088A  288C               	goto	u5180
  6967  088B                     u5181:
  6968  088B  28A0               	goto	l3231
  6969  088C                     u5180:
  6970  088C                     l3227:
  6971  088C  1FF7               	btfss	___xxtofl@val+3,7
  6972  088D  288F               	goto	u5191
  6973  088E  2890               	goto	u5190
  6974  088F                     u5191:
  6975  088F  28A0               	goto	l3231
  6976  0890                     u5190:
  6977  0890                     l3229:
  6978  0890  0974               	comf	___xxtofl@val,w
  6979  0891  00A2               	movwf	___xxtofl@arg
  6980  0892  0975               	comf	___xxtofl@val+1,w
  6981  0893  00A3               	movwf	___xxtofl@arg+1
  6982  0894  0976               	comf	___xxtofl@val+2,w
  6983  0895  00A4               	movwf	___xxtofl@arg+2
  6984  0896  0977               	comf	___xxtofl@val+3,w
  6985  0897  00A5               	movwf	___xxtofl@arg+3
  6986  0898  0AA2               	incf	___xxtofl@arg,f
  6987  0899  1903               	skipnz
  6988  089A  0AA3               	incf	___xxtofl@arg+1,f
  6989  089B  1903               	skipnz
  6990  089C  0AA4               	incf	___xxtofl@arg+2,f
  6991  089D  1903               	skipnz
  6992  089E  0AA5               	incf	___xxtofl@arg+3,f
  6993  089F  28A8               	goto	l771
  6994  08A0                     l3231:
  6995  08A0  0877               	movf	___xxtofl@val+3,w
  6996  08A1  00A5               	movwf	___xxtofl@arg+3
  6997  08A2  0876               	movf	___xxtofl@val+2,w
  6998  08A3  00A4               	movwf	___xxtofl@arg+2
  6999  08A4  0875               	movf	___xxtofl@val+1,w
  7000  08A5  00A3               	movwf	___xxtofl@arg+1
  7001  08A6  0874               	movf	___xxtofl@val,w
  7002  08A7  00A2               	movwf	___xxtofl@arg
  7003  08A8                     l771:
  7004  08A8  0877               	movf	___xxtofl@val+3,w
  7005  08A9  0476               	iorwf	___xxtofl@val+2,w
  7006  08AA  0475               	iorwf	___xxtofl@val+1,w
  7007  08AB  0474               	iorwf	___xxtofl@val,w
  7008  08AC  1D03               	skipz
  7009  08AD  28AF               	goto	u5201
  7010  08AE  28B0               	goto	u5200
  7011  08AF                     u5201:
  7012  08AF  28B9               	goto	l3237
  7013  08B0                     u5200:
  7014  08B0                     l3233:
  7015  08B0  3000               	movlw	0
  7016  08B1  00F7               	movwf	?___xxtofl+3
  7017  08B2  3000               	movlw	0
  7018  08B3  00F6               	movwf	?___xxtofl+2
  7019  08B4  3000               	movlw	0
  7020  08B5  00F5               	movwf	?___xxtofl+1
  7021  08B6  3000               	movlw	0
  7022  08B7  00F4               	movwf	?___xxtofl
  7023  08B8  293F               	goto	l773
  7024  08B9                     l3237:
  7025  08B9  3096               	movlw	150
  7026  08BA  00F8               	movwf	??___xxtofl
  7027  08BB  0878               	movf	??___xxtofl,w
  7028  08BC  00A1               	movwf	___xxtofl@exp
  7029  08BD  28CB               	goto	l3241
  7030  08BE                     l3239:
  7031  08BE  3001               	movlw	1
  7032  08BF  00F8               	movwf	??___xxtofl
  7033  08C0  0878               	movf	??___xxtofl,w
  7034  08C1  07A1               	addwf	___xxtofl@exp,f
  7035  08C2  3001               	movlw	1
  7036  08C3                     u5215:
  7037  08C3  1003               	clrc
  7038  08C4  0CA5               	rrf	___xxtofl@arg+3,f
  7039  08C5  0CA4               	rrf	___xxtofl@arg+2,f
  7040  08C6  0CA3               	rrf	___xxtofl@arg+1,f
  7041  08C7  0CA2               	rrf	___xxtofl@arg,f
  7042  08C8  3EFF               	addlw	-1
  7043  08C9  1D03               	skipz
  7044  08CA  28C3               	goto	u5215
  7045  08CB                     l3241:
  7046  08CB  30FE               	movlw	254
  7047  08CC  0525               	andwf	___xxtofl@arg+3,w
  7048  08CD  1D03               	btfss	3,2
  7049  08CE  28D0               	goto	u5221
  7050  08CF  28D1               	goto	u5220
  7051  08D0                     u5221:
  7052  08D0  28BE               	goto	l3239
  7053  08D1                     u5220:
  7054  08D1  28ED               	goto	l777
  7055  08D2                     l3243:
  7056  08D2  3001               	movlw	1
  7057  08D3  00F8               	movwf	??___xxtofl
  7058  08D4  0878               	movf	??___xxtofl,w
  7059  08D5  07A1               	addwf	___xxtofl@exp,f
  7060  08D6                     l3245:
  7061  08D6  3001               	movlw	1
  7062  08D7  07A2               	addwf	___xxtofl@arg,f
  7063  08D8  3000               	movlw	0
  7064  08D9  1803               	skipnc
  7065  08DA  3001               	movlw	1
  7066  08DB  07A3               	addwf	___xxtofl@arg+1,f
  7067  08DC  3000               	movlw	0
  7068  08DD  1803               	skipnc
  7069  08DE  3001               	movlw	1
  7070  08DF  07A4               	addwf	___xxtofl@arg+2,f
  7071  08E0  3000               	movlw	0
  7072  08E1  1803               	skipnc
  7073  08E2  3001               	movlw	1
  7074  08E3  07A5               	addwf	___xxtofl@arg+3,f
  7075  08E4                     l3247:
  7076  08E4  3001               	movlw	1
  7077  08E5                     u5235:
  7078  08E5  1003               	clrc
  7079  08E6  0CA5               	rrf	___xxtofl@arg+3,f
  7080  08E7  0CA4               	rrf	___xxtofl@arg+2,f
  7081  08E8  0CA3               	rrf	___xxtofl@arg+1,f
  7082  08E9  0CA2               	rrf	___xxtofl@arg,f
  7083  08EA  3EFF               	addlw	-1
  7084  08EB  1D03               	skipz
  7085  08EC  28E5               	goto	u5235
  7086  08ED                     l777:
  7087  08ED  30FF               	movlw	255
  7088  08EE  0525               	andwf	___xxtofl@arg+3,w
  7089  08EF  1D03               	btfss	3,2
  7090  08F0  28F2               	goto	u5241
  7091  08F1  28F3               	goto	u5240
  7092  08F2                     u5241:
  7093  08F2  28D2               	goto	l3243
  7094  08F3                     u5240:
  7095  08F3  28FF               	goto	l3251
  7096  08F4                     l3249:
  7097  08F4  3001               	movlw	1
  7098  08F5  02A1               	subwf	___xxtofl@exp,f
  7099  08F6  3001               	movlw	1
  7100  08F7  00F8               	movwf	??___xxtofl
  7101  08F8                     u5255:
  7102  08F8  1003               	clrc
  7103  08F9  0DA2               	rlf	___xxtofl@arg,f
  7104  08FA  0DA3               	rlf	___xxtofl@arg+1,f
  7105  08FB  0DA4               	rlf	___xxtofl@arg+2,f
  7106  08FC  0DA5               	rlf	___xxtofl@arg+3,f
  7107  08FD  0BF8               	decfsz	??___xxtofl,f
  7108  08FE  28F8               	goto	u5255
  7109  08FF                     l3251:
  7110  08FF  1BA4               	btfsc	___xxtofl@arg+2,7
  7111  0900  2902               	goto	u5261
  7112  0901  2903               	goto	u5260
  7113  0902                     u5261:
  7114  0902  2909               	goto	l784
  7115  0903                     u5260:
  7116  0903                     l3253:
  7117  0903  3002               	movlw	2
  7118  0904  0221               	subwf	___xxtofl@exp,w
  7119  0905  1803               	skipnc
  7120  0906  2908               	goto	u5271
  7121  0907  2909               	goto	u5270
  7122  0908                     u5271:
  7123  0908  28F4               	goto	l3249
  7124  0909                     u5270:
  7125  0909                     l784:
  7126  0909  1821               	btfsc	___xxtofl@exp,0
  7127  090A  290C               	goto	u5281
  7128  090B  290D               	goto	u5280
  7129  090C                     u5281:
  7130  090C  2915               	goto	l785
  7131  090D                     u5280:
  7132  090D                     l3255:
  7133  090D  30FF               	movlw	255
  7134  090E  05A2               	andwf	___xxtofl@arg,f
  7135  090F  30FF               	movlw	255
  7136  0910  05A3               	andwf	___xxtofl@arg+1,f
  7137  0911  307F               	movlw	127
  7138  0912  05A4               	andwf	___xxtofl@arg+2,f
  7139  0913  30FF               	movlw	255
  7140  0914  05A5               	andwf	___xxtofl@arg+3,f
  7141  0915                     l785:
  7142  0915  1003               	clrc
  7143  0916  0CA1               	rrf	___xxtofl@exp,f
  7144  0917                     l3257:
  7145  0917  0821               	movf	___xxtofl@exp,w
  7146  0918  00F8               	movwf	??___xxtofl
  7147  0919  01F9               	clrf	??___xxtofl+1
  7148  091A  01FA               	clrf	??___xxtofl+2
  7149  091B  01FB               	clrf	??___xxtofl+3
  7150  091C  3018               	movlw	24
  7151  091D                     u5295:
  7152  091D  1003               	clrc
  7153  091E  0DF8               	rlf	??___xxtofl,f
  7154  091F  0DF9               	rlf	??___xxtofl+1,f
  7155  0920  0DFA               	rlf	??___xxtofl+2,f
  7156  0921  0DFB               	rlf	??___xxtofl+3,f
  7157  0922                     u5290:
  7158  0922  3EFF               	addlw	-1
  7159  0923  1D03               	skipz
  7160  0924  291D               	goto	u5295
  7161  0925  0878               	movf	??___xxtofl,w
  7162  0926  04A2               	iorwf	___xxtofl@arg,f
  7163  0927  0879               	movf	??___xxtofl+1,w
  7164  0928  04A3               	iorwf	___xxtofl@arg+1,f
  7165  0929  087A               	movf	??___xxtofl+2,w
  7166  092A  04A4               	iorwf	___xxtofl@arg+2,f
  7167  092B  087B               	movf	??___xxtofl+3,w
  7168  092C  04A5               	iorwf	___xxtofl@arg+3,f
  7169  092D                     l3259:
  7170  092D  0820               	movf	___xxtofl@sign,w
  7171  092E  1903               	btfsc	3,2
  7172  092F  2931               	goto	u5301
  7173  0930  2932               	goto	u5300
  7174  0931                     u5301:
  7175  0931  2937               	goto	l3265
  7176  0932                     u5300:
  7177  0932                     l3261:
  7178  0932  1FF7               	btfss	___xxtofl@val+3,7
  7179  0933  2935               	goto	u5311
  7180  0934  2936               	goto	u5310
  7181  0935                     u5311:
  7182  0935  2937               	goto	l3265
  7183  0936                     u5310:
  7184  0936                     l3263:
  7185  0936  17A5               	bsf	___xxtofl@arg+3,7
  7186  0937                     l3265:
  7187  0937  0825               	movf	___xxtofl@arg+3,w
  7188  0938  00F7               	movwf	?___xxtofl+3
  7189  0939  0824               	movf	___xxtofl@arg+2,w
  7190  093A  00F6               	movwf	?___xxtofl+2
  7191  093B  0823               	movf	___xxtofl@arg+1,w
  7192  093C  00F5               	movwf	?___xxtofl+1
  7193  093D  0822               	movf	___xxtofl@arg,w
  7194  093E  00F4               	movwf	?___xxtofl
  7195  093F                     l773:
  7196  093F  0008               	return
  7197  0940                     __end_of___xxtofl:
  7198                           
  7199                           	psect	text15
  7200  1AFB                     __ptext15:	
  7201 ;; *************** function ___wmul *****************
  7202 ;; Defined at:
  7203 ;;		line 15 in file "C:\Program Files\Microchip\xc8\v2.36\pic\sources\c90\common\Umul16.c"
  7204 ;; Parameters:    Size  Location     Type
  7205 ;;  multiplier      2    0[COMMON] unsigned int 
  7206 ;;  multiplicand    2    2[COMMON] unsigned int 
  7207 ;; Auto vars:     Size  Location     Type
  7208 ;;  product         2    4[COMMON] unsigned int 
  7209 ;; Return value:  Size  Location     Type
  7210 ;;                  2    0[COMMON] unsigned int 
  7211 ;; Registers used:
  7212 ;;		wreg, status,2, status,0
  7213 ;; Tracked objects:
  7214 ;;		On entry : 0/0
  7215 ;;		On exit  : 0/0
  7216 ;;		Unchanged: 0/0
  7217 ;; Data sizes:     COMMON   BANK0   BANK1   BANK3   BANK2
  7218 ;;      Params:         4       0       0       0       0
  7219 ;;      Locals:         2       0       0       0       0
  7220 ;;      Temps:          0       0       0       0       0
  7221 ;;      Totals:         6       0       0       0       0
  7222 ;;Total ram usage:        6 bytes
  7223 ;; Hardware stack levels used: 1
  7224 ;; This function calls:
  7225 ;;		Nothing
  7226 ;; This function is called by:
  7227 ;;		_sprintf
  7228 ;; This function uses a non-reentrant model
  7229 ;;
  7230                           
  7231  1AFB                     ___wmul:	
  7232                           ;psect for function ___wmul
  7233                           
  7234  1AFB                     l3085:	
  7235                           ;incstack = 0
  7236                           ; Regs used in ___wmul: [wreg+status,2+status,0]
  7237                           
  7238  1AFB  01F4               	clrf	___wmul@product
  7239  1AFC  01F5               	clrf	___wmul@product+1
  7240  1AFD                     l3087:
  7241  1AFD  1C70               	btfss	___wmul@multiplier,0
  7242  1AFE  2B00               	goto	u4801
  7243  1AFF  2B01               	goto	u4800
  7244  1B00                     u4801:
  7245  1B00  2B07               	goto	l304
  7246  1B01                     u4800:
  7247  1B01                     l3089:
  7248  1B01  0872               	movf	___wmul@multiplicand,w
  7249  1B02  07F4               	addwf	___wmul@product,f
  7250  1B03  1803               	skipnc
  7251  1B04  0AF5               	incf	___wmul@product+1,f
  7252  1B05  0873               	movf	___wmul@multiplicand+1,w
  7253  1B06  07F5               	addwf	___wmul@product+1,f
  7254  1B07                     l304:
  7255  1B07  3001               	movlw	1
  7256  1B08                     u4815:
  7257  1B08  1003               	clrc
  7258  1B09  0DF2               	rlf	___wmul@multiplicand,f
  7259  1B0A  0DF3               	rlf	___wmul@multiplicand+1,f
  7260  1B0B  3EFF               	addlw	-1
  7261  1B0C  1D03               	skipz
  7262  1B0D  2B08               	goto	u4815
  7263  1B0E                     l3091:
  7264  1B0E  3001               	movlw	1
  7265  1B0F                     u4825:
  7266  1B0F  1003               	clrc
  7267  1B10  0CF1               	rrf	___wmul@multiplier+1,f
  7268  1B11  0CF0               	rrf	___wmul@multiplier,f
  7269  1B12  3EFF               	addlw	-1
  7270  1B13  1D03               	skipz
  7271  1B14  2B0F               	goto	u4825
  7272  1B15                     l3093:
  7273  1B15  0870               	movf	___wmul@multiplier,w
  7274  1B16  0471               	iorwf	___wmul@multiplier+1,w
  7275  1B17  1D03               	btfss	3,2
  7276  1B18  2B1A               	goto	u4831
  7277  1B19  2B1B               	goto	u4830
  7278  1B1A                     u4831:
  7279  1B1A  2AFD               	goto	l3087
  7280  1B1B                     u4830:
  7281  1B1B                     l3095:
  7282  1B1B  0875               	movf	___wmul@product+1,w
  7283  1B1C  00F1               	movwf	?___wmul+1
  7284  1B1D  0874               	movf	___wmul@product,w
  7285  1B1E  00F0               	movwf	?___wmul
  7286  1B1F                     l306:
  7287  1B1F  0008               	return
  7288  1B20                     __end_of___wmul:
  7289                           
  7290                           	psect	text16
  7291  1CD5                     __ptext16:	
  7292 ;; *************** function ___llmod *****************
  7293 ;; Defined at:
  7294 ;;		line 5 in file "C:\Program Files\Microchip\xc8\v2.36\pic\sources\c90\common\llmod.c"
  7295 ;; Parameters:    Size  Location     Type
  7296 ;;  divisor         4    0[COMMON] unsigned long 
  7297 ;;  dividend        4    4[COMMON] unsigned long 
  7298 ;; Auto vars:     Size  Location     Type
  7299 ;;  counter         1    9[COMMON] unsigned char 
  7300 ;; Return value:  Size  Location     Type
  7301 ;;                  4    0[COMMON] unsigned long 
  7302 ;; Registers used:
  7303 ;;		wreg, status,2, status,0
  7304 ;; Tracked objects:
  7305 ;;		On entry : 0/0
  7306 ;;		On exit  : 0/0
  7307 ;;		Unchanged: 0/0
  7308 ;; Data sizes:     COMMON   BANK0   BANK1   BANK3   BANK2
  7309 ;;      Params:         8       0       0       0       0
  7310 ;;      Locals:         1       0       0       0       0
  7311 ;;      Temps:          1       0       0       0       0
  7312 ;;      Totals:        10       0       0       0       0
  7313 ;;Total ram usage:       10 bytes
  7314 ;; Hardware stack levels used: 1
  7315 ;; This function calls:
  7316 ;;		Nothing
  7317 ;; This function is called by:
  7318 ;;		_sprintf
  7319 ;; This function uses a non-reentrant model
  7320 ;;
  7321                           
  7322  1CD5                     ___llmod:	
  7323                           ;psect for function ___llmod
  7324                           
  7325  1CD5                     l3199:	
  7326                           ;incstack = 0
  7327                           ; Regs used in ___llmod: [wreg+status,2+status,0]
  7328                           
  7329  1CD5  0873               	movf	___llmod@divisor+3,w
  7330  1CD6  0472               	iorwf	___llmod@divisor+2,w
  7331  1CD7  0471               	iorwf	___llmod@divisor+1,w
  7332  1CD8  0470               	iorwf	___llmod@divisor,w
  7333  1CD9  1903               	skipnz
  7334  1CDA  2CDC               	goto	u5121
  7335  1CDB  2CDD               	goto	u5120
  7336  1CDC                     u5121:
  7337  1CDC  2D20               	goto	l3215
  7338  1CDD                     u5120:
  7339  1CDD                     l3201:
  7340  1CDD  01F9               	clrf	___llmod@counter
  7341  1CDE  0AF9               	incf	___llmod@counter,f
  7342  1CDF  2CED               	goto	l3205
  7343  1CE0                     l3203:
  7344  1CE0  3001               	movlw	1
  7345  1CE1  00F8               	movwf	??___llmod
  7346  1CE2                     u5135:
  7347  1CE2  1003               	clrc
  7348  1CE3  0DF0               	rlf	___llmod@divisor,f
  7349  1CE4  0DF1               	rlf	___llmod@divisor+1,f
  7350  1CE5  0DF2               	rlf	___llmod@divisor+2,f
  7351  1CE6  0DF3               	rlf	___llmod@divisor+3,f
  7352  1CE7  0BF8               	decfsz	??___llmod,f
  7353  1CE8  2CE2               	goto	u5135
  7354  1CE9  3001               	movlw	1
  7355  1CEA  00F8               	movwf	??___llmod
  7356  1CEB  0878               	movf	??___llmod,w
  7357  1CEC  07F9               	addwf	___llmod@counter,f
  7358  1CED                     l3205:
  7359  1CED  1FF3               	btfss	___llmod@divisor+3,7
  7360  1CEE  2CF0               	goto	u5141
  7361  1CEF  2CF1               	goto	u5140
  7362  1CF0                     u5141:
  7363  1CF0  2CE0               	goto	l3203
  7364  1CF1                     u5140:
  7365  1CF1                     l3207:
  7366  1CF1  0873               	movf	___llmod@divisor+3,w
  7367  1CF2  0277               	subwf	___llmod@dividend+3,w
  7368  1CF3  1D03               	skipz
  7369  1CF4  2CFF               	goto	u5155
  7370  1CF5  0872               	movf	___llmod@divisor+2,w
  7371  1CF6  0276               	subwf	___llmod@dividend+2,w
  7372  1CF7  1D03               	skipz
  7373  1CF8  2CFF               	goto	u5155
  7374  1CF9  0871               	movf	___llmod@divisor+1,w
  7375  1CFA  0275               	subwf	___llmod@dividend+1,w
  7376  1CFB  1D03               	skipz
  7377  1CFC  2CFF               	goto	u5155
  7378  1CFD  0870               	movf	___llmod@divisor,w
  7379  1CFE  0274               	subwf	___llmod@dividend,w
  7380  1CFF                     u5155:
  7381  1CFF  1C03               	skipc
  7382  1D00  2D02               	goto	u5151
  7383  1D01  2D03               	goto	u5150
  7384  1D02                     u5151:
  7385  1D02  2D11               	goto	l3211
  7386  1D03                     u5150:
  7387  1D03                     l3209:
  7388  1D03  0870               	movf	___llmod@divisor,w
  7389  1D04  02F4               	subwf	___llmod@dividend,f
  7390  1D05  0871               	movf	___llmod@divisor+1,w
  7391  1D06  1C03               	skipc
  7392  1D07  0F71               	incfsz	___llmod@divisor+1,w
  7393  1D08  02F5               	subwf	___llmod@dividend+1,f
  7394  1D09  0872               	movf	___llmod@divisor+2,w
  7395  1D0A  1C03               	skipc
  7396  1D0B  0F72               	incfsz	___llmod@divisor+2,w
  7397  1D0C  02F6               	subwf	___llmod@dividend+2,f
  7398  1D0D  0873               	movf	___llmod@divisor+3,w
  7399  1D0E  1C03               	skipc
  7400  1D0F  0F73               	incfsz	___llmod@divisor+3,w
  7401  1D10  02F7               	subwf	___llmod@dividend+3,f
  7402  1D11                     l3211:
  7403  1D11  3001               	movlw	1
  7404  1D12                     u5165:
  7405  1D12  1003               	clrc
  7406  1D13  0CF3               	rrf	___llmod@divisor+3,f
  7407  1D14  0CF2               	rrf	___llmod@divisor+2,f
  7408  1D15  0CF1               	rrf	___llmod@divisor+1,f
  7409  1D16  0CF0               	rrf	___llmod@divisor,f
  7410  1D17  3EFF               	addlw	-1
  7411  1D18  1D03               	skipz
  7412  1D19  2D12               	goto	u5165
  7413  1D1A                     l3213:
  7414  1D1A  3001               	movlw	1
  7415  1D1B  02F9               	subwf	___llmod@counter,f
  7416  1D1C  1D03               	btfss	3,2
  7417  1D1D  2D1F               	goto	u5171
  7418  1D1E  2D20               	goto	u5170
  7419  1D1F                     u5171:
  7420  1D1F  2CF1               	goto	l3207
  7421  1D20                     u5170:
  7422  1D20                     l3215:
  7423  1D20  0877               	movf	___llmod@dividend+3,w
  7424  1D21  00F3               	movwf	?___llmod+3
  7425  1D22  0876               	movf	___llmod@dividend+2,w
  7426  1D23  00F2               	movwf	?___llmod+2
  7427  1D24  0875               	movf	___llmod@dividend+1,w
  7428  1D25  00F1               	movwf	?___llmod+1
  7429  1D26  0874               	movf	___llmod@dividend,w
  7430  1D27  00F0               	movwf	?___llmod
  7431  1D28                     l560:
  7432  1D28  0008               	return
  7433  1D29                     __end_of___llmod:
  7434                           
  7435                           	psect	text17
  7436  1E3D                     __ptext17:	
  7437 ;; *************** function ___lldiv *****************
  7438 ;; Defined at:
  7439 ;;		line 5 in file "C:\Program Files\Microchip\xc8\v2.36\pic\sources\c90\common\__lldiv.c"
  7440 ;; Parameters:    Size  Location     Type
  7441 ;;  divisor         4    0[COMMON] unsigned long 
  7442 ;;  dividend        4    4[COMMON] unsigned long 
  7443 ;; Auto vars:     Size  Location     Type
  7444 ;;  quotient        4    9[COMMON] unsigned long 
  7445 ;;  counter         1   13[COMMON] unsigned char 
  7446 ;; Return value:  Size  Location     Type
  7447 ;;                  4    0[COMMON] unsigned long 
  7448 ;; Registers used:
  7449 ;;		wreg, status,2, status,0
  7450 ;; Tracked objects:
  7451 ;;		On entry : 0/0
  7452 ;;		On exit  : 0/0
  7453 ;;		Unchanged: 0/0
  7454 ;; Data sizes:     COMMON   BANK0   BANK1   BANK3   BANK2
  7455 ;;      Params:         8       0       0       0       0
  7456 ;;      Locals:         5       0       0       0       0
  7457 ;;      Temps:          1       0       0       0       0
  7458 ;;      Totals:        14       0       0       0       0
  7459 ;;Total ram usage:       14 bytes
  7460 ;; Hardware stack levels used: 1
  7461 ;; This function calls:
  7462 ;;		Nothing
  7463 ;; This function is called by:
  7464 ;;		_sprintf
  7465 ;; This function uses a non-reentrant model
  7466 ;;
  7467                           
  7468  1E3D                     ___lldiv:	
  7469                           ;psect for function ___lldiv
  7470                           
  7471  1E3D                     l3099:	
  7472                           ;incstack = 0
  7473                           ; Regs used in ___lldiv: [wreg+status,2+status,0]
  7474                           
  7475  1E3D  3000               	movlw	0
  7476  1E3E  00FC               	movwf	___lldiv@quotient+3
  7477  1E3F  3000               	movlw	0
  7478  1E40  00FB               	movwf	___lldiv@quotient+2
  7479  1E41  3000               	movlw	0
  7480  1E42  00FA               	movwf	___lldiv@quotient+1
  7481  1E43  3000               	movlw	0
  7482  1E44  00F9               	movwf	___lldiv@quotient
  7483  1E45  0873               	movf	___lldiv@divisor+3,w
  7484  1E46  0472               	iorwf	___lldiv@divisor+2,w
  7485  1E47  0471               	iorwf	___lldiv@divisor+1,w
  7486  1E48  0470               	iorwf	___lldiv@divisor,w
  7487  1E49  1903               	skipnz
  7488  1E4A  2E4C               	goto	u4841
  7489  1E4B  2E4D               	goto	u4840
  7490  1E4C                     u4841:
  7491  1E4C  2E9A               	goto	l3119
  7492  1E4D                     u4840:
  7493  1E4D                     l3101:
  7494  1E4D  01FD               	clrf	___lldiv@counter
  7495  1E4E  0AFD               	incf	___lldiv@counter,f
  7496  1E4F  2E5D               	goto	l3105
  7497  1E50                     l3103:
  7498  1E50  3001               	movlw	1
  7499  1E51  00F8               	movwf	??___lldiv
  7500  1E52                     u4855:
  7501  1E52  1003               	clrc
  7502  1E53  0DF0               	rlf	___lldiv@divisor,f
  7503  1E54  0DF1               	rlf	___lldiv@divisor+1,f
  7504  1E55  0DF2               	rlf	___lldiv@divisor+2,f
  7505  1E56  0DF3               	rlf	___lldiv@divisor+3,f
  7506  1E57  0BF8               	decfsz	??___lldiv,f
  7507  1E58  2E52               	goto	u4855
  7508  1E59  3001               	movlw	1
  7509  1E5A  00F8               	movwf	??___lldiv
  7510  1E5B  0878               	movf	??___lldiv,w
  7511  1E5C  07FD               	addwf	___lldiv@counter,f
  7512  1E5D                     l3105:
  7513  1E5D  1FF3               	btfss	___lldiv@divisor+3,7
  7514  1E5E  2E60               	goto	u4861
  7515  1E5F  2E61               	goto	u4860
  7516  1E60                     u4861:
  7517  1E60  2E50               	goto	l3103
  7518  1E61                     u4860:
  7519  1E61                     l3107:
  7520  1E61  3001               	movlw	1
  7521  1E62  00F8               	movwf	??___lldiv
  7522  1E63                     u4875:
  7523  1E63  1003               	clrc
  7524  1E64  0DF9               	rlf	___lldiv@quotient,f
  7525  1E65  0DFA               	rlf	___lldiv@quotient+1,f
  7526  1E66  0DFB               	rlf	___lldiv@quotient+2,f
  7527  1E67  0DFC               	rlf	___lldiv@quotient+3,f
  7528  1E68  0BF8               	decfsz	??___lldiv,f
  7529  1E69  2E63               	goto	u4875
  7530  1E6A                     l3109:
  7531  1E6A  0873               	movf	___lldiv@divisor+3,w
  7532  1E6B  0277               	subwf	___lldiv@dividend+3,w
  7533  1E6C  1D03               	skipz
  7534  1E6D  2E78               	goto	u4885
  7535  1E6E  0872               	movf	___lldiv@divisor+2,w
  7536  1E6F  0276               	subwf	___lldiv@dividend+2,w
  7537  1E70  1D03               	skipz
  7538  1E71  2E78               	goto	u4885
  7539  1E72  0871               	movf	___lldiv@divisor+1,w
  7540  1E73  0275               	subwf	___lldiv@dividend+1,w
  7541  1E74  1D03               	skipz
  7542  1E75  2E78               	goto	u4885
  7543  1E76  0870               	movf	___lldiv@divisor,w
  7544  1E77  0274               	subwf	___lldiv@dividend,w
  7545  1E78                     u4885:
  7546  1E78  1C03               	skipc
  7547  1E79  2E7B               	goto	u4881
  7548  1E7A  2E7C               	goto	u4880
  7549  1E7B                     u4881:
  7550  1E7B  2E8B               	goto	l3115
  7551  1E7C                     u4880:
  7552  1E7C                     l3111:
  7553  1E7C  0870               	movf	___lldiv@divisor,w
  7554  1E7D  02F4               	subwf	___lldiv@dividend,f
  7555  1E7E  0871               	movf	___lldiv@divisor+1,w
  7556  1E7F  1C03               	skipc
  7557  1E80  0F71               	incfsz	___lldiv@divisor+1,w
  7558  1E81  02F5               	subwf	___lldiv@dividend+1,f
  7559  1E82  0872               	movf	___lldiv@divisor+2,w
  7560  1E83  1C03               	skipc
  7561  1E84  0F72               	incfsz	___lldiv@divisor+2,w
  7562  1E85  02F6               	subwf	___lldiv@dividend+2,f
  7563  1E86  0873               	movf	___lldiv@divisor+3,w
  7564  1E87  1C03               	skipc
  7565  1E88  0F73               	incfsz	___lldiv@divisor+3,w
  7566  1E89  02F7               	subwf	___lldiv@dividend+3,f
  7567  1E8A                     l3113:
  7568  1E8A  1479               	bsf	___lldiv@quotient,0
  7569  1E8B                     l3115:
  7570  1E8B  3001               	movlw	1
  7571  1E8C                     u4895:
  7572  1E8C  1003               	clrc
  7573  1E8D  0CF3               	rrf	___lldiv@divisor+3,f
  7574  1E8E  0CF2               	rrf	___lldiv@divisor+2,f
  7575  1E8F  0CF1               	rrf	___lldiv@divisor+1,f
  7576  1E90  0CF0               	rrf	___lldiv@divisor,f
  7577  1E91  3EFF               	addlw	-1
  7578  1E92  1D03               	skipz
  7579  1E93  2E8C               	goto	u4895
  7580  1E94                     l3117:
  7581  1E94  3001               	movlw	1
  7582  1E95  02FD               	subwf	___lldiv@counter,f
  7583  1E96  1D03               	btfss	3,2
  7584  1E97  2E99               	goto	u4901
  7585  1E98  2E9A               	goto	u4900
  7586  1E99                     u4901:
  7587  1E99  2E61               	goto	l3107
  7588  1E9A                     u4900:
  7589  1E9A                     l3119:
  7590  1E9A  087C               	movf	___lldiv@quotient+3,w
  7591  1E9B  00F3               	movwf	?___lldiv+3
  7592  1E9C  087B               	movf	___lldiv@quotient+2,w
  7593  1E9D  00F2               	movwf	?___lldiv+2
  7594  1E9E  087A               	movf	___lldiv@quotient+1,w
  7595  1E9F  00F1               	movwf	?___lldiv+1
  7596  1EA0  0879               	movf	___lldiv@quotient,w
  7597  1EA1  00F0               	movwf	?___lldiv
  7598  1EA2                     l340:
  7599  1EA2  0008               	return
  7600  1EA3                     __end_of___lldiv:
  7601                           
  7602                           	psect	text18
  7603  1F84                     __ptext18:	
  7604 ;; *************** function ___fltol *****************
  7605 ;; Defined at:
  7606 ;;		line 43 in file "C:\Program Files\Microchip\xc8\v2.36\pic\sources\c90\common\fltol.c"
  7607 ;; Parameters:    Size  Location     Type
  7608 ;;  f1              4   49[BANK0 ] unsigned long 
  7609 ;; Auto vars:     Size  Location     Type
  7610 ;;  exp1            1   59[BANK0 ] unsigned char 
  7611 ;;  sign1           1   58[BANK0 ] unsigned char 
  7612 ;; Return value:  Size  Location     Type
  7613 ;;                  4   49[BANK0 ] long 
  7614 ;; Registers used:
  7615 ;;		wreg, status,2, status,0
  7616 ;; Tracked objects:
  7617 ;;		On entry : 0/0
  7618 ;;		On exit  : 0/0
  7619 ;;		Unchanged: 0/0
  7620 ;; Data sizes:     COMMON   BANK0   BANK1   BANK3   BANK2
  7621 ;;      Params:         0       4       0       0       0
  7622 ;;      Locals:         0       2       0       0       0
  7623 ;;      Temps:          0       5       0       0       0
  7624 ;;      Totals:         0      11       0       0       0
  7625 ;;Total ram usage:       11 bytes
  7626 ;; Hardware stack levels used: 1
  7627 ;; This function calls:
  7628 ;;		Nothing
  7629 ;; This function is called by:
  7630 ;;		_sprintf
  7631 ;; This function uses a non-reentrant model
  7632 ;;
  7633                           
  7634  1F84                     ___fltol:	
  7635                           ;psect for function ___fltol
  7636                           
  7637  1F84                     l3163:	
  7638                           ;incstack = 0
  7639                           ; Regs used in ___fltol: [wreg+status,2+status,0]
  7640                           
  7641  1F84  1003               	clrc
  7642  1F85  1283               	bcf	3,5	;RP0=0, select bank0
  7643  1F86  1303               	bcf	3,6	;RP1=0, select bank0
  7644  1F87  0D53               	rlf	___fltol@f1+2,w
  7645  1F88  0D54               	rlf	___fltol@f1+3,w
  7646  1F89  00D5               	movwf	??___fltol
  7647  1F8A  0855               	movf	??___fltol,w
  7648  1F8B  00DB               	movwf	___fltol@exp1
  7649  1F8C  085B               	movf	___fltol@exp1,w
  7650  1F8D  1D03               	btfss	3,2
  7651  1F8E  2F90               	goto	u5021
  7652  1F8F  2F91               	goto	u5020
  7653  1F90                     u5021:
  7654  1F90  2F9A               	goto	l3169
  7655  1F91                     u5020:
  7656  1F91                     l3165:
  7657  1F91  3000               	movlw	0
  7658  1F92  00D4               	movwf	?___fltol+3
  7659  1F93  3000               	movlw	0
  7660  1F94  00D3               	movwf	?___fltol+2
  7661  1F95  3000               	movlw	0
  7662  1F96  00D2               	movwf	?___fltol+1
  7663  1F97  3000               	movlw	0
  7664  1F98  00D1               	movwf	?___fltol
  7665  1F99  2FFF               	goto	l507
  7666  1F9A                     l3169:
  7667  1F9A  0851               	movf	___fltol@f1,w
  7668  1F9B  00D5               	movwf	??___fltol
  7669  1F9C  0852               	movf	___fltol@f1+1,w
  7670  1F9D  00D6               	movwf	??___fltol+1
  7671  1F9E  0853               	movf	___fltol@f1+2,w
  7672  1F9F  00D7               	movwf	??___fltol+2
  7673  1FA0  0854               	movf	___fltol@f1+3,w
  7674  1FA1  00D8               	movwf	??___fltol+3
  7675  1FA2  301F               	movlw	31
  7676  1FA3                     u5035:
  7677  1FA3  1003               	clrc
  7678  1FA4  0CD8               	rrf	??___fltol+3,f
  7679  1FA5  0CD7               	rrf	??___fltol+2,f
  7680  1FA6  0CD6               	rrf	??___fltol+1,f
  7681  1FA7  0CD5               	rrf	??___fltol,f
  7682  1FA8                     u5030:
  7683  1FA8  3EFF               	addlw	-1
  7684  1FA9  1D03               	skipz
  7685  1FAA  2FA3               	goto	u5035
  7686  1FAB  0855               	movf	??___fltol,w
  7687  1FAC  00D9               	movwf	??___fltol+4
  7688  1FAD  0859               	movf	??___fltol+4,w
  7689  1FAE  00DA               	movwf	___fltol@sign1
  7690  1FAF                     l3171:
  7691  1FAF  17D3               	bsf	___fltol@f1+2,7
  7692  1FB0                     l3173:
  7693  1FB0  30FF               	movlw	255
  7694  1FB1  05D1               	andwf	___fltol@f1,f
  7695  1FB2  30FF               	movlw	255
  7696  1FB3  05D2               	andwf	___fltol@f1+1,f
  7697  1FB4  30FF               	movlw	255
  7698  1FB5  05D3               	andwf	___fltol@f1+2,f
  7699  1FB6  3000               	movlw	0
  7700  1FB7  05D4               	andwf	___fltol@f1+3,f
  7701  1FB8                     l3175:
  7702  1FB8  3096               	movlw	150
  7703  1FB9  02DB               	subwf	___fltol@exp1,f
  7704  1FBA                     l3177:
  7705  1FBA  1FDB               	btfss	___fltol@exp1,7
  7706  1FBB  2FBD               	goto	u5041
  7707  1FBC  2FBE               	goto	u5040
  7708  1FBD                     u5041:
  7709  1FBD  2FD8               	goto	l3187
  7710  1FBE                     u5040:
  7711  1FBE                     l3179:
  7712  1FBE  085B               	movf	___fltol@exp1,w
  7713  1FBF  3A80               	xorlw	128
  7714  1FC0  3E97               	addlw	151
  7715  1FC1  1803               	skipnc
  7716  1FC2  2FC4               	goto	u5051
  7717  1FC3  2FC5               	goto	u5050
  7718  1FC4                     u5051:
  7719  1FC4  2FC6               	goto	l3185
  7720  1FC5                     u5050:
  7721  1FC5  2F91               	goto	l3165
  7722  1FC6                     l3185:
  7723  1FC6  3001               	movlw	1
  7724  1FC7                     u5065:
  7725  1FC7  1003               	clrc
  7726  1FC8  0CD4               	rrf	___fltol@f1+3,f
  7727  1FC9  0CD3               	rrf	___fltol@f1+2,f
  7728  1FCA  0CD2               	rrf	___fltol@f1+1,f
  7729  1FCB  0CD1               	rrf	___fltol@f1,f
  7730  1FCC  3EFF               	addlw	-1
  7731  1FCD  1D03               	skipz
  7732  1FCE  2FC7               	goto	u5065
  7733  1FCF  3001               	movlw	1
  7734  1FD0  00D5               	movwf	??___fltol
  7735  1FD1  0855               	movf	??___fltol,w
  7736  1FD2  07DB               	addwf	___fltol@exp1,f
  7737  1FD3  1D03               	btfss	3,2
  7738  1FD4  2FD6               	goto	u5071
  7739  1FD5  2FD7               	goto	u5070
  7740  1FD6                     u5071:
  7741  1FD6  2FC6               	goto	l3185
  7742  1FD7                     u5070:
  7743  1FD7  2FEF               	goto	l3195
  7744  1FD8                     l3187:
  7745  1FD8  3020               	movlw	32
  7746  1FD9  025B               	subwf	___fltol@exp1,w
  7747  1FDA  1C03               	skipc
  7748  1FDB  2FDD               	goto	u5081
  7749  1FDC  2FDE               	goto	u5080
  7750  1FDD                     u5081:
  7751  1FDD  2FEA               	goto	l514
  7752  1FDE                     u5080:
  7753  1FDE  2F91               	goto	l3165
  7754  1FDF                     l3193:
  7755  1FDF  3001               	movlw	1
  7756  1FE0  00D5               	movwf	??___fltol
  7757  1FE1                     u5095:
  7758  1FE1  1003               	clrc
  7759  1FE2  0DD1               	rlf	___fltol@f1,f
  7760  1FE3  0DD2               	rlf	___fltol@f1+1,f
  7761  1FE4  0DD3               	rlf	___fltol@f1+2,f
  7762  1FE5  0DD4               	rlf	___fltol@f1+3,f
  7763  1FE6  0BD5               	decfsz	??___fltol,f
  7764  1FE7  2FE1               	goto	u5095
  7765  1FE8  3001               	movlw	1
  7766  1FE9  02DB               	subwf	___fltol@exp1,f
  7767  1FEA                     l514:
  7768  1FEA  085B               	movf	___fltol@exp1,w
  7769  1FEB  1D03               	btfss	3,2
  7770  1FEC  2FEE               	goto	u5101
  7771  1FED  2FEF               	goto	u5100
  7772  1FEE                     u5101:
  7773  1FEE  2FDF               	goto	l3193
  7774  1FEF                     u5100:
  7775  1FEF                     l3195:
  7776  1FEF  085A               	movf	___fltol@sign1,w
  7777  1FF0  1903               	btfsc	3,2
  7778  1FF1  2FF3               	goto	u5111
  7779  1FF2  2FF4               	goto	u5110
  7780  1FF3                     u5111:
  7781  1FF3  2FFF               	goto	l517
  7782  1FF4                     u5110:
  7783  1FF4                     l3197:
  7784  1FF4  09D1               	comf	___fltol@f1,f
  7785  1FF5  09D2               	comf	___fltol@f1+1,f
  7786  1FF6  09D3               	comf	___fltol@f1+2,f
  7787  1FF7  09D4               	comf	___fltol@f1+3,f
  7788  1FF8  0AD1               	incf	___fltol@f1,f
  7789  1FF9  1903               	skipnz
  7790  1FFA  0AD2               	incf	___fltol@f1+1,f
  7791  1FFB  1903               	skipnz
  7792  1FFC  0AD3               	incf	___fltol@f1+2,f
  7793  1FFD  1903               	skipnz
  7794  1FFE  0AD4               	incf	___fltol@f1+3,f
  7795  1FFF                     l517:
  7796  1FFF                     l507:
  7797  1FFF  0008               	return
  7798  2000                     __end_of___fltol:
  7799                           
  7800                           	psect	text19
  7801  1AB2                     __ptext19:	
  7802 ;; *************** function ___flsub *****************
  7803 ;; Defined at:
  7804 ;;		line 242 in file "C:\Program Files\Microchip\xc8\v2.36\pic\sources\c90\common\sprcadd.c"
  7805 ;; Parameters:    Size  Location     Type
  7806 ;;  a               4   70[BANK0 ] long 
  7807 ;;  b               4   74[BANK0 ] long 
  7808 ;; Auto vars:     Size  Location     Type
  7809 ;;		None
  7810 ;; Return value:  Size  Location     Type
  7811 ;;                  4   70[BANK0 ] long 
  7812 ;; Registers used:
  7813 ;;		wreg, status,2, status,0, btemp+1, pclath, cstack
  7814 ;; Tracked objects:
  7815 ;;		On entry : 0/0
  7816 ;;		On exit  : 0/0
  7817 ;;		Unchanged: 0/0
  7818 ;; Data sizes:     COMMON   BANK0   BANK1   BANK3   BANK2
  7819 ;;      Params:         0       8       0       0       0
  7820 ;;      Locals:         0       0       0       0       0
  7821 ;;      Temps:          0       0       0       0       0
  7822 ;;      Totals:         0       8       0       0       0
  7823 ;;Total ram usage:        8 bytes
  7824 ;; Hardware stack levels used: 1
  7825 ;; Hardware stack levels required when called: 1
  7826 ;; This function calls:
  7827 ;;		___fladd
  7828 ;; This function is called by:
  7829 ;;		_sprintf
  7830 ;; This function uses a non-reentrant model
  7831 ;;
  7832                           
  7833  1AB2                     ___flsub:	
  7834                           ;psect for function ___flsub
  7835                           
  7836  1AB2                     l3219:	
  7837                           ;incstack = 0
  7838                           ; Regs used in ___flsub: [wreg+status,2+status,0+btemp+1+pclath+cstack]
  7839                           
  7840  1AB2  3080               	movlw	128
  7841  1AB3  1283               	bcf	3,5	;RP0=0, select bank0
  7842  1AB4  1303               	bcf	3,6	;RP1=0, select bank0
  7843  1AB5  06E9               	xorwf	___flsub@a+3,f
  7844  1AB6                     l3221:
  7845  1AB6  086D               	movf	___flsub@b+3,w
  7846  1AB7  00D5               	movwf	___fladd@b+3
  7847  1AB8  086C               	movf	___flsub@b+2,w
  7848  1AB9  00D4               	movwf	___fladd@b+2
  7849  1ABA  086B               	movf	___flsub@b+1,w
  7850  1ABB  00D3               	movwf	___fladd@b+1
  7851  1ABC  086A               	movf	___flsub@b,w
  7852  1ABD  00D2               	movwf	___fladd@b
  7853  1ABE  0869               	movf	___flsub@a+3,w
  7854  1ABF  00D9               	movwf	___fladd@a+3
  7855  1AC0  0868               	movf	___flsub@a+2,w
  7856  1AC1  00D8               	movwf	___fladd@a+2
  7857  1AC2  0867               	movf	___flsub@a+1,w
  7858  1AC3  00D7               	movwf	___fladd@a+1
  7859  1AC4  0866               	movf	___flsub@a,w
  7860  1AC5  00D6               	movwf	___fladd@a
  7861  1AC6  160A  118A  2578  160A  158A  	fcall	___fladd
  7862  1ACB  1283               	bcf	3,5	;RP0=0, select bank0
  7863  1ACC  1303               	bcf	3,6	;RP1=0, select bank0
  7864  1ACD  0855               	movf	?___fladd+3,w
  7865  1ACE  00E9               	movwf	?___flsub+3
  7866  1ACF  0854               	movf	?___fladd+2,w
  7867  1AD0  00E8               	movwf	?___flsub+2
  7868  1AD1  0853               	movf	?___fladd+1,w
  7869  1AD2  00E7               	movwf	?___flsub+1
  7870  1AD3  0852               	movf	?___fladd,w
  7871  1AD4  00E6               	movwf	?___flsub
  7872  1AD5                     l677:
  7873  1AD5  0008               	return
  7874  1AD6                     __end_of___flsub:
  7875                           
  7876                           	psect	text20
  7877  1578                     __ptext20:	
  7878 ;; *************** function ___fladd *****************
  7879 ;; Defined at:
  7880 ;;		line 10 in file "C:\Program Files\Microchip\xc8\v2.36\pic\sources\c90\common\sprcadd.c"
  7881 ;; Parameters:    Size  Location     Type
  7882 ;;  b               4   50[BANK0 ] long 
  7883 ;;  a               4   54[BANK0 ] long 
  7884 ;; Auto vars:     Size  Location     Type
  7885 ;;  grs             1   69[BANK0 ] unsigned char 
  7886 ;;  bexp            1   68[BANK0 ] unsigned char 
  7887 ;;  aexp            1   67[BANK0 ] unsigned char 
  7888 ;;  signs           1   66[BANK0 ] unsigned char 
  7889 ;; Return value:  Size  Location     Type
  7890 ;;                  4   50[BANK0 ] unsigned char 
  7891 ;; Registers used:
  7892 ;;		wreg, status,2, status,0, btemp+1
  7893 ;; Tracked objects:
  7894 ;;		On entry : 0/0
  7895 ;;		On exit  : 0/0
  7896 ;;		Unchanged: 0/0
  7897 ;; Data sizes:     COMMON   BANK0   BANK1   BANK3   BANK2
  7898 ;;      Params:         0       8       0       0       0
  7899 ;;      Locals:         0       4       0       0       0
  7900 ;;      Temps:          0       8       0       0       0
  7901 ;;      Totals:         0      20       0       0       0
  7902 ;;Total ram usage:       20 bytes
  7903 ;; Hardware stack levels used: 1
  7904 ;; This function calls:
  7905 ;;		Nothing
  7906 ;; This function is called by:
  7907 ;;		_sprintf
  7908 ;;		___flsub
  7909 ;; This function uses a non-reentrant model
  7910 ;;
  7911                           
  7912  1578                     ___fladd:	
  7913                           ;psect for function ___fladd
  7914                           
  7915  1578                     l2547:	
  7916                           ;incstack = 0
  7917                           ; Regs used in ___fladd: [wreg+status,2+status,0+btemp+1]
  7918                           
  7919  1578  1283               	bcf	3,5	;RP0=0, select bank0
  7920  1579  1303               	bcf	3,6	;RP1=0, select bank0
  7921  157A  0855               	movf	___fladd@b+3,w
  7922  157B  3980               	andlw	128
  7923  157C  00DA               	movwf	??___fladd
  7924  157D  085A               	movf	??___fladd,w
  7925  157E  00E2               	movwf	___fladd@signs
  7926  157F                     l2549:
  7927  157F  0855               	movf	___fladd@b+3,w
  7928  1580  00DA               	movwf	??___fladd
  7929  1581  075A               	addwf	??___fladd,w
  7930  1582  00DB               	movwf	??___fladd+1
  7931  1583  085B               	movf	??___fladd+1,w
  7932  1584  00E4               	movwf	___fladd@bexp
  7933  1585                     l2551:
  7934  1585  1FD4               	btfss	___fladd@b+2,7
  7935  1586  2D88               	goto	u3421
  7936  1587  2D89               	goto	u3420
  7937  1588                     u3421:
  7938  1588  2D8A               	goto	l2555
  7939  1589                     u3420:
  7940  1589                     l2553:
  7941  1589  1464               	bsf	___fladd@bexp,0
  7942  158A                     l2555:
  7943  158A  0864               	movf	___fladd@bexp,w
  7944  158B  1903               	btfsc	3,2
  7945  158C  2D8E               	goto	u3431
  7946  158D  2D8F               	goto	u3430
  7947  158E                     u3431:
  7948  158E  2D9F               	goto	l2565
  7949  158F                     u3430:
  7950  158F                     l2557:
  7951  158F  0A64               	incf	___fladd@bexp,w
  7952  1590  1D03               	btfss	3,2
  7953  1591  2D93               	goto	u3441
  7954  1592  2D94               	goto	u3440
  7955  1593                     u3441:
  7956  1593  2D9C               	goto	l2561
  7957  1594                     u3440:
  7958  1594                     l2559:
  7959  1594  3000               	movlw	0
  7960  1595  00D5               	movwf	___fladd@b+3
  7961  1596  3000               	movlw	0
  7962  1597  00D4               	movwf	___fladd@b+2
  7963  1598  3000               	movlw	0
  7964  1599  00D3               	movwf	___fladd@b+1
  7965  159A  3000               	movlw	0
  7966  159B  00D2               	movwf	___fladd@b
  7967  159C                     l2561:
  7968  159C  17D4               	bsf	___fladd@b+2,7
  7969  159D                     l2563:
  7970  159D  01D5               	clrf	___fladd@b+3
  7971  159E  2DA7               	goto	l2567
  7972  159F                     l2565:
  7973  159F  3000               	movlw	0
  7974  15A0  00D5               	movwf	___fladd@b+3
  7975  15A1  3000               	movlw	0
  7976  15A2  00D4               	movwf	___fladd@b+2
  7977  15A3  3000               	movlw	0
  7978  15A4  00D3               	movwf	___fladd@b+1
  7979  15A5  3000               	movlw	0
  7980  15A6  00D2               	movwf	___fladd@b
  7981  15A7                     l2567:
  7982  15A7  0859               	movf	___fladd@a+3,w
  7983  15A8  3980               	andlw	128
  7984  15A9  00DA               	movwf	??___fladd
  7985  15AA  085A               	movf	??___fladd,w
  7986  15AB  00E3               	movwf	___fladd@aexp
  7987  15AC                     l2569:
  7988  15AC  0863               	movf	___fladd@aexp,w
  7989  15AD  0662               	xorwf	___fladd@signs,w
  7990  15AE  1903               	skipnz
  7991  15AF  2DB1               	goto	u3451
  7992  15B0  2DB2               	goto	u3450
  7993  15B1                     u3451:
  7994  15B1  2DB3               	goto	l2573
  7995  15B2                     u3450:
  7996  15B2                     l2571:
  7997  15B2  1762               	bsf	___fladd@signs,6
  7998  15B3                     l2573:
  7999  15B3  0859               	movf	___fladd@a+3,w
  8000  15B4  00DA               	movwf	??___fladd
  8001  15B5  075A               	addwf	??___fladd,w
  8002  15B6  00DB               	movwf	??___fladd+1
  8003  15B7  085B               	movf	??___fladd+1,w
  8004  15B8  00E3               	movwf	___fladd@aexp
  8005  15B9                     l2575:
  8006  15B9  1FD8               	btfss	___fladd@a+2,7
  8007  15BA  2DBC               	goto	u3461
  8008  15BB  2DBD               	goto	u3460
  8009  15BC                     u3461:
  8010  15BC  2DBE               	goto	l2579
  8011  15BD                     u3460:
  8012  15BD                     l2577:
  8013  15BD  1463               	bsf	___fladd@aexp,0
  8014  15BE                     l2579:
  8015  15BE  0863               	movf	___fladd@aexp,w
  8016  15BF  1903               	btfsc	3,2
  8017  15C0  2DC2               	goto	u3471
  8018  15C1  2DC3               	goto	u3470
  8019  15C2                     u3471:
  8020  15C2  2DD3               	goto	l2589
  8021  15C3                     u3470:
  8022  15C3                     l2581:
  8023  15C3  0A63               	incf	___fladd@aexp,w
  8024  15C4  1D03               	btfss	3,2
  8025  15C5  2DC7               	goto	u3481
  8026  15C6  2DC8               	goto	u3480
  8027  15C7                     u3481:
  8028  15C7  2DD0               	goto	l2585
  8029  15C8                     u3480:
  8030  15C8                     l2583:
  8031  15C8  3000               	movlw	0
  8032  15C9  00D9               	movwf	___fladd@a+3
  8033  15CA  3000               	movlw	0
  8034  15CB  00D8               	movwf	___fladd@a+2
  8035  15CC  3000               	movlw	0
  8036  15CD  00D7               	movwf	___fladd@a+1
  8037  15CE  3000               	movlw	0
  8038  15CF  00D6               	movwf	___fladd@a
  8039  15D0                     l2585:
  8040  15D0  17D8               	bsf	___fladd@a+2,7
  8041  15D1                     l2587:
  8042  15D1  01D9               	clrf	___fladd@a+3
  8043  15D2  2DDB               	goto	l631
  8044  15D3                     l2589:
  8045  15D3  3000               	movlw	0
  8046  15D4  00D9               	movwf	___fladd@a+3
  8047  15D5  3000               	movlw	0
  8048  15D6  00D8               	movwf	___fladd@a+2
  8049  15D7  3000               	movlw	0
  8050  15D8  00D7               	movwf	___fladd@a+1
  8051  15D9  3000               	movlw	0
  8052  15DA  00D6               	movwf	___fladd@a
  8053  15DB                     l631:
  8054  15DB  0864               	movf	___fladd@bexp,w
  8055  15DC  0263               	subwf	___fladd@aexp,w
  8056  15DD  1803               	skipnc
  8057  15DE  2DE0               	goto	u3491
  8058  15DF  2DE1               	goto	u3490
  8059  15E0                     u3491:
  8060  15E0  2E25               	goto	l2625
  8061  15E1                     u3490:
  8062  15E1                     l2591:
  8063  15E1  1F62               	btfss	___fladd@signs,6
  8064  15E2  2DE4               	goto	u3501
  8065  15E3  2DE5               	goto	u3500
  8066  15E4                     u3501:
  8067  15E4  2DE9               	goto	l2595
  8068  15E5                     u3500:
  8069  15E5                     l2593:
  8070  15E5  3080               	movlw	128
  8071  15E6  00DA               	movwf	??___fladd
  8072  15E7  085A               	movf	??___fladd,w
  8073  15E8  06E2               	xorwf	___fladd@signs,f
  8074  15E9                     l2595:
  8075  15E9  0864               	movf	___fladd@bexp,w
  8076  15EA  00DA               	movwf	??___fladd
  8077  15EB  085A               	movf	??___fladd,w
  8078  15EC  00E5               	movwf	___fladd@grs
  8079  15ED                     l2597:
  8080  15ED  0863               	movf	___fladd@aexp,w
  8081  15EE  00DA               	movwf	??___fladd
  8082  15EF  085A               	movf	??___fladd,w
  8083  15F0  00E4               	movwf	___fladd@bexp
  8084  15F1                     l2599:
  8085  15F1  0865               	movf	___fladd@grs,w
  8086  15F2  00DA               	movwf	??___fladd
  8087  15F3  085A               	movf	??___fladd,w
  8088  15F4  00E3               	movwf	___fladd@aexp
  8089  15F5                     l2601:
  8090  15F5  0852               	movf	___fladd@b,w
  8091  15F6  00DA               	movwf	??___fladd
  8092  15F7  085A               	movf	??___fladd,w
  8093  15F8  00E5               	movwf	___fladd@grs
  8094  15F9                     l2603:
  8095  15F9  0856               	movf	___fladd@a,w
  8096  15FA  00DA               	movwf	??___fladd
  8097  15FB  085A               	movf	??___fladd,w
  8098  15FC  00D2               	movwf	___fladd@b
  8099  15FD                     l2605:
  8100  15FD  0865               	movf	___fladd@grs,w
  8101  15FE  00DA               	movwf	??___fladd
  8102  15FF  085A               	movf	??___fladd,w
  8103  1600  00D6               	movwf	___fladd@a
  8104  1601                     l2607:
  8105  1601  0853               	movf	___fladd@b+1,w
  8106  1602  00DA               	movwf	??___fladd
  8107  1603  085A               	movf	??___fladd,w
  8108  1604  00E5               	movwf	___fladd@grs
  8109  1605                     l2609:
  8110  1605  0857               	movf	___fladd@a+1,w
  8111  1606  00DA               	movwf	??___fladd
  8112  1607  085A               	movf	??___fladd,w
  8113  1608  00D3               	movwf	___fladd@b+1
  8114  1609                     l2611:
  8115  1609  0865               	movf	___fladd@grs,w
  8116  160A  00DA               	movwf	??___fladd
  8117  160B  085A               	movf	??___fladd,w
  8118  160C  00D7               	movwf	___fladd@a+1
  8119  160D                     l2613:
  8120  160D  0854               	movf	___fladd@b+2,w
  8121  160E  00DA               	movwf	??___fladd
  8122  160F  085A               	movf	??___fladd,w
  8123  1610  00E5               	movwf	___fladd@grs
  8124  1611                     l2615:
  8125  1611  0858               	movf	___fladd@a+2,w
  8126  1612  00DA               	movwf	??___fladd
  8127  1613  085A               	movf	??___fladd,w
  8128  1614  00D4               	movwf	___fladd@b+2
  8129  1615                     l2617:
  8130  1615  0865               	movf	___fladd@grs,w
  8131  1616  00DA               	movwf	??___fladd
  8132  1617  085A               	movf	??___fladd,w
  8133  1618  00D8               	movwf	___fladd@a+2
  8134  1619                     l2619:
  8135  1619  0855               	movf	___fladd@b+3,w
  8136  161A  00DA               	movwf	??___fladd
  8137  161B  085A               	movf	??___fladd,w
  8138  161C  00E5               	movwf	___fladd@grs
  8139  161D                     l2621:
  8140  161D  0859               	movf	___fladd@a+3,w
  8141  161E  00DA               	movwf	??___fladd
  8142  161F  085A               	movf	??___fladd,w
  8143  1620  00D5               	movwf	___fladd@b+3
  8144  1621                     l2623:
  8145  1621  0865               	movf	___fladd@grs,w
  8146  1622  00DA               	movwf	??___fladd
  8147  1623  085A               	movf	??___fladd,w
  8148  1624  00D9               	movwf	___fladd@a+3
  8149  1625                     l2625:
  8150  1625  01E5               	clrf	___fladd@grs
  8151  1626                     l2627:
  8152  1626  0863               	movf	___fladd@aexp,w
  8153  1627  00DA               	movwf	??___fladd
  8154  1628  01DB               	clrf	??___fladd+1
  8155  1629  085B               	movf	??___fladd+1,w
  8156  162A  00DD               	movwf	??___fladd+3
  8157  162B  0864               	movf	___fladd@bexp,w
  8158  162C  025A               	subwf	??___fladd,w
  8159  162D  00DC               	movwf	??___fladd+2
  8160  162E  1C03               	skipc
  8161  162F  03DD               	decf	??___fladd+3,f
  8162  1630  085D               	movf	??___fladd+3,w
  8163  1631  3A80               	xorlw	128
  8164  1632  00FF               	movwf	btemp+1
  8165  1633  3080               	movlw	128
  8166  1634  027F               	subwf	btemp+1,w
  8167  1635  1D03               	skipz
  8168  1636  2E39               	goto	u3515
  8169  1637  301A               	movlw	26
  8170  1638  025C               	subwf	??___fladd+2,w
  8171  1639                     u3515:
  8172  1639  1C03               	skipc
  8173  163A  2E3C               	goto	u3511
  8174  163B  2E3D               	goto	u3510
  8175  163C                     u3511:
  8176  163C  2E7A               	goto	l2643
  8177  163D                     u3510:
  8178  163D                     l2629:
  8179  163D  1283               	bcf	3,5	;RP0=0, select bank0
  8180  163E  1303               	bcf	3,6	;RP1=0, select bank0
  8181  163F  0855               	movf	___fladd@b+3,w
  8182  1640  0454               	iorwf	___fladd@b+2,w
  8183  1641  0453               	iorwf	___fladd@b+1,w
  8184  1642  0452               	iorwf	___fladd@b,w
  8185  1643  1D03               	skipz
  8186  1644  2E46               	goto	u3521
  8187  1645  2E48               	goto	u3520
  8188  1646                     u3521:
  8189  1646  3001               	movlw	1
  8190  1647  2E49               	goto	u3530
  8191  1648                     u3520:
  8192  1648  3000               	movlw	0
  8193  1649                     u3530:
  8194  1649  00DA               	movwf	??___fladd
  8195  164A  085A               	movf	??___fladd,w
  8196  164B  00E5               	movwf	___fladd@grs
  8197  164C  3000               	movlw	0
  8198  164D  00D5               	movwf	___fladd@b+3
  8199  164E  3000               	movlw	0
  8200  164F  00D4               	movwf	___fladd@b+2
  8201  1650  3000               	movlw	0
  8202  1651  00D3               	movwf	___fladd@b+1
  8203  1652  3000               	movlw	0
  8204  1653  00D2               	movwf	___fladd@b
  8205  1654  0863               	movf	___fladd@aexp,w
  8206  1655  00DA               	movwf	??___fladd
  8207  1656  085A               	movf	??___fladd,w
  8208  1657  00E4               	movwf	___fladd@bexp
  8209  1658  2E82               	goto	l635
  8210  1659                     l637:
  8211  1659  1C65               	btfss	___fladd@grs,0
  8212  165A  2E5C               	goto	u3541
  8213  165B  2E5D               	goto	u3540
  8214  165C                     u3541:
  8215  165C  2E66               	goto	l2633
  8216  165D                     u3540:
  8217  165D                     l2631:
  8218  165D  0865               	movf	___fladd@grs,w
  8219  165E  00DA               	movwf	??___fladd
  8220  165F  1003               	clrc
  8221  1660  0C5A               	rrf	??___fladd,w
  8222  1661  3801               	iorlw	1
  8223  1662  00DB               	movwf	??___fladd+1
  8224  1663  085B               	movf	??___fladd+1,w
  8225  1664  00E5               	movwf	___fladd@grs
  8226  1665  2E68               	goto	l2635
  8227  1666                     l2633:
  8228  1666  1003               	clrc
  8229  1667  0CE5               	rrf	___fladd@grs,f
  8230  1668                     l2635:
  8231  1668  1C52               	btfss	___fladd@b,0
  8232  1669  2E6B               	goto	u3551
  8233  166A  2E6C               	goto	u3550
  8234  166B                     u3551:
  8235  166B  2E6D               	goto	l2639
  8236  166C                     u3550:
  8237  166C                     l2637:
  8238  166C  17E5               	bsf	___fladd@grs,7
  8239  166D                     l2639:
  8240  166D  3001               	movlw	1
  8241  166E  00DA               	movwf	??___fladd
  8242  166F                     u3565:
  8243  166F  0D55               	rlf	___fladd@b+3,w
  8244  1670  0CD5               	rrf	___fladd@b+3,f
  8245  1671  0CD4               	rrf	___fladd@b+2,f
  8246  1672  0CD3               	rrf	___fladd@b+1,f
  8247  1673  0CD2               	rrf	___fladd@b,f
  8248  1674  0BDA               	decfsz	??___fladd& (0+127),f
  8249  1675  2E6F               	goto	u3565
  8250  1676                     l2641:
  8251  1676  3001               	movlw	1
  8252  1677  00DA               	movwf	??___fladd
  8253  1678  085A               	movf	??___fladd,w
  8254  1679  07E4               	addwf	___fladd@bexp,f
  8255  167A                     l2643:
  8256  167A  1283               	bcf	3,5	;RP0=0, select bank0
  8257  167B  1303               	bcf	3,6	;RP1=0, select bank0
  8258  167C  0863               	movf	___fladd@aexp,w
  8259  167D  0264               	subwf	___fladd@bexp,w
  8260  167E  1C03               	skipc
  8261  167F  2E81               	goto	u3571
  8262  1680  2E82               	goto	u3570
  8263  1681                     u3571:
  8264  1681  2E59               	goto	l637
  8265  1682                     u3570:
  8266  1682                     l635:
  8267  1682  1B62               	btfsc	___fladd@signs,6
  8268  1683  2E85               	goto	u3581
  8269  1684  2E86               	goto	u3580
  8270  1685                     u3581:
  8271  1685  2ED1               	goto	l2669
  8272  1686                     u3580:
  8273  1686                     l2645:
  8274  1686  0864               	movf	___fladd@bexp,w
  8275  1687  1D03               	btfss	3,2
  8276  1688  2E8A               	goto	u3591
  8277  1689  2E8B               	goto	u3590
  8278  168A                     u3591:
  8279  168A  2E94               	goto	l2651
  8280  168B                     u3590:
  8281  168B                     l2647:
  8282  168B  3000               	movlw	0
  8283  168C  00D5               	movwf	?___fladd+3
  8284  168D  3000               	movlw	0
  8285  168E  00D4               	movwf	?___fladd+2
  8286  168F  3000               	movlw	0
  8287  1690  00D3               	movwf	?___fladd+1
  8288  1691  3000               	movlw	0
  8289  1692  00D2               	movwf	?___fladd
  8290  1693  2FFF               	goto	l644
  8291  1694                     l2651:
  8292  1694  0856               	movf	___fladd@a,w
  8293  1695  07D2               	addwf	___fladd@b,f
  8294  1696  0857               	movf	___fladd@a+1,w
  8295  1697  1103               	clrz
  8296  1698  1803               	skipnc
  8297  1699  3E01               	addlw	1
  8298  169A  1903               	skipnz
  8299  169B  2E9D               	goto	u3601
  8300  169C  07D3               	addwf	___fladd@b+1,f
  8301  169D                     u3601:
  8302  169D  0858               	movf	___fladd@a+2,w
  8303  169E  1103               	clrz
  8304  169F  1803               	skipnc
  8305  16A0  3E01               	addlw	1
  8306  16A1  1903               	skipnz
  8307  16A2  2EA4               	goto	u3602
  8308  16A3  07D4               	addwf	___fladd@b+2,f
  8309  16A4                     u3602:
  8310  16A4  0859               	movf	___fladd@a+3,w
  8311  16A5  1103               	clrz
  8312  16A6  1803               	skipnc
  8313  16A7  3E01               	addlw	1
  8314  16A8  1903               	skipnz
  8315  16A9  2EAB               	goto	u3603
  8316  16AA  07D5               	addwf	___fladd@b+3,f
  8317  16AB                     u3603:
  8318  16AB                     l2653:
  8319  16AB  1C55               	btfss	___fladd@b+3,0
  8320  16AC  2EAE               	goto	u3611
  8321  16AD  2EAF               	goto	u3610
  8322  16AE                     u3611:
  8323  16AE  2F85               	goto	l2703
  8324  16AF                     u3610:
  8325  16AF                     l2655:
  8326  16AF  1C65               	btfss	___fladd@grs,0
  8327  16B0  2EB2               	goto	u3621
  8328  16B1  2EB3               	goto	u3620
  8329  16B2                     u3621:
  8330  16B2  2EBC               	goto	l2659
  8331  16B3                     u3620:
  8332  16B3                     l2657:
  8333  16B3  0865               	movf	___fladd@grs,w
  8334  16B4  00DA               	movwf	??___fladd
  8335  16B5  1003               	clrc
  8336  16B6  0C5A               	rrf	??___fladd,w
  8337  16B7  3801               	iorlw	1
  8338  16B8  00DB               	movwf	??___fladd+1
  8339  16B9  085B               	movf	??___fladd+1,w
  8340  16BA  00E5               	movwf	___fladd@grs
  8341  16BB  2EBE               	goto	l2661
  8342  16BC                     l2659:
  8343  16BC  1003               	clrc
  8344  16BD  0CE5               	rrf	___fladd@grs,f
  8345  16BE                     l2661:
  8346  16BE  1C52               	btfss	___fladd@b,0
  8347  16BF  2EC1               	goto	u3631
  8348  16C0  2EC2               	goto	u3630
  8349  16C1                     u3631:
  8350  16C1  2EC3               	goto	l2665
  8351  16C2                     u3630:
  8352  16C2                     l2663:
  8353  16C2  17E5               	bsf	___fladd@grs,7
  8354  16C3                     l2665:
  8355  16C3  3001               	movlw	1
  8356  16C4  00DA               	movwf	??___fladd
  8357  16C5                     u3645:
  8358  16C5  0D55               	rlf	___fladd@b+3,w
  8359  16C6  0CD5               	rrf	___fladd@b+3,f
  8360  16C7  0CD4               	rrf	___fladd@b+2,f
  8361  16C8  0CD3               	rrf	___fladd@b+1,f
  8362  16C9  0CD2               	rrf	___fladd@b,f
  8363  16CA  0BDA               	decfsz	??___fladd& (0+127),f
  8364  16CB  2EC5               	goto	u3645
  8365  16CC                     l2667:
  8366  16CC  3001               	movlw	1
  8367  16CD  00DA               	movwf	??___fladd
  8368  16CE  085A               	movf	??___fladd,w
  8369  16CF  07E4               	addwf	___fladd@bexp,f
  8370  16D0  2F85               	goto	l2703
  8371  16D1                     l2669:
  8372  16D1  0855               	movf	___fladd@b+3,w
  8373  16D2  3A80               	xorlw	128
  8374  16D3  00FF               	movwf	btemp+1
  8375  16D4  0859               	movf	___fladd@a+3,w
  8376  16D5  3A80               	xorlw	128
  8377  16D6  027F               	subwf	btemp+1,w
  8378  16D7  1D03               	skipz
  8379  16D8  2EE3               	goto	u3653
  8380  16D9  0858               	movf	___fladd@a+2,w
  8381  16DA  0254               	subwf	___fladd@b+2,w
  8382  16DB  1D03               	skipz
  8383  16DC  2EE3               	goto	u3653
  8384  16DD  0857               	movf	___fladd@a+1,w
  8385  16DE  0253               	subwf	___fladd@b+1,w
  8386  16DF  1D03               	skipz
  8387  16E0  2EE3               	goto	u3653
  8388  16E1  0856               	movf	___fladd@a,w
  8389  16E2  0252               	subwf	___fladd@b,w
  8390  16E3                     u3653:
  8391  16E3  1803               	skipnc
  8392  16E4  2EE6               	goto	u3651
  8393  16E5  2EE7               	goto	u3650
  8394  16E6                     u3651:
  8395  16E6  2F3F               	goto	l2679
  8396  16E7                     u3650:
  8397  16E7                     l2671:
  8398  16E7  30FF               	movlw	255
  8399  16E8  00DA               	movwf	??___fladd
  8400  16E9  30FF               	movlw	255
  8401  16EA  00DB               	movwf	??___fladd+1
  8402  16EB  30FF               	movlw	255
  8403  16EC  00DC               	movwf	??___fladd+2
  8404  16ED  30FF               	movlw	255
  8405  16EE  00DD               	movwf	??___fladd+3
  8406  16EF  0856               	movf	___fladd@a,w
  8407  16F0  00DE               	movwf	??___fladd+4
  8408  16F1  0857               	movf	___fladd@a+1,w
  8409  16F2  00DF               	movwf	??___fladd+5
  8410  16F3  0858               	movf	___fladd@a+2,w
  8411  16F4  00E0               	movwf	??___fladd+6
  8412  16F5  0859               	movf	___fladd@a+3,w
  8413  16F6  00E1               	movwf	??___fladd+7
  8414  16F7  0852               	movf	___fladd@b,w
  8415  16F8  02DE               	subwf	??___fladd+4,f
  8416  16F9  0853               	movf	___fladd@b+1,w
  8417  16FA  1C03               	skipc
  8418  16FB  0F53               	incfsz	___fladd@b+1,w
  8419  16FC  2EFE               	goto	u3661
  8420  16FD  2EFF               	goto	u3662
  8421  16FE                     u3661:
  8422  16FE  02DF               	subwf	??___fladd+5,f
  8423  16FF                     u3662:
  8424  16FF  0854               	movf	___fladd@b+2,w
  8425  1700  1C03               	skipc
  8426  1701  0F54               	incfsz	___fladd@b+2,w
  8427  1702  2F04               	goto	u3663
  8428  1703  2F05               	goto	u3664
  8429  1704                     u3663:
  8430  1704  02E0               	subwf	??___fladd+6,f
  8431  1705                     u3664:
  8432  1705  0855               	movf	___fladd@b+3,w
  8433  1706  1C03               	skipc
  8434  1707  0F55               	incfsz	___fladd@b+3,w
  8435  1708  2F0A               	goto	u3665
  8436  1709  2F0B               	goto	u3666
  8437  170A                     u3665:
  8438  170A  02E1               	subwf	??___fladd+7,f
  8439  170B                     u3666:
  8440  170B  085E               	movf	??___fladd+4,w
  8441  170C  07DA               	addwf	??___fladd,f
  8442  170D  085F               	movf	??___fladd+5,w
  8443  170E  1803               	skipnc
  8444  170F  0F5F               	incfsz	??___fladd+5,w
  8445  1710  2F12               	goto	u3670
  8446  1711  2F13               	goto	u3671
  8447  1712                     u3670:
  8448  1712  07DB               	addwf	??___fladd+1,f
  8449  1713                     u3671:
  8450  1713  0860               	movf	??___fladd+6,w
  8451  1714  1803               	skipnc
  8452  1715  0F60               	incfsz	??___fladd+6,w
  8453  1716  2F18               	goto	u3672
  8454  1717  2F19               	goto	u3673
  8455  1718                     u3672:
  8456  1718  07DC               	addwf	??___fladd+2,f
  8457  1719                     u3673:
  8458  1719  0861               	movf	??___fladd+7,w
  8459  171A  1803               	skipnc
  8460  171B  0A61               	incf	??___fladd+7,w
  8461  171C  07DD               	addwf	??___fladd+3,f
  8462  171D  085D               	movf	??___fladd+3,w
  8463  171E  00D5               	movwf	___fladd@b+3
  8464  171F  085C               	movf	??___fladd+2,w
  8465  1720  00D4               	movwf	___fladd@b+2
  8466  1721  085B               	movf	??___fladd+1,w
  8467  1722  00D3               	movwf	___fladd@b+1
  8468  1723  085A               	movf	??___fladd,w
  8469  1724  00D2               	movwf	___fladd@b
  8470  1725                     l2673:
  8471  1725  3080               	movlw	128
  8472  1726  00DA               	movwf	??___fladd
  8473  1727  085A               	movf	??___fladd,w
  8474  1728  06E2               	xorwf	___fladd@signs,f
  8475  1729  09E5               	comf	___fladd@grs,f
  8476  172A  0AE5               	incf	___fladd@grs,f
  8477  172B                     l2675:
  8478  172B  0865               	movf	___fladd@grs,w
  8479  172C  1D03               	btfss	3,2
  8480  172D  2F2F               	goto	u3681
  8481  172E  2F30               	goto	u3680
  8482  172F                     u3681:
  8483  172F  2F4D               	goto	l652
  8484  1730                     u3680:
  8485  1730                     l2677:
  8486  1730  3001               	movlw	1
  8487  1731  07D2               	addwf	___fladd@b,f
  8488  1732  3000               	movlw	0
  8489  1733  1803               	skipnc
  8490  1734  3001               	movlw	1
  8491  1735  07D3               	addwf	___fladd@b+1,f
  8492  1736  3000               	movlw	0
  8493  1737  1803               	skipnc
  8494  1738  3001               	movlw	1
  8495  1739  07D4               	addwf	___fladd@b+2,f
  8496  173A  3000               	movlw	0
  8497  173B  1803               	skipnc
  8498  173C  3001               	movlw	1
  8499  173D  07D5               	addwf	___fladd@b+3,f
  8500  173E  2F4D               	goto	l652
  8501  173F                     l2679:
  8502  173F  0856               	movf	___fladd@a,w
  8503  1740  02D2               	subwf	___fladd@b,f
  8504  1741  0857               	movf	___fladd@a+1,w
  8505  1742  1C03               	skipc
  8506  1743  0F57               	incfsz	___fladd@a+1,w
  8507  1744  02D3               	subwf	___fladd@b+1,f
  8508  1745  0858               	movf	___fladd@a+2,w
  8509  1746  1C03               	skipc
  8510  1747  0F58               	incfsz	___fladd@a+2,w
  8511  1748  02D4               	subwf	___fladd@b+2,f
  8512  1749  0859               	movf	___fladd@a+3,w
  8513  174A  1C03               	skipc
  8514  174B  0F59               	incfsz	___fladd@a+3,w
  8515  174C  02D5               	subwf	___fladd@b+3,f
  8516  174D                     l652:
  8517  174D  0855               	movf	___fladd@b+3,w
  8518  174E  0454               	iorwf	___fladd@b+2,w
  8519  174F  0453               	iorwf	___fladd@b+1,w
  8520  1750  0452               	iorwf	___fladd@b,w
  8521  1751  1D03               	skipz
  8522  1752  2F54               	goto	u3691
  8523  1753  2F55               	goto	u3690
  8524  1754                     u3691:
  8525  1754  2F81               	goto	l2701
  8526  1755                     u3690:
  8527  1755                     l2681:
  8528  1755  0865               	movf	___fladd@grs,w
  8529  1756  1D03               	btfss	3,2
  8530  1757  2F59               	goto	u3701
  8531  1758  2F5A               	goto	u3700
  8532  1759                     u3701:
  8533  1759  2F81               	goto	l2701
  8534  175A                     u3700:
  8535  175A                     l2683:
  8536  175A  3000               	movlw	0
  8537  175B  00D5               	movwf	?___fladd+3
  8538  175C  3000               	movlw	0
  8539  175D  00D4               	movwf	?___fladd+2
  8540  175E  3000               	movlw	0
  8541  175F  00D3               	movwf	?___fladd+1
  8542  1760  3000               	movlw	0
  8543  1761  00D2               	movwf	?___fladd
  8544  1762  2FFF               	goto	l644
  8545  1763                     l2687:
  8546  1763  3001               	movlw	1
  8547  1764  00DA               	movwf	??___fladd
  8548  1765                     u3715:
  8549  1765  1003               	clrc
  8550  1766  0DD2               	rlf	___fladd@b,f
  8551  1767  0DD3               	rlf	___fladd@b+1,f
  8552  1768  0DD4               	rlf	___fladd@b+2,f
  8553  1769  0DD5               	rlf	___fladd@b+3,f
  8554  176A  0BDA               	decfsz	??___fladd,f
  8555  176B  2F65               	goto	u3715
  8556  176C                     l2689:
  8557  176C  1FE5               	btfss	___fladd@grs,7
  8558  176D  2F6F               	goto	u3721
  8559  176E  2F70               	goto	u3720
  8560  176F                     u3721:
  8561  176F  2F71               	goto	l656
  8562  1770                     u3720:
  8563  1770                     l2691:
  8564  1770  1452               	bsf	___fladd@b,0
  8565  1771                     l656:
  8566  1771  1C65               	btfss	___fladd@grs,0
  8567  1772  2F74               	goto	u3731
  8568  1773  2F75               	goto	u3730
  8569  1774                     u3731:
  8570  1774  2F78               	goto	l2695
  8571  1775                     u3730:
  8572  1775                     l2693:
  8573  1775  1403               	setc
  8574  1776  0DE5               	rlf	___fladd@grs,f
  8575  1777  2F7A               	goto	l2697
  8576  1778                     l2695:
  8577  1778  1003               	clrc
  8578  1779  0DE5               	rlf	___fladd@grs,f
  8579  177A                     l2697:
  8580  177A  0864               	movf	___fladd@bexp,w
  8581  177B  1903               	btfsc	3,2
  8582  177C  2F7E               	goto	u3741
  8583  177D  2F7F               	goto	u3740
  8584  177E                     u3741:
  8585  177E  2F81               	goto	l2701
  8586  177F                     u3740:
  8587  177F                     l2699:
  8588  177F  3001               	movlw	1
  8589  1780  02E4               	subwf	___fladd@bexp,f
  8590  1781                     l2701:
  8591  1781  1FD4               	btfss	___fladd@b+2,7
  8592  1782  2F84               	goto	u3751
  8593  1783  2F85               	goto	u3750
  8594  1784                     u3751:
  8595  1784  2F63               	goto	l2687
  8596  1785                     u3750:
  8597  1785                     l2703:
  8598  1785  01E3               	clrf	___fladd@aexp
  8599  1786                     l2705:
  8600  1786  1FE5               	btfss	___fladd@grs,7
  8601  1787  2F89               	goto	u3761
  8602  1788  2F8A               	goto	u3760
  8603  1789                     u3761:
  8604  1789  2F98               	goto	l2713
  8605  178A                     u3760:
  8606  178A                     l2707:
  8607  178A  0865               	movf	___fladd@grs,w
  8608  178B  397F               	andlw	127
  8609  178C  1903               	btfsc	3,2
  8610  178D  2F8F               	goto	u3771
  8611  178E  2F90               	goto	u3770
  8612  178F                     u3771:
  8613  178F  2F93               	goto	l662
  8614  1790                     u3770:
  8615  1790                     l2709:
  8616  1790  01E3               	clrf	___fladd@aexp
  8617  1791  0AE3               	incf	___fladd@aexp,f
  8618  1792  2F98               	goto	l2713
  8619  1793                     l662:
  8620  1793  1C52               	btfss	___fladd@b,0
  8621  1794  2F96               	goto	u3781
  8622  1795  2F97               	goto	u3780
  8623  1796                     u3781:
  8624  1796  2F98               	goto	l2713
  8625  1797                     u3780:
  8626  1797  2F90               	goto	l2709
  8627  1798                     l2713:
  8628  1798  0863               	movf	___fladd@aexp,w
  8629  1799  1903               	btfsc	3,2
  8630  179A  2F9C               	goto	u3791
  8631  179B  2F9D               	goto	u3790
  8632  179C                     u3791:
  8633  179C  2FD1               	goto	l665
  8634  179D                     u3790:
  8635  179D                     l2715:
  8636  179D  3001               	movlw	1
  8637  179E  07D2               	addwf	___fladd@b,f
  8638  179F  3000               	movlw	0
  8639  17A0  1803               	skipnc
  8640  17A1  3001               	movlw	1
  8641  17A2  07D3               	addwf	___fladd@b+1,f
  8642  17A3  3000               	movlw	0
  8643  17A4  1803               	skipnc
  8644  17A5  3001               	movlw	1
  8645  17A6  07D4               	addwf	___fladd@b+2,f
  8646  17A7  3000               	movlw	0
  8647  17A8  1803               	skipnc
  8648  17A9  3001               	movlw	1
  8649  17AA  07D5               	addwf	___fladd@b+3,f
  8650  17AB                     l2717:
  8651  17AB  1C55               	btfss	___fladd@b+3,0
  8652  17AC  2FAE               	goto	u3801
  8653  17AD  2FAF               	goto	u3800
  8654  17AE                     u3801:
  8655  17AE  2FD1               	goto	l665
  8656  17AF                     u3800:
  8657  17AF                     l2719:
  8658  17AF  0852               	movf	___fladd@b,w
  8659  17B0  00DA               	movwf	??___fladd
  8660  17B1  0853               	movf	___fladd@b+1,w
  8661  17B2  00DB               	movwf	??___fladd+1
  8662  17B3  0854               	movf	___fladd@b+2,w
  8663  17B4  00DC               	movwf	??___fladd+2
  8664  17B5  0855               	movf	___fladd@b+3,w
  8665  17B6  00DD               	movwf	??___fladd+3
  8666  17B7  3001               	movlw	1
  8667  17B8  00DE               	movwf	??___fladd+4
  8668  17B9                     u3815:
  8669  17B9  0D5D               	rlf	??___fladd+3,w
  8670  17BA  0CDD               	rrf	??___fladd+3,f
  8671  17BB  0CDC               	rrf	??___fladd+2,f
  8672  17BC  0CDB               	rrf	??___fladd+1,f
  8673  17BD  0CDA               	rrf	??___fladd,f
  8674  17BE                     u3810:
  8675  17BE  0BDE               	decfsz	??___fladd+4,f
  8676  17BF  2FB9               	goto	u3815
  8677  17C0  085D               	movf	??___fladd+3,w
  8678  17C1  00D5               	movwf	___fladd@b+3
  8679  17C2  085C               	movf	??___fladd+2,w
  8680  17C3  00D4               	movwf	___fladd@b+2
  8681  17C4  085B               	movf	??___fladd+1,w
  8682  17C5  00D3               	movwf	___fladd@b+1
  8683  17C6  085A               	movf	??___fladd,w
  8684  17C7  00D2               	movwf	___fladd@b
  8685  17C8  0A64               	incf	___fladd@bexp,w
  8686  17C9  1903               	btfsc	3,2
  8687  17CA  2FCC               	goto	u3821
  8688  17CB  2FCD               	goto	u3820
  8689  17CC                     u3821:
  8690  17CC  2FD1               	goto	l665
  8691  17CD                     u3820:
  8692  17CD                     l2721:
  8693  17CD  3001               	movlw	1
  8694  17CE  00DA               	movwf	??___fladd
  8695  17CF  085A               	movf	??___fladd,w
  8696  17D0  07E4               	addwf	___fladd@bexp,f
  8697  17D1                     l665:
  8698  17D1  0A64               	incf	___fladd@bexp,w
  8699  17D2  1903               	btfsc	3,2
  8700  17D3  2FD5               	goto	u3831
  8701  17D4  2FD6               	goto	u3830
  8702  17D5                     u3831:
  8703  17D5  2FDB               	goto	l2725
  8704  17D6                     u3830:
  8705  17D6                     l2723:
  8706  17D6  0864               	movf	___fladd@bexp,w
  8707  17D7  1D03               	btfss	3,2
  8708  17D8  2FDA               	goto	u3841
  8709  17D9  2FDB               	goto	u3840
  8710  17DA                     u3841:
  8711  17DA  2FE9               	goto	l2731
  8712  17DB                     u3840:
  8713  17DB                     l2725:
  8714  17DB  3000               	movlw	0
  8715  17DC  00D5               	movwf	___fladd@b+3
  8716  17DD  3000               	movlw	0
  8717  17DE  00D4               	movwf	___fladd@b+2
  8718  17DF  3000               	movlw	0
  8719  17E0  00D3               	movwf	___fladd@b+1
  8720  17E1  3000               	movlw	0
  8721  17E2  00D2               	movwf	___fladd@b
  8722  17E3                     l2727:
  8723  17E3  0864               	movf	___fladd@bexp,w
  8724  17E4  1D03               	btfss	3,2
  8725  17E5  2FE7               	goto	u3851
  8726  17E6  2FE8               	goto	u3850
  8727  17E7                     u3851:
  8728  17E7  2FE9               	goto	l2731
  8729  17E8                     u3850:
  8730  17E8                     l2729:
  8731  17E8  01E2               	clrf	___fladd@signs
  8732  17E9                     l2731:
  8733  17E9  1C64               	btfss	___fladd@bexp,0
  8734  17EA  2FEC               	goto	u3861
  8735  17EB  2FED               	goto	u3860
  8736  17EC                     u3861:
  8737  17EC  2FEF               	goto	l2735
  8738  17ED                     u3860:
  8739  17ED                     l2733:
  8740  17ED  17D4               	bsf	___fladd@b+2,7
  8741  17EE  2FF3               	goto	l673
  8742  17EF                     l2735:
  8743  17EF  307F               	movlw	127
  8744  17F0  00DA               	movwf	??___fladd
  8745  17F1  085A               	movf	??___fladd,w
  8746  17F2  05D4               	andwf	___fladd@b+2,f
  8747  17F3                     l673:
  8748  17F3  0864               	movf	___fladd@bexp,w
  8749  17F4  00DA               	movwf	??___fladd
  8750  17F5  1003               	clrc
  8751  17F6  0C5A               	rrf	??___fladd,w
  8752  17F7  00DB               	movwf	??___fladd+1
  8753  17F8  085B               	movf	??___fladd+1,w
  8754  17F9  00D5               	movwf	___fladd@b+3
  8755  17FA                     l2737:
  8756  17FA  1FE2               	btfss	___fladd@signs,7
  8757  17FB  2FFD               	goto	u3871
  8758  17FC  2FFE               	goto	u3870
  8759  17FD                     u3871:
  8760  17FD  2FFF               	goto	l674
  8761  17FE                     u3870:
  8762  17FE                     l2739:
  8763  17FE  17D5               	bsf	___fladd@b+3,7
  8764  17FF                     l674:
  8765  17FF                     l644:
  8766  17FF  0008               	return
  8767  1800                     __end_of___fladd:
  8768                           
  8769                           	psect	text21
  8770  0006                     __ptext21:	
  8771 ;; *************** function ___flneg *****************
  8772 ;; Defined at:
  8773 ;;		line 15 in file "C:\Program Files\Microchip\xc8\v2.36\pic\sources\c90\common\flneg.c"
  8774 ;; Parameters:    Size  Location     Type
  8775 ;;  f1              4    0[COMMON] unsigned char 
  8776 ;; Auto vars:     Size  Location     Type
  8777 ;;		None
  8778 ;; Return value:  Size  Location     Type
  8779 ;;                  4    0[COMMON] unsigned char 
  8780 ;; Registers used:
  8781 ;;		wreg
  8782 ;; Tracked objects:
  8783 ;;		On entry : 0/0
  8784 ;;		On exit  : 0/0
  8785 ;;		Unchanged: 0/0
  8786 ;; Data sizes:     COMMON   BANK0   BANK1   BANK3   BANK2
  8787 ;;      Params:         4       0       0       0       0
  8788 ;;      Locals:         0       0       0       0       0
  8789 ;;      Temps:          0       0       0       0       0
  8790 ;;      Totals:         4       0       0       0       0
  8791 ;;Total ram usage:        4 bytes
  8792 ;; Hardware stack levels used: 1
  8793 ;; This function calls:
  8794 ;;		Nothing
  8795 ;; This function is called by:
  8796 ;;		_sprintf
  8797 ;; This function uses a non-reentrant model
  8798 ;;
  8799                           
  8800  0006                     ___flneg:	
  8801                           ;psect for function ___flneg
  8802                           
  8803  0006                     l3155:	
  8804                           ;incstack = 0
  8805                           ; Regs used in ___flneg: [wreg]
  8806                           
  8807  0006  0873               	movf	___flneg@f1+3,w
  8808  0007  0472               	iorwf	___flneg@f1+2,w
  8809  0008  0471               	iorwf	___flneg@f1+1,w
  8810  0009  0470               	iorwf	___flneg@f1,w
  8811  000A  1903               	skipnz
  8812  000B  280D               	goto	u5011
  8813  000C  280E               	goto	u5010
  8814  000D                     u5011:
  8815  000D  2810               	goto	l3159
  8816  000E                     u5010:
  8817  000E                     l3157:
  8818  000E  3080               	movlw	128
  8819  000F  06F3               	xorwf	___flneg@f1+3,f
  8820  0010                     l3159:
  8821  0010                     l503:
  8822  0010  0008               	return
  8823  0011                     __end_of___flneg:
  8824                           
  8825                           	psect	text22
  8826  10EE                     __ptext22:	
  8827 ;; *************** function ___flge *****************
  8828 ;; Defined at:
  8829 ;;		line 4 in file "C:\Program Files\Microchip\xc8\v2.36\pic\sources\c90\common\flge.c"
  8830 ;; Parameters:    Size  Location     Type
  8831 ;;  ff1             4    0[COMMON] unsigned char 
  8832 ;;  ff2             4    4[COMMON] unsigned char 
  8833 ;; Auto vars:     Size  Location     Type
  8834 ;;		None
  8835 ;; Return value:  Size  Location     Type
  8836 ;;		None               void
  8837 ;; Registers used:
  8838 ;;		wreg, status,2, status,0
  8839 ;; Tracked objects:
  8840 ;;		On entry : 0/0
  8841 ;;		On exit  : 0/0
  8842 ;;		Unchanged: 0/0
  8843 ;; Data sizes:     COMMON   BANK0   BANK1   BANK3   BANK2
  8844 ;;      Params:         8       0       0       0       0
  8845 ;;      Locals:         0       0       0       0       0
  8846 ;;      Temps:          4       0       0       0       0
  8847 ;;      Totals:        12       0       0       0       0
  8848 ;;Total ram usage:       12 bytes
  8849 ;; Hardware stack levels used: 1
  8850 ;; This function calls:
  8851 ;;		Nothing
  8852 ;; This function is called by:
  8853 ;;		_sprintf
  8854 ;; This function uses a non-reentrant model
  8855 ;;
  8856                           
  8857  10EE                     ___flge:	
  8858                           ;psect for function ___flge
  8859                           
  8860  10EE                     l3135:	
  8861                           ;incstack = 0
  8862                           ; Regs used in ___flge: [wreg+status,2+status,0]
  8863                           
  8864  10EE  3000               	movlw	0
  8865  10EF  0570               	andwf	___flge@ff1,w
  8866  10F0  00F8               	movwf	??___flge
  8867  10F1  3000               	movlw	0
  8868  10F2  0571               	andwf	___flge@ff1+1,w
  8869  10F3  00F9               	movwf	??___flge+1
  8870  10F4  3080               	movlw	128
  8871  10F5  0572               	andwf	___flge@ff1+2,w
  8872  10F6  00FA               	movwf	??___flge+2
  8873  10F7  307F               	movlw	127
  8874  10F8  0573               	andwf	___flge@ff1+3,w
  8875  10F9  00FB               	movwf	??___flge+3
  8876  10FA  087B               	movf	??___flge+3,w
  8877  10FB  047A               	iorwf	??___flge+2,w
  8878  10FC  0479               	iorwf	??___flge+1,w
  8879  10FD  0478               	iorwf	??___flge,w
  8880  10FE  1D03               	skipz
  8881  10FF  2901               	goto	u4941
  8882  1100  2902               	goto	u4940
  8883  1101                     u4941:
  8884  1101  290A               	goto	l495
  8885  1102                     u4940:
  8886  1102                     l3137:
  8887  1102  3000               	movlw	0
  8888  1103  00F3               	movwf	___flge@ff1+3
  8889  1104  3000               	movlw	0
  8890  1105  00F2               	movwf	___flge@ff1+2
  8891  1106  3000               	movlw	0
  8892  1107  00F1               	movwf	___flge@ff1+1
  8893  1108  3000               	movlw	0
  8894  1109  00F0               	movwf	___flge@ff1
  8895  110A                     l495:
  8896  110A  3000               	movlw	0
  8897  110B  0574               	andwf	___flge@ff2,w
  8898  110C  00F8               	movwf	??___flge
  8899  110D  3000               	movlw	0
  8900  110E  0575               	andwf	___flge@ff2+1,w
  8901  110F  00F9               	movwf	??___flge+1
  8902  1110  3080               	movlw	128
  8903  1111  0576               	andwf	___flge@ff2+2,w
  8904  1112  00FA               	movwf	??___flge+2
  8905  1113  307F               	movlw	127
  8906  1114  0577               	andwf	___flge@ff2+3,w
  8907  1115  00FB               	movwf	??___flge+3
  8908  1116  087B               	movf	??___flge+3,w
  8909  1117  047A               	iorwf	??___flge+2,w
  8910  1118  0479               	iorwf	??___flge+1,w
  8911  1119  0478               	iorwf	??___flge,w
  8912  111A  1D03               	skipz
  8913  111B  291D               	goto	u4951
  8914  111C  291E               	goto	u4950
  8915  111D                     u4951:
  8916  111D  2926               	goto	l3141
  8917  111E                     u4950:
  8918  111E                     l3139:
  8919  111E  3000               	movlw	0
  8920  111F  00F7               	movwf	___flge@ff2+3
  8921  1120  3000               	movlw	0
  8922  1121  00F6               	movwf	___flge@ff2+2
  8923  1122  3000               	movlw	0
  8924  1123  00F5               	movwf	___flge@ff2+1
  8925  1124  3000               	movlw	0
  8926  1125  00F4               	movwf	___flge@ff2
  8927  1126                     l3141:
  8928  1126  1FF3               	btfss	___flge@ff1+3,7
  8929  1127  2929               	goto	u4961
  8930  1128  292A               	goto	u4960
  8931  1129                     u4961:
  8932  1129  294E               	goto	l3145
  8933  112A                     u4960:
  8934  112A                     l3143:
  8935  112A  3000               	movlw	0
  8936  112B  00F8               	movwf	??___flge
  8937  112C  3000               	movlw	0
  8938  112D  00F9               	movwf	??___flge+1
  8939  112E  3000               	movlw	0
  8940  112F  00FA               	movwf	??___flge+2
  8941  1130  3080               	movlw	128
  8942  1131  00FB               	movwf	??___flge+3
  8943  1132  0870               	movf	___flge@ff1,w
  8944  1133  02F8               	subwf	??___flge,f
  8945  1134  0871               	movf	___flge@ff1+1,w
  8946  1135  1C03               	skipc
  8947  1136  0F71               	incfsz	___flge@ff1+1,w
  8948  1137  2939               	goto	u4971
  8949  1138  293A               	goto	u4972
  8950  1139                     u4971:
  8951  1139  02F9               	subwf	??___flge+1,f
  8952  113A                     u4972:
  8953  113A  0872               	movf	___flge@ff1+2,w
  8954  113B  1C03               	skipc
  8955  113C  0F72               	incfsz	___flge@ff1+2,w
  8956  113D  293F               	goto	u4973
  8957  113E  2940               	goto	u4974
  8958  113F                     u4973:
  8959  113F  02FA               	subwf	??___flge+2,f
  8960  1140                     u4974:
  8961  1140  0873               	movf	___flge@ff1+3,w
  8962  1141  1C03               	skipc
  8963  1142  0F73               	incfsz	___flge@ff1+3,w
  8964  1143  2945               	goto	u4975
  8965  1144  2946               	goto	u4976
  8966  1145                     u4975:
  8967  1145  02FB               	subwf	??___flge+3,f
  8968  1146                     u4976:
  8969  1146  087B               	movf	??___flge+3,w
  8970  1147  00F3               	movwf	___flge@ff1+3
  8971  1148  087A               	movf	??___flge+2,w
  8972  1149  00F2               	movwf	___flge@ff1+2
  8973  114A  0879               	movf	??___flge+1,w
  8974  114B  00F1               	movwf	___flge@ff1+1
  8975  114C  0878               	movf	??___flge,w
  8976  114D  00F0               	movwf	___flge@ff1
  8977  114E                     l3145:
  8978  114E  1FF7               	btfss	___flge@ff2+3,7
  8979  114F  2951               	goto	u4981
  8980  1150  2952               	goto	u4980
  8981  1151                     u4981:
  8982  1151  2976               	goto	l498
  8983  1152                     u4980:
  8984  1152                     l3147:
  8985  1152  3000               	movlw	0
  8986  1153  00F8               	movwf	??___flge
  8987  1154  3000               	movlw	0
  8988  1155  00F9               	movwf	??___flge+1
  8989  1156  3000               	movlw	0
  8990  1157  00FA               	movwf	??___flge+2
  8991  1158  3080               	movlw	128
  8992  1159  00FB               	movwf	??___flge+3
  8993  115A  0874               	movf	___flge@ff2,w
  8994  115B  02F8               	subwf	??___flge,f
  8995  115C  0875               	movf	___flge@ff2+1,w
  8996  115D  1C03               	skipc
  8997  115E  0F75               	incfsz	___flge@ff2+1,w
  8998  115F  2961               	goto	u4991
  8999  1160  2962               	goto	u4992
  9000  1161                     u4991:
  9001  1161  02F9               	subwf	??___flge+1,f
  9002  1162                     u4992:
  9003  1162  0876               	movf	___flge@ff2+2,w
  9004  1163  1C03               	skipc
  9005  1164  0F76               	incfsz	___flge@ff2+2,w
  9006  1165  2967               	goto	u4993
  9007  1166  2968               	goto	u4994
  9008  1167                     u4993:
  9009  1167  02FA               	subwf	??___flge+2,f
  9010  1168                     u4994:
  9011  1168  0877               	movf	___flge@ff2+3,w
  9012  1169  1C03               	skipc
  9013  116A  0F77               	incfsz	___flge@ff2+3,w
  9014  116B  296D               	goto	u4995
  9015  116C  296E               	goto	u4996
  9016  116D                     u4995:
  9017  116D  02FB               	subwf	??___flge+3,f
  9018  116E                     u4996:
  9019  116E  087B               	movf	??___flge+3,w
  9020  116F  00F7               	movwf	___flge@ff2+3
  9021  1170  087A               	movf	??___flge+2,w
  9022  1171  00F6               	movwf	___flge@ff2+2
  9023  1172  0879               	movf	??___flge+1,w
  9024  1173  00F5               	movwf	___flge@ff2+1
  9025  1174  0878               	movf	??___flge,w
  9026  1175  00F4               	movwf	___flge@ff2
  9027  1176                     l498:
  9028  1176  3080               	movlw	128
  9029  1177  06F3               	xorwf	___flge@ff1+3,f
  9030  1178  3080               	movlw	128
  9031  1179  06F7               	xorwf	___flge@ff2+3,f
  9032  117A  0877               	movf	___flge@ff2+3,w
  9033  117B  0273               	subwf	___flge@ff1+3,w
  9034  117C  1D03               	skipz
  9035  117D  2988               	goto	u5005
  9036  117E  0876               	movf	___flge@ff2+2,w
  9037  117F  0272               	subwf	___flge@ff1+2,w
  9038  1180  1D03               	skipz
  9039  1181  2988               	goto	u5005
  9040  1182  0875               	movf	___flge@ff2+1,w
  9041  1183  0271               	subwf	___flge@ff1+1,w
  9042  1184  1D03               	skipz
  9043  1185  2988               	goto	u5005
  9044  1186  0874               	movf	___flge@ff2,w
  9045  1187  0270               	subwf	___flge@ff1,w
  9046  1188                     u5005:
  9047  1188  1803               	skipnc
  9048  1189  298B               	goto	u5001
  9049  118A  298C               	goto	u5000
  9050  118B                     u5001:
  9051  118B  298E               	goto	l3151
  9052  118C                     u5000:
  9053  118C                     l3149:
  9054  118C  1003               	clrc
  9055  118D  298F               	goto	l499
  9056  118E                     l3151:
  9057  118E  1403               	setc
  9058  118F                     l499:
  9059  118F  0008               	return
  9060  1190                     __end_of___flge:
  9061                           
  9062                           	psect	text23
  9063  1C87                     __ptext23:	
  9064 ;; *************** function ___fleq *****************
  9065 ;; Defined at:
  9066 ;;		line 4 in file "C:\Program Files\Microchip\xc8\v2.36\pic\sources\c90\common\fleq.c"
  9067 ;; Parameters:    Size  Location     Type
  9068 ;;  ff1             4    0[COMMON] unsigned char 
  9069 ;;  ff2             4    4[COMMON] unsigned char 
  9070 ;; Auto vars:     Size  Location     Type
  9071 ;;		None
  9072 ;; Return value:  Size  Location     Type
  9073 ;;		None               void
  9074 ;; Registers used:
  9075 ;;		wreg, status,2, status,0
  9076 ;; Tracked objects:
  9077 ;;		On entry : 0/0
  9078 ;;		On exit  : 0/0
  9079 ;;		Unchanged: 0/0
  9080 ;; Data sizes:     COMMON   BANK0   BANK1   BANK3   BANK2
  9081 ;;      Params:         8       0       0       0       0
  9082 ;;      Locals:         0       0       0       0       0
  9083 ;;      Temps:          4       0       0       0       0
  9084 ;;      Totals:        12       0       0       0       0
  9085 ;;Total ram usage:       12 bytes
  9086 ;; Hardware stack levels used: 1
  9087 ;; This function calls:
  9088 ;;		Nothing
  9089 ;; This function is called by:
  9090 ;;		_sprintf
  9091 ;; This function uses a non-reentrant model
  9092 ;;
  9093                           
  9094  1C87                     ___fleq:	
  9095                           ;psect for function ___fleq
  9096                           
  9097  1C87                     l3123:	
  9098                           ;incstack = 0
  9099                           ; Regs used in ___fleq: [wreg+status,2+status,0]
  9100                           
  9101  1C87  3000               	movlw	0
  9102  1C88  0570               	andwf	___fleq@ff1,w
  9103  1C89  00F8               	movwf	??___fleq
  9104  1C8A  3000               	movlw	0
  9105  1C8B  0571               	andwf	___fleq@ff1+1,w
  9106  1C8C  00F9               	movwf	??___fleq+1
  9107  1C8D  3080               	movlw	128
  9108  1C8E  0572               	andwf	___fleq@ff1+2,w
  9109  1C8F  00FA               	movwf	??___fleq+2
  9110  1C90  307F               	movlw	127
  9111  1C91  0573               	andwf	___fleq@ff1+3,w
  9112  1C92  00FB               	movwf	??___fleq+3
  9113  1C93  087B               	movf	??___fleq+3,w
  9114  1C94  047A               	iorwf	??___fleq+2,w
  9115  1C95  0479               	iorwf	??___fleq+1,w
  9116  1C96  0478               	iorwf	??___fleq,w
  9117  1C97  1D03               	skipz
  9118  1C98  2C9A               	goto	u4911
  9119  1C99  2C9B               	goto	u4910
  9120  1C9A                     u4911:
  9121  1C9A  2CA3               	goto	l490
  9122  1C9B                     u4910:
  9123  1C9B                     l3125:
  9124  1C9B  3000               	movlw	0
  9125  1C9C  00F3               	movwf	___fleq@ff1+3
  9126  1C9D  3000               	movlw	0
  9127  1C9E  00F2               	movwf	___fleq@ff1+2
  9128  1C9F  3000               	movlw	0
  9129  1CA0  00F1               	movwf	___fleq@ff1+1
  9130  1CA1  3000               	movlw	0
  9131  1CA2  00F0               	movwf	___fleq@ff1
  9132  1CA3                     l490:
  9133  1CA3  3000               	movlw	0
  9134  1CA4  0574               	andwf	___fleq@ff2,w
  9135  1CA5  00F8               	movwf	??___fleq
  9136  1CA6  3000               	movlw	0
  9137  1CA7  0575               	andwf	___fleq@ff2+1,w
  9138  1CA8  00F9               	movwf	??___fleq+1
  9139  1CA9  3080               	movlw	128
  9140  1CAA  0576               	andwf	___fleq@ff2+2,w
  9141  1CAB  00FA               	movwf	??___fleq+2
  9142  1CAC  307F               	movlw	127
  9143  1CAD  0577               	andwf	___fleq@ff2+3,w
  9144  1CAE  00FB               	movwf	??___fleq+3
  9145  1CAF  087B               	movf	??___fleq+3,w
  9146  1CB0  047A               	iorwf	??___fleq+2,w
  9147  1CB1  0479               	iorwf	??___fleq+1,w
  9148  1CB2  0478               	iorwf	??___fleq,w
  9149  1CB3  1D03               	skipz
  9150  1CB4  2CB6               	goto	u4921
  9151  1CB5  2CB7               	goto	u4920
  9152  1CB6                     u4921:
  9153  1CB6  2CBF               	goto	l491
  9154  1CB7                     u4920:
  9155  1CB7                     l3127:
  9156  1CB7  3000               	movlw	0
  9157  1CB8  00F7               	movwf	___fleq@ff2+3
  9158  1CB9  3000               	movlw	0
  9159  1CBA  00F6               	movwf	___fleq@ff2+2
  9160  1CBB  3000               	movlw	0
  9161  1CBC  00F5               	movwf	___fleq@ff2+1
  9162  1CBD  3000               	movlw	0
  9163  1CBE  00F4               	movwf	___fleq@ff2
  9164  1CBF                     l491:
  9165  1CBF  0877               	movf	___fleq@ff2+3,w
  9166  1CC0  0673               	xorwf	___fleq@ff1+3,w
  9167  1CC1  1D03               	skipz
  9168  1CC2  2CCD               	goto	u4935
  9169  1CC3  0876               	movf	___fleq@ff2+2,w
  9170  1CC4  0672               	xorwf	___fleq@ff1+2,w
  9171  1CC5  1D03               	skipz
  9172  1CC6  2CCD               	goto	u4935
  9173  1CC7  0875               	movf	___fleq@ff2+1,w
  9174  1CC8  0671               	xorwf	___fleq@ff1+1,w
  9175  1CC9  1D03               	skipz
  9176  1CCA  2CCD               	goto	u4935
  9177  1CCB  0874               	movf	___fleq@ff2,w
  9178  1CCC  0670               	xorwf	___fleq@ff1,w
  9179  1CCD                     u4935:
  9180  1CCD  1903               	skipnz
  9181  1CCE  2CD0               	goto	u4931
  9182  1CCF  2CD1               	goto	u4930
  9183  1CD0                     u4931:
  9184  1CD0  2CD3               	goto	l3131
  9185  1CD1                     u4930:
  9186  1CD1                     l3129:
  9187  1CD1  1003               	clrc
  9188  1CD2  2CD4               	goto	l492
  9189  1CD3                     l3131:
  9190  1CD3  1403               	setc
  9191  1CD4                     l492:
  9192  1CD4  0008               	return
  9193  1CD5                     __end_of___fleq:
  9194                           
  9195                           	psect	text24
  9196  1AD6                     __ptext24:	
  9197 ;; *************** function _get_val *****************
  9198 ;; Defined at:
  9199 ;;		line 41 in file "newfile.c"
  9200 ;; Parameters:    Size  Location     Type
  9201 ;;		None
  9202 ;; Auto vars:     Size  Location     Type
  9203 ;;		None
  9204 ;; Return value:  Size  Location     Type
  9205 ;;                  2    0[COMMON] unsigned int 
  9206 ;; Registers used:
  9207 ;;		wreg
  9208 ;; Tracked objects:
  9209 ;;		On entry : 0/0
  9210 ;;		On exit  : 0/0
  9211 ;;		Unchanged: 0/0
  9212 ;; Data sizes:     COMMON   BANK0   BANK1   BANK3   BANK2
  9213 ;;      Params:         2       0       0       0       0
  9214 ;;      Locals:         0       0       0       0       0
  9215 ;;      Temps:          2       0       0       0       0
  9216 ;;      Totals:         4       0       0       0       0
  9217 ;;Total ram usage:        4 bytes
  9218 ;; Hardware stack levels used: 1
  9219 ;; This function calls:
  9220 ;;		Nothing
  9221 ;; This function is called by:
  9222 ;;		_fun
  9223 ;; This function uses a non-reentrant model
  9224 ;;
  9225                           
  9226  1AD6                     _get_val:	
  9227                           ;psect for function _get_val
  9228                           
  9229  1AD6                     l3269:	
  9230                           ;incstack = 0
  9231                           ; Regs used in _get_val: [wreg]
  9232                           
  9233                           
  9234                           ;newfile.c: 43:     ADCON0bits.ADON = 1;
  9235  1AD6  1283               	bcf	3,5	;RP0=0, select bank0
  9236  1AD7  1303               	bcf	3,6	;RP1=0, select bank0
  9237  1AD8  141F               	bsf	31,0	;volatile
  9238  1AD9                     l3271:
  9239                           
  9240                           ;newfile.c: 44:     _delay((unsigned long)((10)*(8000000/4000.0)));
  9241  1AD9  301A               	movlw	26
  9242  1ADA  00F3               	movwf	??_get_val+1
  9243  1ADB  30F8               	movlw	248
  9244  1ADC  00F2               	movwf	??_get_val
  9245  1ADD                     u6107:
  9246  1ADD  0BF2               	decfsz	??_get_val,f
  9247  1ADE  2ADD               	goto	u6107
  9248  1ADF  0BF3               	decfsz	??_get_val+1,f
  9249  1AE0  2ADD               	goto	u6107
  9250  1AE1  0000               	nop
  9251  1AE2                     l3273:
  9252                           
  9253                           ;newfile.c: 45:     ADCON0bits.GO_nDONE = 1;
  9254  1AE2  1283               	bcf	3,5	;RP0=0, select bank0
  9255  1AE3  1303               	bcf	3,6	;RP1=0, select bank0
  9256  1AE4  149F               	bsf	31,1	;volatile
  9257                           
  9258                           ;newfile.c: 46:     _delay((unsigned long)((10)*(8000000/4000.0)));
  9259  1AE5  301A               	movlw	26
  9260  1AE6  00F3               	movwf	??_get_val+1
  9261  1AE7  30F8               	movlw	248
  9262  1AE8  00F2               	movwf	??_get_val
  9263  1AE9                     u6117:
  9264  1AE9  0BF2               	decfsz	??_get_val,f
  9265  1AEA  2AE9               	goto	u6117
  9266  1AEB  0BF3               	decfsz	??_get_val+1,f
  9267  1AEC  2AE9               	goto	u6117
  9268  1AED  0000               	nop
  9269  1AEE                     l42:	
  9270                           ;newfile.c: 47:     while(ADCON0bits.GO_nDONE);
  9271                           
  9272  1AEE  1283               	bcf	3,5	;RP0=0, select bank0
  9273  1AEF  1303               	bcf	3,6	;RP1=0, select bank0
  9274  1AF0  189F               	btfsc	31,1	;volatile
  9275  1AF1  2AF3               	goto	u5321
  9276  1AF2  2AF4               	goto	u5320
  9277  1AF3                     u5321:
  9278  1AF3  2AEE               	goto	l42
  9279  1AF4                     u5320:
  9280  1AF4                     l3275:
  9281                           
  9282                           ;newfile.c: 49:     return ((ADRESH<<8)+ADRESL);
  9283  1AF4  081E               	movf	30,w	;volatile
  9284  1AF5  00F1               	movwf	?_get_val+1
  9285  1AF6  1683               	bsf	3,5	;RP0=1, select bank1
  9286  1AF7  1303               	bcf	3,6	;RP1=0, select bank1
  9287  1AF8  081E               	movf	30,w	;volatile
  9288  1AF9  00F0               	movwf	?_get_val
  9289  1AFA                     l45:
  9290  1AFA  0008               	return
  9291  1AFB                     __end_of_get_val:
  9292                           
  9293                           	psect	text25
  9294  1190                     __ptext25:	
  9295 ;; *************** function ___fldiv *****************
  9296 ;; Defined at:
  9297 ;;		line 8 in file "C:\Program Files\Microchip\xc8\v2.36\pic\sources\c90\common\sprcdiv.c"
  9298 ;; Parameters:    Size  Location     Type
  9299 ;;  a               4    6[BANK0 ] unsigned int 
  9300 ;;  b               4   10[BANK0 ] unsigned int 
  9301 ;; Auto vars:     Size  Location     Type
  9302 ;;  grs             4   26[BANK0 ] unsigned long 
  9303 ;;  rem             4   19[BANK0 ] unsigned long 
  9304 ;;  new_exp         2   24[BANK0 ] int 
  9305 ;;  aexp            1   31[BANK0 ] unsigned char 
  9306 ;;  bexp            1   30[BANK0 ] unsigned char 
  9307 ;;  sign            1   23[BANK0 ] unsigned char 
  9308 ;; Return value:  Size  Location     Type
  9309 ;;                  4    6[BANK0 ] unsigned char 
  9310 ;; Registers used:
  9311 ;;		wreg, status,2, status,0, btemp+1
  9312 ;; Tracked objects:
  9313 ;;		On entry : 0/0
  9314 ;;		On exit  : 0/0
  9315 ;;		Unchanged: 0/0
  9316 ;; Data sizes:     COMMON   BANK0   BANK1   BANK3   BANK2
  9317 ;;      Params:         0       8       0       0       0
  9318 ;;      Locals:         0      13       0       0       0
  9319 ;;      Temps:          0       5       0       0       0
  9320 ;;      Totals:         0      26       0       0       0
  9321 ;;Total ram usage:       26 bytes
  9322 ;; Hardware stack levels used: 1
  9323 ;; This function calls:
  9324 ;;		Nothing
  9325 ;; This function is called by:
  9326 ;;		_fun
  9327 ;; This function uses a non-reentrant model
  9328 ;;
  9329                           
  9330  1190                     ___fldiv:	
  9331                           ;psect for function ___fldiv
  9332                           
  9333  1190                     l3529:	
  9334                           ;incstack = 0
  9335                           ; Regs used in ___fldiv: [wreg+status,2+status,0+btemp+1]
  9336                           
  9337  1190  1283               	bcf	3,5	;RP0=0, select bank0
  9338  1191  1303               	bcf	3,6	;RP1=0, select bank0
  9339  1192  082D               	movf	___fldiv@b+3,w
  9340  1193  3980               	andlw	128
  9341  1194  00AE               	movwf	??___fldiv
  9342  1195  082E               	movf	??___fldiv,w
  9343  1196  00B7               	movwf	___fldiv@sign
  9344  1197                     l3531:
  9345  1197  082D               	movf	___fldiv@b+3,w
  9346  1198  00AE               	movwf	??___fldiv
  9347  1199  072E               	addwf	??___fldiv,w
  9348  119A  00AF               	movwf	??___fldiv+1
  9349  119B  082F               	movf	??___fldiv+1,w
  9350  119C  00BE               	movwf	___fldiv@bexp
  9351  119D                     l3533:
  9352  119D  1FAC               	btfss	___fldiv@b+2,7
  9353  119E  29A0               	goto	u5731
  9354  119F  29A1               	goto	u5730
  9355  11A0                     u5731:
  9356  11A0  29A2               	goto	l3537
  9357  11A1                     u5730:
  9358  11A1                     l3535:
  9359  11A1  143E               	bsf	___fldiv@bexp,0
  9360  11A2                     l3537:
  9361  11A2  083E               	movf	___fldiv@bexp,w
  9362  11A3  1903               	btfsc	3,2
  9363  11A4  29A6               	goto	u5741
  9364  11A5  29A7               	goto	u5740
  9365  11A6                     u5741:
  9366  11A6  29B7               	goto	l3547
  9367  11A7                     u5740:
  9368  11A7                     l3539:
  9369  11A7  0A3E               	incf	___fldiv@bexp,w
  9370  11A8  1D03               	btfss	3,2
  9371  11A9  29AB               	goto	u5751
  9372  11AA  29AC               	goto	u5750
  9373  11AB                     u5751:
  9374  11AB  29B4               	goto	l3543
  9375  11AC                     u5750:
  9376  11AC                     l3541:
  9377  11AC  3000               	movlw	0
  9378  11AD  00AD               	movwf	___fldiv@b+3
  9379  11AE  3000               	movlw	0
  9380  11AF  00AC               	movwf	___fldiv@b+2
  9381  11B0  3000               	movlw	0
  9382  11B1  00AB               	movwf	___fldiv@b+1
  9383  11B2  3000               	movlw	0
  9384  11B3  00AA               	movwf	___fldiv@b
  9385  11B4                     l3543:
  9386  11B4  17AC               	bsf	___fldiv@b+2,7
  9387  11B5                     l3545:
  9388  11B5  01AD               	clrf	___fldiv@b+3
  9389  11B6  29BF               	goto	l3549
  9390  11B7                     l3547:
  9391  11B7  3000               	movlw	0
  9392  11B8  00AD               	movwf	___fldiv@b+3
  9393  11B9  3000               	movlw	0
  9394  11BA  00AC               	movwf	___fldiv@b+2
  9395  11BB  3000               	movlw	0
  9396  11BC  00AB               	movwf	___fldiv@b+1
  9397  11BD  3000               	movlw	0
  9398  11BE  00AA               	movwf	___fldiv@b
  9399  11BF                     l3549:
  9400  11BF  0829               	movf	___fldiv@a+3,w
  9401  11C0  3980               	andlw	128
  9402  11C1  00AE               	movwf	??___fldiv
  9403  11C2  082E               	movf	??___fldiv,w
  9404  11C3  06B7               	xorwf	___fldiv@sign,f
  9405  11C4                     l3551:
  9406  11C4  0829               	movf	___fldiv@a+3,w
  9407  11C5  00AE               	movwf	??___fldiv
  9408  11C6  072E               	addwf	??___fldiv,w
  9409  11C7  00AF               	movwf	??___fldiv+1
  9410  11C8  082F               	movf	??___fldiv+1,w
  9411  11C9  00BF               	movwf	___fldiv@aexp
  9412  11CA                     l3553:
  9413  11CA  1FA8               	btfss	___fldiv@a+2,7
  9414  11CB  29CD               	goto	u5761
  9415  11CC  29CE               	goto	u5760
  9416  11CD                     u5761:
  9417  11CD  29CF               	goto	l3557
  9418  11CE                     u5760:
  9419  11CE                     l3555:
  9420  11CE  143F               	bsf	___fldiv@aexp,0
  9421  11CF                     l3557:
  9422  11CF  083F               	movf	___fldiv@aexp,w
  9423  11D0  1903               	btfsc	3,2
  9424  11D1  29D3               	goto	u5771
  9425  11D2  29D4               	goto	u5770
  9426  11D3                     u5771:
  9427  11D3  29E4               	goto	l3567
  9428  11D4                     u5770:
  9429  11D4                     l3559:
  9430  11D4  0A3F               	incf	___fldiv@aexp,w
  9431  11D5  1D03               	btfss	3,2
  9432  11D6  29D8               	goto	u5781
  9433  11D7  29D9               	goto	u5780
  9434  11D8                     u5781:
  9435  11D8  29E1               	goto	l3563
  9436  11D9                     u5780:
  9437  11D9                     l3561:
  9438  11D9  3000               	movlw	0
  9439  11DA  00A9               	movwf	___fldiv@a+3
  9440  11DB  3000               	movlw	0
  9441  11DC  00A8               	movwf	___fldiv@a+2
  9442  11DD  3000               	movlw	0
  9443  11DE  00A7               	movwf	___fldiv@a+1
  9444  11DF  3000               	movlw	0
  9445  11E0  00A6               	movwf	___fldiv@a
  9446  11E1                     l3563:
  9447  11E1  17A8               	bsf	___fldiv@a+2,7
  9448  11E2                     l3565:
  9449  11E2  01A9               	clrf	___fldiv@a+3
  9450  11E3  29EC               	goto	l687
  9451  11E4                     l3567:
  9452  11E4  3000               	movlw	0
  9453  11E5  00A9               	movwf	___fldiv@a+3
  9454  11E6  3000               	movlw	0
  9455  11E7  00A8               	movwf	___fldiv@a+2
  9456  11E8  3000               	movlw	0
  9457  11E9  00A7               	movwf	___fldiv@a+1
  9458  11EA  3000               	movlw	0
  9459  11EB  00A6               	movwf	___fldiv@a
  9460  11EC                     l687:
  9461  11EC  0829               	movf	___fldiv@a+3,w
  9462  11ED  0428               	iorwf	___fldiv@a+2,w
  9463  11EE  0427               	iorwf	___fldiv@a+1,w
  9464  11EF  0426               	iorwf	___fldiv@a,w
  9465  11F0  1D03               	skipz
  9466  11F1  29F3               	goto	u5791
  9467  11F2  29F4               	goto	u5790
  9468  11F3                     u5791:
  9469  11F3  2A0D               	goto	l3577
  9470  11F4                     u5790:
  9471  11F4                     l3569:
  9472  11F4  3000               	movlw	0
  9473  11F5  00AD               	movwf	___fldiv@b+3
  9474  11F6  3000               	movlw	0
  9475  11F7  00AC               	movwf	___fldiv@b+2
  9476  11F8  3000               	movlw	0
  9477  11F9  00AB               	movwf	___fldiv@b+1
  9478  11FA  3000               	movlw	0
  9479  11FB  00AA               	movwf	___fldiv@b
  9480  11FC  3080               	movlw	128
  9481  11FD  04AC               	iorwf	___fldiv@b+2,f
  9482  11FE  307F               	movlw	127
  9483  11FF  04AD               	iorwf	___fldiv@b+3,f
  9484  1200                     l3571:
  9485  1200  0837               	movf	___fldiv@sign,w
  9486  1201  00AE               	movwf	??___fldiv
  9487  1202  082E               	movf	??___fldiv,w
  9488  1203  04AD               	iorwf	___fldiv@b+3,f
  9489  1204                     l3573:
  9490  1204  082D               	movf	___fldiv@b+3,w
  9491  1205  00A9               	movwf	?___fldiv+3
  9492  1206  082C               	movf	___fldiv@b+2,w
  9493  1207  00A8               	movwf	?___fldiv+2
  9494  1208  082B               	movf	___fldiv@b+1,w
  9495  1209  00A7               	movwf	?___fldiv+1
  9496  120A  082A               	movf	___fldiv@b,w
  9497  120B  00A6               	movwf	?___fldiv
  9498  120C  2B6C               	goto	l689
  9499  120D                     l3577:
  9500  120D  083E               	movf	___fldiv@bexp,w
  9501  120E  1D03               	btfss	3,2
  9502  120F  2A11               	goto	u5801
  9503  1210  2A12               	goto	u5800
  9504  1211                     u5801:
  9505  1211  2A1B               	goto	l3583
  9506  1212                     u5800:
  9507  1212                     l3579:
  9508  1212  3000               	movlw	0
  9509  1213  00A9               	movwf	?___fldiv+3
  9510  1214  3000               	movlw	0
  9511  1215  00A8               	movwf	?___fldiv+2
  9512  1216  3000               	movlw	0
  9513  1217  00A7               	movwf	?___fldiv+1
  9514  1218  3000               	movlw	0
  9515  1219  00A6               	movwf	?___fldiv
  9516  121A  2B6C               	goto	l689
  9517  121B                     l3583:
  9518  121B  083E               	movf	___fldiv@bexp,w
  9519  121C  00AE               	movwf	??___fldiv
  9520  121D  01AF               	clrf	??___fldiv+1
  9521  121E  082F               	movf	??___fldiv+1,w
  9522  121F  00B1               	movwf	??___fldiv+3
  9523  1220  083F               	movf	___fldiv@aexp,w
  9524  1221  022E               	subwf	??___fldiv,w
  9525  1222  00B0               	movwf	??___fldiv+2
  9526  1223  1C03               	skipc
  9527  1224  03B1               	decf	??___fldiv+3,f
  9528  1225  0830               	movf	??___fldiv+2,w
  9529  1226  3E7F               	addlw	127
  9530  1227  00B8               	movwf	___fldiv@new_exp
  9531  1228  0831               	movf	??___fldiv+3,w
  9532  1229  1803               	skipnc
  9533  122A  3E01               	addlw	1
  9534  122B  3E00               	addlw	0
  9535  122C  00B9               	movwf	___fldiv@new_exp+1
  9536  122D                     l3585:
  9537  122D  082D               	movf	___fldiv@b+3,w
  9538  122E  00B6               	movwf	___fldiv@rem+3
  9539  122F  082C               	movf	___fldiv@b+2,w
  9540  1230  00B5               	movwf	___fldiv@rem+2
  9541  1231  082B               	movf	___fldiv@b+1,w
  9542  1232  00B4               	movwf	___fldiv@rem+1
  9543  1233  082A               	movf	___fldiv@b,w
  9544  1234  00B3               	movwf	___fldiv@rem
  9545  1235                     l3587:
  9546  1235  3000               	movlw	0
  9547  1236  00AD               	movwf	___fldiv@b+3
  9548  1237  3000               	movlw	0
  9549  1238  00AC               	movwf	___fldiv@b+2
  9550  1239  3000               	movlw	0
  9551  123A  00AB               	movwf	___fldiv@b+1
  9552  123B  3000               	movlw	0
  9553  123C  00AA               	movwf	___fldiv@b
  9554  123D                     l3589:
  9555  123D  3000               	movlw	0
  9556  123E  00BD               	movwf	___fldiv@grs+3
  9557  123F  3000               	movlw	0
  9558  1240  00BC               	movwf	___fldiv@grs+2
  9559  1241  3000               	movlw	0
  9560  1242  00BB               	movwf	___fldiv@grs+1
  9561  1243  3000               	movlw	0
  9562  1244  00BA               	movwf	___fldiv@grs
  9563  1245                     l3591:
  9564  1245  01BF               	clrf	___fldiv@aexp
  9565  1246  2A91               	goto	l3611
  9566  1247                     l3593:
  9567  1247  083F               	movf	___fldiv@aexp,w
  9568  1248  1903               	btfsc	3,2
  9569  1249  2A4B               	goto	u5811
  9570  124A  2A4C               	goto	u5810
  9571  124B                     u5811:
  9572  124B  2A6C               	goto	l3603
  9573  124C                     u5810:
  9574  124C                     l3595:
  9575  124C  3001               	movlw	1
  9576  124D  00AE               	movwf	??___fldiv
  9577  124E                     u5825:
  9578  124E  1003               	clrc
  9579  124F  0DB3               	rlf	___fldiv@rem,f
  9580  1250  0DB4               	rlf	___fldiv@rem+1,f
  9581  1251  0DB5               	rlf	___fldiv@rem+2,f
  9582  1252  0DB6               	rlf	___fldiv@rem+3,f
  9583  1253  0BAE               	decfsz	??___fldiv,f
  9584  1254  2A4E               	goto	u5825
  9585  1255  3001               	movlw	1
  9586  1256  00AE               	movwf	??___fldiv
  9587  1257                     u5835:
  9588  1257  1003               	clrc
  9589  1258  0DAA               	rlf	___fldiv@b,f
  9590  1259  0DAB               	rlf	___fldiv@b+1,f
  9591  125A  0DAC               	rlf	___fldiv@b+2,f
  9592  125B  0DAD               	rlf	___fldiv@b+3,f
  9593  125C  0BAE               	decfsz	??___fldiv,f
  9594  125D  2A57               	goto	u5835
  9595  125E                     l3597:
  9596  125E  1FBD               	btfss	___fldiv@grs+3,7
  9597  125F  2A61               	goto	u5841
  9598  1260  2A62               	goto	u5840
  9599  1261                     u5841:
  9600  1261  2A63               	goto	l3601
  9601  1262                     u5840:
  9602  1262                     l3599:
  9603  1262  142A               	bsf	___fldiv@b,0
  9604  1263                     l3601:
  9605  1263  3001               	movlw	1
  9606  1264  00AE               	movwf	??___fldiv
  9607  1265                     u5855:
  9608  1265  1003               	clrc
  9609  1266  0DBA               	rlf	___fldiv@grs,f
  9610  1267  0DBB               	rlf	___fldiv@grs+1,f
  9611  1268  0DBC               	rlf	___fldiv@grs+2,f
  9612  1269  0DBD               	rlf	___fldiv@grs+3,f
  9613  126A  0BAE               	decfsz	??___fldiv,f
  9614  126B  2A65               	goto	u5855
  9615  126C                     l3603:
  9616  126C  0829               	movf	___fldiv@a+3,w
  9617  126D  0236               	subwf	___fldiv@rem+3,w
  9618  126E  1D03               	skipz
  9619  126F  2A7A               	goto	u5865
  9620  1270  0828               	movf	___fldiv@a+2,w
  9621  1271  0235               	subwf	___fldiv@rem+2,w
  9622  1272  1D03               	skipz
  9623  1273  2A7A               	goto	u5865
  9624  1274  0827               	movf	___fldiv@a+1,w
  9625  1275  0234               	subwf	___fldiv@rem+1,w
  9626  1276  1D03               	skipz
  9627  1277  2A7A               	goto	u5865
  9628  1278  0826               	movf	___fldiv@a,w
  9629  1279  0233               	subwf	___fldiv@rem,w
  9630  127A                     u5865:
  9631  127A  1C03               	skipc
  9632  127B  2A7D               	goto	u5861
  9633  127C  2A7E               	goto	u5860
  9634  127D                     u5861:
  9635  127D  2A8D               	goto	l3609
  9636  127E                     u5860:
  9637  127E                     l3605:
  9638  127E  173D               	bsf	___fldiv@grs+3,6
  9639  127F                     l3607:
  9640  127F  0826               	movf	___fldiv@a,w
  9641  1280  02B3               	subwf	___fldiv@rem,f
  9642  1281  0827               	movf	___fldiv@a+1,w
  9643  1282  1C03               	skipc
  9644  1283  0F27               	incfsz	___fldiv@a+1,w
  9645  1284  02B4               	subwf	___fldiv@rem+1,f
  9646  1285  0828               	movf	___fldiv@a+2,w
  9647  1286  1C03               	skipc
  9648  1287  0F28               	incfsz	___fldiv@a+2,w
  9649  1288  02B5               	subwf	___fldiv@rem+2,f
  9650  1289  0829               	movf	___fldiv@a+3,w
  9651  128A  1C03               	skipc
  9652  128B  0F29               	incfsz	___fldiv@a+3,w
  9653  128C  02B6               	subwf	___fldiv@rem+3,f
  9654  128D                     l3609:
  9655  128D  3001               	movlw	1
  9656  128E  00AE               	movwf	??___fldiv
  9657  128F  082E               	movf	??___fldiv,w
  9658  1290  07BF               	addwf	___fldiv@aexp,f
  9659  1291                     l3611:
  9660  1291  301A               	movlw	26
  9661  1292  023F               	subwf	___fldiv@aexp,w
  9662  1293  1C03               	skipc
  9663  1294  2A96               	goto	u5871
  9664  1295  2A97               	goto	u5870
  9665  1296                     u5871:
  9666  1296  2A47               	goto	l3593
  9667  1297                     u5870:
  9668  1297                     l3613:
  9669  1297  0836               	movf	___fldiv@rem+3,w
  9670  1298  0435               	iorwf	___fldiv@rem+2,w
  9671  1299  0434               	iorwf	___fldiv@rem+1,w
  9672  129A  0433               	iorwf	___fldiv@rem,w
  9673  129B  1903               	skipnz
  9674  129C  2A9E               	goto	u5881
  9675  129D  2A9F               	goto	u5880
  9676  129E                     u5881:
  9677  129E  2ABE               	goto	l3627
  9678  129F                     u5880:
  9679  129F                     l3615:
  9680  129F  143A               	bsf	___fldiv@grs,0
  9681  12A0  2ABE               	goto	l3627
  9682  12A1                     l3617:
  9683  12A1  3001               	movlw	1
  9684  12A2  00AE               	movwf	??___fldiv
  9685  12A3                     u5895:
  9686  12A3  1003               	clrc
  9687  12A4  0DAA               	rlf	___fldiv@b,f
  9688  12A5  0DAB               	rlf	___fldiv@b+1,f
  9689  12A6  0DAC               	rlf	___fldiv@b+2,f
  9690  12A7  0DAD               	rlf	___fldiv@b+3,f
  9691  12A8  0BAE               	decfsz	??___fldiv,f
  9692  12A9  2AA3               	goto	u5895
  9693  12AA                     l3619:
  9694  12AA  1FBD               	btfss	___fldiv@grs+3,7
  9695  12AB  2AAD               	goto	u5901
  9696  12AC  2AAE               	goto	u5900
  9697  12AD                     u5901:
  9698  12AD  2AAF               	goto	l3623
  9699  12AE                     u5900:
  9700  12AE                     l3621:
  9701  12AE  142A               	bsf	___fldiv@b,0
  9702  12AF                     l3623:
  9703  12AF  3001               	movlw	1
  9704  12B0  00AE               	movwf	??___fldiv
  9705  12B1                     u5915:
  9706  12B1  1003               	clrc
  9707  12B2  0DBA               	rlf	___fldiv@grs,f
  9708  12B3  0DBB               	rlf	___fldiv@grs+1,f
  9709  12B4  0DBC               	rlf	___fldiv@grs+2,f
  9710  12B5  0DBD               	rlf	___fldiv@grs+3,f
  9711  12B6  0BAE               	decfsz	??___fldiv,f
  9712  12B7  2AB1               	goto	u5915
  9713  12B8                     l3625:
  9714  12B8  30FF               	movlw	255
  9715  12B9  07B8               	addwf	___fldiv@new_exp,f
  9716  12BA  1803               	skipnc
  9717  12BB  0AB9               	incf	___fldiv@new_exp+1,f
  9718  12BC  30FF               	movlw	255
  9719  12BD  07B9               	addwf	___fldiv@new_exp+1,f
  9720  12BE                     l3627:
  9721  12BE  1FAC               	btfss	___fldiv@b+2,7
  9722  12BF  2AC1               	goto	u5921
  9723  12C0  2AC2               	goto	u5920
  9724  12C1                     u5921:
  9725  12C1  2AA1               	goto	l3617
  9726  12C2                     u5920:
  9727  12C2                     l3629:
  9728  12C2  01BF               	clrf	___fldiv@aexp
  9729  12C3                     l3631:
  9730  12C3  1FBD               	btfss	___fldiv@grs+3,7
  9731  12C4  2AC6               	goto	u5931
  9732  12C5  2AC7               	goto	u5930
  9733  12C6                     u5931:
  9734  12C6  2AE3               	goto	l3639
  9735  12C7                     u5930:
  9736  12C7                     l3633:
  9737  12C7  30FF               	movlw	255
  9738  12C8  053A               	andwf	___fldiv@grs,w
  9739  12C9  00AE               	movwf	??___fldiv
  9740  12CA  30FF               	movlw	255
  9741  12CB  053B               	andwf	___fldiv@grs+1,w
  9742  12CC  00AF               	movwf	??___fldiv+1
  9743  12CD  30FF               	movlw	255
  9744  12CE  053C               	andwf	___fldiv@grs+2,w
  9745  12CF  00B0               	movwf	??___fldiv+2
  9746  12D0  307F               	movlw	127
  9747  12D1  053D               	andwf	___fldiv@grs+3,w
  9748  12D2  00B1               	movwf	??___fldiv+3
  9749  12D3  0831               	movf	??___fldiv+3,w
  9750  12D4  0430               	iorwf	??___fldiv+2,w
  9751  12D5  042F               	iorwf	??___fldiv+1,w
  9752  12D6  042E               	iorwf	??___fldiv,w
  9753  12D7  1903               	skipnz
  9754  12D8  2ADA               	goto	u5941
  9755  12D9  2ADB               	goto	u5940
  9756  12DA                     u5941:
  9757  12DA  2ADE               	goto	l703
  9758  12DB                     u5940:
  9759  12DB                     l3635:
  9760  12DB  01BF               	clrf	___fldiv@aexp
  9761  12DC  0ABF               	incf	___fldiv@aexp,f
  9762  12DD  2AE3               	goto	l3639
  9763  12DE                     l703:
  9764  12DE  1C2A               	btfss	___fldiv@b,0
  9765  12DF  2AE1               	goto	u5951
  9766  12E0  2AE2               	goto	u5950
  9767  12E1                     u5951:
  9768  12E1  2AE3               	goto	l3639
  9769  12E2                     u5950:
  9770  12E2  2ADB               	goto	l3635
  9771  12E3                     l3639:
  9772  12E3  083F               	movf	___fldiv@aexp,w
  9773  12E4  1903               	btfsc	3,2
  9774  12E5  2AE7               	goto	u5961
  9775  12E6  2AE8               	goto	u5960
  9776  12E7                     u5961:
  9777  12E7  2B19               	goto	l3649
  9778  12E8                     u5960:
  9779  12E8                     l3641:
  9780  12E8  3001               	movlw	1
  9781  12E9  07AA               	addwf	___fldiv@b,f
  9782  12EA  3000               	movlw	0
  9783  12EB  1803               	skipnc
  9784  12EC  3001               	movlw	1
  9785  12ED  07AB               	addwf	___fldiv@b+1,f
  9786  12EE  3000               	movlw	0
  9787  12EF  1803               	skipnc
  9788  12F0  3001               	movlw	1
  9789  12F1  07AC               	addwf	___fldiv@b+2,f
  9790  12F2  3000               	movlw	0
  9791  12F3  1803               	skipnc
  9792  12F4  3001               	movlw	1
  9793  12F5  07AD               	addwf	___fldiv@b+3,f
  9794  12F6                     l3643:
  9795  12F6  1C2D               	btfss	___fldiv@b+3,0
  9796  12F7  2AF9               	goto	u5971
  9797  12F8  2AFA               	goto	u5970
  9798  12F9                     u5971:
  9799  12F9  2B19               	goto	l3649
  9800  12FA                     u5970:
  9801  12FA                     l3645:
  9802  12FA  082A               	movf	___fldiv@b,w
  9803  12FB  00AE               	movwf	??___fldiv
  9804  12FC  082B               	movf	___fldiv@b+1,w
  9805  12FD  00AF               	movwf	??___fldiv+1
  9806  12FE  082C               	movf	___fldiv@b+2,w
  9807  12FF  00B0               	movwf	??___fldiv+2
  9808  1300  082D               	movf	___fldiv@b+3,w
  9809  1301  00B1               	movwf	??___fldiv+3
  9810  1302  3001               	movlw	1
  9811  1303  00B2               	movwf	??___fldiv+4
  9812  1304                     u5985:
  9813  1304  0D31               	rlf	??___fldiv+3,w
  9814  1305  0CB1               	rrf	??___fldiv+3,f
  9815  1306  0CB0               	rrf	??___fldiv+2,f
  9816  1307  0CAF               	rrf	??___fldiv+1,f
  9817  1308  0CAE               	rrf	??___fldiv,f
  9818  1309                     u5980:
  9819  1309  0BB2               	decfsz	??___fldiv+4,f
  9820  130A  2B04               	goto	u5985
  9821  130B  0831               	movf	??___fldiv+3,w
  9822  130C  00AD               	movwf	___fldiv@b+3
  9823  130D  0830               	movf	??___fldiv+2,w
  9824  130E  00AC               	movwf	___fldiv@b+2
  9825  130F  082F               	movf	??___fldiv+1,w
  9826  1310  00AB               	movwf	___fldiv@b+1
  9827  1311  082E               	movf	??___fldiv,w
  9828  1312  00AA               	movwf	___fldiv@b
  9829  1313                     l3647:
  9830  1313  3001               	movlw	1
  9831  1314  07B8               	addwf	___fldiv@new_exp,f
  9832  1315  1803               	skipnc
  9833  1316  0AB9               	incf	___fldiv@new_exp+1,f
  9834  1317  3000               	movlw	0
  9835  1318  07B9               	addwf	___fldiv@new_exp+1,f
  9836  1319                     l3649:
  9837  1319  0839               	movf	___fldiv@new_exp+1,w
  9838  131A  3A80               	xorlw	128
  9839  131B  00FF               	movwf	btemp+1
  9840  131C  3080               	movlw	128
  9841  131D  027F               	subwf	btemp+1,w
  9842  131E  1D03               	skipz
  9843  131F  2B22               	goto	u5995
  9844  1320  30FF               	movlw	255
  9845  1321  0238               	subwf	___fldiv@new_exp,w
  9846  1322                     u5995:
  9847  1322  1C03               	skipc
  9848  1323  2B25               	goto	u5991
  9849  1324  2B26               	goto	u5990
  9850  1325                     u5991:
  9851  1325  2B34               	goto	l3653
  9852  1326                     u5990:
  9853  1326                     l3651:
  9854  1326  30FF               	movlw	255
  9855  1327  1283               	bcf	3,5	;RP0=0, select bank0
  9856  1328  1303               	bcf	3,6	;RP1=0, select bank0
  9857  1329  00B8               	movwf	___fldiv@new_exp
  9858  132A  3000               	movlw	0
  9859  132B  00B9               	movwf	___fldiv@new_exp+1
  9860  132C  3000               	movlw	0
  9861  132D  00AD               	movwf	___fldiv@b+3
  9862  132E  3000               	movlw	0
  9863  132F  00AC               	movwf	___fldiv@b+2
  9864  1330  3000               	movlw	0
  9865  1331  00AB               	movwf	___fldiv@b+1
  9866  1332  3000               	movlw	0
  9867  1333  00AA               	movwf	___fldiv@b
  9868  1334                     l3653:
  9869  1334  1283               	bcf	3,5	;RP0=0, select bank0
  9870  1335  1303               	bcf	3,6	;RP1=0, select bank0
  9871  1336  0839               	movf	___fldiv@new_exp+1,w
  9872  1337  3A80               	xorlw	128
  9873  1338  00FF               	movwf	btemp+1
  9874  1339  3080               	movlw	128
  9875  133A  027F               	subwf	btemp+1,w
  9876  133B  1D03               	skipz
  9877  133C  2B3F               	goto	u6005
  9878  133D  3001               	movlw	1
  9879  133E  0238               	subwf	___fldiv@new_exp,w
  9880  133F                     u6005:
  9881  133F  1803               	skipnc
  9882  1340  2B42               	goto	u6001
  9883  1341  2B43               	goto	u6000
  9884  1342                     u6001:
  9885  1342  2B50               	goto	l709
  9886  1343                     u6000:
  9887  1343                     l3655:
  9888  1343  1283               	bcf	3,5	;RP0=0, select bank0
  9889  1344  1303               	bcf	3,6	;RP1=0, select bank0
  9890  1345  01B8               	clrf	___fldiv@new_exp
  9891  1346  01B9               	clrf	___fldiv@new_exp+1
  9892  1347                     l3657:
  9893  1347  3000               	movlw	0
  9894  1348  00AD               	movwf	___fldiv@b+3
  9895  1349  3000               	movlw	0
  9896  134A  00AC               	movwf	___fldiv@b+2
  9897  134B  3000               	movlw	0
  9898  134C  00AB               	movwf	___fldiv@b+1
  9899  134D  3000               	movlw	0
  9900  134E  00AA               	movwf	___fldiv@b
  9901  134F                     l3659:
  9902  134F  01B7               	clrf	___fldiv@sign
  9903  1350                     l709:
  9904  1350  1283               	bcf	3,5	;RP0=0, select bank0
  9905  1351  1303               	bcf	3,6	;RP1=0, select bank0
  9906  1352  0838               	movf	___fldiv@new_exp,w
  9907  1353  00AE               	movwf	??___fldiv
  9908  1354  082E               	movf	??___fldiv,w
  9909  1355  00BE               	movwf	___fldiv@bexp
  9910  1356                     l3661:
  9911  1356  1C3E               	btfss	___fldiv@bexp,0
  9912  1357  2B59               	goto	u6011
  9913  1358  2B5A               	goto	u6010
  9914  1359                     u6011:
  9915  1359  2B5C               	goto	l3665
  9916  135A                     u6010:
  9917  135A                     l3663:
  9918  135A  17AC               	bsf	___fldiv@b+2,7
  9919  135B  2B60               	goto	l711
  9920  135C                     l3665:
  9921  135C  307F               	movlw	127
  9922  135D  00AE               	movwf	??___fldiv
  9923  135E  082E               	movf	??___fldiv,w
  9924  135F  05AC               	andwf	___fldiv@b+2,f
  9925  1360                     l711:
  9926  1360  083E               	movf	___fldiv@bexp,w
  9927  1361  00AE               	movwf	??___fldiv
  9928  1362  1003               	clrc
  9929  1363  0C2E               	rrf	??___fldiv,w
  9930  1364  00AF               	movwf	??___fldiv+1
  9931  1365  082F               	movf	??___fldiv+1,w
  9932  1366  00AD               	movwf	___fldiv@b+3
  9933  1367  0837               	movf	___fldiv@sign,w
  9934  1368  00AE               	movwf	??___fldiv
  9935  1369  082E               	movf	??___fldiv,w
  9936  136A  04AD               	iorwf	___fldiv@b+3,f
  9937  136B  2A04               	goto	l3573
  9938  136C                     l689:
  9939  136C  0008               	return
  9940  136D                     __end_of___fldiv:
  9941                           
  9942                           	psect	text26
  9943  1F0C                     __ptext26:	
  9944 ;; *************** function _LCDWriteString *****************
  9945 ;; Defined at:
  9946 ;;		line 251 in file "lcd_hd44780_pic16.c"
  9947 ;; Parameters:    Size  Location     Type
  9948 ;;  msg             2   12[COMMON] PTR const unsigned char 
  9949 ;;		 -> STR_2(15), text(10), 
  9950 ;; Auto vars:     Size  Location     Type
  9951 ;;  cc              1    1[BANK0 ] char 
  9952 ;; Return value:  Size  Location     Type
  9953 ;;                  1    wreg      void 
  9954 ;; Registers used:
  9955 ;;		wreg, fsr0l, fsr0h, status,2, status,0, btemp+1, pclath, cstack
  9956 ;; Tracked objects:
  9957 ;;		On entry : 0/0
  9958 ;;		On exit  : 0/0
  9959 ;;		Unchanged: 0/0
  9960 ;; Data sizes:     COMMON   BANK0   BANK1   BANK3   BANK2
  9961 ;;      Params:         2       0       0       0       0
  9962 ;;      Locals:         0       1       0       0       0
  9963 ;;      Temps:          0       1       0       0       0
  9964 ;;      Totals:         2       2       0       0       0
  9965 ;;Total ram usage:        4 bytes
  9966 ;; Hardware stack levels used: 1
  9967 ;; Hardware stack levels required when called: 2
  9968 ;; This function calls:
  9969 ;;		_LCDByte
  9970 ;; This function is called by:
  9971 ;;		_fun
  9972 ;;		_main
  9973 ;; This function uses a non-reentrant model
  9974 ;;
  9975                           
  9976  1F0C                     _LCDWriteString:	
  9977                           ;psect for function _LCDWriteString
  9978                           
  9979  1F0C                     l3505:	
  9980                           ;incstack = 0
  9981                           ; Regs used in _LCDWriteString: [wreg-fsr0h+status,2+status,0+btemp+1+pclath+cstack]
  9982                           
  9983                           
  9984                           ;lcd_hd44780_pic16.c: 251: void LCDWriteString(const char *msg);lcd_hd44780_pic16.c: 252
      +                          : {;lcd_hd44780_pic16.c: 281:  while(*msg!='\0')
  9985  1F0C  2F73               	goto	l3527
  9986  1F0D                     l3507:
  9987                           
  9988                           ;lcd_hd44780_pic16.c: 282:  {;lcd_hd44780_pic16.c: 284:  if(*msg=='%')
  9989  1F0D  087D               	movf	LCDWriteString@msg+1,w
  9990  1F0E  00FF               	movwf	btemp+1
  9991  1F0F  087C               	movf	LCDWriteString@msg,w
  9992  1F10  0084               	movwf	4
  9993  1F11  160A  118A  2000  160A  158A  	fcall	stringtab
  9994  1F16  3A25               	xorlw	37
  9995  1F17  1D03               	skipz
  9996  1F18  2F1A               	goto	u5691
  9997  1F19  2F1B               	goto	u5690
  9998  1F1A                     u5691:
  9999  1F1A  2F5D               	goto	l3523
 10000  1F1B                     u5690:
 10001  1F1B                     l3509:
 10002                           
 10003                           ;lcd_hd44780_pic16.c: 285:  {;lcd_hd44780_pic16.c: 286:   msg++;
 10004  1F1B  3001               	movlw	1
 10005  1F1C  07FC               	addwf	LCDWriteString@msg,f
 10006  1F1D  1803               	skipnc
 10007  1F1E  0AFD               	incf	LCDWriteString@msg+1,f
 10008  1F1F  3000               	movlw	0
 10009  1F20  07FD               	addwf	LCDWriteString@msg+1,f
 10010  1F21                     l3511:
 10011                           
 10012                           ;lcd_hd44780_pic16.c: 287:   int8_t cc=*msg-'0';
 10013  1F21  087D               	movf	LCDWriteString@msg+1,w
 10014  1F22  00FF               	movwf	btemp+1
 10015  1F23  087C               	movf	LCDWriteString@msg,w
 10016  1F24  0084               	movwf	4
 10017  1F25  160A  118A  2000  160A  158A  	fcall	stringtab
 10018  1F2A  3ED0               	addlw	-48
 10019  1F2B  00A0               	movwf	??_LCDWriteString
 10020  1F2C  0820               	movf	??_LCDWriteString,w
 10021  1F2D  00A1               	movwf	LCDWriteString@cc
 10022  1F2E                     l3513:
 10023                           
 10024                           ;lcd_hd44780_pic16.c: 289:   if(cc>=0 && cc<=7)
 10025  1F2E  1BA1               	btfsc	LCDWriteString@cc,7
 10026  1F2F  2F31               	goto	u5701
 10027  1F30  2F32               	goto	u5700
 10028  1F31                     u5701:
 10029  1F31  2F42               	goto	l3519
 10030  1F32                     u5700:
 10031  1F32                     l3515:
 10032  1F32  0821               	movf	LCDWriteString@cc,w
 10033  1F33  3A80               	xorlw	128
 10034  1F34  3E78               	addlw	-136
 10035  1F35  1803               	skipnc
 10036  1F36  2F38               	goto	u5711
 10037  1F37  2F39               	goto	u5710
 10038  1F38                     u5711:
 10039  1F38  2F42               	goto	l3519
 10040  1F39                     u5710:
 10041  1F39                     l3517:
 10042                           
 10043                           ;lcd_hd44780_pic16.c: 290:   {;lcd_hd44780_pic16.c: 291:    (LCDByte(cc,1));
 10044  1F39  01F5               	clrf	LCDByte@isdata
 10045  1F3A  0AF5               	incf	LCDByte@isdata,f
 10046  1F3B  0821               	movf	LCDWriteString@cc,w
 10047  1F3C  160A  158A  243A  160A  158A  	fcall	_LCDByte
 10048                           
 10049                           ;lcd_hd44780_pic16.c: 292:   }
 10050  1F41  2F6D               	goto	l3525
 10051  1F42                     l3519:
 10052                           
 10053                           ;lcd_hd44780_pic16.c: 294:   {;lcd_hd44780_pic16.c: 295:    (LCDByte('%',1));
 10054  1F42  01F5               	clrf	LCDByte@isdata
 10055  1F43  0AF5               	incf	LCDByte@isdata,f
 10056  1F44  3025               	movlw	37
 10057  1F45  160A  158A  243A  160A  158A  	fcall	_LCDByte
 10058  1F4A                     l3521:
 10059                           
 10060                           ;lcd_hd44780_pic16.c: 296:    (LCDByte(*msg,1));
 10061  1F4A  01F5               	clrf	LCDByte@isdata
 10062  1F4B  0AF5               	incf	LCDByte@isdata,f
 10063  1F4C  087D               	movf	LCDWriteString@msg+1,w
 10064  1F4D  1283               	bcf	3,5	;RP0=0, select bank0
 10065  1F4E  1303               	bcf	3,6	;RP1=0, select bank0
 10066  1F4F  00FF               	movwf	btemp+1
 10067  1F50  087C               	movf	LCDWriteString@msg,w
 10068  1F51  0084               	movwf	4
 10069  1F52  160A  118A  2000  160A  158A  	fcall	stringtab
 10070  1F57  160A  158A  243A  160A  158A  	fcall	_LCDByte
 10071  1F5C  2F6D               	goto	l3525
 10072  1F5D                     l3523:
 10073                           
 10074                           ;lcd_hd44780_pic16.c: 300:  {;lcd_hd44780_pic16.c: 301:   (LCDByte(*msg,1));
 10075  1F5D  01F5               	clrf	LCDByte@isdata
 10076  1F5E  0AF5               	incf	LCDByte@isdata,f
 10077  1F5F  087D               	movf	LCDWriteString@msg+1,w
 10078  1F60  00FF               	movwf	btemp+1
 10079  1F61  087C               	movf	LCDWriteString@msg,w
 10080  1F62  0084               	movwf	4
 10081  1F63  160A  118A  2000  160A  158A  	fcall	stringtab
 10082  1F68  160A  158A  243A  160A  158A  	fcall	_LCDByte
 10083  1F6D                     l3525:
 10084                           
 10085                           ;lcd_hd44780_pic16.c: 303:  msg++;
 10086  1F6D  3001               	movlw	1
 10087  1F6E  07FC               	addwf	LCDWriteString@msg,f
 10088  1F6F  1803               	skipnc
 10089  1F70  0AFD               	incf	LCDWriteString@msg+1,f
 10090  1F71  3000               	movlw	0
 10091  1F72  07FD               	addwf	LCDWriteString@msg+1,f
 10092  1F73                     l3527:
 10093                           
 10094                           ;lcd_hd44780_pic16.c: 281:  while(*msg!='\0')
 10095  1F73  087D               	movf	LCDWriteString@msg+1,w
 10096  1F74  1283               	bcf	3,5	;RP0=0, select bank0
 10097  1F75  1303               	bcf	3,6	;RP1=0, select bank0
 10098  1F76  00FF               	movwf	btemp+1
 10099  1F77  087C               	movf	LCDWriteString@msg,w
 10100  1F78  0084               	movwf	4
 10101  1F79  160A  118A  2000  160A  158A  	fcall	stringtab
 10102  1F7E  3A00               	xorlw	0
 10103  1F7F  1D03               	skipz
 10104  1F80  2F82               	goto	u5721
 10105  1F81  2F83               	goto	u5720
 10106  1F82                     u5721:
 10107  1F82  2F0D               	goto	l3507
 10108  1F83                     u5720:
 10109  1F83                     l99:
 10110  1F83  0008               	return
 10111  1F84                     __end_of_LCDWriteString:
 10112                           
 10113                           	psect	text27
 10114  1B47                     __ptext27:	
 10115 ;; *************** function _LCDGotoXY *****************
 10116 ;; Defined at:
 10117 ;;		line 352 in file "lcd_hd44780_pic16.c"
 10118 ;; Parameters:    Size  Location     Type
 10119 ;;  x               1    wreg     unsigned char 
 10120 ;;  y               1   12[COMMON] unsigned char 
 10121 ;; Auto vars:     Size  Location     Type
 10122 ;;  x               1   13[COMMON] unsigned char 
 10123 ;; Return value:  Size  Location     Type
 10124 ;;                  1    wreg      void 
 10125 ;; Registers used:
 10126 ;;		wreg, fsr0l, fsr0h, status,2, status,0, pclath, cstack
 10127 ;; Tracked objects:
 10128 ;;		On entry : 0/0
 10129 ;;		On exit  : 0/0
 10130 ;;		Unchanged: 0/0
 10131 ;; Data sizes:     COMMON   BANK0   BANK1   BANK3   BANK2
 10132 ;;      Params:         1       0       0       0       0
 10133 ;;      Locals:         1       0       0       0       0
 10134 ;;      Temps:          0       2       0       0       0
 10135 ;;      Totals:         2       2       0       0       0
 10136 ;;Total ram usage:        4 bytes
 10137 ;; Hardware stack levels used: 1
 10138 ;; Hardware stack levels required when called: 2
 10139 ;; This function calls:
 10140 ;;		_LCDByte
 10141 ;; This function is called by:
 10142 ;;		_fun
 10143 ;;		_main
 10144 ;; This function uses a non-reentrant model
 10145 ;;
 10146                           
 10147  1B47                     _LCDGotoXY:	
 10148                           ;psect for function _LCDGotoXY
 10149                           
 10150                           
 10151                           ;incstack = 0
 10152                           ; Regs used in _LCDGotoXY: [wreg-fsr0h+status,2+status,0+pclath+cstack]
 10153                           ;LCDGotoXY@x stored from wreg
 10154  1B47  00FD               	movwf	LCDGotoXY@x
 10155  1B48                     l3279:
 10156                           
 10157                           ;lcd_hd44780_pic16.c: 352: void LCDGotoXY(uint8_t x,uint8_t y);lcd_hd44780_pic16.c: 353:
      +                           {;lcd_hd44780_pic16.c: 354:   if(x>=20) return;
 10158  1B48  3014               	movlw	20
 10159  1B49  027D               	subwf	LCDGotoXY@x,w
 10160  1B4A  1C03               	skipc
 10161  1B4B  2B4D               	goto	u5331
 10162  1B4C  2B4E               	goto	u5330
 10163  1B4D                     u5331:
 10164  1B4D  2B5B               	goto	l3289
 10165  1B4E                     u5330:
 10166  1B4E  2B7B               	goto	l119
 10167  1B4F                     l123:	
 10168                           ;lcd_hd44780_pic16.c: 362:   case 1:
 10169                           
 10170                           
 10171                           ;lcd_hd44780_pic16.c: 363:    x|=0b01000000;
 10172  1B4F  177D               	bsf	LCDGotoXY@x,6
 10173                           
 10174                           ;lcd_hd44780_pic16.c: 364:    break;
 10175  1B50  2B73               	goto	l122
 10176  1B51                     l3283:
 10177                           
 10178                           ;lcd_hd44780_pic16.c: 366:    x+=0x14;
 10179  1B51  3014               	movlw	20
 10180  1B52  00A0               	movwf	??_LCDGotoXY
 10181  1B53  0820               	movf	??_LCDGotoXY,w
 10182  1B54  07FD               	addwf	LCDGotoXY@x,f
 10183                           
 10184                           ;lcd_hd44780_pic16.c: 367:    break;
 10185  1B55  2B73               	goto	l122
 10186  1B56                     l3285:
 10187                           
 10188                           ;lcd_hd44780_pic16.c: 369:    x+=0x54;
 10189  1B56  3054               	movlw	84
 10190  1B57  00A0               	movwf	??_LCDGotoXY
 10191  1B58  0820               	movf	??_LCDGotoXY,w
 10192  1B59  07FD               	addwf	LCDGotoXY@x,f
 10193                           
 10194                           ;lcd_hd44780_pic16.c: 370:    break;
 10195  1B5A  2B73               	goto	l122
 10196  1B5B                     l3289:
 10197  1B5B  087C               	movf	LCDGotoXY@y,w
 10198  1B5C  1283               	bcf	3,5	;RP0=0, select bank0
 10199  1B5D  1303               	bcf	3,6	;RP1=0, select bank0
 10200  1B5E  00A0               	movwf	??_LCDGotoXY
 10201  1B5F  01A1               	clrf	??_LCDGotoXY+1
 10202                           
 10203                           ; Switch on 2 bytes has been partitioned into a top level switch of size 1, and 1 sub-sw
      +                          itches
 10204                           ; Switch size 1, requested type "simple"
 10205                           ; Number of cases is 1, Range of values is 0 to 0
 10206                           ; switch strategies available:
 10207                           ; Name         Instructions Cycles
 10208                           ; simple_byte            4     3 (average)
 10209                           ; direct_byte           11     8 (fixed)
 10210                           ; jumptable            260     6 (fixed)
 10211                           ;	Chosen strategy is simple_byte
 10212  1B60  0821               	movf	??_LCDGotoXY+1,w
 10213  1B61  3A00               	xorlw	0	; case 0
 10214  1B62  1903               	skipnz
 10215  1B63  2B65               	goto	l3847
 10216  1B64  2B73               	goto	l122
 10217  1B65                     l3847:
 10218                           
 10219                           ; Switch size 1, requested type "simple"
 10220                           ; Number of cases is 4, Range of values is 0 to 3
 10221                           ; switch strategies available:
 10222                           ; Name         Instructions Cycles
 10223                           ; simple_byte           13     7 (average)
 10224                           ; direct_byte           20     8 (fixed)
 10225                           ; jumptable            260     6 (fixed)
 10226                           ;	Chosen strategy is simple_byte
 10227  1B65  0820               	movf	??_LCDGotoXY,w
 10228  1B66  3A00               	xorlw	0	; case 0
 10229  1B67  1903               	skipnz
 10230  1B68  2B73               	goto	l122
 10231  1B69  3A01               	xorlw	1	; case 1
 10232  1B6A  1903               	skipnz
 10233  1B6B  2B4F               	goto	l123
 10234  1B6C  3A03               	xorlw	3	; case 2
 10235  1B6D  1903               	skipnz
 10236  1B6E  2B51               	goto	l3283
 10237  1B6F  3A01               	xorlw	1	; case 3
 10238  1B70  1903               	skipnz
 10239  1B71  2B56               	goto	l3285
 10240  1B72  2B73               	goto	l122
 10241  1B73                     l122:
 10242                           
 10243                           ;lcd_hd44780_pic16.c: 393:  x|=0b10000000;
 10244  1B73  17FD               	bsf	LCDGotoXY@x,7
 10245  1B74                     l3291:
 10246                           
 10247                           ;lcd_hd44780_pic16.c: 394:    (LCDByte(x,0));
 10248  1B74  01F5               	clrf	LCDByte@isdata
 10249  1B75  087D               	movf	LCDGotoXY@x,w
 10250  1B76  160A  158A  243A  160A  158A  	fcall	_LCDByte
 10251  1B7B                     l119:
 10252  1B7B  0008               	return
 10253  1B7C                     __end_of_LCDGotoXY:
 10254                           
 10255                           	psect	text28
 10256  1DD9                     __ptext28:	
 10257 ;; *************** function _LCDInit *****************
 10258 ;; Defined at:
 10259 ;;		line 193 in file "lcd_hd44780_pic16.c"
 10260 ;; Parameters:    Size  Location     Type
 10261 ;;  style           1    wreg     unsigned char 
 10262 ;; Auto vars:     Size  Location     Type
 10263 ;;  style           1    0[BANK0 ] unsigned char 
 10264 ;;  __i             1    1[BANK0 ] unsigned char 
 10265 ;; Return value:  Size  Location     Type
 10266 ;;                  1    wreg      void 
 10267 ;; Registers used:
 10268 ;;		wreg, fsr0l, fsr0h, status,2, status,0, pclath, cstack
 10269 ;; Tracked objects:
 10270 ;;		On entry : 0/0
 10271 ;;		On exit  : 0/0
 10272 ;;		Unchanged: 0/0
 10273 ;; Data sizes:     COMMON   BANK0   BANK1   BANK3   BANK2
 10274 ;;      Params:         0       0       0       0       0
 10275 ;;      Locals:         0       2       0       0       0
 10276 ;;      Temps:          2       0       0       0       0
 10277 ;;      Totals:         2       2       0       0       0
 10278 ;;Total ram usage:        4 bytes
 10279 ;; Hardware stack levels used: 1
 10280 ;; Hardware stack levels required when called: 2
 10281 ;; This function calls:
 10282 ;;		_LCDBusyLoop
 10283 ;;		_LCDByte
 10284 ;; This function is called by:
 10285 ;;		_main
 10286 ;; This function uses a non-reentrant model
 10287 ;;
 10288                           
 10289  1DD9                     _LCDInit:	
 10290                           ;psect for function _LCDInit
 10291                           
 10292                           
 10293                           ;incstack = 0
 10294                           ; Regs used in _LCDInit: [wreg-fsr0h+status,2+status,0+pclath+cstack]
 10295                           ;LCDInit@style stored from wreg
 10296  1DD9  1283               	bcf	3,5	;RP0=0, select bank0
 10297  1DDA  1303               	bcf	3,6	;RP1=0, select bank0
 10298  1DDB  00A0               	movwf	LCDInit@style
 10299  1DDC                     l3681:
 10300                           
 10301                           ;lcd_hd44780_pic16.c: 193: void LCDInit(uint8_t style);lcd_hd44780_pic16.c: 194: {;lcd_h
      +                          d44780_pic16.c: 209:  _delay((unsigned long)((30)*(20000000/4000.0)));
 10302  1DDC  30C3               	movlw	195
 10303  1DDD  00FD               	movwf	??_LCDInit+1
 10304  1DDE  30CD               	movlw	205
 10305  1DDF  00FC               	movwf	??_LCDInit
 10306  1DE0                     u6127:
 10307  1DE0  0BFC               	decfsz	??_LCDInit,f
 10308  1DE1  2DE0               	goto	u6127
 10309  1DE2  0BFD               	decfsz	??_LCDInit+1,f
 10310  1DE3  2DE0               	goto	u6127
 10311  1DE4                     l3683:
 10312                           
 10313                           ;lcd_hd44780_pic16.c: 212:  TRISD&=(~(0x0F<<0));
 10314  1DE4  30F0               	movlw	240
 10315  1DE5  00FC               	movwf	??_LCDInit
 10316  1DE6  087C               	movf	??_LCDInit,w
 10317  1DE7  1683               	bsf	3,5	;RP0=1, select bank1
 10318  1DE8  1303               	bcf	3,6	;RP1=0, select bank1
 10319  1DE9  0588               	andwf	8,f	;volatile
 10320  1DEA                     l3685:
 10321                           
 10322                           ;lcd_hd44780_pic16.c: 214:         TRISDbits.TRISD6=0;
 10323  1DEA  1308               	bcf	8,6	;volatile
 10324  1DEB                     l3687:
 10325                           
 10326                           ;lcd_hd44780_pic16.c: 215:         TRISDbits.TRISD4=0;
 10327  1DEB  1208               	bcf	8,4	;volatile
 10328  1DEC                     l3689:
 10329                           
 10330                           ;lcd_hd44780_pic16.c: 216:         TRISDbits.TRISD5=0;
 10331  1DEC  1288               	bcf	8,5	;volatile
 10332  1DED                     l3691:
 10333                           
 10334                           ;lcd_hd44780_pic16.c: 218:  PORTD&=(~(0x0F<<0));
 10335  1DED  30F0               	movlw	240
 10336  1DEE  00FC               	movwf	??_LCDInit
 10337  1DEF  087C               	movf	??_LCDInit,w
 10338  1DF0  1283               	bcf	3,5	;RP0=0, select bank0
 10339  1DF1  1303               	bcf	3,6	;RP1=0, select bank0
 10340  1DF2  0588               	andwf	8,f	;volatile
 10341  1DF3                     l3693:
 10342                           
 10343                           ;lcd_hd44780_pic16.c: 220:         (RD6=0);
 10344  1DF3  1308               	bcf	8,6	;volatile
 10345  1DF4                     l3695:
 10346                           
 10347                           ;lcd_hd44780_pic16.c: 221:  (RD5=0);
 10348  1DF4  1288               	bcf	8,5	;volatile
 10349  1DF5                     l3697:
 10350                           
 10351                           ;lcd_hd44780_pic16.c: 222:  (RD4=0);
 10352  1DF5  1208               	bcf	8,4	;volatile
 10353  1DF6                     l3699:
 10354                           
 10355                           ;lcd_hd44780_pic16.c: 225:  _delay((unsigned long)((0.5)*(20000000/4000000.0)));
 10356  1DF6  2DF7               	nop2	;2 cycle nop
 10357  1DF7                     l3701:
 10358                           
 10359                           ;lcd_hd44780_pic16.c: 227:  (RD6=1);
 10360  1DF7  1283               	bcf	3,5	;RP0=0, select bank0
 10361  1DF8  1303               	bcf	3,6	;RP1=0, select bank0
 10362  1DF9  1708               	bsf	8,6	;volatile
 10363  1DFA                     l3703:
 10364                           
 10365                           ;lcd_hd44780_pic16.c: 228:  PORTD|=((0b00000010)<<0);
 10366  1DFA  1488               	bsf	8,1	;volatile
 10367  1DFB                     l3705:
 10368                           
 10369                           ;lcd_hd44780_pic16.c: 229:  _delay((unsigned long)((1)*(20000000/4000000.0)));
 10370  1DFB  2DFC               	nop2	;2 cycle nop
 10371  1DFC  2DFD               	nop2	;2 cycle nop
 10372  1DFD  0000               	nop
 10373  1DFE                     l3707:
 10374                           
 10375                           ;lcd_hd44780_pic16.c: 230:  (RD6=0);
 10376  1DFE  1283               	bcf	3,5	;RP0=0, select bank0
 10377  1DFF  1303               	bcf	3,6	;RP1=0, select bank0
 10378  1E00  1308               	bcf	8,6	;volatile
 10379  1E01                     l3709:
 10380                           
 10381                           ;lcd_hd44780_pic16.c: 231:  _delay((unsigned long)((1)*(20000000/4000000.0)));
 10382  1E01  2E02               	nop2	;2 cycle nop
 10383  1E02  2E03               	nop2	;2 cycle nop
 10384  1E03  0000               	nop
 10385  1E04                     l3711:
 10386                           
 10387                           ;lcd_hd44780_pic16.c: 234:  LCDBusyLoop();
 10388  1E04  160A  158A  2529  160A  158A  	fcall	_LCDBusyLoop
 10389  1E09                     l3713:
 10390                           
 10391                           ;lcd_hd44780_pic16.c: 239:  (LCDByte(0b00101000,0));
 10392  1E09  01F5               	clrf	LCDByte@isdata
 10393  1E0A  3028               	movlw	40
 10394  1E0B  160A  158A  243A  160A  158A  	fcall	_LCDByte
 10395  1E10                     l3715:
 10396                           
 10397                           ;lcd_hd44780_pic16.c: 240:         (LCDByte(0b00001100|style,0));
 10398  1E10  01F5               	clrf	LCDByte@isdata
 10399  1E11  1283               	bcf	3,5	;RP0=0, select bank0
 10400  1E12  1303               	bcf	3,6	;RP1=0, select bank0
 10401  1E13  0820               	movf	LCDInit@style,w
 10402  1E14  380C               	iorlw	12
 10403  1E15  160A  158A  243A  160A  158A  	fcall	_LCDByte
 10404  1E1A                     l3717:
 10405                           
 10406                           ;lcd_hd44780_pic16.c: 243:         (LCDByte(0b01000000,0));
 10407  1E1A  01F5               	clrf	LCDByte@isdata
 10408  1E1B  3040               	movlw	64
 10409  1E1C  160A  158A  243A  160A  158A  	fcall	_LCDByte
 10410  1E21                     l3719:
 10411                           
 10412                           ;lcd_hd44780_pic16.c: 245:  uint8_t __i;;lcd_hd44780_pic16.c: 246:  for(__i=0;__i<sizeof
      +                          (__cgram);__i++)
 10413  1E21  1283               	bcf	3,5	;RP0=0, select bank0
 10414  1E22  1303               	bcf	3,6	;RP1=0, select bank0
 10415  1E23  01A1               	clrf	LCDInit@__i
 10416  1E24                     l3725:
 10417                           
 10418                           ;lcd_hd44780_pic16.c: 247:   (LCDByte(__cgram[__i],1));
 10419  1E24  01F5               	clrf	LCDByte@isdata
 10420  1E25  0AF5               	incf	LCDByte@isdata,f
 10421  1E26  0821               	movf	LCDInit@__i,w
 10422  1E27  3E90               	addlw	(low (___cgram| (0+256)))& (0+255)
 10423  1E28  0084               	movwf	4
 10424  1E29  1783               	bsf	3,7	;select IRP bank3
 10425  1E2A  0800               	movf	0,w
 10426  1E2B  160A  158A  243A  160A  158A  	fcall	_LCDByte
 10427  1E30                     l3727:
 10428  1E30  3001               	movlw	1
 10429  1E31  00FC               	movwf	??_LCDInit
 10430  1E32  087C               	movf	??_LCDInit,w
 10431  1E33  1283               	bcf	3,5	;RP0=0, select bank0
 10432  1E34  1303               	bcf	3,6	;RP1=0, select bank0
 10433  1E35  07A1               	addwf	LCDInit@__i,f
 10434  1E36                     l3729:
 10435  1E36  3040               	movlw	64
 10436  1E37  0221               	subwf	LCDInit@__i,w
 10437  1E38  1C03               	skipc
 10438  1E39  2E3B               	goto	u6021
 10439  1E3A  2E3C               	goto	u6020
 10440  1E3B                     u6021:
 10441  1E3B  2E24               	goto	l3725
 10442  1E3C                     u6020:
 10443  1E3C                     l89:
 10444  1E3C  0008               	return
 10445  1E3D                     __end_of_LCDInit:
 10446                           
 10447                           	psect	text29
 10448  1C3A                     __ptext29:	
 10449 ;; *************** function _LCDByte *****************
 10450 ;; Defined at:
 10451 ;;		line 80 in file "lcd_hd44780_pic16.c"
 10452 ;; Parameters:    Size  Location     Type
 10453 ;;  c               1    wreg     unsigned char 
 10454 ;;  isdata          1    5[COMMON] unsigned char 
 10455 ;; Auto vars:     Size  Location     Type
 10456 ;;  c               1   10[COMMON] unsigned char 
 10457 ;;  temp            1   11[COMMON] unsigned char 
 10458 ;;  ln              1    9[COMMON] unsigned char 
 10459 ;;  hn              1    8[COMMON] unsigned char 
 10460 ;; Return value:  Size  Location     Type
 10461 ;;                  1    wreg      void 
 10462 ;; Registers used:
 10463 ;;		wreg, status,2, status,0, pclath, cstack
 10464 ;; Tracked objects:
 10465 ;;		On entry : 0/0
 10466 ;;		On exit  : 0/0
 10467 ;;		Unchanged: 0/0
 10468 ;; Data sizes:     COMMON   BANK0   BANK1   BANK3   BANK2
 10469 ;;      Params:         1       0       0       0       0
 10470 ;;      Locals:         4       0       0       0       0
 10471 ;;      Temps:          2       0       0       0       0
 10472 ;;      Totals:         7       0       0       0       0
 10473 ;;Total ram usage:        7 bytes
 10474 ;; Hardware stack levels used: 1
 10475 ;; Hardware stack levels required when called: 1
 10476 ;; This function calls:
 10477 ;;		_LCDBusyLoop
 10478 ;; This function is called by:
 10479 ;;		_LCDInit
 10480 ;;		_LCDWriteString
 10481 ;;		_LCDGotoXY
 10482 ;;		_LCDWriteInt
 10483 ;; This function uses a non-reentrant model
 10484 ;;
 10485                           
 10486  1C3A                     _LCDByte:	
 10487                           ;psect for function _LCDByte
 10488                           
 10489                           
 10490                           ;incstack = 0
 10491                           ; Regs used in _LCDByte: [wreg+status,2+status,0+pclath+cstack]
 10492                           ;LCDByte@c stored from wreg
 10493  1C3A  00FA               	movwf	LCDByte@c
 10494  1C3B                     l2881:
 10495                           
 10496                           ;lcd_hd44780_pic16.c: 80: void LCDByte(uint8_t c,uint8_t isdata);lcd_hd44780_pic16.c: 81
      +                          : {;lcd_hd44780_pic16.c: 89: uint8_t hn,ln;;lcd_hd44780_pic16.c: 90: uint8_t temp;;lcd_h
      +                          d44780_pic16.c: 92: hn=c>>4;
 10497  1C3B  087A               	movf	LCDByte@c,w
 10498  1C3C  00F6               	movwf	??_LCDByte
 10499  1C3D  3004               	movlw	4
 10500  1C3E                     u4255:
 10501  1C3E  1003               	clrc
 10502  1C3F  0CF6               	rrf	??_LCDByte,f
 10503  1C40  3EFF               	addlw	-1
 10504  1C41  1D03               	skipz
 10505  1C42  2C3E               	goto	u4255
 10506  1C43  0876               	movf	??_LCDByte,w
 10507  1C44  00F7               	movwf	??_LCDByte+1
 10508  1C45  0877               	movf	??_LCDByte+1,w
 10509  1C46  00F8               	movwf	LCDByte@hn
 10510  1C47                     l2883:
 10511                           
 10512                           ;lcd_hd44780_pic16.c: 93: ln=(c & 0x0F);
 10513  1C47  087A               	movf	LCDByte@c,w
 10514  1C48  390F               	andlw	15
 10515  1C49  00F6               	movwf	??_LCDByte
 10516  1C4A  0876               	movf	??_LCDByte,w
 10517  1C4B  00F9               	movwf	LCDByte@ln
 10518  1C4C                     l2885:
 10519                           
 10520                           ;lcd_hd44780_pic16.c: 95: if(isdata==0)
 10521  1C4C  0875               	movf	LCDByte@isdata,w
 10522  1C4D  1D03               	btfss	3,2
 10523  1C4E  2C50               	goto	u4261
 10524  1C4F  2C51               	goto	u4260
 10525  1C50                     u4261:
 10526  1C50  2C55               	goto	l77
 10527  1C51                     u4260:
 10528  1C51                     l2887:
 10529                           
 10530                           ;lcd_hd44780_pic16.c: 96:  (RD4=0);
 10531  1C51  1283               	bcf	3,5	;RP0=0, select bank0
 10532  1C52  1303               	bcf	3,6	;RP1=0, select bank0
 10533  1C53  1208               	bcf	8,4	;volatile
 10534  1C54  2C58               	goto	l78
 10535  1C55                     l77:	
 10536                           ;lcd_hd44780_pic16.c: 97: else
 10537                           
 10538                           
 10539                           ;lcd_hd44780_pic16.c: 98:  (RD4=1);
 10540  1C55  1283               	bcf	3,5	;RP0=0, select bank0
 10541  1C56  1303               	bcf	3,6	;RP1=0, select bank0
 10542  1C57  1608               	bsf	8,4	;volatile
 10543  1C58                     l78:
 10544                           
 10545                           ;lcd_hd44780_pic16.c: 100: _delay((unsigned long)((0.5)*(20000000/4000000.0)));
 10546  1C58  2C59               	nop2	;2 cycle nop
 10547                           
 10548                           ;lcd_hd44780_pic16.c: 102: (RD6=1);
 10549  1C59  1283               	bcf	3,5	;RP0=0, select bank0
 10550  1C5A  1303               	bcf	3,6	;RP1=0, select bank0
 10551  1C5B  1708               	bsf	8,6	;volatile
 10552  1C5C                     l2889:
 10553                           
 10554                           ;lcd_hd44780_pic16.c: 106: temp=(PORTD & (~(0X0F<<0)))|((hn<<0));
 10555  1C5C  0808               	movf	8,w	;volatile
 10556  1C5D  39F0               	andlw	240
 10557  1C5E  0478               	iorwf	LCDByte@hn,w
 10558  1C5F  00F6               	movwf	??_LCDByte
 10559  1C60  0876               	movf	??_LCDByte,w
 10560  1C61  00FB               	movwf	LCDByte@temp
 10561  1C62                     l2891:
 10562                           
 10563                           ;lcd_hd44780_pic16.c: 107: PORTD=temp;
 10564  1C62  087B               	movf	LCDByte@temp,w
 10565  1C63  0088               	movwf	8	;volatile
 10566  1C64                     l2893:
 10567                           
 10568                           ;lcd_hd44780_pic16.c: 109: _delay((unsigned long)((1)*(20000000/4000000.0)));
 10569  1C64  2C65               	nop2	;2 cycle nop
 10570  1C65  2C66               	nop2	;2 cycle nop
 10571  1C66  0000               	nop
 10572  1C67                     l2895:
 10573                           
 10574                           ;lcd_hd44780_pic16.c: 113: (RD6=0);
 10575  1C67  1283               	bcf	3,5	;RP0=0, select bank0
 10576  1C68  1303               	bcf	3,6	;RP1=0, select bank0
 10577  1C69  1308               	bcf	8,6	;volatile
 10578  1C6A                     l2897:
 10579                           
 10580                           ;lcd_hd44780_pic16.c: 115: _delay((unsigned long)((1)*(20000000/4000000.0)));
 10581  1C6A  2C6B               	nop2	;2 cycle nop
 10582  1C6B  2C6C               	nop2	;2 cycle nop
 10583  1C6C  0000               	nop
 10584  1C6D                     l2899:
 10585                           
 10586                           ;lcd_hd44780_pic16.c: 118: (RD6=1);
 10587  1C6D  1283               	bcf	3,5	;RP0=0, select bank0
 10588  1C6E  1303               	bcf	3,6	;RP1=0, select bank0
 10589  1C6F  1708               	bsf	8,6	;volatile
 10590  1C70                     l2901:
 10591                           
 10592                           ;lcd_hd44780_pic16.c: 120: temp=(PORTD & (~(0X0F<<0)))|((ln<<0));
 10593  1C70  0808               	movf	8,w	;volatile
 10594  1C71  39F0               	andlw	240
 10595  1C72  0479               	iorwf	LCDByte@ln,w
 10596  1C73  00F6               	movwf	??_LCDByte
 10597  1C74  0876               	movf	??_LCDByte,w
 10598  1C75  00FB               	movwf	LCDByte@temp
 10599                           
 10600                           ;lcd_hd44780_pic16.c: 122: PORTD=temp;
 10601  1C76  087B               	movf	LCDByte@temp,w
 10602  1C77  0088               	movwf	8	;volatile
 10603  1C78                     l2903:
 10604                           
 10605                           ;lcd_hd44780_pic16.c: 124: _delay((unsigned long)((1)*(20000000/4000000.0)));
 10606  1C78  2C79               	nop2	;2 cycle nop
 10607  1C79  2C7A               	nop2	;2 cycle nop
 10608  1C7A  0000               	nop
 10609  1C7B                     l2905:
 10610                           
 10611                           ;lcd_hd44780_pic16.c: 128: (RD6=0);
 10612  1C7B  1283               	bcf	3,5	;RP0=0, select bank0
 10613  1C7C  1303               	bcf	3,6	;RP1=0, select bank0
 10614  1C7D  1308               	bcf	8,6	;volatile
 10615  1C7E                     l2907:
 10616                           
 10617                           ;lcd_hd44780_pic16.c: 130: _delay((unsigned long)((1)*(20000000/4000000.0)));
 10618  1C7E  2C7F               	nop2	;2 cycle nop
 10619  1C7F  2C80               	nop2	;2 cycle nop
 10620  1C80  0000               	nop
 10621  1C81                     l2909:
 10622                           
 10623                           ;lcd_hd44780_pic16.c: 132: LCDBusyLoop();
 10624  1C81  160A  158A  2529  160A  158A  	fcall	_LCDBusyLoop
 10625  1C86                     l79:
 10626  1C86  0008               	return
 10627  1C87                     __end_of_LCDByte:
 10628                           
 10629                           	psect	text30
 10630  1D29                     __ptext30:	
 10631 ;; *************** function _LCDBusyLoop *****************
 10632 ;; Defined at:
 10633 ;;		line 135 in file "lcd_hd44780_pic16.c"
 10634 ;; Parameters:    Size  Location     Type
 10635 ;;		None
 10636 ;; Auto vars:     Size  Location     Type
 10637 ;;  status          1    4[COMMON] unsigned char 
 10638 ;;  temp            1    3[COMMON] unsigned char 
 10639 ;;  busy            1    2[COMMON] unsigned char 
 10640 ;; Return value:  Size  Location     Type
 10641 ;;                  1    wreg      void 
 10642 ;; Registers used:
 10643 ;;		wreg, status,2, status,0
 10644 ;; Tracked objects:
 10645 ;;		On entry : 0/0
 10646 ;;		On exit  : 0/0
 10647 ;;		Unchanged: 0/0
 10648 ;; Data sizes:     COMMON   BANK0   BANK1   BANK3   BANK2
 10649 ;;      Params:         0       0       0       0       0
 10650 ;;      Locals:         3       0       0       0       0
 10651 ;;      Temps:          2       0       0       0       0
 10652 ;;      Totals:         5       0       0       0       0
 10653 ;;Total ram usage:        5 bytes
 10654 ;; Hardware stack levels used: 1
 10655 ;; This function calls:
 10656 ;;		Nothing
 10657 ;; This function is called by:
 10658 ;;		_LCDByte
 10659 ;;		_LCDInit
 10660 ;; This function uses a non-reentrant model
 10661 ;;
 10662                           
 10663  1D29                     _LCDBusyLoop:	
 10664                           ;psect for function _LCDBusyLoop
 10665                           
 10666  1D29                     l2371:	
 10667                           ;incstack = 0
 10668                           ; Regs used in _LCDBusyLoop: [wreg+status,2+status,0]
 10669                           
 10670  1D29                     l2373:
 10671                           
 10672                           ;lcd_hd44780_pic16.c: 142:  TRISD|=(0x0f<<0);
 10673  1D29  300F               	movlw	15
 10674  1D2A  00F0               	movwf	??_LCDBusyLoop
 10675  1D2B  0870               	movf	??_LCDBusyLoop,w
 10676  1D2C  1683               	bsf	3,5	;RP0=1, select bank1
 10677  1D2D  1303               	bcf	3,6	;RP1=0, select bank1
 10678  1D2E  0488               	iorwf	8,f	;volatile
 10679  1D2F                     l2375:
 10680                           
 10681                           ;lcd_hd44780_pic16.c: 145:  (RD5=1);
 10682  1D2F  1283               	bcf	3,5	;RP0=0, select bank0
 10683  1D30  1303               	bcf	3,6	;RP1=0, select bank0
 10684  1D31  1688               	bsf	8,5	;volatile
 10685  1D32                     l2377:
 10686                           
 10687                           ;lcd_hd44780_pic16.c: 146:  (RD4=0);
 10688  1D32  1208               	bcf	8,4	;volatile
 10689  1D33                     l2379:
 10690                           
 10691                           ;lcd_hd44780_pic16.c: 150:  _delay((unsigned long)((0.5)*(20000000/4000000.0)));
 10692  1D33  2D34               	nop2	;2 cycle nop
 10693  1D34                     l2381:
 10694                           
 10695                           ;lcd_hd44780_pic16.c: 154:  {;lcd_hd44780_pic16.c: 156:   (RD6=1);
 10696  1D34  1283               	bcf	3,5	;RP0=0, select bank0
 10697  1D35  1303               	bcf	3,6	;RP1=0, select bank0
 10698  1D36  1708               	bsf	8,6	;volatile
 10699  1D37                     l2383:
 10700                           
 10701                           ;lcd_hd44780_pic16.c: 159:   _delay((unsigned long)((0.5)*(20000000/4000000.0)));
 10702  1D37  2D38               	nop2	;2 cycle nop
 10703  1D38                     l2385:
 10704                           
 10705                           ;lcd_hd44780_pic16.c: 161:   status=(PORTD>>0);
 10706  1D38  1283               	bcf	3,5	;RP0=0, select bank0
 10707  1D39  1303               	bcf	3,6	;RP1=0, select bank0
 10708  1D3A  0808               	movf	8,w	;volatile
 10709  1D3B  00F0               	movwf	??_LCDBusyLoop
 10710  1D3C  0870               	movf	??_LCDBusyLoop,w
 10711  1D3D  00F4               	movwf	LCDBusyLoop@status
 10712  1D3E                     l2387:
 10713                           
 10714                           ;lcd_hd44780_pic16.c: 162:   status=status<<4;
 10715  1D3E  0874               	movf	LCDBusyLoop@status,w
 10716  1D3F  00F0               	movwf	??_LCDBusyLoop
 10717  1D40  3003               	movlw	3
 10718  1D41                     u3085:
 10719  1D41  1003               	clrc
 10720  1D42  0DF0               	rlf	??_LCDBusyLoop,f
 10721  1D43  3EFF               	addlw	-1
 10722  1D44  1D03               	skipz
 10723  1D45  2D41               	goto	u3085
 10724  1D46  1003               	clrc
 10725  1D47  0D70               	rlf	??_LCDBusyLoop,w
 10726  1D48  00F1               	movwf	??_LCDBusyLoop+1
 10727  1D49  0871               	movf	??_LCDBusyLoop+1,w
 10728  1D4A  00F4               	movwf	LCDBusyLoop@status
 10729  1D4B                     l2389:
 10730                           
 10731                           ;lcd_hd44780_pic16.c: 164:   _delay((unsigned long)((0.5)*(20000000/4000000.0)));
 10732  1D4B  2D4C               	nop2	;2 cycle nop
 10733  1D4C                     l2391:
 10734                           
 10735                           ;lcd_hd44780_pic16.c: 167:   (RD6=0);
 10736  1D4C  1283               	bcf	3,5	;RP0=0, select bank0
 10737  1D4D  1303               	bcf	3,6	;RP1=0, select bank0
 10738  1D4E  1308               	bcf	8,6	;volatile
 10739  1D4F                     l2393:
 10740                           
 10741                           ;lcd_hd44780_pic16.c: 168:   _delay((unsigned long)((1)*(20000000/4000000.0)));
 10742  1D4F  2D50               	nop2	;2 cycle nop
 10743  1D50  2D51               	nop2	;2 cycle nop
 10744  1D51  0000               	nop
 10745  1D52                     l2395:
 10746                           
 10747                           ;lcd_hd44780_pic16.c: 170:   (RD6=1);
 10748  1D52  1283               	bcf	3,5	;RP0=0, select bank0
 10749  1D53  1303               	bcf	3,6	;RP1=0, select bank0
 10750  1D54  1708               	bsf	8,6	;volatile
 10751  1D55                     l2397:
 10752                           
 10753                           ;lcd_hd44780_pic16.c: 171:   _delay((unsigned long)((0.5)*(20000000/4000000.0)));
 10754  1D55  2D56               	nop2	;2 cycle nop
 10755  1D56                     l2399:
 10756                           
 10757                           ;lcd_hd44780_pic16.c: 173:   temp=(PORTD>>0);
 10758  1D56  1283               	bcf	3,5	;RP0=0, select bank0
 10759  1D57  1303               	bcf	3,6	;RP1=0, select bank0
 10760  1D58  0808               	movf	8,w	;volatile
 10761  1D59  00F0               	movwf	??_LCDBusyLoop
 10762  1D5A  0870               	movf	??_LCDBusyLoop,w
 10763  1D5B  00F3               	movwf	LCDBusyLoop@temp
 10764  1D5C                     l2401:
 10765                           
 10766                           ;lcd_hd44780_pic16.c: 174:   temp&=0x0F;
 10767  1D5C  300F               	movlw	15
 10768  1D5D  00F0               	movwf	??_LCDBusyLoop
 10769  1D5E  0870               	movf	??_LCDBusyLoop,w
 10770  1D5F  05F3               	andwf	LCDBusyLoop@temp,f
 10771  1D60                     l2403:
 10772                           
 10773                           ;lcd_hd44780_pic16.c: 176:   status=status|temp;
 10774  1D60  0874               	movf	LCDBusyLoop@status,w
 10775  1D61  0473               	iorwf	LCDBusyLoop@temp,w
 10776  1D62  00F0               	movwf	??_LCDBusyLoop
 10777  1D63  0870               	movf	??_LCDBusyLoop,w
 10778  1D64  00F4               	movwf	LCDBusyLoop@status
 10779  1D65                     l2405:
 10780                           
 10781                           ;lcd_hd44780_pic16.c: 178:   busy=status & 0b10000000;
 10782  1D65  0874               	movf	LCDBusyLoop@status,w
 10783  1D66  3980               	andlw	128
 10784  1D67  00F0               	movwf	??_LCDBusyLoop
 10785  1D68  0870               	movf	??_LCDBusyLoop,w
 10786  1D69  00F2               	movwf	LCDBusyLoop@busy
 10787  1D6A                     l2407:
 10788                           
 10789                           ;lcd_hd44780_pic16.c: 180:   _delay((unsigned long)((0.5)*(20000000/4000000.0)));
 10790  1D6A  2D6B               	nop2	;2 cycle nop
 10791  1D6B                     l2409:
 10792                           
 10793                           ;lcd_hd44780_pic16.c: 182:                 (RD6=0);
 10794  1D6B  1283               	bcf	3,5	;RP0=0, select bank0
 10795  1D6C  1303               	bcf	3,6	;RP1=0, select bank0
 10796  1D6D  1308               	bcf	8,6	;volatile
 10797  1D6E                     l2411:
 10798                           
 10799                           ;lcd_hd44780_pic16.c: 183:   _delay((unsigned long)((1)*(20000000/4000000.0)));
 10800  1D6E  2D6F               	nop2	;2 cycle nop
 10801  1D6F  2D70               	nop2	;2 cycle nop
 10802  1D70  0000               	nop
 10803  1D71                     l2413:
 10804                           
 10805                           ;lcd_hd44780_pic16.c: 184:  }while(busy);
 10806  1D71  0872               	movf	LCDBusyLoop@busy,w
 10807  1D72  1D03               	btfss	3,2
 10808  1D73  2D75               	goto	u3091
 10809  1D74  2D76               	goto	u3090
 10810  1D75                     u3091:
 10811  1D75  2D34               	goto	l2381
 10812  1D76                     u3090:
 10813  1D76                     l83:
 10814                           
 10815                           ;lcd_hd44780_pic16.c: 186:  (RD5=0);
 10816  1D76  1283               	bcf	3,5	;RP0=0, select bank0
 10817  1D77  1303               	bcf	3,6	;RP1=0, select bank0
 10818  1D78  1288               	bcf	8,5	;volatile
 10819  1D79                     l2415:
 10820                           
 10821                           ;lcd_hd44780_pic16.c: 189:  TRISD&=(~(0x0F<<0));
 10822  1D79  30F0               	movlw	240
 10823  1D7A  00F0               	movwf	??_LCDBusyLoop
 10824  1D7B  0870               	movf	??_LCDBusyLoop,w
 10825  1D7C  1683               	bsf	3,5	;RP0=1, select bank1
 10826  1D7D  1303               	bcf	3,6	;RP1=0, select bank1
 10827  1D7E  0588               	andwf	8,f	;volatile
 10828  1D7F                     l84:
 10829  1D7F  0008               	return
 10830  1D80                     __end_of_LCDBusyLoop:
 10831                           
 10832                           	psect	text31
 10833  1A7D                     __ptext31:	
 10834 ;; *************** function _ADCInit *****************
 10835 ;; Defined at:
 10836 ;;		line 29 in file "newfile.c"
 10837 ;; Parameters:    Size  Location     Type
 10838 ;;		None
 10839 ;; Auto vars:     Size  Location     Type
 10840 ;;		None
 10841 ;; Return value:  Size  Location     Type
 10842 ;;                  1    wreg      void 
 10843 ;; Registers used:
 10844 ;;		wreg, status,2
 10845 ;; Tracked objects:
 10846 ;;		On entry : 0/0
 10847 ;;		On exit  : 0/0
 10848 ;;		Unchanged: 0/0
 10849 ;; Data sizes:     COMMON   BANK0   BANK1   BANK3   BANK2
 10850 ;;      Params:         0       0       0       0       0
 10851 ;;      Locals:         0       0       0       0       0
 10852 ;;      Temps:          0       0       0       0       0
 10853 ;;      Totals:         0       0       0       0       0
 10854 ;;Total ram usage:        0 bytes
 10855 ;; Hardware stack levels used: 1
 10856 ;; This function calls:
 10857 ;;		Nothing
 10858 ;; This function is called by:
 10859 ;;		_main
 10860 ;; This function uses a non-reentrant model
 10861 ;;
 10862                           
 10863  1A7D                     _ADCInit:	
 10864                           ;psect for function _ADCInit
 10865                           
 10866  1A7D                     l2187:	
 10867                           ;incstack = 0
 10868                           ; Regs used in _ADCInit: [wreg+status,2]
 10869                           
 10870                           
 10871                           ;newfile.c: 31:     ANSELbits.ANS2 = 1;
 10872  1A7D  1683               	bsf	3,5	;RP0=1, select bank3
 10873  1A7E  1703               	bsf	3,6	;RP1=1, select bank3
 10874  1A7F  1508               	bsf	8,2	;volatile
 10875  1A80                     l2189:
 10876                           
 10877                           ;newfile.c: 36:     ADCON0 = 0b10001000;
 10878  1A80  3088               	movlw	136
 10879  1A81  1283               	bcf	3,5	;RP0=0, select bank0
 10880  1A82  1303               	bcf	3,6	;RP1=0, select bank0
 10881  1A83  009F               	movwf	31	;volatile
 10882                           
 10883                           ;newfile.c: 37:     ADCON1 = 0xC0;
 10884  1A84  30C0               	movlw	192
 10885  1A85  1683               	bsf	3,5	;RP0=1, select bank1
 10886  1A86  1303               	bcf	3,6	;RP1=0, select bank1
 10887  1A87  009F               	movwf	31	;volatile
 10888  1A88                     l2191:
 10889                           
 10890                           ;newfile.c: 38:     ADRESL = 0;
 10891  1A88  019E               	clrf	30	;volatile
 10892  1A89                     l2193:
 10893                           
 10894                           ;newfile.c: 39:     ADRESH = 0;
 10895  1A89  1283               	bcf	3,5	;RP0=0, select bank0
 10896  1A8A  1303               	bcf	3,6	;RP1=0, select bank0
 10897  1A8B  019E               	clrf	30	;volatile
 10898  1A8C                     l39:
 10899  1A8C  0008               	return
 10900  1A8D                     __end_of_ADCInit:
 10901  007E                     btemp	set	126	;btemp
 10902  007E                     wtemp0	set	126
 10903                           
 10904                           	psect	idloc
 10905                           
 10906                           ;Config register IDLOC0 @ 0x2000
 10907                           ;	unspecified, using default values
 10908  2000                     	org	8192
 10909  2000  3FFF               	dw	16383
 10910                           
 10911                           ;Config register IDLOC1 @ 0x2001
 10912                           ;	unspecified, using default values
 10913  2001                     	org	8193
 10914  2001  3FFF               	dw	16383
 10915                           
 10916                           ;Config register IDLOC2 @ 0x2002
 10917                           ;	unspecified, using default values
 10918  2002                     	org	8194
 10919  2002  3FFF               	dw	16383
 10920                           
 10921                           ;Config register IDLOC3 @ 0x2003
 10922                           ;	unspecified, using default values
 10923  2003                     	org	8195
 10924  2003  3FFF               	dw	16383
 10925                           
 10926                           	psect	config
 10927                           
 10928                           ;Config register CONFIG1 @ 0x2007
 10929                           ;	Oscillator Selection bits
 10930                           ;	FOSC = HS, HS oscillator: High-speed crystal/resonator on RA6/OSC2/CLKOUT and RA7/OSC1
      +                          /CLKIN
 10931                           ;	Watchdog Timer Enable bit
 10932                           ;	WDTE = OFF, WDT disabled and can be enabled by SWDTEN bit of the WDTCON register
 10933                           ;	Power-up Timer Enable bit
 10934                           ;	PWRTE = OFF, PWRT disabled
 10935                           ;	RE3/MCLR pin function select bit
 10936                           ;	MCLRE = ON, RE3/MCLR pin function is MCLR
 10937                           ;	Code Protection bit
 10938                           ;	CP = OFF, Program memory code protection is disabled
 10939                           ;	Data Code Protection bit
 10940                           ;	CPD = OFF, Data memory code protection is disabled
 10941                           ;	Brown Out Reset Selection bits
 10942                           ;	BOREN = OFF, BOR disabled
 10943                           ;	Internal External Switchover bit
 10944                           ;	IESO = OFF, Internal/External Switchover mode is disabled
 10945                           ;	Fail-Safe Clock Monitor Enabled bit
 10946                           ;	FCMEN = OFF, Fail-Safe Clock Monitor is disabled
 10947                           ;	Low Voltage Programming Enable bit
 10948                           ;	LVP = OFF, RB3 pin has digital I/O, HV on MCLR must be used for programming
 10949                           ;	In-Circuit Debugger Mode bit
 10950                           ;	DEBUG = 0x1, unprogrammed default
 10951  2007                     	org	8199
 10952  2007  20F2               	dw	8434
 10953                           
 10954                           ;Config register CONFIG2 @ 0x2008
 10955                           ;	Brown-out Reset Selection bit
 10956                           ;	BOR4V = BOR40V, Brown-out Reset set to 4.0V
 10957                           ;	Flash Program Memory Self Write Enable bits
 10958                           ;	WRT = OFF, Write protection off
 10959  2008                     	org	8200
 10960  2008  3FFF               	dw	16383

Data Sizes:
    Strings     26
    Constant    144
    Data        64
    BSS         24
    Persistent  0
    Stack       0

Auto Spaces:
    Space          Size  Autos    Used
    COMMON           14     14      14
    BANK0            80     78      79
    BANK1            80     39      62
    BANK3            96      0      64
    BANK2            96      0       0

Pointer List with Targets:

    sprintf@f	PTR const unsigned char  size(1) Largest target is 11
		 -> STR_1(CODE[11]), 

    sprintf@sp	PTR unsigned char  size(1) Largest target is 10
		 -> text(BANK1[10]), 

    sprintf@ap	PTR void [1] size(1) Largest target is 2
		 -> ?_sprintf(BANK1[2]), 

    LCDWriteString@msg	PTR const unsigned char  size(2) Largest target is 15
		 -> STR_2(CODE[15]), text(BANK1[10]), 


Critical Paths under _main in COMMON

    _main->_LCDGotoXY
    _main->_LCDInit
    _main->_LCDWriteString
    _fun->_LCDGotoXY
    _fun->_LCDWriteString
    _sprintf->___lldiv
    ___awdiv->___awmod
    _fround->___lwdiv
    ___lwdiv->___lwmod
    ___flmul->___lwdiv
    ___xxtofl->_get_val
    ___fldiv->___xxtofl
    _LCDWriteString->_LCDByte
    _LCDGotoXY->_LCDByte
    _LCDInit->_LCDByte
    _LCDByte->_LCDBusyLoop

Critical Paths under _main in BANK0

    _sprintf->___flsub
    _scale->___flmul
    _fround->___flmul
    ___flmul->___awdiv
    ___fltol->_scale
    ___flsub->___fladd
    ___fladd->_fround
    ___fldiv->___xxtofl

Critical Paths under _main in BANK1

    _main->_fun
    _fun->_sprintf

Critical Paths under _main in BANK3

    None.

Critical Paths under _main in BANK2

    None.

Call Graph Tables:

 ---------------------------------------------------------------------------------
 (Depth) Function   	        Calls       Base Space   Used Autos Params    Refs
 ---------------------------------------------------------------------------------
 (0) _main                                                 0     0      0   39569
                            _ADCInit
                          _LCDGotoXY
                            _LCDInit
                     _LCDWriteString
                                _fun
 ---------------------------------------------------------------------------------
 (1) _fun                                                  4     4      0   35476
                                             35 BANK1      4     4      0
                          _LCDGotoXY
                     _LCDWriteString
                            ___fldiv
                           ___xxtofl
                            _get_val
                            _sprintf
 ---------------------------------------------------------------------------------
 (2) _sprintf                                             42    37      5   30954
                                              0 BANK1     35    30      5
                            ___awdiv
                            ___fladd
                             ___fleq
                             ___flge
                            ___flmul
                            ___flneg
                            ___flsub
                            ___fltol
                            ___lldiv
                            ___llmod
                             ___wmul
                           ___xxtofl
                         __div_to_l_
                        __tdiv_to_l_
                             _fround
                            _isdigit
                              _scale
 ---------------------------------------------------------------------------------
 (3) _scale                                               19    15      4    7712
                                             30 BANK0     19    15      4
                            ___awdiv
                            ___awmod
                            ___flmul
 ---------------------------------------------------------------------------------
 (4) ___awmod                                              7     3      4    1360
                                              0 COMMON     7     3      4
 ---------------------------------------------------------------------------------
 (4) ___awdiv                                              9     5      4    1516
                                              7 COMMON     5     1      4
                                              0 BANK0      4     4      0
                            ___awmod (ARG)
 ---------------------------------------------------------------------------------
 (3) _isdigit                                              2     2      0      68
                                              0 COMMON     2     2      0
 ---------------------------------------------------------------------------------
 (3) _fround                                              20    16      4    5871
                                             30 BANK0     20    16      4
                            ___flmul
                            ___lwdiv
                            ___lwmod
 ---------------------------------------------------------------------------------
 (4) ___lwmod                                              6     2      4     615
                                              0 COMMON     6     2      4
 ---------------------------------------------------------------------------------
 (4) ___lwdiv                                              8     4      4     618
                                              6 COMMON     8     4      4
                            ___lwmod (ARG)
 ---------------------------------------------------------------------------------
 (4) ___flmul                                             26    18      8    4393
                                              4 BANK0     26    18      8
                          __Umul8_16
                            ___awdiv (ARG)
                            ___awmod (ARG)
                            ___lwdiv (ARG)
                            ___lwmod (ARG)
 ---------------------------------------------------------------------------------
 (5) __Umul8_16                                            9     7      2     799
                                              0 COMMON     9     7      2
 ---------------------------------------------------------------------------------
 (3) __tdiv_to_l_                                         18    10      8     455
                                              0 COMMON    12     4      8
                                              0 BANK0      6     6      0
 ---------------------------------------------------------------------------------
 (3) __div_to_l_                                          15     7      8     455
                                              0 COMMON     9     1      8
                                              0 BANK0      6     6      0
 ---------------------------------------------------------------------------------
 (3) ___xxtofl                                            14    10      4     474
                                              4 COMMON     8     4      4
                                              0 BANK0      6     6      0
                            _get_val (ARG)
 ---------------------------------------------------------------------------------
 (3) ___wmul                                               6     2      4     396
                                              0 COMMON     6     2      4
 ---------------------------------------------------------------------------------
 (3) ___llmod                                             10     2      8     615
                                              0 COMMON    10     2      8
 ---------------------------------------------------------------------------------
 (3) ___lldiv                                             14     6      8     466
                                              0 COMMON    14     6      8
 ---------------------------------------------------------------------------------
 (3) ___fltol                                             11     7      4     457
                                             49 BANK0     11     7      4
                            ___flmul (ARG)
                              _scale (ARG)
 ---------------------------------------------------------------------------------
 (3) ___flsub                                              8     0      8    2485
                                             70 BANK0      8     0      8
                            ___fladd
                           ___xxtofl (ARG)
 ---------------------------------------------------------------------------------
 (4) ___fladd                                             20    12      8    2288
                                             50 BANK0     20    12      8
                             _fround (ARG)
 ---------------------------------------------------------------------------------
 (3) ___flneg                                              4     0      4     121
                                              0 COMMON     4     0      4
 ---------------------------------------------------------------------------------
 (3) ___flge                                              12     4      8     790
                                              0 COMMON    12     4      8
 ---------------------------------------------------------------------------------
 (3) ___fleq                                              12     4      8     394
                                              0 COMMON    12     4      8
 ---------------------------------------------------------------------------------
 (2) _get_val                                              4     2      2       0
                                              0 COMMON     4     2      2
 ---------------------------------------------------------------------------------
 (2) ___fldiv                                             26    18      8    1273
                                              6 BANK0     26    18      8
                           ___xxtofl (ARG)
                            _get_val (ARG)
 ---------------------------------------------------------------------------------
 (2) _LCDWriteString                                       4     2      2    1442
                                             12 COMMON     2     0      2
                                              0 BANK0      2     2      0
                            _LCDByte
 ---------------------------------------------------------------------------------
 (2) _LCDGotoXY                                            4     3      1    1333
                                             12 COMMON     2     1      1
                                              0 BANK0      2     2      0
                            _LCDByte
 ---------------------------------------------------------------------------------
 (1) _LCDInit                                              4     4      0    1318
                                             12 COMMON     2     2      0
                                              0 BANK0      2     2      0
                        _LCDBusyLoop
                            _LCDByte
 ---------------------------------------------------------------------------------
 (3) _LCDByte                                              7     6      1    1111
                                              5 COMMON     7     6      1
                        _LCDBusyLoop
 ---------------------------------------------------------------------------------
 (4) _LCDBusyLoop                                          5     5      0     117
                                              0 COMMON     5     5      0
 ---------------------------------------------------------------------------------
 (1) _ADCInit                                              0     0      0       0
 ---------------------------------------------------------------------------------
 Estimated maximum stack depth 5
 ---------------------------------------------------------------------------------

 Call Graph Graphs:

 _main (ROOT)
   _ADCInit
   _LCDGotoXY
     _LCDByte
       _LCDBusyLoop
   _LCDInit
     _LCDBusyLoop
     _LCDByte
   _LCDWriteString
     _LCDByte
   _fun
     _LCDGotoXY
     _LCDWriteString
     ___fldiv
       ___xxtofl (ARG)
         _get_val (ARG)
       _get_val (ARG)
     ___xxtofl
     _get_val
     _sprintf
       ___awdiv
         ___awmod (ARG)
       ___fladd
         _fround (ARG)
           ___flmul
             __Umul8_16
             ___awdiv (ARG)
             ___awmod (ARG)
             ___lwdiv (ARG)
               ___lwmod (ARG)
             ___lwmod (ARG)
           ___lwdiv
           ___lwmod
       ___fleq
       ___flge
       ___flmul
       ___flneg
       ___flsub
         ___fladd
         ___xxtofl (ARG)
       ___fltol
         ___flmul (ARG)
         _scale (ARG)
           ___awdiv
           ___awmod
           ___flmul
       ___lldiv
       ___llmod
       ___wmul
       ___xxtofl
       __div_to_l_
       __tdiv_to_l_
       _fround
       _isdigit
       _scale

 Address spaces:
Name               Size   Autos  Total    Cost      Usage
BANK3               60      0      40       9       66.7%
BITBANK3            60      0       0       8        0.0%
SFR3                 0      0       0       4        0.0%
BITSFR3              0      0       0       4        0.0%
BANK2               60      0       0      11        0.0%
BITBANK2            60      0       0      10        0.0%
SFR2                 0      0       0       5        0.0%
BITSFR2              0      0       0       5        0.0%
BANK1               50     27      3E       7       77.5%
BITBANK1            50      0       0       6        0.0%
SFR1                 0      0       0       2        0.0%
BITSFR1              0      0       0       2        0.0%
BANK0               50     4E      4F       5       98.8%
BITBANK0            50      0       0       4        0.0%
SFR0                 0      0       0       1        0.0%
BITSFR0              0      0       0       1        0.0%
COMMON               E      E       E       1      100.0%
BITCOMMON            E      0       0       0        0.0%
CODE                 0      0       0       0        0.0%
DATA                 0      0      DB      12        0.0%
ABS                  0      0      DB       3        0.0%
NULL                 0      0       0       0        0.0%
STACK                0      0       0       2        0.0%
EEDATA             100      0       0       0        0.0%


Microchip Technology PIC Macro Assembler V2.36 build 20220127204148 
Symbol Table                                                                                   Sat Apr 30 17:00:37 2022

           ?_LCDBusyLoop 0070             ___fldiv@aexp 003F             ___fldiv@bexp 003E  
                      _x 00D2                        pc 0002             ___fldiv@sign 0037  
                     l42 1AEE                       l45 1AFA                       l39 1A8C  
                     l48 0883                       l83 1D76                       l84 1D7F  
                     l77 1C55                       l78 1C58                       l79 1C86  
                     l89 1E3C                       l99 1F83             ___awdiv@sign 0021  
                     fsr 0004      ___wmul@multiplicand 0072      __Umul8_16@word_mpld 0076  
                    l122 1B73                      l123 1B4F                      l300 07E3  
                    l119 1B7B                      l304 1B07                      l306 1B1F  
                    l234 0C9E                      l227 1577                      l340 1EA2  
                    l253 01FD                      l503 0010                      l521 00CD  
                    l514 1FEA                      l522 003F                      l610 1C39  
                    l507 1FFF                      l532 00C0                      l620 1BB5  
                    l517 1FFF                      l525 0090                      l470 1DD8  
                    l294 079C                      l286 0635                      l711 1360  
                    l703 12DE                      l631 15DB                      l279 05F1  
                    l560 1D28                      l457 1F0B                      l490 1CA3  
                    l474 018B                      l491 1CBF                      l635 1682  
                    l475 00F0                      l492 1CD4                      l652 174D  
                    l644 17FF                      l709 1350                      l637 1659  
                    l485 017E                      l733 0F6B                      l662 1793  
                    l478 014E                      l495 110A                      l727 0FFF  
                    l656 1771                      l673 17F3                      l665 17D1  
                    l498 1176                      l674 17FF                      l746 1B34  
                    l499 118F                      l771 08A8                      l739 0FF3  
                    l748 1B46                      l677 1AD5                      l773 093F  
                    l687 11EC                      l791 1A9E                      l784 0909  
                    l689 136C                      l785 0915                      l777 08ED  
                    _RD4 0044                      _RD5 0045                      _RD6 0046  
                    _fun 0807                      fsr0 0004          __end_of_ADCInit 1A8D  
                    indf 0000             ___awmod@sign 0076             ___flmul@aexp 0036  
           ___flmul@bexp 0037              _sprintf$939 00AA             ___flmul@sign 0031  
           ___flmul@temp 003C             ___flmul@prod 0038          __end_of_LCDByte 1C87  
        __end_of_LCDInit 1E3D              LCDByte@temp 007B             ___fltol@exp1 005B  
                   l3001 0060                     l3011 008A                     l3003 0069  
                   l3101 1E4D                     l3013 0094                     l3021 00AE  
                   l3005 0077                     l3111 1E7C                     l3103 1E50  
                   l3007 0081                     l2401 1D5C                     l3113 1E8A  
                   l3105 1E5D                     l3201 1CDD                     l3033 00CE  
                   l3009 0082                     l2411 1D6E                     l2403 1D60  
                   l3131 1CD3                     l3123 1C87                     l3115 1E8B  
                   l3107 1E61                     l3211 1D11                     l3203 1CE0  
                   l3051 010C                     l3035 00DB                     l3027 00B5  
                   l3019 009C                     l2413 1D71                     l2405 1D65  
                   l3125 1C9B                     l3141 1126                     l3221 1AB6  
                   l3117 1E94                     l3109 1E6A                     l3213 1D1A  
                   l3205 1CED                     l3061 013F                     l3053 0115  
                   l3045 00F1                     l3029 00C5                     l2501 1BF8  
                   l2421 1EAA                     l3301 0194                     l2191 1A88  
                   l2415 1D79                     l2407 1D6A                     l3127 1CB7  
                   l3151 118E                     l3143 112A                     l3135 10EE  
                   l3119 1E9A                     l3207 1CF1                     l3215 1D20  
                   l3231 08A0                     l3071 015A                     l3063 0148  
                   l3055 011E                     l3047 00F9                     l3039 00E4  
                   l2511 1C10                     l2503 1BFE                     l2431 1EBE  
                   l2423 1EAF                     l3311 01B4                     l3303 019A  
                   l2193 1A89                     l2409 1D6B                     l3129 1CD1  
                   l3145 114E                     l3137 1102                     l2601 15F5  
                   l3209 1D03                     l3241 08CB                     l3233 08B0  
                   l3225 0887                     l3081 0183                     l3065 0152  
                   l3073 016C                     l3057 0130                     l3049 010A  
                   l2361 1B2A                     l2513 1C21                     l2505 1C01  
                   l2521 1C35                     l2441 1ED4                     l2433 1EC0  
                   l2425 1EB1                     l2417 1EA3                     l3401 04A3  
                   l3321 01E4                     l3313 01B5                     l3305 01A1  
                   l2187 1A7D                     l2371 1D29                     l3147 1152  
                   l3139 111E                     l3155 0006                     l2611 1609  
                   l2603 15F9                     l3219 1AB2                     l3171 1FAF  
                   l3163 1F84                     l3091 1B0E                     l3251 08FF  
                   l3243 08D2                     l3227 088C                     l3059 013E  
                   l2363 1B2E                     l2515 1C27                     l2507 1C08  
                   l2531 1B8C                     l2451 1EF7                     l2443 1ED8  
                   l2435 1EC6                     l2427 1EB5                     l2419 1EA6  
                   l3403 04AC                     l3331 01FF                     l3323 01E8  
                   l3315 01B9                     l3307 01A6                     l2189 1A80  
                   l2381 1D34                     l2373 1D29                     l3149 118C  
                   l3157 000E                     l2701 1781                     l2621 161D  
                   l2613 160D                     l2605 15FD                     l3173 1FB0  
                   l3165 1F91                     l3093 1B15                     l3085 1AFB  
                   l3261 0932                     l3253 0903                     l3245 08D6  
                   l3237 08B9                     l3229 0890                     l2365 1B3D  
                   l2357 1B21                     l2517 1C28                     l2509 1C0C  
                   l2541 1BAB                     l2533 1B90                     l2525 1B7C  
                   l2445 1EE9                     l2437 1EC9                     l2453 1EFD  
                   l2429 1EBA                     l2461 1D80                     l3421 0573  
                   l3405 04E1                     l3341 023D                     l3333 021B  
                   l3317 01BC                     l3325 01F9                     l3309 01A8  
                   l2391 1D4C                     l2383 1D37                     l2375 1D2F  
                   l3511 1F21                     l3271 1AD9                     l3159 0010  
                   l2703 1785                     l2631 165D                     l2623 1621  
                   l2615 1611                     l2607 1601                     l2551 1585  
                   l3175 1FB8                     l3095 1B1B                     l3087 1AFD  
                   l3263 0936                     l3255 090D                     l3247 08E4  
                   l3239 08BE                     l3079 0173                     l2367 1B42  
                   l2359 1B23                     l2519 1C2F                     l2535 1B94  
                   l2527 1B82                     l2543 1BB1                     l2455 1F02  
                   l2447 1EEF                     l2439 1ED0                     l2471 1D90  
                   l2463 1D81                     l3431 05E5                     l3423 057F  
                   l3415 0532                     l3407 052E                     l3351 027B  
                   l3343 0241                     l3335 0227                     l3327 01FB  
                   l3319 01D1                     l2393 1D4F                     l2385 1D38  
                   l2377 1D32                     l3521 1F4A                     l3513 1F2E  
                   l3505 1F0C                     l3601 1263                     l3273 1AE2  
                   l2721 17CD                     l2713 1798                     l2705 1786  
                   l2641 1676                     l2633 1666                     l2617 1615  
                   l2609 1605                     l2625 1625                     l2561 159C  
                   l2553 1589                     l3193 1FDF                     l3185 1FC6  
                   l3177 1FBA                     l3169 1F9A                     l3089 1B01  
                   l3265 0937                     l3257 0917                     l3249 08F4  
                   l2801 0DCF                     l2537 1B9E                     l2529 1B85  
                   l2457 1F07                     l2449 1EF0                     l2481 1DA9  
                   l2473 1D95                     l2465 1D85                     l3441 0619  
                   l3433 05F9                     l3425 0586                     l3409 0530  
                   l3361 02CB                     l3353 0294                     l3345 025A  
                   l3337 022B                     l2395 1D52                     l2387 1D3E  
                   l2379 1D33                     l3291 1B74                     l3283 1B51  
                   l3515 1F32                     l3523 1F5D                     l3507 1F0D  
                   l3603 126C                     l3611 1291                     l3531 1197  
                   l3275 1AF4                     l2731 17E9                     l2723 17D6  
                   l2715 179D                     l2707 178A                     l2651 1694  
                   l2635 1668                     l2643 167A                     l2627 1626  
                   l2619 1619                     l2571 15B2                     l2563 159D  
                   l2555 158A                     l2547 1578                     l3195 1FEF  
                   l3179 1FBE                     l3187 1FD8                     l3099 1E3D  
                   l3259 092D                     l2811 0E42                     l2803 0DDF  
                   l2539 1BA4                     l2483 1DAD                     l2475 1D9B  
                   l2491 1DCA                     l2467 1D8A                     l3451 064A  
                   l3443 0628                     l3435 0602                     l3427 058B  
                   l3419 0569                     l3371 0358                     l3363 02CF  
                   l3355 029F                     l3347 0273                     l3339 022F  
                   l2397 1D55                     l2389 1D4B                     l2901 1C70  
                   l3701 1DF7                     l3285 1B56                     l3525 1F6D  
                   l3517 1F39                     l3509 1F1B                     l3621 12AE  
                   l3613 1297                     l3605 127E                     l3541 11AC  
                   l3533 119D                     l3269 1AD6                     l2733 17ED  
                   l2725 17DB                     l2717 17AB                     l2709 1790  
                   l2661 16BE                     l2653 16AB                     l2645 1686  
                   l2637 166C                     l2629 163D                     l2581 15C3  
                   l2573 15B3                     l2557 158F                     l2565 159F  
                   l2549 157F                     l3197 1FF4                     l2821 0EEF  
                   l2813 0E5F                     l2805 0DFC                     l2741 0C9F  
                   l2493 1DCF                     l2485 1DB7                     l2477 1D9E  
                   l2469 1D8C                     l3461 0721                     l3453 064E  
                   l3445 062F                     l3437 0606                     l3429 05C6  
                   l3381 03DA                     l3373 0361                     l3365 02D5  
                   l3357 02A5                     l3349 0277                     l2399 1D56  
                   l2903 1C78                     l3711 1E04                     l3703 1DFA  
                   l3279 1B48                     l3519 1F42                     l3527 1F73  
                   l3631 12C3                     l3623 12AF                     l3615 129F  
                   l3607 127F                     l3551 11C4                     l3543 11B4  
                   l3535 11A1                     l2735 17EF                     l2727 17E3  
                   l2719 17AF                     l2671 16E7                     l2663 16C2  
                   l2655 16AF                     l2647 168B                     l2639 166D  
                   l2591 15E1                     l2583 15C8                     l2575 15B9  
                   l2567 15A7                     l2559 1594                     l3199 1CD5  
                   l2831 0F3B                     l2823 0F17                     l2815 0E8C  
                   l2807 0E0C                     l2751 0CB6                     l2743 0CA6  
                   l2911 1370                     l2495 1DD4                     l2487 1DBD  
                   l2479 1DA5                     l3471 077B                     l3463 072D  
                   l3455 066C                     l3447 063E                     l3439 060C  
                   l3391 0455                     l3383 03E9                     l3375 037C  
                   l3367 02F4                     l3359 02B8                     l2905 1C7B  
                   l3713 1E09                     l3705 1DFB                     l3289 1B5B  
                   l3641 12E8                     l3633 12C7                     l3625 12B8  
                   l3617 12A1                     l3609 128D                     l3561 11D9  
                   l3553 11CA                     l3545 11B5                     l3537 11A2  
                   l3529 1190                     l2737 17FA                     l2729 17E8  
                   l2681 1755                     l2673 1725                     l2665 16C3  
                   l2657 16B3                     l2593 15E5                     l2585 15D0  
                   l2577 15BD                     l2569 15AC                     l2841 0F50  
                   l2833 0F3C                     l2825 0F20                     l2817 0E9C  
                   l2809 0E29                     l2761 0CD2                     l2753 0CBB  
                   l2745 0CAC                     l2921 1489                     l2913 1376  
                   l2489 1DC4                     l3481 07A7                     l3473 0781  
                   l3457 06C7                     l3465 0768                     l3449 0643  
                   l3393 045E                     l3385 0404                     l3369 033F  
                   l3377 0384                     l2907 1C7E                     l3715 1E10  
                   l3707 1DFE                     l3651 1326                     l3643 12F6  
                   l3635 12DB                     l3619 12AA                     l3627 12BE  
                   l3571 1200                     l3563 11E1                     l3555 11CE  
                   l3539 11A7                     l3547 11B7                     l2739 17FE  
                   l2691 1770                     l2683 175A                     l2675 172B  
                   l2667 16CC                     l2659 16BC                     l2595 15E9  
                   l2587 15D1                     l2579 15BE                     l2851 0F75  
                   l2843 0F54                     l2835 0F45                     l2827 0F2E  
                   l2819 0EC9                     l2771 0CE7                     l2763 0CD8  
                   l2755 0CC3                     l2747 0CB0                     l2499 1BF6  
                   l2931 0947                     l3483 07A8                     l3467 0770  
                   l3459 0702                     l3395 0466                     l3387 042B  
                   l3379 0393                     l3475 0788                     l3299 018F  
                   l3731 10C6                     l2909 1C81                     l3725 1E24  
                   l3717 1E1A                     l3709 1E01                     l3661 1356  
                   l3653 1334                     l3645 12FA                     l3629 12C2  
                   l3573 1204                     l3565 11E2                     l3557 11CF  
                   l3549 11BF                     l2693 1775                     l2677 1730  
                   l2669 16D1                     l2597 15ED                     l2589 15D3  
                   l2861 0FB3                     l2853 0F83                     l2845 0F68  
                   l2829 0F37                     l2837 0F4B                     l2781 0D03  
                   l2773 0CEF                     l2765 0CDC                     l2757 0CC5  
                   l2749 0CB1                     l2925 1534                     l2941 0A38  
                   l2933 0949                     l3485 07B7                     l3477 078E  
                   l3469 0777                     l3397 0484                     l3389 043A  
                   l3493 07CD                     l3741 10E0                     l3733 10C9  
                   l3727 1E30                     l3719 1E21                     l3663 135A  
                   l3655 1343                     l3647 1313                     l3639 12E3  
                   l3591 1245                     l3583 121B                     l3559 11D4  
                   l3567 11E4                     l2695 1778                     l2687 1763  
                   l2679 173F                     l2599 15F1                     l2871 0FE7  
                   l2863 0FBE                     l2855 0F87                     l2839 0F4F  
                   l2791 0D46                     l2775 0CF1                     l2767 0CDD  
                   l2759 0CCD                     l2919 1483                     l2943 0A3F  
                   l2935 0950                     l2951 0AF4                     l3487 07B7  
                   l3479 0796                     l3495 07DF                     l3671 0807  
                   l3743 10E5                     l3735 10CA                     l2881 1C3B  
                   l3729 1E36                     l3681 1DDC                     l3665 135C  
                   l3657 1347                     l3649 1319                     l3593 1247  
                   l3585 122D                     l3569 11F4                     l3577 120D  
                   l2697 177A                     l2689 176C                     l2873 0FEB  
                   l2865 0FCD                     l2857 0FA0                     l2849 0F70  
                   l2793 0D62                     l2785 0D0C                     l2777 0CF9  
                   l2769 0CE2                     l2961 0BEA                     l2953 0AFB  
                   l2929 0943                     l3489 07C5                     l3673 0853  
                   l3737 10D0                     l2891 1C62                     l2883 1C47  
                   l3691 1DED                     l3683 1DE4                     l3659 134F  
                   l3595 124C                     l3587 1235                     l3579 1212  
                   l2699 177F                     l2875 0FEC                     l2867 0FD7  
                   l2859 0FA6                     l2795 0D8E                     l2787 0D1C  
                   l2779 0CFE                     l2971 1A8F                     l2947 0AC7  
                   l3675 085E                     l3739 10D7                     l2893 1C64  
                   l2885 1C4C                     l3693 1DF3                     l3685 1DEA  
                   l3597 125E                     l3589 123D                     l2981 0011  
                   l2877 0FF7                     l2869 0FD9                     l2797 0DAA  
                   l2789 0D29                     l2973 1A95                     l2965 0C72  
                   l3845 0213                     l3677 0866                     l2895 1C67  
                   l2887 1C51                     l3695 1DF4                     l3687 1DEB  
                   l3847 1B65                     l3599 1262                     l2983 0024  
                   l2799 0DC6                     l2975 1A9B                     l2959 0BE3  
                   l3679 087A                     ?_fun 0070                     l2897 1C6A  
                   l2889 1C5C                     l3697 1DF5                     l3689 1DEC  
                   l2993 0040                     l2977 1A9D                     l2969 1A8E  
                   l2899 1C6D                     l3699 1DF6                     l2995 0046  
                   l2987 002D                     l2997 0055                     l2999 0057  
                   STR_1 10AF                     STR_2 10A0                     u3100 1EAA  
                   u3101 1EA9                     u3110 1EB5                     u3111 1EB4  
                   u3120 1EC6                     u3200 1D85                     u3121 1EC5  
                   u3201 1D84                     u3050 1B2E                     u3210 1D90  
                   u3051 1B2D                     u4011 0DEE                     u3211 1D8F  
                   u4012 0DF5                     u3140 1ED8                     u3220 1D9B  
                   u4101 0F09                     u4021 0E1B                     u4013 0DFC  
                   u4005 0DC8                     u3141 1ED7                     u3221 1D9A  
                   u3070 1B42                     u4102 0F10                     u4022 0E22  
                   u3310 1C10                     u3071 1B41                     u4103 0F17  
                   u4023 0E29                     u3311 1C0F                     u3135 1ECA  
                   u5000 118C                     u4200 0F87                     u3160 1EE9  
                   u3240 1DAD                     u5001 118B                     u3065 1B35  
                   u4201 0F86                     u4041 0E51                     u3305 1C02  
                   u3161 1EE8                     u3241 1DAC                     u3090 1D76  
                   u5010 000E                     u4210 0F96                     u4130 0F3B  
                   u4042 0E58                     u3330 1C21                     u3410 1BB1  
                   u3250 1DB7                     u3091 1D75                     u5011 000D  
                   u4131 0F3A                     u4115 0F19                     u4051 0E7E  
                   u4043 0E5F                     u4035 0E2B                     u3331 1C20  
                   u3411 1BB0                     u3155 1ED9                     u3251 1DB6  
                   u3235 1D9F                     u3500 15E5                     u3420 1589  
                   u5100 1FEF                     u5020 1F91                     u4220 0FB3  
                   u4052 0E85                     u3180 1EFD                     u3085 1D41  
                   u5005 1188                     u3501 15E4                     u3421 1588  
                   u5101 1FEE                     u5021 1F90                     u4221 0FB2  
                   u4125 0F30                     u4061 0EAB                     u4053 0E8C  
                   u3325 1C11                     u3405 1BA5                     u3181 1EFC  
                   u3165 1EE5                     u3510 163D                     u3430 158F  
                   u5110 1FF4                     u5030 1FA8                     u4230 0FCD  
                   u4150 0F4F                     u4070 0ED5                     u4062 0EB2  
                   u3350 1C35                     u4310 1489                     u3190 1F02  
                   u3270 1DCA                     u3511 163C                     u3431 158E  
                   u5111 1FF3                     u4231 0FCC                     u4215 0F91  
                   u4151 0F4E                     u4063 0EB9                     u3351 1C34  
                   u3335 1C1D                     u4311 1488                     u3191 1F01  
                   u3175 1EF1                     u3271 1DC9                     u3255 1DB3  
                   u6000 1343                     u3520 1648                     u3440 1594  
                   u5040 1FBE                     u5120 1CDD                     u5200 08B0  
                   u4240 0FEB                     u4160 0F54                     u3360 1B82  
                   u3280 1DCF                     u4400 0A3F                     u6001 1342  
                   u3601 169D                     u3521 1646                     u3441 1593  
                   u5041 1FBD                     u5121 1CDC                     u5201 08AF  
                   u4241 0FEA                     u4225 0FAF                     u4161 0F53  
                   u4145 0F3E                     u4081 0EE1                     u3345 1C29  
                   u3361 1B81                     u4305 1442                     u3281 1DCE  
                   u3265 1DBE                     u4401 0A3E                     u6010 135A  
                   u3610 16AF                     u3602 16A4                     u3530 1649  
                   u3450 15B2                     u5050 1FC5                     u4170 0F68  
                   u4090 0EFD                     u4082 0EE8                     u3290 1BFE  
                   u6011 1359                     u3611 16AE                     u3603 16AB  
                   u3515 1639                     u3451 15B1                     u5051 1FC4  
                   u5035 1FA3                     u4235 0FC9                     u4171 0F67  
                   u4083 0EEF                     u4075 0ED0                     u3291 1BFD  
                   u4260 1C51                     u6020 1E3C                     u3700 175A  
                   u3620 16B3                     u3540 165D                     u3460 15BD  
                   u5140 1CF1                     u5300 0932                     u5220 08D1  
                   u4180 0F6F                     u3380 1B94                     u4261 1C50  
                   u6021 1E3B                     u6005 133F                     u3701 1759  
                   u3621 16B2                     u3541 165C                     u3461 15BC  
                   u5141 1CF0                     u5301 0931                     u5221 08D0  
                   u4181 0F6E                     u3381 1B93                     u4325 14A6  
                   u3630 16C2                     u3550 166C                     u3470 15C3  
                   u5070 1FD7                     u5150 1D03                     u5310 0936  
                   u4190 0F75                     u3390 1B9E                     u4270 1376  
                   u4350 0947                     u4255 1C3E                     u3631 16C1  
                   u3551 166B                     u3471 15C2                     u5071 1FD6  
                   u5151 1D02                     u5135 1CE2                     u5311 0935  
                   u5215 08C3                     u4191 0F74                     u4095 0EF8  
                   u3391 1B9D                     u3375 1B86                     u4335 14F3  
                   u4271 1375                     u4415 0A52                     u4351 0946  
                   u5320 1AF4                     u3800 17AF                     u3720 1770  
                   u3480 15C8                     u5080 1FDE                     u5240 08F3  
                   u4600 0094                     u4520 1A95                     u4440 0AFB  
                   u4360 0950                     u5400 0294                     u5321 1AF3  
                   u3801 17AE                     u3721 176F                     u3481 15C7  
                   u5081 1FDD                     u5065 1FC7                     u5241 08F2  
                   u4601 0093                     u4345 153F                     u4521 1A94  
                   u4505 0C39                     u4441 0AFA                     u4425 0A8E  
                   u4361 094F                     u5401 0293                     u5330 1B4E  
                   u3810 17BE                     u3730 1775                     u3650 16E7  
                   u3570 1682                     u3490 15E1                     u5170 1D20  
                   u4610 009B                     u4530 1A9B                     u5410 02CF  
                   u5331 1B4D                     u6107 1ADD                     u3731 1774  
                   u3715 1765                     u3651 16E6                     u3571 1681  
                   u3491 15E0                     u5171 1D1F                     u5155 1CFF  
                   u5235 08E5                     u4611 009A                     u3395 1B9A  
                   u4531 1A9A                     u4515 0C75                     u4435 0ACA  
                   u5411 02CE                     u3820 17CD                     u3740 177F  
                   u3580 1686                     u5260 0903                     u5180 088C  
                   u4700 0130                     u4540 0024                     u3900 0CBB  
                   u5420 0358                     u5340 019A                     u6117 1AE9  
                   u3821 17CC                     u3741 177E                     u3661 16FE  
                   u3653 16E3                     u3645 16C5                     u3581 1685  
                   u3565 166F                     u5165 1D12                     u5261 0902  
                   u5181 088B                     u4701 012F                     u4541 0023  
                   u3901 0CBA                     u4285 1393                     u5421 0357  
                   u5341 0199                     u3830 17D6                     u3750 1785  
                   u3670 1712                     u3662 16FF                     u3590 168B  
                   u5270 0909                     u5190 0890                     u4630 00AD  
                   u4550 003E                     u3910 0CDC                     u5510 0568  
                   u5430 037C                     u5350 01B4                     u6127 1DE0  
                   u3831 17D5                     u3815 17B9                     u3751 1784  
                   u3671 1713                     u3663 1704                     u3591 168A  
                   u5095 1FE1                     u5271 0908                     u5255 08F8  
                   u5191 088F                     u4631 00AC                     u4551 003D  
                   u3911 0CDB                     u4295 13ED                     u4455 0B1B  
                   u4375 0970                     u5511 0567                     u5431 037B  
                   u5351 01B3                     u3840 17DB                     u3760 178A  
                   u3680 1730                     u3672 1718                     u3664 1705  
                   u4800 1B01                     u5280 090D                     u4720 014E  
                   u4640 00B4                     u3920 0CE2                     u4480 0BEA  
                   u5520 0573                     u5440 0393                     u5360 01F8  
                   u3841 17DA                     u3761 1789                     u3681 172F  
                   u3673 1719                     u3665 170A                     u4801 1B00  
                   u5281 090C                     u4721 014D                     u4705 012C  
                   u4641 00B3                     u4625 009D                     u3921 0CE1  
                   u4481 0BE9                     u4465 0B57                     u4385 09AC  
                   u5521 0572                     u5505 0535                     u5441 0392  
                   u5361 01F7                     u3850 17E8                     u3770 1790  
                   u3690 1755                     u3666 170B                     u5290 0922  
                   u4730 0152                     u4570 0077                     u3930 0CE7  
                   u5610 076F                     u5530 057F                     u5450 03E9  
                   u5370 0227                     u3851 17E7                     u3771 178F  
                   u3691 1754                     u4731 0151                     u4715 0141  
                   u4571 0076                     u3931 0CE6                     u4475 0BA2  
                   u4395 09F7                     u5611 076E                     u5531 057E  
                   u5515 0564                     u5451 03E8                     u5371 0226  
                   u5700 1F32                     u3860 17ED                     u3780 1797  
                   u4900 1E9A                     u4740 0159                     u4660 00C5  
                   u3940 0CFE                     u5620 0787                     u5460 0404  
                   u5380 022B                     u5701 1F31                     u3861 17EC  
                   u3781 1796                     u4901 1E99                     u4741 0158  
                   u4661 00C4                     u4565 0062                     u3941 0CFD  
                   u5621 0786                     u5605 0730                     u5461 0403  
                   u5445 038F                     u5381 022A                     u5710 1F39  
                   u4910 1C9B                     u3870 17FE                     u3790 179D  
                   u4830 1B1B                     u4670 00DB                     u4590 0090  
                   u3950 0D03                     u5630 078E                     u5550 05F8  
                   u5470 042B                     u5390 025A                     u5711 1F38  
                   u4911 1C9A                     u3871 17FD                     u3791 179C  
                   u4831 1B1A                     u4815 1B08                     u5295 091D  
                   u4671 00DA                     u4655 00B7                     u4591 008F  
                   u4575 0073                     u3951 0D02                     u4495 0BFD  
                   u5631 078D                     u5551 05F7                     u5471 042A  
                   u5455 03E5                     u5391 0259                     u5720 1F83  
                   u5800 1212                     u4920 1CB7                     u4840 1E4D  
                   u4760 016B                     u4680 00EF                     u3880 0CB0  
                   u5640 0796                     u5560 0619                     u5480 043A  
                   u5721 1F82                     u5801 1211                     u4921 1CB6  
                   u4841 1E4C                     u4825 1B0F                     u4761 016A  
                   u4681 00EE                     u4585 0083                     u3961 0D54  
                   u3881 0CAF                     u5641 0795                     u5561 0618  
                   u5545 058E                     u5481 0439                     u6097 0859  
                   u5810 124C                     u5730 11A1                     u4930 1CD1  
                   u4770 0172                     u3962 0D5B                     u3890 0CB6  
                   u5650 07A7                     u5570 0628                     u5490 0455  
                   u5811 124B                     u5731 11A0                     u4931 1CD0  
                   u4771 0171                     u4755 015B                     u3971 0D70  
                   u3963 0D62                     u3891 0CB5                     u5651 07A6  
                   u5571 0627                     u5491 0454                     u5900 12AE  
                   u5740 11A7                     u4940 1102                     u4860 1E61  
                   u3972 0D77                     u5660 07B7                     u5580 0643  
                   u5901 12AD                     u5741 11A6                     u4941 1101  
                   u4861 1E60                     u3981 0D9C                     u3973 0D7E  
                   u5661 07B6                     u5581 0642                     u5565 0615  
                   u5485 0436                     u5750 11AC                     u4950 111E  
                   u4790 0183                     u3982 0DA3                     u5670 07C5  
                   u5751 11AB                     u4935 1CCD                     u4951 111D  
                   u4855 1E52                     u4791 0182                     u4695 0117  
                   u3991 0DB8                     u3983 0DAA                     u5671 07C4  
                   u5655 07A3                     u5575 0624                     u5920 12C2  
                   u5840 1262                     u5760 11CE                     u4960 112A  
                   u4880 1E7C                     u3992 0DBF                     u5680 07DF  
                   u5921 12C1                     u5841 1261                     u5825 124E  
                   u5761 11CD                     u4961 1129                     u4881 1E7B  
                   u4785 0175                     u3993 0DC6                     u5681 07DE  
                   u5665 07B3                     u5690 1F1B                     u5930 12C7  
                   u5770 11D4                     u5691 1F1A                     u5931 12C6  
                   u5915 12B1                     u5835 1257                     u5771 11D3  
                   u4971 1139                     u4875 1E63                     u5595 06CA  
                   u5940 12DB                     u5860 127E                     u5780 11D9  
                   u4980 1152                     u4972 113A                     u5941 12DA  
                   u5861 127D                     u5781 11D8                     u4981 1151  
                   u4973 113F                     u4885 1E78                     u5950 12E2  
                   u5870 1297                     u5790 11F4                     u4974 1140  
                   u5951 12E1                     u5871 1296                     u5855 1265  
                   u5791 11F3                     u4991 1161                     u4975 1145  
                   u4895 1E8C                     u5960 12E8                     u5880 129F  
                   u4992 1162                     u4976 1146                     u5961 12E7  
                   u5881 129E                     u5865 127A                     u4993 1167  
                   u5970 12FA                     u4994 1168                     u5971 12F9  
                   u4995 116D                     u5980 1309                     u4996 116E  
                   u5990 1326                     u5991 1325                     u5895 12A3  
                   u5985 1304                     u5995 1322                     _main 10C6  
                   _temp 00CC                     _text 00D4                     btemp 007E  
                   start 0000          ___fldiv@new_exp 0038                    ??_fun 00C3  
          ___fltol@sign1 005A          __end_of___fladd 1800                    ?_main 0070  
        __end_of___fldiv 136D          __end_of___awdiv 1F0C          __end_of___flneg 0011  
        __end_of___awmod 1DD9          __end_of___flmul 1000          __end_of___flsub 1AD6  
        __end_of___fltol 2000             LCDInit@style 0020          __end_of___lldiv 1EA3  
        ___awdiv@divisor 0077          __end_of___llmod 1D29          __end_of___lwdiv 1C3A  
        __end_of___lwmod 1BB6          ___awdiv@counter 0020                    _PORTD 0008  
                  _TRISD 0088          __end_of_get_val 1AFB          __end_of_dpowers 10A0  
                  _scale 0940          __end_of_isdigit 1A9F                    pclath 000A  
                  status 0003                    wtemp0 007E          __end_of_sprintf 07E4  
        __initialization 07E4             __end_of_main 10EE                ??_ADCInit 0070  
                 ??_main 007E        __end_of_LCDGotoXY 1B7C            LCDByte@isdata 0075  
              ??_LCDByte 0076                ??_LCDInit 007C                   _ADCON0 001F  
                 _ADCON1 009F         ___llmod@dividend 0074                   ?_scale 003E  
                 _ADRESH 001E                   _ADRESL 009E         ___awdiv@dividend 0079  
       __end_of___xxtofl 0940           _LCDWriteString 1F0C         __end_of__powers_ 1044  
                 ___flge 10EE                   ___fleq 1C87                ??___fladd 005A  
                 ___wmul 1AFB                ??___fldiv 002E                ??___awdiv 007B  
              ??___flneg 0074                ??___awmod 0074                ??___flmul 002C  
              ??___flsub 007E                ??___fltol 0055                ??___lldiv 0078  
              ??___llmod 0078                ??___lwdiv 007A                ??___lwmod 0074  
                 _fround 136D         ___awdiv@quotient 0022          ___awmod@divisor 0070  
                 _result 00D0          ___awmod@counter 0075                ??_get_val 0072  
              ??_isdigit 0070                ??_sprintf 00A5               ___flge@ff1 0070  
             ___flge@ff2 0074             ___xxtofl@arg 0022             ___xxtofl@exp 0021  
           ___xxtofl@val 0074               ___fleq@ff1 0070               ___fleq@ff2 0074  
__end_of__initialization 07FC               ___flneg@f1 0070   __end_of_LCDWriteString 1F84  
             ___fltol@f1 0051                LCDByte@hn 0078                LCDByte@ln 0079  
         __pcstackCOMMON 0070             __pidataBANK3 1BB6            __end_of_scale 0C9F  
             __div_to_l_ 00CE          __div_to_l_@exp1 0025          __div_to_l_@cntr 0024  
                ??_scale 0042          __div_to_l_@quot 0020               __pbssBANK0 006E  
             __pbssBANK1 00C7          ?_LCDWriteString 007C            __div_to_l_@f1 0070  
          __div_to_l_@f2 0074        __end_of__Umul8_16 1B47               __pmaintext 10C6  
                ?___flge 0070                  ?___fleq 0070                  ?___wmul 0070  
                ?_fround 003E                  _ADCInit 1A7D                  _LCDByte 1C3A  
                _LCDInit 1DD9                ?___xxtofl 0074               __stringtab 1000  
      __end_of__npowers_ 1078                  ___cgram 0190                  ___fladd 1578  
                ___fldiv 1190                  ___awdiv 1EA3                  ___flneg 0006  
                ___awmod 1D80                  ___flmul 0C9F                  ___flsub 1AB2  
                ___fltol 1F84                  ___lldiv 1E3D                  ___llmod 1CD5  
                ___lwdiv 1BF6               _fround$936 004D               _fround$937 0049  
                ___lwmod 1B7C                _ANSELbits 0188                  __ptext1 0807  
                __ptext2 018C                  __ptext3 0940                  __ptext4 1D80  
                __ptext5 1EA3                  __ptext6 1A8D                  __ptext7 136D  
                __ptext8 1B7C                  __ptext9 1BF6                  _get_val 1AD6  
            ?__div_to_l_ 0070                  _dpowers 1078                  _isdigit 1A8D  
             ??___xxtofl 0078         ___awmod@dividend 0072                _LCDGotoXY 1B47  
                _sprintf 018C                  clrloop0 10BF     end_of_initialization 07FC  
        ___lldiv@divisor 0070          ___lldiv@counter 007D           __tdiv_to_l_@f1 0070  
         __tdiv_to_l_@f2 0074            ??__tdiv_to_l_ 0078        LCDWriteString@msg 007C  
            ___fladd@grs 0065            ___xxtofl@sign 0020                _TRISAbits 0085  
              _TRISDbits 0088               ?_LCDGotoXY 007C              ___fldiv@grs 003A  
            ___fldiv@rem 0033              ___flmul@grs 0032               LCDInit@__i 0021  
             LCDGotoXY@x 007D               LCDGotoXY@y 007C            ??_LCDBusyLoop 0070  
         __end_of___flge 1190           __end_of___fleq 1CD5           __end_of___wmul 1B20  
         __end_of_fround 1578      start_initialization 07E4      __end_of__tdiv_to_l_ 00CE  
            __end_of_fun 0884         ??_LCDWriteString 0020          ___llmod@divisor 0070  
        ___llmod@counter 0079                 ??___flge 0078                 ??___fleq 0078  
               ??___wmul 0074               init_fetch0 1A9F                __Umul8_16 1B20  
            __pdataBANK3 0190                 ??_fround 0042                 ?_ADCInit 0070  
          sprintf@tmpval 00B7      __end_of_LCDBusyLoop 1D80                ___fladd@a 0056  
              ___fladd@b 0052               fround@prec 0051                 ?_LCDByte 0075  
               ?_LCDInit 0070                ___fldiv@a 0026                ___fldiv@b 002A  
              ___flmul@a 0028                ___flmul@b 0024                 LCDByte@c 007A  
              ___flsub@a 0066                ___flsub@b 006A                ___latbits 0002  
          __pcstackBANK0 0020            __pcstackBANK1 00A0              ??_LCDGotoXY 0020  
       LCDWriteInt@F1326 00C7              sprintf@flag 00AF              sprintf@eexp 00B5  
            sprintf@fval 00BE              sprintf@prec 00BC         ___lwdiv@dividend 0078  
               ?___fladd 0052                 ?___fldiv 0026                 ?___awdiv 0077  
               ?___flneg 0070                 ?___awmod 0070                 ?___flmul 0024  
               ?___flsub 0066                 ?___fltol 0051                 ?___lldiv 0070  
               ?___llmod 0070                __npowers_ 1044               ?__Umul8_16 0070  
               ?___lwdiv 0076                 ?___lwmod 0070                __pstrings 1000  
              _get_value 006E              __tdiv_to_l_ 0011                 ?_get_val 0070  
           ??__div_to_l_ 0078                 ?_isdigit 0070                _scale$938 004C  
        LCDBusyLoop@busy 0072          LCDBusyLoop@temp 0073         ___lwdiv@quotient 007B  
               ?_sprintf 00A0           ___wmul@product 0074                clear_ram0 10BE  
     __end_of__div_to_l_ 018C              _LCDBusyLoop 1D29         LCDWriteString@cc 0021  
             _ADCON0bits 001F              __stringbase 100F        ___wmul@multiplier 0070  
            ??__Umul8_16 0072        LCDBusyLoop@status 0074       __end_of__stringtab 1010  
            _isdigit$759 0070               sprintf@val 00B1                 ___xxtofl 0884  
        ___lwdiv@divisor 0076          ___lwdiv@counter 007D                 __ptext10 0C9F  
               __ptext11 1B20                 __ptext20 1578                 __ptext12 0011  
               __ptext21 0006                 __ptext13 00CE                 __ptext30 1D29  
               __ptext22 10EE                 __ptext14 0884                 __ptext31 1A7D  
               __ptext23 1C87                 __ptext15 1AFB                 __ptext24 1AD6  
               __ptext16 1CD5                 __ptext25 1190                 __ptext17 1E3D  
               __ptext26 1F0C                 __ptext18 1F84                 __ptext27 1B47  
               __ptext19 1AB2                 __ptext28 1DD9                 __ptext29 1C3A  
               __powers_ 1010                 init_ram0 1AA3                 isdigit@c 0071  
               scale@scl 0050                sprintf@ap 00AE         __tdiv_to_l_@exp1 0025  
       __tdiv_to_l_@cntr 0024                sprintf@sp 00BB         __tdiv_to_l_@quot 0020  
       ___lwmod@dividend 0072         ___lldiv@dividend 0074                stringcode 100A  
           ?__tdiv_to_l_ 0070   __Umul8_16@multiplicand 0070                 sprintf@c 00C2  
               sprintf@f 00A0         ___lldiv@quotient 0079          ___lwmod@divisor 0070  
        ___lwmod@counter 0075                 stringdir 100A                 stringtab 1000  
          ___fladd@signs 0062             ___fladd@aexp 0063             ___fladd@bexp 0064  
   __Umul8_16@multiplier 0078        __Umul8_16@product 0074  
