

Microchip MPLAB XC8 Assembler V2.36 build 20220127204148 
                                                                                               Fri Nov 04 15:08:16 2022

Microchip MPLAB XC8 C Compiler v2.36 (Free license) build 20220127204148 Og1 
     1                           	processor	16F887
     2                           	pagewidth 120
     3                           	opt	flic
     4                           	psect	strings,global,class=STRING,delta=2,noexec
     5                           	psect	cinit,global,class=CODE,merge=1,delta=2
     6                           	psect	bssBANK0,global,class=BANK0,space=1,delta=1,noexec
     7                           	psect	bssBANK1,global,class=BANK1,space=1,delta=1,noexec
     8                           	psect	clrtext,global,class=CODE,delta=2
     9                           	psect	cstackCOMMON,global,class=COMMON,space=1,delta=1,noexec
    10                           	psect	cstackBANK0,global,class=BANK0,space=1,delta=1,noexec
    11                           	psect	maintext,global,class=CODE,split=1,delta=2
    12                           	psect	text1,local,class=CODE,merge=1,delta=2,group=1
    13                           	psect	text2,local,class=CODE,merge=1,delta=2,group=2
    14                           	psect	text3,local,class=CODE,merge=1,delta=2,group=2
    15                           	psect	text4,local,class=CODE,merge=1,delta=2
    16                           	psect	text5,local,class=CODE,merge=1,delta=2
    17                           	psect	text6,local,class=CODE,merge=1,delta=2
    18                           	psect	text7,local,class=CODE,merge=1,delta=2,group=2
    19                           	psect	text8,local,class=CODE,merge=1,delta=2,group=2
    20                           	psect	text9,local,class=CODE,merge=1,delta=2,group=2
    21                           	psect	text10,local,class=CODE,merge=1,delta=2,group=2
    22                           	psect	text11,local,class=CODE,merge=1,delta=2,group=2
    23                           	psect	text12,local,class=CODE,merge=1,delta=2
    24                           	psect	text13,local,class=CODE,merge=1,delta=2
    25                           	psect	text14,local,class=CODE,merge=1,delta=2
    26                           	psect	text15,local,class=CODE,merge=1,delta=2
    27                           	psect	text16,local,class=CODE,merge=1,delta=2
    28                           	psect	idloc,global,abs,ovrld,class=IDLOC,space=5,delta=2,noexec
    29                           	psect	config,global,abs,ovrld,class=CONFIG,space=4,delta=2,noexec
    30                           	dabs	1,0x7E,2
    31  0000                     
    32                           ; Version 2.40
    33                           ; Generated 17/11/2021 GMT
    34                           ; 
    35                           ; Copyright © 2021, Microchip Technology Inc. and its subsidiaries ("Microchip")
    36                           ; All rights reserved.
    37                           ; 
    38                           ; This software is developed by Microchip Technology Inc. and its subsidiaries ("Microch
      +                          ip").
    39                           ; 
    40                           ; Redistribution and use in source and binary forms, with or without modification, are
    41                           ; permitted provided that the following conditions are met:
    42                           ; 
    43                           ;     1. Redistributions of source code must retain the above copyright notice, this lis
      +                          t of
    44                           ;        conditions and the following disclaimer.
    45                           ; 
    46                           ;     2. Redistributions in binary form must reproduce the above copyright notice, this 
      +                          list
    47                           ;        of conditions and the following disclaimer in the documentation and/or other
    48                           ;        materials provided with the distribution. Publication is not required when
    49                           ;        this file is used in an embedded application.
    50                           ; 
    51                           ;     3. Microchip's name may not be used to endorse or promote products derived from th
      +                          is
    52                           ;        software without specific prior written permission.
    53                           ; 
    54                           ; THIS SOFTWARE IS PROVIDED BY MICROCHIP "AS IS" AND ANY EXPRESS OR IMPLIED WARRANTIES,
    55                           ; INCLUDING, BUT NOT LIMITED TO, THE IMPLIED WARRANTIES OF MERCHANTABILITY AND FITNESS F
      +                          OR
    56                           ; PURPOSE ARE DISCLAIMED.  IN NO EVENT SHALL MICROCHIP BE LIABLE FOR ANY DIRECT, INDIREC
      +                          T,
    57                           ; INCIDENTAL, SPECIAL, EXEMPLARY, OR CONSEQUENTIAL DAMAGES (INCLUDING BUT NOT LIMITED TO
    58                           ; PROCUREMENT OF SUBSTITUTE GOODS OR SERVICES; LOSS OF USE, DATA OR PROFITS; OR BUSINESS
    59                           ; INTERRUPTION) HOWSOEVER CAUSED AND ON ANY THEORY OF LIABILITY, WHETHER IN CONTRACT, ST
      +                          RICT
    60                           ; LIABILITY, OR TORT (INCLUDING NEGLIGENCE OR OTHERWISE) ARISING IN ANY WAY OUT OF THE U
      +                          SE OF
    61                           ; THIS SOFTWARE, EVEN IF ADVISED OF THE POSSIBILITY OF SUCH DAMAGE.
    62                           ; 
    63                           ; 
    64                           ; Code-generator required, PIC16F887 Definitions
    65                           ; 
    66                           ; SFR Addresses
    67  0000                     	;# 
    68  0001                     	;# 
    69  0002                     	;# 
    70  0003                     	;# 
    71  0004                     	;# 
    72  0005                     	;# 
    73  0006                     	;# 
    74  0007                     	;# 
    75  0008                     	;# 
    76  0009                     	;# 
    77  000A                     	;# 
    78  000B                     	;# 
    79  000C                     	;# 
    80  000D                     	;# 
    81  000E                     	;# 
    82  000E                     	;# 
    83  000F                     	;# 
    84  0010                     	;# 
    85  0011                     	;# 
    86  0012                     	;# 
    87  0013                     	;# 
    88  0014                     	;# 
    89  0015                     	;# 
    90  0015                     	;# 
    91  0016                     	;# 
    92  0017                     	;# 
    93  0018                     	;# 
    94  0019                     	;# 
    95  001A                     	;# 
    96  001B                     	;# 
    97  001B                     	;# 
    98  001C                     	;# 
    99  001D                     	;# 
   100  001E                     	;# 
   101  001F                     	;# 
   102  0081                     	;# 
   103  0085                     	;# 
   104  0086                     	;# 
   105  0087                     	;# 
   106  0088                     	;# 
   107  0089                     	;# 
   108  008C                     	;# 
   109  008D                     	;# 
   110  008E                     	;# 
   111  008F                     	;# 
   112  0090                     	;# 
   113  0091                     	;# 
   114  0092                     	;# 
   115  0093                     	;# 
   116  0093                     	;# 
   117  0093                     	;# 
   118  0094                     	;# 
   119  0095                     	;# 
   120  0096                     	;# 
   121  0097                     	;# 
   122  0098                     	;# 
   123  0099                     	;# 
   124  009A                     	;# 
   125  009B                     	;# 
   126  009C                     	;# 
   127  009D                     	;# 
   128  009E                     	;# 
   129  009F                     	;# 
   130  0105                     	;# 
   131  0107                     	;# 
   132  0108                     	;# 
   133  0109                     	;# 
   134  010C                     	;# 
   135  010C                     	;# 
   136  010D                     	;# 
   137  010E                     	;# 
   138  010F                     	;# 
   139  0185                     	;# 
   140  0187                     	;# 
   141  0188                     	;# 
   142  0189                     	;# 
   143  018C                     	;# 
   144  018D                     	;# 
   145  0000                     	;# 
   146  0001                     	;# 
   147  0002                     	;# 
   148  0003                     	;# 
   149  0004                     	;# 
   150  0005                     	;# 
   151  0006                     	;# 
   152  0007                     	;# 
   153  0008                     	;# 
   154  0009                     	;# 
   155  000A                     	;# 
   156  000B                     	;# 
   157  000C                     	;# 
   158  000D                     	;# 
   159  000E                     	;# 
   160  000E                     	;# 
   161  000F                     	;# 
   162  0010                     	;# 
   163  0011                     	;# 
   164  0012                     	;# 
   165  0013                     	;# 
   166  0014                     	;# 
   167  0015                     	;# 
   168  0015                     	;# 
   169  0016                     	;# 
   170  0017                     	;# 
   171  0018                     	;# 
   172  0019                     	;# 
   173  001A                     	;# 
   174  001B                     	;# 
   175  001B                     	;# 
   176  001C                     	;# 
   177  001D                     	;# 
   178  001E                     	;# 
   179  001F                     	;# 
   180  0081                     	;# 
   181  0085                     	;# 
   182  0086                     	;# 
   183  0087                     	;# 
   184  0088                     	;# 
   185  0089                     	;# 
   186  008C                     	;# 
   187  008D                     	;# 
   188  008E                     	;# 
   189  008F                     	;# 
   190  0090                     	;# 
   191  0091                     	;# 
   192  0092                     	;# 
   193  0093                     	;# 
   194  0093                     	;# 
   195  0093                     	;# 
   196  0094                     	;# 
   197  0095                     	;# 
   198  0096                     	;# 
   199  0097                     	;# 
   200  0098                     	;# 
   201  0099                     	;# 
   202  009A                     	;# 
   203  009B                     	;# 
   204  009C                     	;# 
   205  009D                     	;# 
   206  009E                     	;# 
   207  009F                     	;# 
   208  0105                     	;# 
   209  0107                     	;# 
   210  0108                     	;# 
   211  0109                     	;# 
   212  010C                     	;# 
   213  010C                     	;# 
   214  010D                     	;# 
   215  010E                     	;# 
   216  010F                     	;# 
   217  0185                     	;# 
   218  0187                     	;# 
   219  0188                     	;# 
   220  0189                     	;# 
   221  018C                     	;# 
   222  018D                     	;# 
   223  0000                     	;# 
   224  0001                     	;# 
   225  0002                     	;# 
   226  0003                     	;# 
   227  0004                     	;# 
   228  0005                     	;# 
   229  0006                     	;# 
   230  0007                     	;# 
   231  0008                     	;# 
   232  0009                     	;# 
   233  000A                     	;# 
   234  000B                     	;# 
   235  000C                     	;# 
   236  000D                     	;# 
   237  000E                     	;# 
   238  000E                     	;# 
   239  000F                     	;# 
   240  0010                     	;# 
   241  0011                     	;# 
   242  0012                     	;# 
   243  0013                     	;# 
   244  0014                     	;# 
   245  0015                     	;# 
   246  0015                     	;# 
   247  0016                     	;# 
   248  0017                     	;# 
   249  0018                     	;# 
   250  0019                     	;# 
   251  001A                     	;# 
   252  001B                     	;# 
   253  001B                     	;# 
   254  001C                     	;# 
   255  001D                     	;# 
   256  001E                     	;# 
   257  001F                     	;# 
   258  0081                     	;# 
   259  0085                     	;# 
   260  0086                     	;# 
   261  0087                     	;# 
   262  0088                     	;# 
   263  0089                     	;# 
   264  008C                     	;# 
   265  008D                     	;# 
   266  008E                     	;# 
   267  008F                     	;# 
   268  0090                     	;# 
   269  0091                     	;# 
   270  0092                     	;# 
   271  0093                     	;# 
   272  0093                     	;# 
   273  0093                     	;# 
   274  0094                     	;# 
   275  0095                     	;# 
   276  0096                     	;# 
   277  0097                     	;# 
   278  0098                     	;# 
   279  0099                     	;# 
   280  009A                     	;# 
   281  009B                     	;# 
   282  009C                     	;# 
   283  009D                     	;# 
   284  009E                     	;# 
   285  009F                     	;# 
   286  0105                     	;# 
   287  0107                     	;# 
   288  0108                     	;# 
   289  0109                     	;# 
   290  010C                     	;# 
   291  010C                     	;# 
   292  010D                     	;# 
   293  010E                     	;# 
   294  010F                     	;# 
   295  0185                     	;# 
   296  0187                     	;# 
   297  0188                     	;# 
   298  0189                     	;# 
   299  018C                     	;# 
   300  018D                     	;# 
   301                           
   302                           	psect	strings
   303  0800                     __pstrings:
   304  0800                     stringtab:
   305  0800                     __stringtab:
   306  0800                     stringcode:	
   307                           ;	String table - string pointers are 1 byte each
   308                           
   309  0800                     stringdir:
   310  0800  3008               	movlw	high stringdir
   311  0801  008A               	movwf	10
   312  0802  0804               	movf	4,w
   313  0803  0A84               	incf	4,f
   314  0804  0782               	addwf	2,f
   315  0805                     __stringbase:
   316  0805  3400               	retlw	0
   317  0806                     __end_of__stringtab:
   318  0806                     _dpowers:
   319  0806  3401               	retlw	1
   320  0807  3400               	retlw	0
   321  0808  340A               	retlw	10
   322  0809  3400               	retlw	0
   323  080A  3464               	retlw	100
   324  080B  3400               	retlw	0
   325  080C  34E8               	retlw	232
   326  080D  3403               	retlw	3
   327  080E  3410               	retlw	16
   328  080F  3427               	retlw	39
   329  0810                     __end_of_dpowers:
   330  0009                     _PORTEbits	set	9
   331  0008                     _PORTDbits	set	8
   332  0008                     _PORTD	set	8
   333  000E                     _TMR1L	set	14
   334  000F                     _TMR1H	set	15
   335  0007                     _PORTCbits	set	7
   336  0010                     _T1CONbits	set	16
   337  0080                     _TMR1ON	set	128
   338  0088                     _TRISD	set	136
   339  0089                     _TRISE	set	137
   340  0439                     _TRISC1	set	1081
   341  0438                     _TRISC0	set	1080
   342  0189                     _ANSELH	set	393
   343  0188                     _ANSEL	set	392
   344  0810                     STR_1:
   345  0810  3425               	retlw	37	;'%'
   346  0811  3475               	retlw	117	;'u'
   347  0812  3420               	retlw	32	;' '
   348  0813  3400               	retlw	0
   349                           
   350                           	psect	cinit
   351  07EB                     start_initialization:	
   352                           ; #config settings
   353                           
   354  07EB                     __initialization:
   355                           
   356                           ; Clear objects allocated to BANK0
   357  07EB  1283               	bcf	3,5	;RP0=0, select bank0
   358  07EC  1303               	bcf	3,6	;RP1=0, select bank0
   359  07ED  01E7               	clrf	__pbssBANK0& (0+127)
   360  07EE  01E8               	clrf	(__pbssBANK0+1)& (0+127)
   361  07EF  01E9               	clrf	(__pbssBANK0+2)& (0+127)
   362  07F0  01EA               	clrf	(__pbssBANK0+3)& (0+127)
   363  07F1  01EB               	clrf	(__pbssBANK0+4)& (0+127)
   364  07F2  01EC               	clrf	(__pbssBANK0+5)& (0+127)
   365                           
   366                           ; Clear objects allocated to BANK1
   367  07F3  1383               	bcf	3,7	;select IRP bank0
   368  07F4  30A0               	movlw	low __pbssBANK1
   369  07F5  0084               	movwf	4
   370  07F6  30B4               	movlw	low (__pbssBANK1+20)
   371  07F7  120A  158A  25E8  120A  118A  	fcall	clear_ram0
   372  07FC                     end_of_initialization:	
   373                           ;End of C runtime variable initialization code
   374                           
   375  07FC                     __end_of__initialization:
   376  07FC  0183               	clrf	3
   377  07FD  120A  118A  2885   	ljmp	_main	;jump to C main() function
   378                           
   379                           	psect	bssBANK0
   380  0067                     __pbssBANK0:
   381  0067                     _time:
   382  0067                     	ds	2
   383  0069                     _temp:
   384  0069                     	ds	2
   385  006B                     _temp1:
   386  006B                     	ds	2
   387                           
   388                           	psect	bssBANK1
   389  00A0                     __pbssBANK1:
   390  00A0                     _buffer:
   391  00A0                     	ds	20
   392                           
   393                           	psect	clrtext
   394  0DE8                     clear_ram0:	
   395                           ;	Called with FSR containing the base address, and
   396                           ;	W with the last address+1
   397                           
   398  0DE8  0064               	clrwdt	;clear the watchdog before getting into this loop
   399  0DE9                     clrloop0:
   400  0DE9  0180               	clrf	0	;clear RAM location pointed to by FSR
   401  0DEA  0A84               	incf	4,f	;increment pointer
   402  0DEB  0604               	xorwf	4,w	;XOR with final address
   403  0DEC  1903               	btfsc	3,2	;have we reached the end yet?
   404  0DED  3400               	retlw	0	;all done for this memory range, return
   405  0DEE  0604               	xorwf	4,w	;XOR again to restore value
   406  0DEF  2DE9               	goto	clrloop0	;do the next byte
   407                           
   408                           	psect	cstackCOMMON
   409  0070                     __pcstackCOMMON:
   410  0070                     ?_LCD_Initialize:
   411  0070                     ?_LCDPutStr:	
   412                           ; 1 bytes @ 0x0
   413                           
   414  0070                     ?_LCDPutCmd:	
   415                           ; 1 bytes @ 0x0
   416                           
   417  0070                     ?_config:	
   418                           ; 1 bytes @ 0x0
   419                           
   420  0070                     ?_main:	
   421                           ; 1 bytes @ 0x0
   422                           
   423  0070                     ?_LCDWriteNibble:	
   424                           ; 1 bytes @ 0x0
   425                           
   426  0070                     ?_LCDPutChar:	
   427                           ; 1 bytes @ 0x0
   428                           
   429  0070                     ?__Umul8_16:	
   430                           ; 1 bytes @ 0x0
   431                           
   432  0070                     ?_get_val:	
   433                           ; 2 bytes @ 0x0
   434                           
   435  0070                     ?___lwdiv:	
   436                           ; 2 bytes @ 0x0
   437                           
   438  0070                     LCDWriteNibble@rs:	
   439                           ; 2 bytes @ 0x0
   440                           
   441  0070                     __Umul8_16@multiplicand:	
   442                           ; 1 bytes @ 0x0
   443                           
   444  0070                     ___lwdiv@divisor:	
   445                           ; 1 bytes @ 0x0
   446                           
   447                           
   448                           ; 2 bytes @ 0x0
   449  0070                     	ds	1
   450  0071                     ??_LCDWriteNibble:
   451                           
   452                           ; 1 bytes @ 0x1
   453  0071                     	ds	1
   454  0072                     ??__Umul8_16:
   455  0072                     ??_get_val:	
   456                           ; 1 bytes @ 0x2
   457                           
   458  0072                     LCDWriteNibble@ch:	
   459                           ; 1 bytes @ 0x2
   460                           
   461  0072                     ___lwdiv@dividend:	
   462                           ; 1 bytes @ 0x2
   463                           
   464                           
   465                           ; 2 bytes @ 0x2
   466  0072                     	ds	1
   467  0073                     ??_LCDPutCmd:
   468  0073                     ??_LCDPutChar:	
   469                           ; 1 bytes @ 0x3
   470                           
   471                           
   472                           ; 1 bytes @ 0x3
   473  0073                     	ds	1
   474  0074                     ??___lwdiv:
   475  0074                     ?___xxtofl:	
   476                           ; 1 bytes @ 0x4
   477                           
   478  0074                     __Umul8_16@product:	
   479                           ; 4 bytes @ 0x4
   480                           
   481  0074                     ___xxtofl@val:	
   482                           ; 2 bytes @ 0x4
   483                           
   484                           
   485                           ; 4 bytes @ 0x4
   486  0074                     	ds	1
   487  0075                     LCDPutChar@ch:
   488  0075                     LCDPutCmd@ch:	
   489                           ; 1 bytes @ 0x5
   490                           
   491  0075                     ___lwdiv@quotient:	
   492                           ; 1 bytes @ 0x5
   493                           
   494                           
   495                           ; 2 bytes @ 0x5
   496  0075                     	ds	1
   497  0076                     ??_LCD_Initialize:
   498  0076                     ?_LCDGoto:	
   499                           ; 1 bytes @ 0x6
   500                           
   501  0076                     ??_LCDPutStr:	
   502                           ; 1 bytes @ 0x6
   503                           
   504  0076                     LCDGoto@ln:	
   505                           ; 1 bytes @ 0x6
   506                           
   507  0076                     __Umul8_16@word_mpld:	
   508                           ; 1 bytes @ 0x6
   509                           
   510                           
   511                           ; 2 bytes @ 0x6
   512  0076                     	ds	1
   513  0077                     ??_LCDGoto:
   514  0077                     LCDPutStr@str:	
   515                           ; 1 bytes @ 0x7
   516                           
   517  0077                     ___lwdiv@counter:	
   518                           ; 1 bytes @ 0x7
   519                           
   520                           
   521                           ; 1 bytes @ 0x7
   522  0077                     	ds	1
   523  0078                     ??_config:
   524  0078                     ??___xxtofl:	
   525                           ; 1 bytes @ 0x8
   526                           
   527  0078                     ?___lwmod:	
   528                           ; 1 bytes @ 0x8
   529                           
   530  0078                     LCDPutStr@i:	
   531                           ; 2 bytes @ 0x8
   532                           
   533  0078                     __Umul8_16@multiplier:	
   534                           ; 1 bytes @ 0x8
   535                           
   536  0078                     ___lwmod@divisor:	
   537                           ; 1 bytes @ 0x8
   538                           
   539                           
   540                           ; 2 bytes @ 0x8
   541  0078                     	ds	1
   542  0079                     _LCDGoto$228:
   543                           
   544                           ; 2 bytes @ 0x9
   545  0079                     	ds	1
   546  007A                     ___lwmod@dividend:
   547                           
   548                           ; 2 bytes @ 0xA
   549  007A                     	ds	1
   550  007B                     LCDGoto@pos:
   551                           
   552                           ; 1 bytes @ 0xB
   553  007B                     	ds	1
   554  007C                     ??___lwmod:
   555  007C                     ___fltol@sign1:	
   556                           ; 1 bytes @ 0xC
   557                           
   558                           
   559                           ; 1 bytes @ 0xC
   560  007C                     	ds	1
   561  007D                     ___fltol@exp1:
   562  007D                     ___lwmod@counter:	
   563                           ; 1 bytes @ 0xD
   564                           
   565                           
   566                           ; 1 bytes @ 0xD
   567  007D                     	ds	1
   568                           
   569                           	psect	cstackBANK0
   570  0020                     __pcstackBANK0:
   571  0020                     ?_sprintf:
   572  0020                     sprintf@f:	
   573                           ; 2 bytes @ 0x0
   574                           
   575  0020                     ___xxtofl@sign:	
   576                           ; 1 bytes @ 0x0
   577                           
   578                           
   579                           ; 1 bytes @ 0x0
   580  0020                     	ds	1
   581  0021                     ___xxtofl@exp:
   582                           
   583                           ; 1 bytes @ 0x1
   584  0021                     	ds	1
   585  0022                     ___xxtofl@arg:
   586                           
   587                           ; 4 bytes @ 0x2
   588  0022                     	ds	1
   589  0023                     ??_sprintf:
   590                           
   591                           ; 1 bytes @ 0x3
   592  0023                     	ds	3
   593  0026                     ?___flmul:
   594  0026                     sprintf@flag:	
   595                           ; 4 bytes @ 0x6
   596                           
   597  0026                     ___flmul@b:	
   598                           ; 1 bytes @ 0x6
   599                           
   600                           
   601                           ; 4 bytes @ 0x6
   602  0026                     	ds	1
   603  0027                     sprintf@ap:
   604                           
   605                           ; 1 bytes @ 0x7
   606  0027                     	ds	1
   607  0028                     sprintf@val:
   608                           
   609                           ; 2 bytes @ 0x8
   610  0028                     	ds	2
   611  002A                     sprintf@prec:
   612  002A                     ___flmul@a:	
   613                           ; 1 bytes @ 0xA
   614                           
   615                           
   616                           ; 4 bytes @ 0xA
   617  002A                     	ds	1
   618  002B                     sprintf@sp:
   619                           
   620                           ; 1 bytes @ 0xB
   621  002B                     	ds	1
   622  002C                     sprintf@c:
   623                           
   624                           ; 1 bytes @ 0xC
   625  002C                     	ds	2
   626  002E                     ??___flmul:
   627                           
   628                           ; 1 bytes @ 0xE
   629  002E                     	ds	5
   630  0033                     ___flmul@sign:
   631                           
   632                           ; 1 bytes @ 0x13
   633  0033                     	ds	1
   634  0034                     ___flmul@grs:
   635                           
   636                           ; 4 bytes @ 0x14
   637  0034                     	ds	4
   638  0038                     ___flmul@aexp:
   639                           
   640                           ; 1 bytes @ 0x18
   641  0038                     	ds	1
   642  0039                     ___flmul@bexp:
   643                           
   644                           ; 1 bytes @ 0x19
   645  0039                     	ds	1
   646  003A                     ___flmul@prod:
   647                           
   648                           ; 4 bytes @ 0x1A
   649  003A                     	ds	4
   650  003E                     ___flmul@temp:
   651                           
   652                           ; 2 bytes @ 0x1E
   653  003E                     	ds	2
   654  0040                     ?___fldiv:
   655  0040                     ___fldiv@a:	
   656                           ; 4 bytes @ 0x20
   657                           
   658                           
   659                           ; 4 bytes @ 0x20
   660  0040                     	ds	4
   661  0044                     ___fldiv@b:
   662                           
   663                           ; 4 bytes @ 0x24
   664  0044                     	ds	4
   665  0048                     ??___fldiv:
   666                           
   667                           ; 1 bytes @ 0x28
   668  0048                     	ds	5
   669  004D                     ___fldiv@rem:
   670                           
   671                           ; 4 bytes @ 0x2D
   672  004D                     	ds	4
   673  0051                     ___fldiv@sign:
   674                           
   675                           ; 1 bytes @ 0x31
   676  0051                     	ds	1
   677  0052                     ___fldiv@new_exp:
   678                           
   679                           ; 2 bytes @ 0x32
   680  0052                     	ds	2
   681  0054                     ___fldiv@grs:
   682                           
   683                           ; 4 bytes @ 0x34
   684  0054                     	ds	4
   685  0058                     ___fldiv@bexp:
   686                           
   687                           ; 1 bytes @ 0x38
   688  0058                     	ds	1
   689  0059                     ___fldiv@aexp:
   690                           
   691                           ; 1 bytes @ 0x39
   692  0059                     	ds	1
   693  005A                     ?___fltol:
   694  005A                     ___fltol@f1:	
   695                           ; 4 bytes @ 0x3A
   696                           
   697                           
   698                           ; 4 bytes @ 0x3A
   699  005A                     	ds	4
   700  005E                     ??___fltol:
   701                           
   702                           ; 1 bytes @ 0x3E
   703  005E                     	ds	5
   704  0063                     ??_main:
   705                           
   706                           ; 1 bytes @ 0x43
   707  0063                     	ds	4
   708                           
   709                           	psect	maintext
   710  0085                     __pmaintext:	
   711 ;;
   712 ;;Main: autosize = 0, tempsize = 4, incstack = 0, save=0
   713 ;;
   714 ;; *************** function _main *****************
   715 ;; Defined at:
   716 ;;		line 55 in file "newmain.c"
   717 ;; Parameters:    Size  Location     Type
   718 ;;		None
   719 ;; Auto vars:     Size  Location     Type
   720 ;;		None
   721 ;; Return value:  Size  Location     Type
   722 ;;                  1    wreg      void 
   723 ;; Registers used:
   724 ;;		wreg, fsr0l, fsr0h, status,2, status,0, btemp+1, pclath, cstack
   725 ;; Tracked objects:
   726 ;;		On entry : B00/0
   727 ;;		On exit  : 0/0
   728 ;;		Unchanged: 0/0
   729 ;; Data sizes:     COMMON   BANK0   BANK1   BANK3   BANK2
   730 ;;      Params:         0       0       0       0       0
   731 ;;      Locals:         0       0       0       0       0
   732 ;;      Temps:          0       4       0       0       0
   733 ;;      Totals:         0       4       0       0       0
   734 ;;Total ram usage:        4 bytes
   735 ;; Hardware stack levels required when called: 4
   736 ;; This function calls:
   737 ;;		_LCDGoto
   738 ;;		_LCDPutStr
   739 ;;		___fldiv
   740 ;;		___flmul
   741 ;;		___fltol
   742 ;;		___xxtofl
   743 ;;		_config
   744 ;;		_get_val
   745 ;;		_sprintf
   746 ;; This function is called by:
   747 ;;		Startup code after reset
   748 ;; This function uses a non-reentrant model
   749 ;;
   750                           
   751  0085                     _main:	
   752                           ;psect for function _main
   753                           
   754  0085                     l1925:	
   755                           ;incstack = 0
   756                           ; Regs used in _main: [wreg-fsr0h+status,2+status,0+btemp+1+pclath+cstack]
   757                           
   758                           
   759                           ;newmain.c: 56:     config();
   760  0085  120A  158A  25F0  120A  118A  	fcall	_config
   761  008A                     l1927:
   762                           
   763                           ;newmain.c: 58:     {;newmain.c: 59:         temp1 = get_val();
   764  008A  120A  158A  26F6  120A  118A  	fcall	_get_val
   765  008F  0871               	movf	?_get_val+1,w
   766  0090  1283               	bcf	3,5	;RP0=0, select bank0
   767  0091  1303               	bcf	3,6	;RP1=0, select bank0
   768  0092  00EC               	movwf	_temp1+1
   769  0093  0870               	movf	?_get_val,w
   770  0094  00EB               	movwf	_temp1
   771  0095                     l1929:
   772                           
   773                           ;newmain.c: 60:         temp = (get_val() * 1.0) / 232;
   774  0095  120A  158A  26F6  120A  118A  	fcall	_get_val
   775  009A  0870               	movf	?_get_val,w
   776  009B  1283               	bcf	3,5	;RP0=0, select bank0
   777  009C  1303               	bcf	3,6	;RP1=0, select bank0
   778  009D  00E3               	movwf	??_main
   779  009E  0871               	movf	?_get_val+1,w
   780  009F  00E4               	movwf	??_main+1
   781  00A0  01E5               	clrf	??_main+2
   782  00A1  01E6               	clrf	??_main+3
   783  00A2  0866               	movf	??_main+3,w
   784  00A3  00F7               	movwf	___xxtofl@val+3
   785  00A4  0865               	movf	??_main+2,w
   786  00A5  00F6               	movwf	___xxtofl@val+2
   787  00A6  0864               	movf	??_main+1,w
   788  00A7  00F5               	movwf	___xxtofl@val+1
   789  00A8  0863               	movf	??_main,w
   790  00A9  00F4               	movwf	___xxtofl@val
   791  00AA  3000               	movlw	0
   792  00AB  120A  118A  2124  120A  118A  	fcall	___xxtofl
   793  00B0  0877               	movf	?___xxtofl+3,w
   794  00B1  1283               	bcf	3,5	;RP0=0, select bank0
   795  00B2  1303               	bcf	3,6	;RP1=0, select bank0
   796  00B3  00AD               	movwf	___flmul@a+3
   797  00B4  0876               	movf	?___xxtofl+2,w
   798  00B5  00AC               	movwf	___flmul@a+2
   799  00B6  0875               	movf	?___xxtofl+1,w
   800  00B7  00AB               	movwf	___flmul@a+1
   801  00B8  0874               	movf	?___xxtofl,w
   802  00B9  00AA               	movwf	___flmul@a
   803  00BA  303F               	movlw	63
   804  00BB  00A9               	movwf	___flmul@b+3
   805  00BC  3080               	movlw	128
   806  00BD  00A8               	movwf	___flmul@b+2
   807  00BE  3000               	movlw	0
   808  00BF  00A7               	movwf	___flmul@b+1
   809  00C0  3000               	movlw	0
   810  00C1  00A6               	movwf	___flmul@b
   811  00C2  120A  118A  248A  120A  118A  	fcall	___flmul
   812  00C7  1283               	bcf	3,5	;RP0=0, select bank0
   813  00C8  1303               	bcf	3,6	;RP1=0, select bank0
   814  00C9  0829               	movf	?___flmul+3,w
   815  00CA  00C7               	movwf	___fldiv@b+3
   816  00CB  0828               	movf	?___flmul+2,w
   817  00CC  00C6               	movwf	___fldiv@b+2
   818  00CD  0827               	movf	?___flmul+1,w
   819  00CE  00C5               	movwf	___fldiv@b+1
   820  00CF  0826               	movf	?___flmul,w
   821  00D0  00C4               	movwf	___fldiv@b
   822  00D1  3043               	movlw	67
   823  00D2  00C3               	movwf	___fldiv@a+3
   824  00D3  3068               	movlw	104
   825  00D4  00C2               	movwf	___fldiv@a+2
   826  00D5  3000               	movlw	0
   827  00D6  00C1               	movwf	___fldiv@a+1
   828  00D7  3000               	movlw	0
   829  00D8  00C0               	movwf	___fldiv@a
   830  00D9  120A  118A  22AD  120A  118A  	fcall	___fldiv
   831  00DE  1283               	bcf	3,5	;RP0=0, select bank0
   832  00DF  1303               	bcf	3,6	;RP1=0, select bank0
   833  00E0  0843               	movf	?___fldiv+3,w
   834  00E1  00DD               	movwf	___fltol@f1+3
   835  00E2  0842               	movf	?___fldiv+2,w
   836  00E3  00DC               	movwf	___fltol@f1+2
   837  00E4  0841               	movf	?___fldiv+1,w
   838  00E5  00DB               	movwf	___fltol@f1+1
   839  00E6  0840               	movf	?___fldiv,w
   840  00E7  00DA               	movwf	___fltol@f1
   841  00E8  120A  118A  2009  120A  118A  	fcall	___fltol
   842  00ED  1283               	bcf	3,5	;RP0=0, select bank0
   843  00EE  1303               	bcf	3,6	;RP1=0, select bank0
   844  00EF  085B               	movf	?___fltol+1,w
   845  00F0  00EA               	movwf	_temp+1
   846  00F1  085A               	movf	?___fltol,w
   847  00F2  00E9               	movwf	_temp
   848  00F3                     l1931:
   849                           
   850                           ;newmain.c: 61:         sprintf(buffer, "%u ",temp);
   851  00F3  300B               	movlw	(low ((STR_1-__stringbase)| (0+32768)))& (0+255)
   852  00F4  00E3               	movwf	??_main
   853  00F5  0863               	movf	??_main,w
   854  00F6  00A0               	movwf	sprintf@f
   855  00F7  086A               	movf	_temp+1,w
   856  00F8  00A2               	movwf	?_sprintf+2
   857  00F9  0869               	movf	_temp,w
   858  00FA  00A1               	movwf	?_sprintf+1
   859  00FB  30A0               	movlw	(low (_buffer| 0))& (0+255)
   860  00FC  120A  118A  21E0  120A  118A  	fcall	_sprintf
   861  0101                     l1933:
   862                           
   863                           ;newmain.c: 62:         LCDGoto(0,0);
   864  0101  01F6               	clrf	LCDGoto@ln
   865  0102  3000               	movlw	0
   866  0103  120A  158A  2668  120A  118A  	fcall	_LCDGoto
   867  0108                     l1935:
   868                           
   869                           ;newmain.c: 63:         LCDPutStr(buffer);
   870  0108  30A0               	movlw	(low (_buffer| 0))& (0+255)
   871  0109  120A  158A  25FB  120A  118A  	fcall	_LCDPutStr
   872  010E                     l1937:
   873                           
   874                           ;newmain.c: 64:         _delay((unsigned long)((500)*(16000000/4000.0)));
   875  010E  300B               	movlw	11
   876  010F  1283               	bcf	3,5	;RP0=0, select bank0
   877  0110  1303               	bcf	3,6	;RP1=0, select bank0
   878  0111  00E5               	movwf	??_main+2
   879  0112  3026               	movlw	38
   880  0113  00E4               	movwf	??_main+1
   881  0114  305D               	movlw	93
   882  0115  00E3               	movwf	??_main
   883  0116                     u2577:
   884  0116  0BE3               	decfsz	??_main,f
   885  0117  2916               	goto	u2577
   886  0118  0BE4               	decfsz	??_main+1,f
   887  0119  2916               	goto	u2577
   888  011A  0BE5               	decfsz	??_main+2,f
   889  011B  2916               	goto	u2577
   890  011C                     l1939:
   891                           
   892                           ;newmain.c: 65:         TMR1L = 0;
   893  011C  1283               	bcf	3,5	;RP0=0, select bank0
   894  011D  1303               	bcf	3,6	;RP1=0, select bank0
   895  011E  018E               	clrf	14	;volatile
   896  011F                     l1941:
   897                           
   898                           ;newmain.c: 66:         TMR1H = 0;
   899  011F  018F               	clrf	15	;volatile
   900  0120  288A               	goto	l1927
   901  0121  120A  118A  2800   	ljmp	start
   902  0124                     __end_of_main:
   903                           
   904                           	psect	text1
   905  01E0                     __ptext1:	
   906 ;; *************** function _sprintf *****************
   907 ;; Defined at:
   908 ;;		line 505 in file "C:\Program Files\Microchip\xc8\v2.36\pic\sources\c90\common\doprnt.c"
   909 ;; Parameters:    Size  Location     Type
   910 ;;  sp              1    wreg     PTR unsigned char 
   911 ;;		 -> buffer(20), 
   912 ;;  f               1    0[BANK0 ] PTR const unsigned char 
   913 ;;		 -> STR_1(4), 
   914 ;; Auto vars:     Size  Location     Type
   915 ;;  sp              1   11[BANK0 ] PTR unsigned char 
   916 ;;		 -> buffer(20), 
   917 ;;  tmpval          4    0        struct .
   918 ;;  val             2    8[BANK0 ] unsigned int 
   919 ;;  cp              2    0        PTR const unsigned char 
   920 ;;  len             2    0        unsigned int 
   921 ;;  c               1   12[BANK0 ] unsigned char 
   922 ;;  prec            1   10[BANK0 ] char 
   923 ;;  ap              1    7[BANK0 ] PTR void [1]
   924 ;;		 -> ?_sprintf(2), 
   925 ;;  flag            1    6[BANK0 ] unsigned char 
   926 ;; Return value:  Size  Location     Type
   927 ;;                  2    0[BANK0 ] int 
   928 ;; Registers used:
   929 ;;		wreg, fsr0l, fsr0h, status,2, status,0, btemp+1, pclath, cstack
   930 ;; Tracked objects:
   931 ;;		On entry : 0/0
   932 ;;		On exit  : 0/0
   933 ;;		Unchanged: 0/0
   934 ;; Data sizes:     COMMON   BANK0   BANK1   BANK3   BANK2
   935 ;;      Params:         0       3       0       0       0
   936 ;;      Locals:         0       7       0       0       0
   937 ;;      Temps:          0       3       0       0       0
   938 ;;      Totals:         0      13       0       0       0
   939 ;;Total ram usage:       13 bytes
   940 ;; Hardware stack levels used: 1
   941 ;; Hardware stack levels required when called: 1
   942 ;; This function calls:
   943 ;;		___lwdiv
   944 ;;		___lwmod
   945 ;; This function is called by:
   946 ;;		_main
   947 ;; This function uses a non-reentrant model
   948 ;;
   949                           
   950  01E0                     _sprintf:	
   951                           ;psect for function _sprintf
   952                           
   953                           
   954                           ;incstack = 0
   955                           ; Regs used in _sprintf: [wreg-fsr0h+status,2+status,0+btemp+1+pclath+cstack]
   956                           ;sprintf@sp stored from wreg
   957  01E0  1283               	bcf	3,5	;RP0=0, select bank0
   958  01E1  1303               	bcf	3,6	;RP1=0, select bank0
   959  01E2  00AB               	movwf	sprintf@sp
   960  01E3                     l1489:
   961                           
   962                           ;C:\Program Files\Microchip\xc8\v2.36\pic\sources\c90\common\doprnt.c: 505: sprintf(char
      +                           * sp, const char * f, ...);C:\Program Files\Microchip\xc8\v2.36\pic\sources\c90\common\
      +                          doprnt.c: 506: {;C:\Program Files\Microchip\xc8\v2.36\pic\sources\c90\common\doprnt.c: 5
      +                          07:  va_list ap;;C:\Program Files\Microchip\xc8\v2.36\pic\sources\c90\common\doprnt.c: 5
      +                          12:  char c;;C:\Program Files\Microchip\xc8\v2.36\pic\sources\c90\common\doprnt.c: 521: 
      +                           signed char prec;;C:\Program Files\Microchip\xc8\v2.36\pic\sources\c90\common\doprnt.c:
      +                           525:  unsigned char flag;
   963  01E3  3021               	movlw	(low ((?_sprintf| 0+1)))& (0+255)
   964  01E4  00A3               	movwf	??_sprintf
   965  01E5  0823               	movf	??_sprintf,w
   966  01E6  00A7               	movwf	sprintf@ap
   967                           
   968                           ;C:\Program Files\Microchip\xc8\v2.36\pic\sources\c90\common\doprnt.c: 553:  while((c = 
      +                          *f++)) {
   969  01E7  2A96               	goto	l1531
   970  01E8                     l1491:
   971                           
   972                           ;C:\Program Files\Microchip\xc8\v2.36\pic\sources\c90\common\doprnt.c: 555:   if(c != '%
      +                          ')
   973  01E8  3025               	movlw	37
   974  01E9  062C               	xorwf	sprintf@c,w
   975  01EA  1903               	btfsc	3,2
   976  01EB  29ED               	goto	u1581
   977  01EC  29EE               	goto	u1580
   978  01ED                     u1581:
   979  01ED  29FA               	goto	l1497
   980  01EE                     u1580:
   981  01EE                     l1493:
   982                           
   983                           ;C:\Program Files\Microchip\xc8\v2.36\pic\sources\c90\common\doprnt.c: 557:   {;C:\Progr
      +                          am Files\Microchip\xc8\v2.36\pic\sources\c90\common\doprnt.c: 558:    ((*sp++ = (c)));
   984  01EE  082C               	movf	sprintf@c,w
   985  01EF  00A3               	movwf	??_sprintf
   986  01F0  082B               	movf	sprintf@sp,w
   987  01F1  0084               	movwf	4
   988  01F2  0823               	movf	??_sprintf,w
   989  01F3  1383               	bcf	3,7	;select IRP bank0
   990  01F4  0080               	movwf	0
   991  01F5                     l1495:
   992  01F5  3001               	movlw	1
   993  01F6  00A3               	movwf	??_sprintf
   994  01F7  0823               	movf	??_sprintf,w
   995  01F8  07AB               	addwf	sprintf@sp,f
   996                           
   997                           ;C:\Program Files\Microchip\xc8\v2.36\pic\sources\c90\common\doprnt.c: 559:    continue;
   998  01F9  2A96               	goto	l1531
   999  01FA                     l1497:
  1000                           
  1001                           ;C:\Program Files\Microchip\xc8\v2.36\pic\sources\c90\common\doprnt.c: 565:   flag = 0;
  1002  01FA  01A6               	clrf	sprintf@flag
  1003                           
  1004                           ;C:\Program Files\Microchip\xc8\v2.36\pic\sources\c90\common\doprnt.c: 661:   switch(c =
      +                           *f++) {
  1005  01FB  2A01               	goto	l1503
  1006  01FC                     l1499:
  1007                           
  1008                           ;C:\Program Files\Microchip\xc8\v2.36\pic\sources\c90\common\doprnt.c: 844:    flag |= 0
      +                          xC0;
  1009  01FC  30C0               	movlw	192
  1010  01FD  00A3               	movwf	??_sprintf
  1011  01FE  0823               	movf	??_sprintf,w
  1012  01FF  04A6               	iorwf	sprintf@flag,f
  1013                           
  1014                           ;C:\Program Files\Microchip\xc8\v2.36\pic\sources\c90\common\doprnt.c: 845:    break;
  1015  0200  2A1B               	goto	l1505
  1016  0201                     l1503:
  1017  0201  3001               	movlw	1
  1018  0202  07A0               	addwf	sprintf@f,f
  1019  0203  30FF               	movlw	-1
  1020  0204  0720               	addwf	sprintf@f,w
  1021  0205  0084               	movwf	4
  1022  0206  120A  158A  2000  120A  118A  	fcall	stringdir
  1023  020B  00AC               	movwf	sprintf@c
  1024  020C  00A3               	movwf	??_sprintf
  1025  020D  01A4               	clrf	??_sprintf+1
  1026                           
  1027                           ; Switch on 2 bytes has been partitioned into a top level switch of size 1, and 1 sub-sw
      +                          itches
  1028                           ; Switch size 1, requested type "simple"
  1029                           ; Number of cases is 1, Range of values is 0 to 0
  1030                           ; switch strategies available:
  1031                           ; Name         Instructions Cycles
  1032                           ; simple_byte            4     3 (average)
  1033                           ; direct_byte           11     8 (fixed)
  1034                           ; jumptable            260     6 (fixed)
  1035                           ;	Chosen strategy is simple_byte
  1036  020E  0824               	movf	??_sprintf+1,w
  1037  020F  3A00               	xorlw	0	; case 0
  1038  0210  1903               	skipnz
  1039  0211  2A13               	goto	l1963
  1040  0212  2A96               	goto	l1531
  1041  0213                     l1963:
  1042                           
  1043                           ; Switch size 1, requested type "simple"
  1044                           ; Number of cases is 2, Range of values is 0 to 117
  1045                           ; switch strategies available:
  1046                           ; Name         Instructions Cycles
  1047                           ; simple_byte            7     4 (average)
  1048                           ; jumptable            260     6 (fixed)
  1049                           ;	Chosen strategy is simple_byte
  1050  0213  0823               	movf	??_sprintf,w
  1051  0214  3A00               	xorlw	0	; case 0
  1052  0215  1903               	skipnz
  1053  0216  2AA8               	goto	l1533
  1054  0217  3A75               	xorlw	117	; case 117
  1055  0218  1903               	skipnz
  1056  0219  29FC               	goto	l1499
  1057  021A  2A96               	goto	l1531
  1058  021B                     l1505:
  1059                           
  1060                           ;C:\Program Files\Microchip\xc8\v2.36\pic\sources\c90\common\doprnt.c: 1299:   {;C:\Prog
      +                          ram Files\Microchip\xc8\v2.36\pic\sources\c90\common\doprnt.c: 1312:     val = (*(unsign
      +                          ed *)__va_arg((*(unsigned **)ap), (unsigned)0));
  1061  021B  0827               	movf	sprintf@ap,w
  1062  021C  0084               	movwf	4
  1063  021D  1383               	bcf	3,7	;select IRP bank0
  1064  021E  0800               	movf	0,w
  1065  021F  00A8               	movwf	sprintf@val
  1066  0220  0A84               	incf	4,f
  1067  0221  0800               	movf	0,w
  1068  0222  00A9               	movwf	sprintf@val+1
  1069  0223                     l1507:
  1070  0223  3002               	movlw	2
  1071  0224  00A3               	movwf	??_sprintf
  1072  0225  0823               	movf	??_sprintf,w
  1073  0226  07A7               	addwf	sprintf@ap,f
  1074  0227                     l1509:
  1075                           
  1076                           ;C:\Program Files\Microchip\xc8\v2.36\pic\sources\c90\common\doprnt.c: 1313:   };C:\Prog
      +                          ram Files\Microchip\xc8\v2.36\pic\sources\c90\common\doprnt.c: 1331:    for(c = 1 ; c !=
      +                           sizeof dpowers/sizeof dpowers[0] ; c++)
  1077  0227  01AC               	clrf	sprintf@c
  1078  0228  0AAC               	incf	sprintf@c,f
  1079  0229                     l1515:
  1080                           
  1081                           ;C:\Program Files\Microchip\xc8\v2.36\pic\sources\c90\common\doprnt.c: 1332:     if(val 
      +                          < dpowers[c])
  1082  0229  082C               	movf	sprintf@c,w
  1083  022A  00A3               	movwf	??_sprintf
  1084  022B  0723               	addwf	??_sprintf,w
  1085  022C  3E01               	addlw	low ((_dpowers-__stringbase)| (0+32768))
  1086  022D  0084               	movwf	4
  1087  022E  120A  158A  2000  120A  118A  	fcall	stringdir
  1088  0233  00A4               	movwf	??_sprintf+1
  1089  0234  120A  158A  2000  120A  118A  	fcall	stringdir
  1090  0239  00A5               	movwf	??_sprintf+2
  1091  023A  0825               	movf	??_sprintf+2,w
  1092  023B  0229               	subwf	sprintf@val+1,w
  1093  023C  1D03               	skipz
  1094  023D  2A40               	goto	u1595
  1095  023E  0824               	movf	??_sprintf+1,w
  1096  023F  0228               	subwf	sprintf@val,w
  1097  0240                     u1595:
  1098  0240  1803               	skipnc
  1099  0241  2A43               	goto	u1591
  1100  0242  2A44               	goto	u1590
  1101  0243                     u1591:
  1102  0243  2A45               	goto	l1519
  1103  0244                     u1590:
  1104  0244  2A4F               	goto	l1521
  1105  0245                     l1519:
  1106  0245  3001               	movlw	1
  1107  0246  00A3               	movwf	??_sprintf
  1108  0247  0823               	movf	??_sprintf,w
  1109  0248  07AC               	addwf	sprintf@c,f
  1110  0249  3005               	movlw	5
  1111  024A  062C               	xorwf	sprintf@c,w
  1112  024B  1D03               	btfss	3,2
  1113  024C  2A4E               	goto	u1601
  1114  024D  2A4F               	goto	u1600
  1115  024E                     u1601:
  1116  024E  2A29               	goto	l1515
  1117  024F                     u1600:
  1118  024F                     l1521:
  1119                           
  1120                           ;C:\Program Files\Microchip\xc8\v2.36\pic\sources\c90\common\doprnt.c: 1448:   {;C:\Prog
      +                          ram Files\Microchip\xc8\v2.36\pic\sources\c90\common\doprnt.c: 1495:   };C:\Program File
      +                          s\Microchip\xc8\v2.36\pic\sources\c90\common\doprnt.c: 1498:   prec = c;
  1121  024F  082C               	movf	sprintf@c,w
  1122  0250  00A3               	movwf	??_sprintf
  1123  0251  0823               	movf	??_sprintf,w
  1124  0252  00AA               	movwf	sprintf@prec
  1125                           
  1126                           ;C:\Program Files\Microchip\xc8\v2.36\pic\sources\c90\common\doprnt.c: 1500:   while(pre
      +                          c--) {
  1127  0253  2A8D               	goto	l1529
  1128  0254                     l1523:
  1129                           
  1130                           ;C:\Program Files\Microchip\xc8\v2.36\pic\sources\c90\common\doprnt.c: 1504:    {;C:\Pro
      +                          gram Files\Microchip\xc8\v2.36\pic\sources\c90\common\doprnt.c: 1515:     c = (val / dpo
      +                          wers[(unsigned char)prec]) % 10 + '0';
  1131  0254  300A               	movlw	10
  1132  0255  00F8               	movwf	___lwmod@divisor
  1133  0256  3000               	movlw	0
  1134  0257  00F9               	movwf	___lwmod@divisor+1
  1135  0258  082A               	movf	sprintf@prec,w
  1136  0259  00A3               	movwf	??_sprintf
  1137  025A  0723               	addwf	??_sprintf,w
  1138  025B  3E01               	addlw	low ((_dpowers-__stringbase)| (0+32768))
  1139  025C  0084               	movwf	4
  1140  025D  120A  158A  2000  120A  118A  	fcall	stringdir
  1141  0262  00F0               	movwf	___lwdiv@divisor
  1142  0263  120A  158A  2000  120A  118A  	fcall	stringdir
  1143  0268  00F1               	movwf	___lwdiv@divisor+1
  1144  0269  0829               	movf	sprintf@val+1,w
  1145  026A  00F3               	movwf	___lwdiv@dividend+1
  1146  026B  0828               	movf	sprintf@val,w
  1147  026C  00F2               	movwf	___lwdiv@dividend
  1148  026D  120A  158A  2768  120A  118A  	fcall	___lwdiv
  1149  0272  0871               	movf	?___lwdiv+1,w
  1150  0273  00FB               	movwf	___lwmod@dividend+1
  1151  0274  0870               	movf	?___lwdiv,w
  1152  0275  00FA               	movwf	___lwmod@dividend
  1153  0276  120A  158A  272E  120A  118A  	fcall	___lwmod
  1154  027B  0878               	movf	?___lwmod,w
  1155  027C  3E30               	addlw	48
  1156  027D  1283               	bcf	3,5	;RP0=0, select bank0
  1157  027E  1303               	bcf	3,6	;RP1=0, select bank0
  1158  027F  00A4               	movwf	??_sprintf+1
  1159  0280  0824               	movf	??_sprintf+1,w
  1160  0281  00AC               	movwf	sprintf@c
  1161  0282                     l1525:
  1162                           
  1163                           ;C:\Program Files\Microchip\xc8\v2.36\pic\sources\c90\common\doprnt.c: 1549:    };C:\Pro
      +                          gram Files\Microchip\xc8\v2.36\pic\sources\c90\common\doprnt.c: 1550:    ((*sp++ = (c)))
      +                          ;
  1164  0282  082C               	movf	sprintf@c,w
  1165  0283  00A3               	movwf	??_sprintf
  1166  0284  082B               	movf	sprintf@sp,w
  1167  0285  0084               	movwf	4
  1168  0286  0823               	movf	??_sprintf,w
  1169  0287  1383               	bcf	3,7	;select IRP bank0
  1170  0288  0080               	movwf	0
  1171  0289                     l1527:
  1172  0289  3001               	movlw	1
  1173  028A  00A3               	movwf	??_sprintf
  1174  028B  0823               	movf	??_sprintf,w
  1175  028C  07AB               	addwf	sprintf@sp,f
  1176  028D                     l1529:
  1177                           
  1178                           ;C:\Program Files\Microchip\xc8\v2.36\pic\sources\c90\common\doprnt.c: 1500:   while(pre
      +                          c--) {
  1179  028D  30FF               	movlw	255
  1180  028E  00A3               	movwf	??_sprintf
  1181  028F  0823               	movf	??_sprintf,w
  1182  0290  07AA               	addwf	sprintf@prec,f
  1183  0291  0A2A               	incf	sprintf@prec,w
  1184  0292  1D03               	btfss	3,2
  1185  0293  2A95               	goto	u1611
  1186  0294  2A96               	goto	u1610
  1187  0295                     u1611:
  1188  0295  2A54               	goto	l1523
  1189  0296                     u1610:
  1190  0296                     l1531:
  1191                           
  1192                           ;C:\Program Files\Microchip\xc8\v2.36\pic\sources\c90\common\doprnt.c: 553:  while((c = 
      +                          *f++)) {
  1193  0296  3001               	movlw	1
  1194  0297  07A0               	addwf	sprintf@f,f
  1195  0298  30FF               	movlw	-1
  1196  0299  0720               	addwf	sprintf@f,w
  1197  029A  0084               	movwf	4
  1198  029B  120A  158A  2000  120A  118A  	fcall	stringdir
  1199  02A0  00A3               	movwf	??_sprintf
  1200  02A1  0823               	movf	??_sprintf,w
  1201  02A2  00AC               	movwf	sprintf@c
  1202  02A3  082C               	movf	sprintf@c,w
  1203  02A4  1D03               	btfss	3,2
  1204  02A5  2AA7               	goto	u1621
  1205  02A6  2AA8               	goto	u1620
  1206  02A7                     u1621:
  1207  02A7  29E8               	goto	l1491
  1208  02A8                     u1620:
  1209  02A8                     l1533:
  1210                           
  1211                           ;C:\Program Files\Microchip\xc8\v2.36\pic\sources\c90\common\doprnt.c: 1564:  *sp = 0;
  1212  02A8  082B               	movf	sprintf@sp,w
  1213  02A9  0084               	movwf	4
  1214  02AA  1383               	bcf	3,7	;select IRP bank0
  1215  02AB  0180               	clrf	0
  1216  02AC                     l213:
  1217  02AC  0008               	return
  1218  02AD                     __end_of_sprintf:
  1219                           
  1220                           	psect	text2
  1221  0F2E                     __ptext2:	
  1222 ;; *************** function ___lwmod *****************
  1223 ;; Defined at:
  1224 ;;		line 5 in file "C:\Program Files\Microchip\xc8\v2.36\pic\sources\c90\common\lwmod.c"
  1225 ;; Parameters:    Size  Location     Type
  1226 ;;  divisor         2    8[COMMON] unsigned int 
  1227 ;;  dividend        2   10[COMMON] unsigned int 
  1228 ;; Auto vars:     Size  Location     Type
  1229 ;;  counter         1   13[COMMON] unsigned char 
  1230 ;; Return value:  Size  Location     Type
  1231 ;;                  2    8[COMMON] unsigned int 
  1232 ;; Registers used:
  1233 ;;		wreg, status,2, status,0
  1234 ;; Tracked objects:
  1235 ;;		On entry : 0/0
  1236 ;;		On exit  : 0/0
  1237 ;;		Unchanged: 0/0
  1238 ;; Data sizes:     COMMON   BANK0   BANK1   BANK3   BANK2
  1239 ;;      Params:         4       0       0       0       0
  1240 ;;      Locals:         1       0       0       0       0
  1241 ;;      Temps:          1       0       0       0       0
  1242 ;;      Totals:         6       0       0       0       0
  1243 ;;Total ram usage:        6 bytes
  1244 ;; Hardware stack levels used: 1
  1245 ;; This function calls:
  1246 ;;		Nothing
  1247 ;; This function is called by:
  1248 ;;		_sprintf
  1249 ;; This function uses a non-reentrant model
  1250 ;;
  1251                           
  1252  0F2E                     ___lwmod:	
  1253                           ;psect for function ___lwmod
  1254                           
  1255  0F2E                     l1435:	
  1256                           ;incstack = 0
  1257                           ; Regs used in ___lwmod: [wreg+status,2+status,0]
  1258                           
  1259  0F2E  0878               	movf	___lwmod@divisor,w
  1260  0F2F  0479               	iorwf	___lwmod@divisor+1,w
  1261  0F30  1903               	btfsc	3,2
  1262  0F31  2F33               	goto	u1461
  1263  0F32  2F34               	goto	u1460
  1264  0F33                     u1461:
  1265  0F33  2F63               	goto	l1453
  1266  0F34                     u1460:
  1267  0F34                     l1437:
  1268  0F34  01FD               	clrf	___lwmod@counter
  1269  0F35  0AFD               	incf	___lwmod@counter,f
  1270  0F36  2F42               	goto	l1443
  1271  0F37                     l1439:
  1272  0F37  3001               	movlw	1
  1273  0F38                     u1475:
  1274  0F38  1003               	clrc
  1275  0F39  0DF8               	rlf	___lwmod@divisor,f
  1276  0F3A  0DF9               	rlf	___lwmod@divisor+1,f
  1277  0F3B  3EFF               	addlw	-1
  1278  0F3C  1D03               	skipz
  1279  0F3D  2F38               	goto	u1475
  1280  0F3E                     l1441:
  1281  0F3E  3001               	movlw	1
  1282  0F3F  00FC               	movwf	??___lwmod
  1283  0F40  087C               	movf	??___lwmod,w
  1284  0F41  07FD               	addwf	___lwmod@counter,f
  1285  0F42                     l1443:
  1286  0F42  1FF9               	btfss	___lwmod@divisor+1,7
  1287  0F43  2F45               	goto	u1481
  1288  0F44  2F46               	goto	u1480
  1289  0F45                     u1481:
  1290  0F45  2F37               	goto	l1439
  1291  0F46                     u1480:
  1292  0F46                     l1445:
  1293  0F46  0879               	movf	___lwmod@divisor+1,w
  1294  0F47  027B               	subwf	___lwmod@dividend+1,w
  1295  0F48  1D03               	skipz
  1296  0F49  2F4C               	goto	u1495
  1297  0F4A  0878               	movf	___lwmod@divisor,w
  1298  0F4B  027A               	subwf	___lwmod@dividend,w
  1299  0F4C                     u1495:
  1300  0F4C  1C03               	skipc
  1301  0F4D  2F4F               	goto	u1491
  1302  0F4E  2F50               	goto	u1490
  1303  0F4F                     u1491:
  1304  0F4F  2F56               	goto	l1449
  1305  0F50                     u1490:
  1306  0F50                     l1447:
  1307  0F50  0878               	movf	___lwmod@divisor,w
  1308  0F51  02FA               	subwf	___lwmod@dividend,f
  1309  0F52  0879               	movf	___lwmod@divisor+1,w
  1310  0F53  1C03               	skipc
  1311  0F54  03FB               	decf	___lwmod@dividend+1,f
  1312  0F55  02FB               	subwf	___lwmod@dividend+1,f
  1313  0F56                     l1449:
  1314  0F56  3001               	movlw	1
  1315  0F57                     u1505:
  1316  0F57  1003               	clrc
  1317  0F58  0CF9               	rrf	___lwmod@divisor+1,f
  1318  0F59  0CF8               	rrf	___lwmod@divisor,f
  1319  0F5A  3EFF               	addlw	-1
  1320  0F5B  1D03               	skipz
  1321  0F5C  2F57               	goto	u1505
  1322  0F5D                     l1451:
  1323  0F5D  3001               	movlw	1
  1324  0F5E  02FD               	subwf	___lwmod@counter,f
  1325  0F5F  1D03               	btfss	3,2
  1326  0F60  2F62               	goto	u1511
  1327  0F61  2F63               	goto	u1510
  1328  0F62                     u1511:
  1329  0F62  2F46               	goto	l1445
  1330  0F63                     u1510:
  1331  0F63                     l1453:
  1332  0F63  087B               	movf	___lwmod@dividend+1,w
  1333  0F64  00F9               	movwf	?___lwmod+1
  1334  0F65  087A               	movf	___lwmod@dividend,w
  1335  0F66  00F8               	movwf	?___lwmod
  1336  0F67                     l499:
  1337  0F67  0008               	return
  1338  0F68                     __end_of___lwmod:
  1339                           
  1340                           	psect	text3
  1341  0F68                     __ptext3:	
  1342 ;; *************** function ___lwdiv *****************
  1343 ;; Defined at:
  1344 ;;		line 5 in file "C:\Program Files\Microchip\xc8\v2.36\pic\sources\c90\common\lwdiv.c"
  1345 ;; Parameters:    Size  Location     Type
  1346 ;;  divisor         2    0[COMMON] unsigned int 
  1347 ;;  dividend        2    2[COMMON] unsigned int 
  1348 ;; Auto vars:     Size  Location     Type
  1349 ;;  quotient        2    5[COMMON] unsigned int 
  1350 ;;  counter         1    7[COMMON] unsigned char 
  1351 ;; Return value:  Size  Location     Type
  1352 ;;                  2    0[COMMON] unsigned int 
  1353 ;; Registers used:
  1354 ;;		wreg, status,2, status,0
  1355 ;; Tracked objects:
  1356 ;;		On entry : 0/0
  1357 ;;		On exit  : 0/0
  1358 ;;		Unchanged: 0/0
  1359 ;; Data sizes:     COMMON   BANK0   BANK1   BANK3   BANK2
  1360 ;;      Params:         4       0       0       0       0
  1361 ;;      Locals:         3       0       0       0       0
  1362 ;;      Temps:          1       0       0       0       0
  1363 ;;      Totals:         8       0       0       0       0
  1364 ;;Total ram usage:        8 bytes
  1365 ;; Hardware stack levels used: 1
  1366 ;; This function calls:
  1367 ;;		Nothing
  1368 ;; This function is called by:
  1369 ;;		_sprintf
  1370 ;; This function uses a non-reentrant model
  1371 ;;
  1372                           
  1373  0F68                     ___lwdiv:	
  1374                           ;psect for function ___lwdiv
  1375                           
  1376  0F68                     l1409:	
  1377                           ;incstack = 0
  1378                           ; Regs used in ___lwdiv: [wreg+status,2+status,0]
  1379                           
  1380  0F68  01F5               	clrf	___lwdiv@quotient
  1381  0F69  01F6               	clrf	___lwdiv@quotient+1
  1382  0F6A                     l1411:
  1383  0F6A  0870               	movf	___lwdiv@divisor,w
  1384  0F6B  0471               	iorwf	___lwdiv@divisor+1,w
  1385  0F6C  1903               	btfsc	3,2
  1386  0F6D  2F6F               	goto	u1391
  1387  0F6E  2F70               	goto	u1390
  1388  0F6F                     u1391:
  1389  0F6F  2FA7               	goto	l1431
  1390  0F70                     u1390:
  1391  0F70                     l1413:
  1392  0F70  01F7               	clrf	___lwdiv@counter
  1393  0F71  0AF7               	incf	___lwdiv@counter,f
  1394  0F72  2F7E               	goto	l1419
  1395  0F73                     l1415:
  1396  0F73  3001               	movlw	1
  1397  0F74                     u1405:
  1398  0F74  1003               	clrc
  1399  0F75  0DF0               	rlf	___lwdiv@divisor,f
  1400  0F76  0DF1               	rlf	___lwdiv@divisor+1,f
  1401  0F77  3EFF               	addlw	-1
  1402  0F78  1D03               	skipz
  1403  0F79  2F74               	goto	u1405
  1404  0F7A                     l1417:
  1405  0F7A  3001               	movlw	1
  1406  0F7B  00F4               	movwf	??___lwdiv
  1407  0F7C  0874               	movf	??___lwdiv,w
  1408  0F7D  07F7               	addwf	___lwdiv@counter,f
  1409  0F7E                     l1419:
  1410  0F7E  1FF1               	btfss	___lwdiv@divisor+1,7
  1411  0F7F  2F81               	goto	u1411
  1412  0F80  2F82               	goto	u1410
  1413  0F81                     u1411:
  1414  0F81  2F73               	goto	l1415
  1415  0F82                     u1410:
  1416  0F82                     l1421:
  1417  0F82  3001               	movlw	1
  1418  0F83                     u1425:
  1419  0F83  1003               	clrc
  1420  0F84  0DF5               	rlf	___lwdiv@quotient,f
  1421  0F85  0DF6               	rlf	___lwdiv@quotient+1,f
  1422  0F86  3EFF               	addlw	-1
  1423  0F87  1D03               	skipz
  1424  0F88  2F83               	goto	u1425
  1425  0F89  0871               	movf	___lwdiv@divisor+1,w
  1426  0F8A  0273               	subwf	___lwdiv@dividend+1,w
  1427  0F8B  1D03               	skipz
  1428  0F8C  2F8F               	goto	u1435
  1429  0F8D  0870               	movf	___lwdiv@divisor,w
  1430  0F8E  0272               	subwf	___lwdiv@dividend,w
  1431  0F8F                     u1435:
  1432  0F8F  1C03               	skipc
  1433  0F90  2F92               	goto	u1431
  1434  0F91  2F93               	goto	u1430
  1435  0F92                     u1431:
  1436  0F92  2F9A               	goto	l1427
  1437  0F93                     u1430:
  1438  0F93                     l1423:
  1439  0F93  0870               	movf	___lwdiv@divisor,w
  1440  0F94  02F2               	subwf	___lwdiv@dividend,f
  1441  0F95  0871               	movf	___lwdiv@divisor+1,w
  1442  0F96  1C03               	skipc
  1443  0F97  03F3               	decf	___lwdiv@dividend+1,f
  1444  0F98  02F3               	subwf	___lwdiv@dividend+1,f
  1445  0F99                     l1425:
  1446  0F99  1475               	bsf	___lwdiv@quotient,0
  1447  0F9A                     l1427:
  1448  0F9A  3001               	movlw	1
  1449  0F9B                     u1445:
  1450  0F9B  1003               	clrc
  1451  0F9C  0CF1               	rrf	___lwdiv@divisor+1,f
  1452  0F9D  0CF0               	rrf	___lwdiv@divisor,f
  1453  0F9E  3EFF               	addlw	-1
  1454  0F9F  1D03               	skipz
  1455  0FA0  2F9B               	goto	u1445
  1456  0FA1                     l1429:
  1457  0FA1  3001               	movlw	1
  1458  0FA2  02F7               	subwf	___lwdiv@counter,f
  1459  0FA3  1D03               	btfss	3,2
  1460  0FA4  2FA6               	goto	u1451
  1461  0FA5  2FA7               	goto	u1450
  1462  0FA6                     u1451:
  1463  0FA6  2F82               	goto	l1421
  1464  0FA7                     u1450:
  1465  0FA7                     l1431:
  1466  0FA7  0876               	movf	___lwdiv@quotient+1,w
  1467  0FA8  00F1               	movwf	?___lwdiv+1
  1468  0FA9  0875               	movf	___lwdiv@quotient,w
  1469  0FAA  00F0               	movwf	?___lwdiv
  1470  0FAB                     l489:
  1471  0FAB  0008               	return
  1472  0FAC                     __end_of___lwdiv:
  1473                           
  1474                           	psect	text4
  1475  0EF6                     __ptext4:	
  1476 ;; *************** function _get_val *****************
  1477 ;; Defined at:
  1478 ;;		line 24 in file "newmain.c"
  1479 ;; Parameters:    Size  Location     Type
  1480 ;;		None
  1481 ;; Auto vars:     Size  Location     Type
  1482 ;;		None
  1483 ;; Return value:  Size  Location     Type
  1484 ;;                  2    0[COMMON] unsigned int 
  1485 ;; Registers used:
  1486 ;;		wreg
  1487 ;; Tracked objects:
  1488 ;;		On entry : 0/0
  1489 ;;		On exit  : 0/0
  1490 ;;		Unchanged: 0/0
  1491 ;; Data sizes:     COMMON   BANK0   BANK1   BANK3   BANK2
  1492 ;;      Params:         2       0       0       0       0
  1493 ;;      Locals:         0       0       0       0       0
  1494 ;;      Temps:          2       0       0       0       0
  1495 ;;      Totals:         4       0       0       0       0
  1496 ;;Total ram usage:        4 bytes
  1497 ;; Hardware stack levels used: 1
  1498 ;; This function calls:
  1499 ;;		Nothing
  1500 ;; This function is called by:
  1501 ;;		_main
  1502 ;; This function uses a non-reentrant model
  1503 ;;
  1504                           
  1505  0EF6                     _get_val:	
  1506                           ;psect for function _get_val
  1507                           
  1508  0EF6                     l1471:	
  1509                           ;incstack = 0
  1510                           ; Regs used in _get_val: [wreg]
  1511                           
  1512                           
  1513                           ;newmain.c: 27:     T1CONbits.T1CKPS1 = 0;
  1514  0EF6  1283               	bcf	3,5	;RP0=0, select bank0
  1515  0EF7  1303               	bcf	3,6	;RP1=0, select bank0
  1516  0EF8  1290               	bcf	16,5	;volatile
  1517                           
  1518                           ;newmain.c: 28:     T1CONbits.T1CKPS0 = 1;
  1519  0EF9  1610               	bsf	16,4	;volatile
  1520                           
  1521                           ;newmain.c: 29:     T1CONbits.TMR1CS = 0;
  1522  0EFA  1090               	bcf	16,1	;volatile
  1523                           
  1524                           ;newmain.c: 32:     PORTCbits.RC1 = 1;
  1525  0EFB  1487               	bsf	7,1	;volatile
  1526  0EFC                     l1473:
  1527                           
  1528                           ;newmain.c: 33:     _delay((unsigned long)((20)*(16000000/4000.0)));
  1529  0EFC  3068               	movlw	104
  1530  0EFD  00F3               	movwf	??_get_val+1
  1531  0EFE  30E4               	movlw	228
  1532  0EFF  00F2               	movwf	??_get_val
  1533  0F00                     u2587:
  1534  0F00  0BF2               	decfsz	??_get_val,f
  1535  0F01  2F00               	goto	u2587
  1536  0F02  0BF3               	decfsz	??_get_val+1,f
  1537  0F03  2F00               	goto	u2587
  1538  0F04  0000               	nop
  1539  0F05                     l1475:
  1540                           
  1541                           ;newmain.c: 34:     PORTCbits.RC1 = 0;
  1542  0F05  1283               	bcf	3,5	;RP0=0, select bank0
  1543  0F06  1303               	bcf	3,6	;RP1=0, select bank0
  1544  0F07  1087               	bcf	7,1	;volatile
  1545  0F08                     l37:	
  1546                           ;newmain.c: 37:     while(!PORTCbits.RC0);
  1547                           
  1548  0F08  1C07               	btfss	7,0	;volatile
  1549  0F09  2F0B               	goto	u1551
  1550  0F0A  2F0C               	goto	u1550
  1551  0F0B                     u1551:
  1552  0F0B  2F08               	goto	l37
  1553  0F0C                     u1550:
  1554  0F0C                     l39:
  1555                           
  1556                           ;newmain.c: 38:     TMR1ON = 1;
  1557  0F0C  1410               	bsf	16,0	;volatile
  1558  0F0D                     l40:	
  1559                           ;newmain.c: 39:     while(PORTCbits.RC0);
  1560                           
  1561  0F0D  1807               	btfsc	7,0	;volatile
  1562  0F0E  2F10               	goto	u1561
  1563  0F0F  2F11               	goto	u1560
  1564  0F10                     u1561:
  1565  0F10  2F0D               	goto	l40
  1566  0F11                     u1560:
  1567  0F11                     l42:
  1568                           
  1569                           ;newmain.c: 40:     TMR1ON = 0;
  1570  0F11  1010               	bcf	16,0	;volatile
  1571  0F12                     l1477:
  1572                           
  1573                           ;newmain.c: 42:     time = TMR1H;
  1574  0F12  080F               	movf	15,w	;volatile
  1575  0F13  00F2               	movwf	??_get_val
  1576  0F14  01F3               	clrf	??_get_val+1
  1577  0F15  0872               	movf	??_get_val,w
  1578  0F16  00E7               	movwf	_time
  1579  0F17  0873               	movf	??_get_val+1,w
  1580  0F18  00E8               	movwf	_time+1
  1581                           
  1582                           ;newmain.c: 43:     time <<= 8;
  1583  0F19  3008               	movlw	8
  1584  0F1A                     u1575:
  1585  0F1A  1003               	clrc
  1586  0F1B  0DE7               	rlf	_time,f
  1587  0F1C  0DE8               	rlf	_time+1,f
  1588  0F1D  3EFF               	addlw	-1
  1589  0F1E  1D03               	skipz
  1590  0F1F  2F1A               	goto	u1575
  1591                           
  1592                           ;newmain.c: 44:     time += TMR1L;
  1593  0F20  080E               	movf	14,w	;volatile
  1594  0F21  00F2               	movwf	??_get_val
  1595  0F22  01F3               	clrf	??_get_val+1
  1596  0F23  0872               	movf	??_get_val,w
  1597  0F24  07E7               	addwf	_time,f
  1598  0F25  1803               	skipnc
  1599  0F26  0AE8               	incf	_time+1,f
  1600  0F27  0873               	movf	??_get_val+1,w
  1601  0F28  07E8               	addwf	_time+1,f
  1602                           
  1603                           ;newmain.c: 46:     return time;
  1604  0F29  0868               	movf	_time+1,w
  1605  0F2A  00F1               	movwf	?_get_val+1
  1606  0F2B  0867               	movf	_time,w
  1607  0F2C  00F0               	movwf	?_get_val
  1608  0F2D                     l43:
  1609  0F2D  0008               	return
  1610  0F2E                     __end_of_get_val:
  1611                           
  1612                           	psect	text5
  1613  0DF0                     __ptext5:	
  1614 ;; *************** function _config *****************
  1615 ;; Defined at:
  1616 ;;		line 48 in file "newmain.c"
  1617 ;; Parameters:    Size  Location     Type
  1618 ;;		None
  1619 ;; Auto vars:     Size  Location     Type
  1620 ;;		None
  1621 ;; Return value:  Size  Location     Type
  1622 ;;                  1    wreg      void 
  1623 ;; Registers used:
  1624 ;;		wreg, status,2, status,0, pclath, cstack
  1625 ;; Tracked objects:
  1626 ;;		On entry : 0/0
  1627 ;;		On exit  : 0/0
  1628 ;;		Unchanged: 0/0
  1629 ;; Data sizes:     COMMON   BANK0   BANK1   BANK3   BANK2
  1630 ;;      Params:         0       0       0       0       0
  1631 ;;      Locals:         0       0       0       0       0
  1632 ;;      Temps:          0       0       0       0       0
  1633 ;;      Totals:         0       0       0       0       0
  1634 ;;Total ram usage:        0 bytes
  1635 ;; Hardware stack levels used: 1
  1636 ;; Hardware stack levels required when called: 3
  1637 ;; This function calls:
  1638 ;;		_LCD_Initialize
  1639 ;; This function is called by:
  1640 ;;		_main
  1641 ;; This function uses a non-reentrant model
  1642 ;;
  1643                           
  1644  0DF0                     _config:	
  1645                           ;psect for function _config
  1646                           
  1647  0DF0                     l1481:	
  1648                           ;incstack = 0
  1649                           ; Regs used in _config: [wreg+status,2+status,0+pclath+cstack]
  1650                           
  1651                           
  1652                           ;newmain.c: 50:     TRISE = 0;
  1653  0DF0  1683               	bsf	3,5	;RP0=1, select bank1
  1654  0DF1  1303               	bcf	3,6	;RP1=0, select bank1
  1655  0DF2  0189               	clrf	9	;volatile
  1656  0DF3                     l1483:
  1657                           
  1658                           ;newmain.c: 51:     TRISC0 = 1;
  1659  0DF3  1407               	bsf	7,0	;volatile
  1660  0DF4                     l1485:
  1661                           
  1662                           ;newmain.c: 52:     TRISC1 = 0;
  1663  0DF4  1087               	bcf	7,1	;volatile
  1664  0DF5                     l1487:
  1665                           
  1666                           ;newmain.c: 53:     LCD_Initialize();
  1667  0DF5  120A  158A  26C5  120A  158A  	fcall	_LCD_Initialize
  1668  0DFA                     l46:
  1669  0DFA  0008               	return
  1670  0DFB                     __end_of_config:
  1671                           
  1672                           	psect	text6
  1673  0EC5                     __ptext6:	
  1674 ;; *************** function _LCD_Initialize *****************
  1675 ;; Defined at:
  1676 ;;		line 46 in file "lcd.c"
  1677 ;; Parameters:    Size  Location     Type
  1678 ;;		None
  1679 ;; Auto vars:     Size  Location     Type
  1680 ;;		None
  1681 ;; Return value:  Size  Location     Type
  1682 ;;                  1    wreg      void 
  1683 ;; Registers used:
  1684 ;;		wreg, status,2, status,0, pclath, cstack
  1685 ;; Tracked objects:
  1686 ;;		On entry : 0/0
  1687 ;;		On exit  : 0/0
  1688 ;;		Unchanged: 0/0
  1689 ;; Data sizes:     COMMON   BANK0   BANK1   BANK3   BANK2
  1690 ;;      Params:         0       0       0       0       0
  1691 ;;      Locals:         0       0       0       0       0
  1692 ;;      Temps:          2       0       0       0       0
  1693 ;;      Totals:         2       0       0       0       0
  1694 ;;Total ram usage:        2 bytes
  1695 ;; Hardware stack levels used: 1
  1696 ;; Hardware stack levels required when called: 2
  1697 ;; This function calls:
  1698 ;;		_LCDPutCmd
  1699 ;; This function is called by:
  1700 ;;		_config
  1701 ;; This function uses a non-reentrant model
  1702 ;;
  1703                           
  1704  0EC5                     _LCD_Initialize:	
  1705                           ;psect for function _LCD_Initialize
  1706                           
  1707  0EC5                     l1387:	
  1708                           ;incstack = 0
  1709                           ; Regs used in _LCD_Initialize: [wreg+status,2+status,0+pclath+cstack]
  1710                           
  1711                           
  1712                           ;lcd.c: 49:     PORTD = 0x00;
  1713  0EC5  1283               	bcf	3,5	;RP0=0, select bank0
  1714  0EC6  1303               	bcf	3,6	;RP1=0, select bank0
  1715  0EC7  0188               	clrf	8	;volatile
  1716                           
  1717                           ;lcd.c: 53:     TRISD = 0x00;
  1718  0EC8  1683               	bsf	3,5	;RP0=1, select bank1
  1719  0EC9  1303               	bcf	3,6	;RP1=0, select bank1
  1720  0ECA  0188               	clrf	8	;volatile
  1721                           
  1722                           ;lcd.c: 54:     ANSEL = 0x00;
  1723  0ECB  1683               	bsf	3,5	;RP0=1, select bank3
  1724  0ECC  1703               	bsf	3,6	;RP1=1, select bank3
  1725  0ECD  0188               	clrf	8	;volatile
  1726                           
  1727                           ;lcd.c: 55:     ANSELH = 0x00;
  1728  0ECE  0189               	clrf	9	;volatile
  1729  0ECF                     l1389:
  1730                           
  1731                           ;lcd.c: 61:     _delay((unsigned long)((15)*(16000000/4000.0)));
  1732  0ECF  304E               	movlw	78
  1733  0ED0  00F7               	movwf	??_LCD_Initialize+1
  1734  0ED1  30EB               	movlw	235
  1735  0ED2  00F6               	movwf	??_LCD_Initialize
  1736  0ED3                     u2597:
  1737  0ED3  0BF6               	decfsz	??_LCD_Initialize,f
  1738  0ED4  2ED3               	goto	u2597
  1739  0ED5  0BF7               	decfsz	??_LCD_Initialize+1,f
  1740  0ED6  2ED3               	goto	u2597
  1741  0ED7                     l1391:
  1742                           
  1743                           ;lcd.c: 64:     LCDPutCmd(0x32);
  1744  0ED7  3032               	movlw	50
  1745  0ED8  120A  158A  2696  120A  158A  	fcall	_LCDPutCmd
  1746  0EDD                     l1393:
  1747                           
  1748                           ;lcd.c: 67:     LCDPutCmd(0x28);
  1749  0EDD  3028               	movlw	40
  1750  0EDE  120A  158A  2696  120A  158A  	fcall	_LCDPutCmd
  1751  0EE3                     l1395:
  1752                           
  1753                           ;lcd.c: 70:     LCDPutCmd(0x0C);
  1754  0EE3  300C               	movlw	12
  1755  0EE4  120A  158A  2696  120A  158A  	fcall	_LCDPutCmd
  1756  0EE9                     l1397:
  1757                           
  1758                           ;lcd.c: 72:     LCDPutCmd(0x01);
  1759  0EE9  3001               	movlw	1
  1760  0EEA  120A  158A  2696  120A  158A  	fcall	_LCDPutCmd
  1761  0EEF                     l1399:
  1762                           
  1763                           ;lcd.c: 75:     LCDPutCmd(0x06);
  1764  0EEF  3006               	movlw	6
  1765  0EF0  120A  158A  2696  120A  158A  	fcall	_LCDPutCmd
  1766  0EF5                     l73:
  1767  0EF5  0008               	return
  1768  0EF6                     __end_of_LCD_Initialize:
  1769                           
  1770                           	psect	text7
  1771  0124                     __ptext7:	
  1772 ;; *************** function ___xxtofl *****************
  1773 ;; Defined at:
  1774 ;;		line 10 in file "C:\Program Files\Microchip\xc8\v2.36\pic\sources\c90\common\xxtofl.c"
  1775 ;; Parameters:    Size  Location     Type
  1776 ;;  sign            1    wreg     unsigned char 
  1777 ;;  val             4    4[COMMON] long 
  1778 ;; Auto vars:     Size  Location     Type
  1779 ;;  sign            1    0[BANK0 ] unsigned char 
  1780 ;;  arg             4    2[BANK0 ] unsigned long 
  1781 ;;  exp             1    1[BANK0 ] unsigned char 
  1782 ;; Return value:  Size  Location     Type
  1783 ;;                  4    4[COMMON] unsigned char 
  1784 ;; Registers used:
  1785 ;;		wreg, status,2, status,0
  1786 ;; Tracked objects:
  1787 ;;		On entry : 0/0
  1788 ;;		On exit  : 0/0
  1789 ;;		Unchanged: 0/0
  1790 ;; Data sizes:     COMMON   BANK0   BANK1   BANK3   BANK2
  1791 ;;      Params:         4       0       0       0       0
  1792 ;;      Locals:         0       6       0       0       0
  1793 ;;      Temps:          4       0       0       0       0
  1794 ;;      Totals:         8       6       0       0       0
  1795 ;;Total ram usage:       14 bytes
  1796 ;; Hardware stack levels used: 1
  1797 ;; This function calls:
  1798 ;;		Nothing
  1799 ;; This function is called by:
  1800 ;;		_main
  1801 ;; This function uses a non-reentrant model
  1802 ;;
  1803                           
  1804  0124                     ___xxtofl:	
  1805                           ;psect for function ___xxtofl
  1806                           
  1807                           
  1808                           ;incstack = 0
  1809                           ; Regs used in ___xxtofl: [wreg+status,2+status,0]
  1810                           ;___xxtofl@sign stored from wreg
  1811  0124  1283               	bcf	3,5	;RP0=0, select bank0
  1812  0125  1303               	bcf	3,6	;RP1=0, select bank0
  1813  0126  00A0               	movwf	___xxtofl@sign
  1814  0127                     l1881:
  1815  0127  0820               	movf	___xxtofl@sign,w
  1816  0128  1903               	btfsc	3,2
  1817  0129  292B               	goto	u2431
  1818  012A  292C               	goto	u2430
  1819  012B                     u2431:
  1820  012B  2940               	goto	l1887
  1821  012C                     u2430:
  1822  012C                     l1883:
  1823  012C  1FF7               	btfss	___xxtofl@val+3,7
  1824  012D  292F               	goto	u2441
  1825  012E  2930               	goto	u2440
  1826  012F                     u2441:
  1827  012F  2940               	goto	l1887
  1828  0130                     u2440:
  1829  0130                     l1885:
  1830  0130  0974               	comf	___xxtofl@val,w
  1831  0131  00A2               	movwf	___xxtofl@arg
  1832  0132  0975               	comf	___xxtofl@val+1,w
  1833  0133  00A3               	movwf	___xxtofl@arg+1
  1834  0134  0976               	comf	___xxtofl@val+2,w
  1835  0135  00A4               	movwf	___xxtofl@arg+2
  1836  0136  0977               	comf	___xxtofl@val+3,w
  1837  0137  00A5               	movwf	___xxtofl@arg+3
  1838  0138  0AA2               	incf	___xxtofl@arg,f
  1839  0139  1903               	skipnz
  1840  013A  0AA3               	incf	___xxtofl@arg+1,f
  1841  013B  1903               	skipnz
  1842  013C  0AA4               	incf	___xxtofl@arg+2,f
  1843  013D  1903               	skipnz
  1844  013E  0AA5               	incf	___xxtofl@arg+3,f
  1845  013F  2948               	goto	l650
  1846  0140                     l1887:
  1847  0140  0877               	movf	___xxtofl@val+3,w
  1848  0141  00A5               	movwf	___xxtofl@arg+3
  1849  0142  0876               	movf	___xxtofl@val+2,w
  1850  0143  00A4               	movwf	___xxtofl@arg+2
  1851  0144  0875               	movf	___xxtofl@val+1,w
  1852  0145  00A3               	movwf	___xxtofl@arg+1
  1853  0146  0874               	movf	___xxtofl@val,w
  1854  0147  00A2               	movwf	___xxtofl@arg
  1855  0148                     l650:
  1856  0148  0877               	movf	___xxtofl@val+3,w
  1857  0149  0476               	iorwf	___xxtofl@val+2,w
  1858  014A  0475               	iorwf	___xxtofl@val+1,w
  1859  014B  0474               	iorwf	___xxtofl@val,w
  1860  014C  1D03               	skipz
  1861  014D  294F               	goto	u2451
  1862  014E  2950               	goto	u2450
  1863  014F                     u2451:
  1864  014F  2959               	goto	l1893
  1865  0150                     u2450:
  1866  0150                     l1889:
  1867  0150  3000               	movlw	0
  1868  0151  00F7               	movwf	?___xxtofl+3
  1869  0152  3000               	movlw	0
  1870  0153  00F6               	movwf	?___xxtofl+2
  1871  0154  3000               	movlw	0
  1872  0155  00F5               	movwf	?___xxtofl+1
  1873  0156  3000               	movlw	0
  1874  0157  00F4               	movwf	?___xxtofl
  1875  0158  29DF               	goto	l652
  1876  0159                     l1893:
  1877  0159  3096               	movlw	150
  1878  015A  00F8               	movwf	??___xxtofl
  1879  015B  0878               	movf	??___xxtofl,w
  1880  015C  00A1               	movwf	___xxtofl@exp
  1881  015D  296B               	goto	l1897
  1882  015E                     l1895:
  1883  015E  3001               	movlw	1
  1884  015F  00F8               	movwf	??___xxtofl
  1885  0160  0878               	movf	??___xxtofl,w
  1886  0161  07A1               	addwf	___xxtofl@exp,f
  1887  0162  3001               	movlw	1
  1888  0163                     u2465:
  1889  0163  1003               	clrc
  1890  0164  0CA5               	rrf	___xxtofl@arg+3,f
  1891  0165  0CA4               	rrf	___xxtofl@arg+2,f
  1892  0166  0CA3               	rrf	___xxtofl@arg+1,f
  1893  0167  0CA2               	rrf	___xxtofl@arg,f
  1894  0168  3EFF               	addlw	-1
  1895  0169  1D03               	skipz
  1896  016A  2963               	goto	u2465
  1897  016B                     l1897:
  1898  016B  30FE               	movlw	254
  1899  016C  0525               	andwf	___xxtofl@arg+3,w
  1900  016D  1D03               	btfss	3,2
  1901  016E  2970               	goto	u2471
  1902  016F  2971               	goto	u2470
  1903  0170                     u2471:
  1904  0170  295E               	goto	l1895
  1905  0171                     u2470:
  1906  0171  298D               	goto	l656
  1907  0172                     l1899:
  1908  0172  3001               	movlw	1
  1909  0173  00F8               	movwf	??___xxtofl
  1910  0174  0878               	movf	??___xxtofl,w
  1911  0175  07A1               	addwf	___xxtofl@exp,f
  1912  0176                     l1901:
  1913  0176  3001               	movlw	1
  1914  0177  07A2               	addwf	___xxtofl@arg,f
  1915  0178  3000               	movlw	0
  1916  0179  1803               	skipnc
  1917  017A  3001               	movlw	1
  1918  017B  07A3               	addwf	___xxtofl@arg+1,f
  1919  017C  3000               	movlw	0
  1920  017D  1803               	skipnc
  1921  017E  3001               	movlw	1
  1922  017F  07A4               	addwf	___xxtofl@arg+2,f
  1923  0180  3000               	movlw	0
  1924  0181  1803               	skipnc
  1925  0182  3001               	movlw	1
  1926  0183  07A5               	addwf	___xxtofl@arg+3,f
  1927  0184                     l1903:
  1928  0184  3001               	movlw	1
  1929  0185                     u2485:
  1930  0185  1003               	clrc
  1931  0186  0CA5               	rrf	___xxtofl@arg+3,f
  1932  0187  0CA4               	rrf	___xxtofl@arg+2,f
  1933  0188  0CA3               	rrf	___xxtofl@arg+1,f
  1934  0189  0CA2               	rrf	___xxtofl@arg,f
  1935  018A  3EFF               	addlw	-1
  1936  018B  1D03               	skipz
  1937  018C  2985               	goto	u2485
  1938  018D                     l656:
  1939  018D  30FF               	movlw	255
  1940  018E  0525               	andwf	___xxtofl@arg+3,w
  1941  018F  1D03               	btfss	3,2
  1942  0190  2992               	goto	u2491
  1943  0191  2993               	goto	u2490
  1944  0192                     u2491:
  1945  0192  2972               	goto	l1899
  1946  0193                     u2490:
  1947  0193  299F               	goto	l1907
  1948  0194                     l1905:
  1949  0194  3001               	movlw	1
  1950  0195  02A1               	subwf	___xxtofl@exp,f
  1951  0196  3001               	movlw	1
  1952  0197  00F8               	movwf	??___xxtofl
  1953  0198                     u2505:
  1954  0198  1003               	clrc
  1955  0199  0DA2               	rlf	___xxtofl@arg,f
  1956  019A  0DA3               	rlf	___xxtofl@arg+1,f
  1957  019B  0DA4               	rlf	___xxtofl@arg+2,f
  1958  019C  0DA5               	rlf	___xxtofl@arg+3,f
  1959  019D  0BF8               	decfsz	??___xxtofl,f
  1960  019E  2998               	goto	u2505
  1961  019F                     l1907:
  1962  019F  1BA4               	btfsc	___xxtofl@arg+2,7
  1963  01A0  29A2               	goto	u2511
  1964  01A1  29A3               	goto	u2510
  1965  01A2                     u2511:
  1966  01A2  29A9               	goto	l663
  1967  01A3                     u2510:
  1968  01A3                     l1909:
  1969  01A3  3002               	movlw	2
  1970  01A4  0221               	subwf	___xxtofl@exp,w
  1971  01A5  1803               	skipnc
  1972  01A6  29A8               	goto	u2521
  1973  01A7  29A9               	goto	u2520
  1974  01A8                     u2521:
  1975  01A8  2994               	goto	l1905
  1976  01A9                     u2520:
  1977  01A9                     l663:
  1978  01A9  1821               	btfsc	___xxtofl@exp,0
  1979  01AA  29AC               	goto	u2531
  1980  01AB  29AD               	goto	u2530
  1981  01AC                     u2531:
  1982  01AC  29B5               	goto	l664
  1983  01AD                     u2530:
  1984  01AD                     l1911:
  1985  01AD  30FF               	movlw	255
  1986  01AE  05A2               	andwf	___xxtofl@arg,f
  1987  01AF  30FF               	movlw	255
  1988  01B0  05A3               	andwf	___xxtofl@arg+1,f
  1989  01B1  307F               	movlw	127
  1990  01B2  05A4               	andwf	___xxtofl@arg+2,f
  1991  01B3  30FF               	movlw	255
  1992  01B4  05A5               	andwf	___xxtofl@arg+3,f
  1993  01B5                     l664:
  1994  01B5  1003               	clrc
  1995  01B6  0CA1               	rrf	___xxtofl@exp,f
  1996  01B7                     l1913:
  1997  01B7  0821               	movf	___xxtofl@exp,w
  1998  01B8  00F8               	movwf	??___xxtofl
  1999  01B9  01F9               	clrf	??___xxtofl+1
  2000  01BA  01FA               	clrf	??___xxtofl+2
  2001  01BB  01FB               	clrf	??___xxtofl+3
  2002  01BC  3018               	movlw	24
  2003  01BD                     u2545:
  2004  01BD  1003               	clrc
  2005  01BE  0DF8               	rlf	??___xxtofl,f
  2006  01BF  0DF9               	rlf	??___xxtofl+1,f
  2007  01C0  0DFA               	rlf	??___xxtofl+2,f
  2008  01C1  0DFB               	rlf	??___xxtofl+3,f
  2009  01C2                     u2540:
  2010  01C2  3EFF               	addlw	-1
  2011  01C3  1D03               	skipz
  2012  01C4  29BD               	goto	u2545
  2013  01C5  0878               	movf	??___xxtofl,w
  2014  01C6  04A2               	iorwf	___xxtofl@arg,f
  2015  01C7  0879               	movf	??___xxtofl+1,w
  2016  01C8  04A3               	iorwf	___xxtofl@arg+1,f
  2017  01C9  087A               	movf	??___xxtofl+2,w
  2018  01CA  04A4               	iorwf	___xxtofl@arg+2,f
  2019  01CB  087B               	movf	??___xxtofl+3,w
  2020  01CC  04A5               	iorwf	___xxtofl@arg+3,f
  2021  01CD                     l1915:
  2022  01CD  0820               	movf	___xxtofl@sign,w
  2023  01CE  1903               	btfsc	3,2
  2024  01CF  29D1               	goto	u2551
  2025  01D0  29D2               	goto	u2550
  2026  01D1                     u2551:
  2027  01D1  29D7               	goto	l1921
  2028  01D2                     u2550:
  2029  01D2                     l1917:
  2030  01D2  1FF7               	btfss	___xxtofl@val+3,7
  2031  01D3  29D5               	goto	u2561
  2032  01D4  29D6               	goto	u2560
  2033  01D5                     u2561:
  2034  01D5  29D7               	goto	l1921
  2035  01D6                     u2560:
  2036  01D6                     l1919:
  2037  01D6  17A5               	bsf	___xxtofl@arg+3,7
  2038  01D7                     l1921:
  2039  01D7  0825               	movf	___xxtofl@arg+3,w
  2040  01D8  00F7               	movwf	?___xxtofl+3
  2041  01D9  0824               	movf	___xxtofl@arg+2,w
  2042  01DA  00F6               	movwf	?___xxtofl+2
  2043  01DB  0823               	movf	___xxtofl@arg+1,w
  2044  01DC  00F5               	movwf	?___xxtofl+1
  2045  01DD  0822               	movf	___xxtofl@arg,w
  2046  01DE  00F4               	movwf	?___xxtofl
  2047  01DF                     l652:
  2048  01DF  0008               	return
  2049  01E0                     __end_of___xxtofl:
  2050                           
  2051                           	psect	text8
  2052  0009                     __ptext8:	
  2053 ;; *************** function ___fltol *****************
  2054 ;; Defined at:
  2055 ;;		line 43 in file "C:\Program Files\Microchip\xc8\v2.36\pic\sources\c90\common\fltol.c"
  2056 ;; Parameters:    Size  Location     Type
  2057 ;;  f1              4   58[BANK0 ] unsigned char 
  2058 ;; Auto vars:     Size  Location     Type
  2059 ;;  exp1            1   13[COMMON] unsigned char 
  2060 ;;  sign1           1   12[COMMON] unsigned char 
  2061 ;; Return value:  Size  Location     Type
  2062 ;;                  4   58[BANK0 ] long 
  2063 ;; Registers used:
  2064 ;;		wreg, status,2, status,0
  2065 ;; Tracked objects:
  2066 ;;		On entry : 0/0
  2067 ;;		On exit  : 0/0
  2068 ;;		Unchanged: 0/0
  2069 ;; Data sizes:     COMMON   BANK0   BANK1   BANK3   BANK2
  2070 ;;      Params:         0       4       0       0       0
  2071 ;;      Locals:         2       0       0       0       0
  2072 ;;      Temps:          0       5       0       0       0
  2073 ;;      Totals:         2       9       0       0       0
  2074 ;;Total ram usage:       11 bytes
  2075 ;; Hardware stack levels used: 1
  2076 ;; This function calls:
  2077 ;;		Nothing
  2078 ;; This function is called by:
  2079 ;;		_main
  2080 ;; This function uses a non-reentrant model
  2081 ;;
  2082                           
  2083  0009                     ___fltol:	
  2084                           ;psect for function ___fltol
  2085                           
  2086  0009                     l1563:	
  2087                           ;incstack = 0
  2088                           ; Regs used in ___fltol: [wreg+status,2+status,0]
  2089                           
  2090  0009  1003               	clrc
  2091  000A  1283               	bcf	3,5	;RP0=0, select bank0
  2092  000B  1303               	bcf	3,6	;RP1=0, select bank0
  2093  000C  0D5C               	rlf	___fltol@f1+2,w
  2094  000D  0D5D               	rlf	___fltol@f1+3,w
  2095  000E  00DE               	movwf	??___fltol
  2096  000F  085E               	movf	??___fltol,w
  2097  0010  00FD               	movwf	___fltol@exp1
  2098  0011  087D               	movf	___fltol@exp1,w
  2099  0012  1D03               	btfss	3,2
  2100  0013  2815               	goto	u1671
  2101  0014  2816               	goto	u1670
  2102  0015                     u1671:
  2103  0015  281F               	goto	l1569
  2104  0016                     u1670:
  2105  0016                     l1565:
  2106  0016  3000               	movlw	0
  2107  0017  00DD               	movwf	?___fltol+3
  2108  0018  3000               	movlw	0
  2109  0019  00DC               	movwf	?___fltol+2
  2110  001A  3000               	movlw	0
  2111  001B  00DB               	movwf	?___fltol+1
  2112  001C  3000               	movlw	0
  2113  001D  00DA               	movwf	?___fltol
  2114  001E  2884               	goto	l403
  2115  001F                     l1569:
  2116  001F  085A               	movf	___fltol@f1,w
  2117  0020  00DE               	movwf	??___fltol
  2118  0021  085B               	movf	___fltol@f1+1,w
  2119  0022  00DF               	movwf	??___fltol+1
  2120  0023  085C               	movf	___fltol@f1+2,w
  2121  0024  00E0               	movwf	??___fltol+2
  2122  0025  085D               	movf	___fltol@f1+3,w
  2123  0026  00E1               	movwf	??___fltol+3
  2124  0027  301F               	movlw	31
  2125  0028                     u1685:
  2126  0028  1003               	clrc
  2127  0029  0CE1               	rrf	??___fltol+3,f
  2128  002A  0CE0               	rrf	??___fltol+2,f
  2129  002B  0CDF               	rrf	??___fltol+1,f
  2130  002C  0CDE               	rrf	??___fltol,f
  2131  002D                     u1680:
  2132  002D  3EFF               	addlw	-1
  2133  002E  1D03               	skipz
  2134  002F  2828               	goto	u1685
  2135  0030  085E               	movf	??___fltol,w
  2136  0031  00E2               	movwf	??___fltol+4
  2137  0032  0862               	movf	??___fltol+4,w
  2138  0033  00FC               	movwf	___fltol@sign1
  2139  0034                     l1571:
  2140  0034  17DC               	bsf	___fltol@f1+2,7
  2141  0035                     l1573:
  2142  0035  30FF               	movlw	255
  2143  0036  05DA               	andwf	___fltol@f1,f
  2144  0037  30FF               	movlw	255
  2145  0038  05DB               	andwf	___fltol@f1+1,f
  2146  0039  30FF               	movlw	255
  2147  003A  05DC               	andwf	___fltol@f1+2,f
  2148  003B  3000               	movlw	0
  2149  003C  05DD               	andwf	___fltol@f1+3,f
  2150  003D                     l1575:
  2151  003D  3096               	movlw	150
  2152  003E  02FD               	subwf	___fltol@exp1,f
  2153  003F                     l1577:
  2154  003F  1FFD               	btfss	___fltol@exp1,7
  2155  0040  2842               	goto	u1691
  2156  0041  2843               	goto	u1690
  2157  0042                     u1691:
  2158  0042  285D               	goto	l1587
  2159  0043                     u1690:
  2160  0043                     l1579:
  2161  0043  087D               	movf	___fltol@exp1,w
  2162  0044  3A80               	xorlw	128
  2163  0045  3E97               	addlw	151
  2164  0046  1803               	skipnc
  2165  0047  2849               	goto	u1701
  2166  0048  284A               	goto	u1700
  2167  0049                     u1701:
  2168  0049  284B               	goto	l1585
  2169  004A                     u1700:
  2170  004A  2816               	goto	l1565
  2171  004B                     l1585:
  2172  004B  3001               	movlw	1
  2173  004C                     u1715:
  2174  004C  1003               	clrc
  2175  004D  0CDD               	rrf	___fltol@f1+3,f
  2176  004E  0CDC               	rrf	___fltol@f1+2,f
  2177  004F  0CDB               	rrf	___fltol@f1+1,f
  2178  0050  0CDA               	rrf	___fltol@f1,f
  2179  0051  3EFF               	addlw	-1
  2180  0052  1D03               	skipz
  2181  0053  284C               	goto	u1715
  2182  0054  3001               	movlw	1
  2183  0055  00DE               	movwf	??___fltol
  2184  0056  085E               	movf	??___fltol,w
  2185  0057  07FD               	addwf	___fltol@exp1,f
  2186  0058  1D03               	btfss	3,2
  2187  0059  285B               	goto	u1721
  2188  005A  285C               	goto	u1720
  2189  005B                     u1721:
  2190  005B  284B               	goto	l1585
  2191  005C                     u1720:
  2192  005C  2874               	goto	l1595
  2193  005D                     l1587:
  2194  005D  3020               	movlw	32
  2195  005E  027D               	subwf	___fltol@exp1,w
  2196  005F  1C03               	skipc
  2197  0060  2862               	goto	u1731
  2198  0061  2863               	goto	u1730
  2199  0062                     u1731:
  2200  0062  286F               	goto	l410
  2201  0063                     u1730:
  2202  0063  2816               	goto	l1565
  2203  0064                     l1593:
  2204  0064  3001               	movlw	1
  2205  0065  00DE               	movwf	??___fltol
  2206  0066                     u1745:
  2207  0066  1003               	clrc
  2208  0067  0DDA               	rlf	___fltol@f1,f
  2209  0068  0DDB               	rlf	___fltol@f1+1,f
  2210  0069  0DDC               	rlf	___fltol@f1+2,f
  2211  006A  0DDD               	rlf	___fltol@f1+3,f
  2212  006B  0BDE               	decfsz	??___fltol,f
  2213  006C  2866               	goto	u1745
  2214  006D  3001               	movlw	1
  2215  006E  02FD               	subwf	___fltol@exp1,f
  2216  006F                     l410:
  2217  006F  087D               	movf	___fltol@exp1,w
  2218  0070  1D03               	btfss	3,2
  2219  0071  2873               	goto	u1751
  2220  0072  2874               	goto	u1750
  2221  0073                     u1751:
  2222  0073  2864               	goto	l1593
  2223  0074                     u1750:
  2224  0074                     l1595:
  2225  0074  087C               	movf	___fltol@sign1,w
  2226  0075  1903               	btfsc	3,2
  2227  0076  2878               	goto	u1761
  2228  0077  2879               	goto	u1760
  2229  0078                     u1761:
  2230  0078  2884               	goto	l413
  2231  0079                     u1760:
  2232  0079                     l1597:
  2233  0079  09DA               	comf	___fltol@f1,f
  2234  007A  09DB               	comf	___fltol@f1+1,f
  2235  007B  09DC               	comf	___fltol@f1+2,f
  2236  007C  09DD               	comf	___fltol@f1+3,f
  2237  007D  0ADA               	incf	___fltol@f1,f
  2238  007E  1903               	skipnz
  2239  007F  0ADB               	incf	___fltol@f1+1,f
  2240  0080  1903               	skipnz
  2241  0081  0ADC               	incf	___fltol@f1+2,f
  2242  0082  1903               	skipnz
  2243  0083  0ADD               	incf	___fltol@f1+3,f
  2244  0084                     l413:
  2245  0084                     l403:
  2246  0084  0008               	return
  2247  0085                     __end_of___fltol:
  2248                           
  2249                           	psect	text9
  2250  048A                     __ptext9:	
  2251 ;; *************** function ___flmul *****************
  2252 ;; Defined at:
  2253 ;;		line 8 in file "C:\Program Files\Microchip\xc8\v2.36\pic\sources\c90\common\sprcmul.c"
  2254 ;; Parameters:    Size  Location     Type
  2255 ;;  b               4    6[BANK0 ] long 
  2256 ;;  a               4   10[BANK0 ] long 
  2257 ;; Auto vars:     Size  Location     Type
  2258 ;;  prod            4   26[BANK0 ] struct .
  2259 ;;  grs             4   20[BANK0 ] unsigned long 
  2260 ;;  temp            2   30[BANK0 ] struct .
  2261 ;;  bexp            1   25[BANK0 ] unsigned char 
  2262 ;;  aexp            1   24[BANK0 ] unsigned char 
  2263 ;;  sign            1   19[BANK0 ] unsigned char 
  2264 ;; Return value:  Size  Location     Type
  2265 ;;                  4    6[BANK0 ] unsigned char 
  2266 ;; Registers used:
  2267 ;;		wreg, status,2, status,0, btemp+1, pclath, cstack
  2268 ;; Tracked objects:
  2269 ;;		On entry : 0/0
  2270 ;;		On exit  : 0/0
  2271 ;;		Unchanged: 0/0
  2272 ;; Data sizes:     COMMON   BANK0   BANK1   BANK3   BANK2
  2273 ;;      Params:         0       8       0       0       0
  2274 ;;      Locals:         0      13       0       0       0
  2275 ;;      Temps:          0       5       0       0       0
  2276 ;;      Totals:         0      26       0       0       0
  2277 ;;Total ram usage:       26 bytes
  2278 ;; Hardware stack levels used: 1
  2279 ;; Hardware stack levels required when called: 1
  2280 ;; This function calls:
  2281 ;;		__Umul8_16
  2282 ;; This function is called by:
  2283 ;;		_main
  2284 ;; This function uses a non-reentrant model
  2285 ;;
  2286                           
  2287  048A                     ___flmul:	
  2288                           ;psect for function ___flmul
  2289                           
  2290  048A                     l1741:	
  2291                           ;incstack = 0
  2292                           ; Regs used in ___flmul: [wreg+status,2+status,0+btemp+1+pclath+cstack]
  2293                           
  2294  048A  1283               	bcf	3,5	;RP0=0, select bank0
  2295  048B  1303               	bcf	3,6	;RP1=0, select bank0
  2296  048C  0829               	movf	___flmul@b+3,w
  2297  048D  3980               	andlw	128
  2298  048E  00AE               	movwf	??___flmul
  2299  048F  082E               	movf	??___flmul,w
  2300  0490  00B3               	movwf	___flmul@sign
  2301  0491                     l1743:
  2302  0491  0829               	movf	___flmul@b+3,w
  2303  0492  00AE               	movwf	??___flmul
  2304  0493  072E               	addwf	??___flmul,w
  2305  0494  00AF               	movwf	??___flmul+1
  2306  0495  082F               	movf	??___flmul+1,w
  2307  0496  00B9               	movwf	___flmul@bexp
  2308  0497                     l1745:
  2309  0497  1FA8               	btfss	___flmul@b+2,7
  2310  0498  2C9A               	goto	u2061
  2311  0499  2C9B               	goto	u2060
  2312  049A                     u2061:
  2313  049A  2C9C               	goto	l1749
  2314  049B                     u2060:
  2315  049B                     l1747:
  2316  049B  1439               	bsf	___flmul@bexp,0
  2317  049C                     l1749:
  2318  049C  0839               	movf	___flmul@bexp,w
  2319  049D  1903               	btfsc	3,2
  2320  049E  2CA0               	goto	u2071
  2321  049F  2CA1               	goto	u2070
  2322  04A0                     u2071:
  2323  04A0  2CB0               	goto	l1757
  2324  04A1                     u2070:
  2325  04A1                     l1751:
  2326  04A1  0A39               	incf	___flmul@bexp,w
  2327  04A2  1D03               	btfss	3,2
  2328  04A3  2CA5               	goto	u2081
  2329  04A4  2CA6               	goto	u2080
  2330  04A5                     u2081:
  2331  04A5  2CAE               	goto	l1755
  2332  04A6                     u2080:
  2333  04A6                     l1753:
  2334  04A6  3000               	movlw	0
  2335  04A7  00A9               	movwf	___flmul@b+3
  2336  04A8  3000               	movlw	0
  2337  04A9  00A8               	movwf	___flmul@b+2
  2338  04AA  3000               	movlw	0
  2339  04AB  00A7               	movwf	___flmul@b+1
  2340  04AC  3000               	movlw	0
  2341  04AD  00A6               	movwf	___flmul@b
  2342  04AE                     l1755:
  2343  04AE  17A8               	bsf	___flmul@b+2,7
  2344  04AF  2CB8               	goto	l1759
  2345  04B0                     l1757:
  2346  04B0  3000               	movlw	0
  2347  04B1  00A9               	movwf	___flmul@b+3
  2348  04B2  3000               	movlw	0
  2349  04B3  00A8               	movwf	___flmul@b+2
  2350  04B4  3000               	movlw	0
  2351  04B5  00A7               	movwf	___flmul@b+1
  2352  04B6  3000               	movlw	0
  2353  04B7  00A6               	movwf	___flmul@b
  2354  04B8                     l1759:
  2355  04B8  082D               	movf	___flmul@a+3,w
  2356  04B9  3980               	andlw	128
  2357  04BA  00AE               	movwf	??___flmul
  2358  04BB  082E               	movf	??___flmul,w
  2359  04BC  06B3               	xorwf	___flmul@sign,f
  2360  04BD                     l1761:
  2361  04BD  082D               	movf	___flmul@a+3,w
  2362  04BE  00AE               	movwf	??___flmul
  2363  04BF  072E               	addwf	??___flmul,w
  2364  04C0  00AF               	movwf	??___flmul+1
  2365  04C1  082F               	movf	??___flmul+1,w
  2366  04C2  00B8               	movwf	___flmul@aexp
  2367  04C3                     l1763:
  2368  04C3  1FAC               	btfss	___flmul@a+2,7
  2369  04C4  2CC6               	goto	u2091
  2370  04C5  2CC7               	goto	u2090
  2371  04C6                     u2091:
  2372  04C6  2CC8               	goto	l1767
  2373  04C7                     u2090:
  2374  04C7                     l1765:
  2375  04C7  1438               	bsf	___flmul@aexp,0
  2376  04C8                     l1767:
  2377  04C8  0838               	movf	___flmul@aexp,w
  2378  04C9  1903               	btfsc	3,2
  2379  04CA  2CCC               	goto	u2101
  2380  04CB  2CCD               	goto	u2100
  2381  04CC                     u2101:
  2382  04CC  2CDC               	goto	l1775
  2383  04CD                     u2100:
  2384  04CD                     l1769:
  2385  04CD  0A38               	incf	___flmul@aexp,w
  2386  04CE  1D03               	btfss	3,2
  2387  04CF  2CD1               	goto	u2111
  2388  04D0  2CD2               	goto	u2110
  2389  04D1                     u2111:
  2390  04D1  2CDA               	goto	l1773
  2391  04D2                     u2110:
  2392  04D2                     l1771:
  2393  04D2  3000               	movlw	0
  2394  04D3  00AD               	movwf	___flmul@a+3
  2395  04D4  3000               	movlw	0
  2396  04D5  00AC               	movwf	___flmul@a+2
  2397  04D6  3000               	movlw	0
  2398  04D7  00AB               	movwf	___flmul@a+1
  2399  04D8  3000               	movlw	0
  2400  04D9  00AA               	movwf	___flmul@a
  2401  04DA                     l1773:
  2402  04DA  17AC               	bsf	___flmul@a+2,7
  2403  04DB  2CE4               	goto	l1777
  2404  04DC                     l1775:
  2405  04DC  3000               	movlw	0
  2406  04DD  00AD               	movwf	___flmul@a+3
  2407  04DE  3000               	movlw	0
  2408  04DF  00AC               	movwf	___flmul@a+2
  2409  04E0  3000               	movlw	0
  2410  04E1  00AB               	movwf	___flmul@a+1
  2411  04E2  3000               	movlw	0
  2412  04E3  00AA               	movwf	___flmul@a
  2413  04E4                     l1777:
  2414  04E4  0838               	movf	___flmul@aexp,w
  2415  04E5  1903               	btfsc	3,2
  2416  04E6  2CE8               	goto	u2121
  2417  04E7  2CE9               	goto	u2120
  2418  04E8                     u2121:
  2419  04E8  2CEE               	goto	l1781
  2420  04E9                     u2120:
  2421  04E9                     l1779:
  2422  04E9  0839               	movf	___flmul@bexp,w
  2423  04EA  1D03               	btfss	3,2
  2424  04EB  2CED               	goto	u2131
  2425  04EC  2CEE               	goto	u2130
  2426  04ED                     u2131:
  2427  04ED  2CF7               	goto	l1785
  2428  04EE                     u2130:
  2429  04EE                     l1781:
  2430  04EE  3000               	movlw	0
  2431  04EF  00A9               	movwf	?___flmul+3
  2432  04F0  3000               	movlw	0
  2433  04F1  00A8               	movwf	?___flmul+2
  2434  04F2  3000               	movlw	0
  2435  04F3  00A7               	movwf	?___flmul+1
  2436  04F4  3000               	movlw	0
  2437  04F5  00A6               	movwf	?___flmul
  2438  04F6  2FEA               	goto	l606
  2439  04F7                     l1785:
  2440  04F7  0826               	movf	___flmul@b,w
  2441  04F8  00AE               	movwf	??___flmul
  2442  04F9  082E               	movf	??___flmul,w
  2443  04FA  00F0               	movwf	__Umul8_16@multiplicand
  2444  04FB  082C               	movf	___flmul@a+2,w
  2445  04FC  120A  158A  2619  120A  118A  	fcall	__Umul8_16
  2446  0501  0871               	movf	?__Umul8_16+1,w
  2447  0502  1283               	bcf	3,5	;RP0=0, select bank0
  2448  0503  1303               	bcf	3,6	;RP1=0, select bank0
  2449  0504  00BF               	movwf	___flmul@temp+1
  2450  0505  0870               	movf	?__Umul8_16,w
  2451  0506  00BE               	movwf	___flmul@temp
  2452  0507                     l1787:
  2453  0507  083E               	movf	___flmul@temp,w
  2454  0508  00AE               	movwf	??___flmul
  2455  0509  01AF               	clrf	??___flmul+1
  2456  050A  01B0               	clrf	??___flmul+2
  2457  050B  01B1               	clrf	??___flmul+3
  2458  050C  0831               	movf	??___flmul+3,w
  2459  050D  00B7               	movwf	___flmul@grs+3
  2460  050E  0830               	movf	??___flmul+2,w
  2461  050F  00B6               	movwf	___flmul@grs+2
  2462  0510  082F               	movf	??___flmul+1,w
  2463  0511  00B5               	movwf	___flmul@grs+1
  2464  0512  082E               	movf	??___flmul,w
  2465  0513  00B4               	movwf	___flmul@grs
  2466  0514                     l1789:
  2467  0514  083F               	movf	___flmul@temp+1,w
  2468  0515  00AE               	movwf	??___flmul
  2469  0516  01AF               	clrf	??___flmul+1
  2470  0517  01B0               	clrf	??___flmul+2
  2471  0518  01B1               	clrf	??___flmul+3
  2472  0519  0831               	movf	??___flmul+3,w
  2473  051A  00BD               	movwf	___flmul@prod+3
  2474  051B  0830               	movf	??___flmul+2,w
  2475  051C  00BC               	movwf	___flmul@prod+2
  2476  051D  082F               	movf	??___flmul+1,w
  2477  051E  00BB               	movwf	___flmul@prod+1
  2478  051F  082E               	movf	??___flmul,w
  2479  0520  00BA               	movwf	___flmul@prod
  2480  0521  0827               	movf	___flmul@b+1,w
  2481  0522  00AE               	movwf	??___flmul
  2482  0523  082E               	movf	??___flmul,w
  2483  0524  00F0               	movwf	__Umul8_16@multiplicand
  2484  0525  082B               	movf	___flmul@a+1,w
  2485  0526  120A  158A  2619  120A  118A  	fcall	__Umul8_16
  2486  052B  0871               	movf	?__Umul8_16+1,w
  2487  052C  1283               	bcf	3,5	;RP0=0, select bank0
  2488  052D  1303               	bcf	3,6	;RP1=0, select bank0
  2489  052E  00BF               	movwf	___flmul@temp+1
  2490  052F  0870               	movf	?__Umul8_16,w
  2491  0530  00BE               	movwf	___flmul@temp
  2492  0531                     l1791:
  2493  0531  083E               	movf	___flmul@temp,w
  2494  0532  00AE               	movwf	??___flmul
  2495  0533  01AF               	clrf	??___flmul+1
  2496  0534  01B0               	clrf	??___flmul+2
  2497  0535  01B1               	clrf	??___flmul+3
  2498  0536  082E               	movf	??___flmul,w
  2499  0537  07B4               	addwf	___flmul@grs,f
  2500  0538  082F               	movf	??___flmul+1,w
  2501  0539  1103               	clrz
  2502  053A  1803               	skipnc
  2503  053B  3E01               	addlw	1
  2504  053C  1903               	skipnz
  2505  053D  2D3F               	goto	u2141
  2506  053E  07B5               	addwf	___flmul@grs+1,f
  2507  053F                     u2141:
  2508  053F  0830               	movf	??___flmul+2,w
  2509  0540  1103               	clrz
  2510  0541  1803               	skipnc
  2511  0542  3E01               	addlw	1
  2512  0543  1903               	skipnz
  2513  0544  2D46               	goto	u2142
  2514  0545  07B6               	addwf	___flmul@grs+2,f
  2515  0546                     u2142:
  2516  0546  0831               	movf	??___flmul+3,w
  2517  0547  1103               	clrz
  2518  0548  1803               	skipnc
  2519  0549  3E01               	addlw	1
  2520  054A  1903               	skipnz
  2521  054B  2D4D               	goto	u2143
  2522  054C  07B7               	addwf	___flmul@grs+3,f
  2523  054D                     u2143:
  2524  054D                     l1793:
  2525  054D  083F               	movf	___flmul@temp+1,w
  2526  054E  00AE               	movwf	??___flmul
  2527  054F  01AF               	clrf	??___flmul+1
  2528  0550  01B0               	clrf	??___flmul+2
  2529  0551  01B1               	clrf	??___flmul+3
  2530  0552  082E               	movf	??___flmul,w
  2531  0553  07BA               	addwf	___flmul@prod,f
  2532  0554  082F               	movf	??___flmul+1,w
  2533  0555  1103               	clrz
  2534  0556  1803               	skipnc
  2535  0557  3E01               	addlw	1
  2536  0558  1903               	skipnz
  2537  0559  2D5B               	goto	u2151
  2538  055A  07BB               	addwf	___flmul@prod+1,f
  2539  055B                     u2151:
  2540  055B  0830               	movf	??___flmul+2,w
  2541  055C  1103               	clrz
  2542  055D  1803               	skipnc
  2543  055E  3E01               	addlw	1
  2544  055F  1903               	skipnz
  2545  0560  2D62               	goto	u2152
  2546  0561  07BC               	addwf	___flmul@prod+2,f
  2547  0562                     u2152:
  2548  0562  0831               	movf	??___flmul+3,w
  2549  0563  1103               	clrz
  2550  0564  1803               	skipnc
  2551  0565  3E01               	addlw	1
  2552  0566  1903               	skipnz
  2553  0567  2D69               	goto	u2153
  2554  0568  07BD               	addwf	___flmul@prod+3,f
  2555  0569                     u2153:
  2556  0569  0828               	movf	___flmul@b+2,w
  2557  056A  00AE               	movwf	??___flmul
  2558  056B  082E               	movf	??___flmul,w
  2559  056C  00F0               	movwf	__Umul8_16@multiplicand
  2560  056D  082A               	movf	___flmul@a,w
  2561  056E  120A  158A  2619  120A  118A  	fcall	__Umul8_16
  2562  0573  0871               	movf	?__Umul8_16+1,w
  2563  0574  1283               	bcf	3,5	;RP0=0, select bank0
  2564  0575  1303               	bcf	3,6	;RP1=0, select bank0
  2565  0576  00BF               	movwf	___flmul@temp+1
  2566  0577  0870               	movf	?__Umul8_16,w
  2567  0578  00BE               	movwf	___flmul@temp
  2568  0579                     l1795:
  2569  0579  083E               	movf	___flmul@temp,w
  2570  057A  00AE               	movwf	??___flmul
  2571  057B  01AF               	clrf	??___flmul+1
  2572  057C  01B0               	clrf	??___flmul+2
  2573  057D  01B1               	clrf	??___flmul+3
  2574  057E  082E               	movf	??___flmul,w
  2575  057F  07B4               	addwf	___flmul@grs,f
  2576  0580  082F               	movf	??___flmul+1,w
  2577  0581  1103               	clrz
  2578  0582  1803               	skipnc
  2579  0583  3E01               	addlw	1
  2580  0584  1903               	skipnz
  2581  0585  2D87               	goto	u2161
  2582  0586  07B5               	addwf	___flmul@grs+1,f
  2583  0587                     u2161:
  2584  0587  0830               	movf	??___flmul+2,w
  2585  0588  1103               	clrz
  2586  0589  1803               	skipnc
  2587  058A  3E01               	addlw	1
  2588  058B  1903               	skipnz
  2589  058C  2D8E               	goto	u2162
  2590  058D  07B6               	addwf	___flmul@grs+2,f
  2591  058E                     u2162:
  2592  058E  0831               	movf	??___flmul+3,w
  2593  058F  1103               	clrz
  2594  0590  1803               	skipnc
  2595  0591  3E01               	addlw	1
  2596  0592  1903               	skipnz
  2597  0593  2D95               	goto	u2163
  2598  0594  07B7               	addwf	___flmul@grs+3,f
  2599  0595                     u2163:
  2600  0595                     l1797:
  2601  0595  083F               	movf	___flmul@temp+1,w
  2602  0596  00AE               	movwf	??___flmul
  2603  0597  01AF               	clrf	??___flmul+1
  2604  0598  01B0               	clrf	??___flmul+2
  2605  0599  01B1               	clrf	??___flmul+3
  2606  059A  082E               	movf	??___flmul,w
  2607  059B  07BA               	addwf	___flmul@prod,f
  2608  059C  082F               	movf	??___flmul+1,w
  2609  059D  1103               	clrz
  2610  059E  1803               	skipnc
  2611  059F  3E01               	addlw	1
  2612  05A0  1903               	skipnz
  2613  05A1  2DA3               	goto	u2171
  2614  05A2  07BB               	addwf	___flmul@prod+1,f
  2615  05A3                     u2171:
  2616  05A3  0830               	movf	??___flmul+2,w
  2617  05A4  1103               	clrz
  2618  05A5  1803               	skipnc
  2619  05A6  3E01               	addlw	1
  2620  05A7  1903               	skipnz
  2621  05A8  2DAA               	goto	u2172
  2622  05A9  07BC               	addwf	___flmul@prod+2,f
  2623  05AA                     u2172:
  2624  05AA  0831               	movf	??___flmul+3,w
  2625  05AB  1103               	clrz
  2626  05AC  1803               	skipnc
  2627  05AD  3E01               	addlw	1
  2628  05AE  1903               	skipnz
  2629  05AF  2DB1               	goto	u2173
  2630  05B0  07BD               	addwf	___flmul@prod+3,f
  2631  05B1                     u2173:
  2632  05B1                     l1799:
  2633  05B1  3008               	movlw	8
  2634  05B2  00AE               	movwf	??___flmul
  2635  05B3                     u2185:
  2636  05B3  1003               	clrc
  2637  05B4  0DB4               	rlf	___flmul@grs,f
  2638  05B5  0DB5               	rlf	___flmul@grs+1,f
  2639  05B6  0DB6               	rlf	___flmul@grs+2,f
  2640  05B7  0DB7               	rlf	___flmul@grs+3,f
  2641  05B8  0BAE               	decfsz	??___flmul,f
  2642  05B9  2DB3               	goto	u2185
  2643  05BA                     l1801:
  2644  05BA  0827               	movf	___flmul@b+1,w
  2645  05BB  00AE               	movwf	??___flmul
  2646  05BC  082E               	movf	??___flmul,w
  2647  05BD  00F0               	movwf	__Umul8_16@multiplicand
  2648  05BE  082A               	movf	___flmul@a,w
  2649  05BF  120A  158A  2619  120A  118A  	fcall	__Umul8_16
  2650  05C4  0871               	movf	?__Umul8_16+1,w
  2651  05C5  1283               	bcf	3,5	;RP0=0, select bank0
  2652  05C6  1303               	bcf	3,6	;RP1=0, select bank0
  2653  05C7  00BF               	movwf	___flmul@temp+1
  2654  05C8  0870               	movf	?__Umul8_16,w
  2655  05C9  00BE               	movwf	___flmul@temp
  2656  05CA                     l1803:
  2657  05CA  083E               	movf	___flmul@temp,w
  2658  05CB  00AE               	movwf	??___flmul
  2659  05CC  083F               	movf	___flmul@temp+1,w
  2660  05CD  00AF               	movwf	??___flmul+1
  2661  05CE  01B0               	clrf	??___flmul+2
  2662  05CF  01B1               	clrf	??___flmul+3
  2663  05D0  082E               	movf	??___flmul,w
  2664  05D1  07B4               	addwf	___flmul@grs,f
  2665  05D2  082F               	movf	??___flmul+1,w
  2666  05D3  1103               	clrz
  2667  05D4  1803               	skipnc
  2668  05D5  3E01               	addlw	1
  2669  05D6  1903               	skipnz
  2670  05D7  2DD9               	goto	u2191
  2671  05D8  07B5               	addwf	___flmul@grs+1,f
  2672  05D9                     u2191:
  2673  05D9  0830               	movf	??___flmul+2,w
  2674  05DA  1103               	clrz
  2675  05DB  1803               	skipnc
  2676  05DC  3E01               	addlw	1
  2677  05DD  1903               	skipnz
  2678  05DE  2DE0               	goto	u2192
  2679  05DF  07B6               	addwf	___flmul@grs+2,f
  2680  05E0                     u2192:
  2681  05E0  0831               	movf	??___flmul+3,w
  2682  05E1  1103               	clrz
  2683  05E2  1803               	skipnc
  2684  05E3  3E01               	addlw	1
  2685  05E4  1903               	skipnz
  2686  05E5  2DE7               	goto	u2193
  2687  05E6  07B7               	addwf	___flmul@grs+3,f
  2688  05E7                     u2193:
  2689  05E7                     l1805:
  2690  05E7  0826               	movf	___flmul@b,w
  2691  05E8  00AE               	movwf	??___flmul
  2692  05E9  082E               	movf	??___flmul,w
  2693  05EA  00F0               	movwf	__Umul8_16@multiplicand
  2694  05EB  082B               	movf	___flmul@a+1,w
  2695  05EC  120A  158A  2619  120A  118A  	fcall	__Umul8_16
  2696  05F1  0871               	movf	?__Umul8_16+1,w
  2697  05F2  1283               	bcf	3,5	;RP0=0, select bank0
  2698  05F3  1303               	bcf	3,6	;RP1=0, select bank0
  2699  05F4  00BF               	movwf	___flmul@temp+1
  2700  05F5  0870               	movf	?__Umul8_16,w
  2701  05F6  00BE               	movwf	___flmul@temp
  2702  05F7                     l1807:
  2703  05F7  083E               	movf	___flmul@temp,w
  2704  05F8  00AE               	movwf	??___flmul
  2705  05F9  083F               	movf	___flmul@temp+1,w
  2706  05FA  00AF               	movwf	??___flmul+1
  2707  05FB  01B0               	clrf	??___flmul+2
  2708  05FC  01B1               	clrf	??___flmul+3
  2709  05FD  082E               	movf	??___flmul,w
  2710  05FE  07B4               	addwf	___flmul@grs,f
  2711  05FF  082F               	movf	??___flmul+1,w
  2712  0600  1103               	clrz
  2713  0601  1803               	skipnc
  2714  0602  3E01               	addlw	1
  2715  0603  1903               	skipnz
  2716  0604  2E06               	goto	u2201
  2717  0605  07B5               	addwf	___flmul@grs+1,f
  2718  0606                     u2201:
  2719  0606  0830               	movf	??___flmul+2,w
  2720  0607  1103               	clrz
  2721  0608  1803               	skipnc
  2722  0609  3E01               	addlw	1
  2723  060A  1903               	skipnz
  2724  060B  2E0D               	goto	u2202
  2725  060C  07B6               	addwf	___flmul@grs+2,f
  2726  060D                     u2202:
  2727  060D  0831               	movf	??___flmul+3,w
  2728  060E  1103               	clrz
  2729  060F  1803               	skipnc
  2730  0610  3E01               	addlw	1
  2731  0611  1903               	skipnz
  2732  0612  2E14               	goto	u2203
  2733  0613  07B7               	addwf	___flmul@grs+3,f
  2734  0614                     u2203:
  2735  0614                     l1809:
  2736  0614  3008               	movlw	8
  2737  0615  00AE               	movwf	??___flmul
  2738  0616                     u2215:
  2739  0616  1003               	clrc
  2740  0617  0DB4               	rlf	___flmul@grs,f
  2741  0618  0DB5               	rlf	___flmul@grs+1,f
  2742  0619  0DB6               	rlf	___flmul@grs+2,f
  2743  061A  0DB7               	rlf	___flmul@grs+3,f
  2744  061B  0BAE               	decfsz	??___flmul,f
  2745  061C  2E16               	goto	u2215
  2746  061D  0826               	movf	___flmul@b,w
  2747  061E  00AE               	movwf	??___flmul
  2748  061F  082E               	movf	??___flmul,w
  2749  0620  00F0               	movwf	__Umul8_16@multiplicand
  2750  0621  082A               	movf	___flmul@a,w
  2751  0622  120A  158A  2619  120A  118A  	fcall	__Umul8_16
  2752  0627  0871               	movf	?__Umul8_16+1,w
  2753  0628  1283               	bcf	3,5	;RP0=0, select bank0
  2754  0629  1303               	bcf	3,6	;RP1=0, select bank0
  2755  062A  00BF               	movwf	___flmul@temp+1
  2756  062B  0870               	movf	?__Umul8_16,w
  2757  062C  00BE               	movwf	___flmul@temp
  2758  062D                     l1811:
  2759  062D  083E               	movf	___flmul@temp,w
  2760  062E  00AE               	movwf	??___flmul
  2761  062F  083F               	movf	___flmul@temp+1,w
  2762  0630  00AF               	movwf	??___flmul+1
  2763  0631  01B0               	clrf	??___flmul+2
  2764  0632  01B1               	clrf	??___flmul+3
  2765  0633  082E               	movf	??___flmul,w
  2766  0634  07B4               	addwf	___flmul@grs,f
  2767  0635  082F               	movf	??___flmul+1,w
  2768  0636  1103               	clrz
  2769  0637  1803               	skipnc
  2770  0638  3E01               	addlw	1
  2771  0639  1903               	skipnz
  2772  063A  2E3C               	goto	u2221
  2773  063B  07B5               	addwf	___flmul@grs+1,f
  2774  063C                     u2221:
  2775  063C  0830               	movf	??___flmul+2,w
  2776  063D  1103               	clrz
  2777  063E  1803               	skipnc
  2778  063F  3E01               	addlw	1
  2779  0640  1903               	skipnz
  2780  0641  2E43               	goto	u2222
  2781  0642  07B6               	addwf	___flmul@grs+2,f
  2782  0643                     u2222:
  2783  0643  0831               	movf	??___flmul+3,w
  2784  0644  1103               	clrz
  2785  0645  1803               	skipnc
  2786  0646  3E01               	addlw	1
  2787  0647  1903               	skipnz
  2788  0648  2E4A               	goto	u2223
  2789  0649  07B7               	addwf	___flmul@grs+3,f
  2790  064A                     u2223:
  2791  064A                     l1813:
  2792  064A  0827               	movf	___flmul@b+1,w
  2793  064B  00AE               	movwf	??___flmul
  2794  064C  082E               	movf	??___flmul,w
  2795  064D  00F0               	movwf	__Umul8_16@multiplicand
  2796  064E  082C               	movf	___flmul@a+2,w
  2797  064F  120A  158A  2619  120A  118A  	fcall	__Umul8_16
  2798  0654  0871               	movf	?__Umul8_16+1,w
  2799  0655  1283               	bcf	3,5	;RP0=0, select bank0
  2800  0656  1303               	bcf	3,6	;RP1=0, select bank0
  2801  0657  00BF               	movwf	___flmul@temp+1
  2802  0658  0870               	movf	?__Umul8_16,w
  2803  0659  00BE               	movwf	___flmul@temp
  2804  065A  083E               	movf	___flmul@temp,w
  2805  065B  00AE               	movwf	??___flmul
  2806  065C  083F               	movf	___flmul@temp+1,w
  2807  065D  00AF               	movwf	??___flmul+1
  2808  065E  01B0               	clrf	??___flmul+2
  2809  065F  01B1               	clrf	??___flmul+3
  2810  0660  082E               	movf	??___flmul,w
  2811  0661  07BA               	addwf	___flmul@prod,f
  2812  0662  082F               	movf	??___flmul+1,w
  2813  0663  1103               	clrz
  2814  0664  1803               	skipnc
  2815  0665  3E01               	addlw	1
  2816  0666  1903               	skipnz
  2817  0667  2E69               	goto	u2231
  2818  0668  07BB               	addwf	___flmul@prod+1,f
  2819  0669                     u2231:
  2820  0669  0830               	movf	??___flmul+2,w
  2821  066A  1103               	clrz
  2822  066B  1803               	skipnc
  2823  066C  3E01               	addlw	1
  2824  066D  1903               	skipnz
  2825  066E  2E70               	goto	u2232
  2826  066F  07BC               	addwf	___flmul@prod+2,f
  2827  0670                     u2232:
  2828  0670  0831               	movf	??___flmul+3,w
  2829  0671  1103               	clrz
  2830  0672  1803               	skipnc
  2831  0673  3E01               	addlw	1
  2832  0674  1903               	skipnz
  2833  0675  2E77               	goto	u2233
  2834  0676  07BD               	addwf	___flmul@prod+3,f
  2835  0677                     u2233:
  2836  0677                     l1815:
  2837  0677  0828               	movf	___flmul@b+2,w
  2838  0678  00AE               	movwf	??___flmul
  2839  0679  082E               	movf	??___flmul,w
  2840  067A  00F0               	movwf	__Umul8_16@multiplicand
  2841  067B  082B               	movf	___flmul@a+1,w
  2842  067C  120A  158A  2619  120A  118A  	fcall	__Umul8_16
  2843  0681  0871               	movf	?__Umul8_16+1,w
  2844  0682  1283               	bcf	3,5	;RP0=0, select bank0
  2845  0683  1303               	bcf	3,6	;RP1=0, select bank0
  2846  0684  00BF               	movwf	___flmul@temp+1
  2847  0685  0870               	movf	?__Umul8_16,w
  2848  0686  00BE               	movwf	___flmul@temp
  2849  0687                     l1817:
  2850  0687  083E               	movf	___flmul@temp,w
  2851  0688  00AE               	movwf	??___flmul
  2852  0689  083F               	movf	___flmul@temp+1,w
  2853  068A  00AF               	movwf	??___flmul+1
  2854  068B  01B0               	clrf	??___flmul+2
  2855  068C  01B1               	clrf	??___flmul+3
  2856  068D  082E               	movf	??___flmul,w
  2857  068E  07BA               	addwf	___flmul@prod,f
  2858  068F  082F               	movf	??___flmul+1,w
  2859  0690  1103               	clrz
  2860  0691  1803               	skipnc
  2861  0692  3E01               	addlw	1
  2862  0693  1903               	skipnz
  2863  0694  2E96               	goto	u2241
  2864  0695  07BB               	addwf	___flmul@prod+1,f
  2865  0696                     u2241:
  2866  0696  0830               	movf	??___flmul+2,w
  2867  0697  1103               	clrz
  2868  0698  1803               	skipnc
  2869  0699  3E01               	addlw	1
  2870  069A  1903               	skipnz
  2871  069B  2E9D               	goto	u2242
  2872  069C  07BC               	addwf	___flmul@prod+2,f
  2873  069D                     u2242:
  2874  069D  0831               	movf	??___flmul+3,w
  2875  069E  1103               	clrz
  2876  069F  1803               	skipnc
  2877  06A0  3E01               	addlw	1
  2878  06A1  1903               	skipnz
  2879  06A2  2EA4               	goto	u2243
  2880  06A3  07BD               	addwf	___flmul@prod+3,f
  2881  06A4                     u2243:
  2882  06A4  0828               	movf	___flmul@b+2,w
  2883  06A5  00AE               	movwf	??___flmul
  2884  06A6  082E               	movf	??___flmul,w
  2885  06A7  00F0               	movwf	__Umul8_16@multiplicand
  2886  06A8  082C               	movf	___flmul@a+2,w
  2887  06A9  120A  158A  2619  120A  118A  	fcall	__Umul8_16
  2888  06AE  0871               	movf	?__Umul8_16+1,w
  2889  06AF  1283               	bcf	3,5	;RP0=0, select bank0
  2890  06B0  1303               	bcf	3,6	;RP1=0, select bank0
  2891  06B1  00BF               	movwf	___flmul@temp+1
  2892  06B2  0870               	movf	?__Umul8_16,w
  2893  06B3  00BE               	movwf	___flmul@temp
  2894  06B4                     l1819:
  2895  06B4  083E               	movf	___flmul@temp,w
  2896  06B5  00AE               	movwf	??___flmul
  2897  06B6  083F               	movf	___flmul@temp+1,w
  2898  06B7  00AF               	movwf	??___flmul+1
  2899  06B8  01B0               	clrf	??___flmul+2
  2900  06B9  01B1               	clrf	??___flmul+3
  2901  06BA  3008               	movlw	8
  2902  06BB                     u2255:
  2903  06BB  1003               	clrc
  2904  06BC  0DAE               	rlf	??___flmul,f
  2905  06BD  0DAF               	rlf	??___flmul+1,f
  2906  06BE  0DB0               	rlf	??___flmul+2,f
  2907  06BF  0DB1               	rlf	??___flmul+3,f
  2908  06C0                     u2250:
  2909  06C0  3EFF               	addlw	-1
  2910  06C1  1D03               	skipz
  2911  06C2  2EBB               	goto	u2255
  2912  06C3  082E               	movf	??___flmul,w
  2913  06C4  07BA               	addwf	___flmul@prod,f
  2914  06C5  082F               	movf	??___flmul+1,w
  2915  06C6  1103               	clrz
  2916  06C7  1803               	skipnc
  2917  06C8  3E01               	addlw	1
  2918  06C9  1903               	skipnz
  2919  06CA  2ECC               	goto	u2261
  2920  06CB  07BB               	addwf	___flmul@prod+1,f
  2921  06CC                     u2261:
  2922  06CC  0830               	movf	??___flmul+2,w
  2923  06CD  1103               	clrz
  2924  06CE  1803               	skipnc
  2925  06CF  3E01               	addlw	1
  2926  06D0  1903               	skipnz
  2927  06D1  2ED3               	goto	u2262
  2928  06D2  07BC               	addwf	___flmul@prod+2,f
  2929  06D3                     u2262:
  2930  06D3  0831               	movf	??___flmul+3,w
  2931  06D4  1103               	clrz
  2932  06D5  1803               	skipnc
  2933  06D6  3E01               	addlw	1
  2934  06D7  1903               	skipnz
  2935  06D8  2EDA               	goto	u2263
  2936  06D9  07BD               	addwf	___flmul@prod+3,f
  2937  06DA                     u2263:
  2938  06DA                     l1821:
  2939  06DA  0834               	movf	___flmul@grs,w
  2940  06DB  00AE               	movwf	??___flmul
  2941  06DC  0835               	movf	___flmul@grs+1,w
  2942  06DD  00AF               	movwf	??___flmul+1
  2943  06DE  0836               	movf	___flmul@grs+2,w
  2944  06DF  00B0               	movwf	??___flmul+2
  2945  06E0  0837               	movf	___flmul@grs+3,w
  2946  06E1  00B1               	movwf	??___flmul+3
  2947  06E2  3018               	movlw	24
  2948  06E3                     u2275:
  2949  06E3  1003               	clrc
  2950  06E4  0CB1               	rrf	??___flmul+3,f
  2951  06E5  0CB0               	rrf	??___flmul+2,f
  2952  06E6  0CAF               	rrf	??___flmul+1,f
  2953  06E7  0CAE               	rrf	??___flmul,f
  2954  06E8                     u2270:
  2955  06E8  3EFF               	addlw	-1
  2956  06E9  1D03               	skipz
  2957  06EA  2EE3               	goto	u2275
  2958  06EB  082E               	movf	??___flmul,w
  2959  06EC  07BA               	addwf	___flmul@prod,f
  2960  06ED  082F               	movf	??___flmul+1,w
  2961  06EE  1103               	clrz
  2962  06EF  1803               	skipnc
  2963  06F0  3E01               	addlw	1
  2964  06F1  1903               	skipnz
  2965  06F2  2EF4               	goto	u2281
  2966  06F3  07BB               	addwf	___flmul@prod+1,f
  2967  06F4                     u2281:
  2968  06F4  0830               	movf	??___flmul+2,w
  2969  06F5  1103               	clrz
  2970  06F6  1803               	skipnc
  2971  06F7  3E01               	addlw	1
  2972  06F8  1903               	skipnz
  2973  06F9  2EFB               	goto	u2282
  2974  06FA  07BC               	addwf	___flmul@prod+2,f
  2975  06FB                     u2282:
  2976  06FB  0831               	movf	??___flmul+3,w
  2977  06FC  1103               	clrz
  2978  06FD  1803               	skipnc
  2979  06FE  3E01               	addlw	1
  2980  06FF  1903               	skipnz
  2981  0700  2F02               	goto	u2283
  2982  0701  07BD               	addwf	___flmul@prod+3,f
  2983  0702                     u2283:
  2984  0702                     l1823:
  2985  0702  3008               	movlw	8
  2986  0703  00AE               	movwf	??___flmul
  2987  0704                     u2295:
  2988  0704  1003               	clrc
  2989  0705  0DB4               	rlf	___flmul@grs,f
  2990  0706  0DB5               	rlf	___flmul@grs+1,f
  2991  0707  0DB6               	rlf	___flmul@grs+2,f
  2992  0708  0DB7               	rlf	___flmul@grs+3,f
  2993  0709  0BAE               	decfsz	??___flmul,f
  2994  070A  2F04               	goto	u2295
  2995  070B                     l1825:
  2996  070B  0839               	movf	___flmul@bexp,w
  2997  070C  0738               	addwf	___flmul@aexp,w
  2998  070D  00AE               	movwf	??___flmul
  2999  070E  01AF               	clrf	??___flmul+1
  3000  070F  0DAF               	rlf	??___flmul+1,f
  3001  0710  082E               	movf	??___flmul,w
  3002  0711  3E82               	addlw	130
  3003  0712  00BE               	movwf	___flmul@temp
  3004  0713  082F               	movf	??___flmul+1,w
  3005  0714  1803               	skipnc
  3006  0715  3E01               	addlw	1
  3007  0716  3EFF               	addlw	255
  3008  0717  00BF               	movwf	___flmul@temp+1
  3009  0718  2F36               	goto	l1837
  3010  0719                     l1827:
  3011  0719  3001               	movlw	1
  3012  071A  00AE               	movwf	??___flmul
  3013  071B                     u2305:
  3014  071B  1003               	clrc
  3015  071C  0DBA               	rlf	___flmul@prod,f
  3016  071D  0DBB               	rlf	___flmul@prod+1,f
  3017  071E  0DBC               	rlf	___flmul@prod+2,f
  3018  071F  0DBD               	rlf	___flmul@prod+3,f
  3019  0720  0BAE               	decfsz	??___flmul,f
  3020  0721  2F1B               	goto	u2305
  3021  0722                     l1829:
  3022  0722  1FB7               	btfss	___flmul@grs+3,7
  3023  0723  2F25               	goto	u2311
  3024  0724  2F26               	goto	u2310
  3025  0725                     u2311:
  3026  0725  2F27               	goto	l1833
  3027  0726                     u2310:
  3028  0726                     l1831:
  3029  0726  143A               	bsf	___flmul@prod,0
  3030  0727                     l1833:
  3031  0727  3001               	movlw	1
  3032  0728  00AE               	movwf	??___flmul
  3033  0729                     u2325:
  3034  0729  1003               	clrc
  3035  072A  0DB4               	rlf	___flmul@grs,f
  3036  072B  0DB5               	rlf	___flmul@grs+1,f
  3037  072C  0DB6               	rlf	___flmul@grs+2,f
  3038  072D  0DB7               	rlf	___flmul@grs+3,f
  3039  072E  0BAE               	decfsz	??___flmul,f
  3040  072F  2F29               	goto	u2325
  3041  0730                     l1835:
  3042  0730  30FF               	movlw	255
  3043  0731  07BE               	addwf	___flmul@temp,f
  3044  0732  1803               	skipnc
  3045  0733  0ABF               	incf	___flmul@temp+1,f
  3046  0734  30FF               	movlw	255
  3047  0735  07BF               	addwf	___flmul@temp+1,f
  3048  0736                     l1837:
  3049  0736  1FBC               	btfss	___flmul@prod+2,7
  3050  0737  2F39               	goto	u2331
  3051  0738  2F3A               	goto	u2330
  3052  0739                     u2331:
  3053  0739  2F19               	goto	l1827
  3054  073A                     u2330:
  3055  073A                     l1839:
  3056  073A  01B8               	clrf	___flmul@aexp
  3057  073B                     l1841:
  3058  073B  1FB7               	btfss	___flmul@grs+3,7
  3059  073C  2F3E               	goto	u2341
  3060  073D  2F3F               	goto	u2340
  3061  073E                     u2341:
  3062  073E  2F5B               	goto	l1849
  3063  073F                     u2340:
  3064  073F                     l1843:
  3065  073F  30FF               	movlw	255
  3066  0740  0534               	andwf	___flmul@grs,w
  3067  0741  00AE               	movwf	??___flmul
  3068  0742  30FF               	movlw	255
  3069  0743  0535               	andwf	___flmul@grs+1,w
  3070  0744  00AF               	movwf	??___flmul+1
  3071  0745  30FF               	movlw	255
  3072  0746  0536               	andwf	___flmul@grs+2,w
  3073  0747  00B0               	movwf	??___flmul+2
  3074  0748  307F               	movlw	127
  3075  0749  0537               	andwf	___flmul@grs+3,w
  3076  074A  00B1               	movwf	??___flmul+3
  3077  074B  0831               	movf	??___flmul+3,w
  3078  074C  0430               	iorwf	??___flmul+2,w
  3079  074D  042F               	iorwf	??___flmul+1,w
  3080  074E  042E               	iorwf	??___flmul,w
  3081  074F  1903               	skipnz
  3082  0750  2F52               	goto	u2351
  3083  0751  2F53               	goto	u2350
  3084  0752                     u2351:
  3085  0752  2F56               	goto	l612
  3086  0753                     u2350:
  3087  0753                     l1845:
  3088  0753  01B8               	clrf	___flmul@aexp
  3089  0754  0AB8               	incf	___flmul@aexp,f
  3090  0755  2F5B               	goto	l1849
  3091  0756                     l612:
  3092  0756  1C3A               	btfss	___flmul@prod,0
  3093  0757  2F59               	goto	u2361
  3094  0758  2F5A               	goto	u2360
  3095  0759                     u2361:
  3096  0759  2F5B               	goto	l1849
  3097  075A                     u2360:
  3098  075A  2F53               	goto	l1845
  3099  075B                     l1849:
  3100  075B  0838               	movf	___flmul@aexp,w
  3101  075C  1903               	btfsc	3,2
  3102  075D  2F5F               	goto	u2371
  3103  075E  2F60               	goto	u2370
  3104  075F                     u2371:
  3105  075F  2F91               	goto	l1859
  3106  0760                     u2370:
  3107  0760                     l1851:
  3108  0760  3001               	movlw	1
  3109  0761  07BA               	addwf	___flmul@prod,f
  3110  0762  3000               	movlw	0
  3111  0763  1803               	skipnc
  3112  0764  3001               	movlw	1
  3113  0765  07BB               	addwf	___flmul@prod+1,f
  3114  0766  3000               	movlw	0
  3115  0767  1803               	skipnc
  3116  0768  3001               	movlw	1
  3117  0769  07BC               	addwf	___flmul@prod+2,f
  3118  076A  3000               	movlw	0
  3119  076B  1803               	skipnc
  3120  076C  3001               	movlw	1
  3121  076D  07BD               	addwf	___flmul@prod+3,f
  3122  076E                     l1853:
  3123  076E  1C3D               	btfss	___flmul@prod+3,0
  3124  076F  2F71               	goto	u2381
  3125  0770  2F72               	goto	u2380
  3126  0771                     u2381:
  3127  0771  2F91               	goto	l1859
  3128  0772                     u2380:
  3129  0772                     l1855:
  3130  0772  083A               	movf	___flmul@prod,w
  3131  0773  00AE               	movwf	??___flmul
  3132  0774  083B               	movf	___flmul@prod+1,w
  3133  0775  00AF               	movwf	??___flmul+1
  3134  0776  083C               	movf	___flmul@prod+2,w
  3135  0777  00B0               	movwf	??___flmul+2
  3136  0778  083D               	movf	___flmul@prod+3,w
  3137  0779  00B1               	movwf	??___flmul+3
  3138  077A  3001               	movlw	1
  3139  077B  00B2               	movwf	??___flmul+4
  3140  077C                     u2395:
  3141  077C  0D31               	rlf	??___flmul+3,w
  3142  077D  0CB1               	rrf	??___flmul+3,f
  3143  077E  0CB0               	rrf	??___flmul+2,f
  3144  077F  0CAF               	rrf	??___flmul+1,f
  3145  0780  0CAE               	rrf	??___flmul,f
  3146  0781                     u2390:
  3147  0781  0BB2               	decfsz	??___flmul+4,f
  3148  0782  2F7C               	goto	u2395
  3149  0783  0831               	movf	??___flmul+3,w
  3150  0784  00BD               	movwf	___flmul@prod+3
  3151  0785  0830               	movf	??___flmul+2,w
  3152  0786  00BC               	movwf	___flmul@prod+2
  3153  0787  082F               	movf	??___flmul+1,w
  3154  0788  00BB               	movwf	___flmul@prod+1
  3155  0789  082E               	movf	??___flmul,w
  3156  078A  00BA               	movwf	___flmul@prod
  3157  078B                     l1857:
  3158  078B  3001               	movlw	1
  3159  078C  07BE               	addwf	___flmul@temp,f
  3160  078D  1803               	skipnc
  3161  078E  0ABF               	incf	___flmul@temp+1,f
  3162  078F  3000               	movlw	0
  3163  0790  07BF               	addwf	___flmul@temp+1,f
  3164  0791                     l1859:
  3165  0791  083F               	movf	___flmul@temp+1,w
  3166  0792  3A80               	xorlw	128
  3167  0793  00FF               	movwf	btemp+1
  3168  0794  3080               	movlw	128
  3169  0795  027F               	subwf	btemp+1,w
  3170  0796  1D03               	skipz
  3171  0797  2F9A               	goto	u2405
  3172  0798  30FF               	movlw	255
  3173  0799  023E               	subwf	___flmul@temp,w
  3174  079A                     u2405:
  3175  079A  1C03               	skipc
  3176  079B  2F9D               	goto	u2401
  3177  079C  2F9E               	goto	u2400
  3178  079D                     u2401:
  3179  079D  2FA9               	goto	l1863
  3180  079E                     u2400:
  3181  079E                     l1861:
  3182  079E  307F               	movlw	127
  3183  079F  1283               	bcf	3,5	;RP0=0, select bank0
  3184  07A0  1303               	bcf	3,6	;RP1=0, select bank0
  3185  07A1  00BD               	movwf	___flmul@prod+3
  3186  07A2  3080               	movlw	128
  3187  07A3  00BC               	movwf	___flmul@prod+2
  3188  07A4  3000               	movlw	0
  3189  07A5  00BB               	movwf	___flmul@prod+1
  3190  07A6  3000               	movlw	0
  3191  07A7  00BA               	movwf	___flmul@prod
  3192  07A8  2FDE               	goto	l618
  3193  07A9                     l1863:
  3194  07A9  1283               	bcf	3,5	;RP0=0, select bank0
  3195  07AA  1303               	bcf	3,6	;RP1=0, select bank0
  3196  07AB  083F               	movf	___flmul@temp+1,w
  3197  07AC  3A80               	xorlw	128
  3198  07AD  00FF               	movwf	btemp+1
  3199  07AE  3080               	movlw	128
  3200  07AF  027F               	subwf	btemp+1,w
  3201  07B0  1D03               	skipz
  3202  07B1  2FB4               	goto	u2415
  3203  07B2  3001               	movlw	1
  3204  07B3  023E               	subwf	___flmul@temp,w
  3205  07B4                     u2415:
  3206  07B4  1803               	skipnc
  3207  07B5  2FB7               	goto	u2411
  3208  07B6  2FB8               	goto	u2410
  3209  07B7                     u2411:
  3210  07B7  2FC4               	goto	l1869
  3211  07B8                     u2410:
  3212  07B8                     l1865:
  3213  07B8  3000               	movlw	0
  3214  07B9  1283               	bcf	3,5	;RP0=0, select bank0
  3215  07BA  1303               	bcf	3,6	;RP1=0, select bank0
  3216  07BB  00BD               	movwf	___flmul@prod+3
  3217  07BC  3000               	movlw	0
  3218  07BD  00BC               	movwf	___flmul@prod+2
  3219  07BE  3000               	movlw	0
  3220  07BF  00BB               	movwf	___flmul@prod+1
  3221  07C0  3000               	movlw	0
  3222  07C1  00BA               	movwf	___flmul@prod
  3223  07C2                     l1867:
  3224  07C2  01B3               	clrf	___flmul@sign
  3225  07C3  2FDE               	goto	l618
  3226  07C4                     l1869:
  3227  07C4  1283               	bcf	3,5	;RP0=0, select bank0
  3228  07C5  1303               	bcf	3,6	;RP1=0, select bank0
  3229  07C6  083E               	movf	___flmul@temp,w
  3230  07C7  00AE               	movwf	??___flmul
  3231  07C8  082E               	movf	??___flmul,w
  3232  07C9  00B9               	movwf	___flmul@bexp
  3233  07CA  30FF               	movlw	255
  3234  07CB  05BA               	andwf	___flmul@prod,f
  3235  07CC  30FF               	movlw	255
  3236  07CD  05BB               	andwf	___flmul@prod+1,f
  3237  07CE  307F               	movlw	127
  3238  07CF  05BC               	andwf	___flmul@prod+2,f
  3239  07D0  3000               	movlw	0
  3240  07D1  05BD               	andwf	___flmul@prod+3,f
  3241  07D2                     l1871:
  3242  07D2  1C39               	btfss	___flmul@bexp,0
  3243  07D3  2FD5               	goto	u2421
  3244  07D4  2FD6               	goto	u2420
  3245  07D5                     u2421:
  3246  07D5  2FD7               	goto	l1875
  3247  07D6                     u2420:
  3248  07D6                     l1873:
  3249  07D6  17BC               	bsf	___flmul@prod+2,7
  3250  07D7                     l1875:
  3251  07D7  0839               	movf	___flmul@bexp,w
  3252  07D8  00AE               	movwf	??___flmul
  3253  07D9  1003               	clrc
  3254  07DA  0C2E               	rrf	??___flmul,w
  3255  07DB  00AF               	movwf	??___flmul+1
  3256  07DC  082F               	movf	??___flmul+1,w
  3257  07DD  00BD               	movwf	___flmul@prod+3
  3258  07DE                     l618:
  3259  07DE  0833               	movf	___flmul@sign,w
  3260  07DF  00AE               	movwf	??___flmul
  3261  07E0  082E               	movf	??___flmul,w
  3262  07E1  04BD               	iorwf	___flmul@prod+3,f
  3263  07E2                     l1877:
  3264  07E2  083D               	movf	___flmul@prod+3,w
  3265  07E3  00A9               	movwf	?___flmul+3
  3266  07E4  083C               	movf	___flmul@prod+2,w
  3267  07E5  00A8               	movwf	?___flmul+2
  3268  07E6  083B               	movf	___flmul@prod+1,w
  3269  07E7  00A7               	movwf	?___flmul+1
  3270  07E8  083A               	movf	___flmul@prod,w
  3271  07E9  00A6               	movwf	?___flmul
  3272  07EA                     l606:
  3273  07EA  0008               	return
  3274  07EB                     __end_of___flmul:
  3275                           
  3276                           	psect	text10
  3277  0E19                     __ptext10:	
  3278 ;; *************** function __Umul8_16 *****************
  3279 ;; Defined at:
  3280 ;;		line 4 in file "C:\Program Files\Microchip\xc8\v2.36\pic\sources\c90\common\Umul8_16.c"
  3281 ;; Parameters:    Size  Location     Type
  3282 ;;  multiplier      1    wreg     unsigned char 
  3283 ;;  multiplicand    1    0[COMMON] unsigned char 
  3284 ;; Auto vars:     Size  Location     Type
  3285 ;;  multiplier      1    8[COMMON] unsigned char 
  3286 ;;  word_mpld       2    6[COMMON] unsigned int 
  3287 ;;  product         2    4[COMMON] unsigned int 
  3288 ;; Return value:  Size  Location     Type
  3289 ;;                  2    0[COMMON] unsigned int 
  3290 ;; Registers used:
  3291 ;;		wreg, status,2, status,0
  3292 ;; Tracked objects:
  3293 ;;		On entry : 0/0
  3294 ;;		On exit  : 0/0
  3295 ;;		Unchanged: 0/0
  3296 ;; Data sizes:     COMMON   BANK0   BANK1   BANK3   BANK2
  3297 ;;      Params:         2       0       0       0       0
  3298 ;;      Locals:         5       0       0       0       0
  3299 ;;      Temps:          2       0       0       0       0
  3300 ;;      Totals:         9       0       0       0       0
  3301 ;;Total ram usage:        9 bytes
  3302 ;; Hardware stack levels used: 1
  3303 ;; This function calls:
  3304 ;;		Nothing
  3305 ;; This function is called by:
  3306 ;;		___flmul
  3307 ;; This function uses a non-reentrant model
  3308 ;;
  3309                           
  3310  0E19                     __Umul8_16:	
  3311                           ;psect for function __Umul8_16
  3312                           
  3313                           
  3314                           ;incstack = 0
  3315                           ; Regs used in __Umul8_16: [wreg+status,2+status,0]
  3316                           ;__Umul8_16@multiplier stored from wreg
  3317  0E19  00F8               	movwf	__Umul8_16@multiplier
  3318  0E1A                     l1457:
  3319  0E1A  01F4               	clrf	__Umul8_16@product
  3320  0E1B  01F5               	clrf	__Umul8_16@product+1
  3321  0E1C                     l1459:
  3322  0E1C  0870               	movf	__Umul8_16@multiplicand,w
  3323  0E1D  00F2               	movwf	??__Umul8_16
  3324  0E1E  01F3               	clrf	??__Umul8_16+1
  3325  0E1F  0872               	movf	??__Umul8_16,w
  3326  0E20  00F6               	movwf	__Umul8_16@word_mpld
  3327  0E21  0873               	movf	??__Umul8_16+1,w
  3328  0E22  00F7               	movwf	__Umul8_16@word_mpld+1
  3329  0E23                     l1461:
  3330  0E23  1C78               	btfss	__Umul8_16@multiplier,0
  3331  0E24  2E26               	goto	u1521
  3332  0E25  2E27               	goto	u1520
  3333  0E26                     u1521:
  3334  0E26  2E2D               	goto	l625
  3335  0E27                     u1520:
  3336  0E27                     l1463:
  3337  0E27  0876               	movf	__Umul8_16@word_mpld,w
  3338  0E28  07F4               	addwf	__Umul8_16@product,f
  3339  0E29  1803               	skipnc
  3340  0E2A  0AF5               	incf	__Umul8_16@product+1,f
  3341  0E2B  0877               	movf	__Umul8_16@word_mpld+1,w
  3342  0E2C  07F5               	addwf	__Umul8_16@product+1,f
  3343  0E2D                     l625:
  3344  0E2D  3001               	movlw	1
  3345  0E2E                     u1535:
  3346  0E2E  1003               	clrc
  3347  0E2F  0DF6               	rlf	__Umul8_16@word_mpld,f
  3348  0E30  0DF7               	rlf	__Umul8_16@word_mpld+1,f
  3349  0E31  3EFF               	addlw	-1
  3350  0E32  1D03               	skipz
  3351  0E33  2E2E               	goto	u1535
  3352  0E34  1003               	clrc
  3353  0E35  0CF8               	rrf	__Umul8_16@multiplier,f
  3354  0E36                     l1465:
  3355  0E36  0878               	movf	__Umul8_16@multiplier,w
  3356  0E37  1D03               	btfss	3,2
  3357  0E38  2E3A               	goto	u1541
  3358  0E39  2E3B               	goto	u1540
  3359  0E3A                     u1541:
  3360  0E3A  2E23               	goto	l1461
  3361  0E3B                     u1540:
  3362  0E3B                     l1467:
  3363  0E3B  0875               	movf	__Umul8_16@product+1,w
  3364  0E3C  00F1               	movwf	?__Umul8_16+1
  3365  0E3D  0874               	movf	__Umul8_16@product,w
  3366  0E3E  00F0               	movwf	?__Umul8_16
  3367  0E3F                     l627:
  3368  0E3F  0008               	return
  3369  0E40                     __end_of__Umul8_16:
  3370                           
  3371                           	psect	text11
  3372  02AD                     __ptext11:	
  3373 ;; *************** function ___fldiv *****************
  3374 ;; Defined at:
  3375 ;;		line 8 in file "C:\Program Files\Microchip\xc8\v2.36\pic\sources\c90\common\sprcdiv.c"
  3376 ;; Parameters:    Size  Location     Type
  3377 ;;  a               4   32[BANK0 ] unsigned int 
  3378 ;;  b               4   36[BANK0 ] unsigned int 
  3379 ;; Auto vars:     Size  Location     Type
  3380 ;;  grs             4   52[BANK0 ] unsigned long 
  3381 ;;  rem             4   45[BANK0 ] unsigned long 
  3382 ;;  new_exp         2   50[BANK0 ] int 
  3383 ;;  aexp            1   57[BANK0 ] unsigned char 
  3384 ;;  bexp            1   56[BANK0 ] unsigned char 
  3385 ;;  sign            1   49[BANK0 ] unsigned char 
  3386 ;; Return value:  Size  Location     Type
  3387 ;;                  4   32[BANK0 ] unsigned char 
  3388 ;; Registers used:
  3389 ;;		wreg, status,2, status,0, btemp+1
  3390 ;; Tracked objects:
  3391 ;;		On entry : 0/0
  3392 ;;		On exit  : 0/0
  3393 ;;		Unchanged: 0/0
  3394 ;; Data sizes:     COMMON   BANK0   BANK1   BANK3   BANK2
  3395 ;;      Params:         0       8       0       0       0
  3396 ;;      Locals:         0      13       0       0       0
  3397 ;;      Temps:          0       5       0       0       0
  3398 ;;      Totals:         0      26       0       0       0
  3399 ;;Total ram usage:       26 bytes
  3400 ;; Hardware stack levels used: 1
  3401 ;; This function calls:
  3402 ;;		Nothing
  3403 ;; This function is called by:
  3404 ;;		_main
  3405 ;; This function uses a non-reentrant model
  3406 ;;
  3407                           
  3408  02AD                     ___fldiv:	
  3409                           ;psect for function ___fldiv
  3410                           
  3411  02AD                     l1599:	
  3412                           ;incstack = 0
  3413                           ; Regs used in ___fldiv: [wreg+status,2+status,0+btemp+1]
  3414                           
  3415  02AD  1283               	bcf	3,5	;RP0=0, select bank0
  3416  02AE  1303               	bcf	3,6	;RP1=0, select bank0
  3417  02AF  0847               	movf	___fldiv@b+3,w
  3418  02B0  3980               	andlw	128
  3419  02B1  00C8               	movwf	??___fldiv
  3420  02B2  0848               	movf	??___fldiv,w
  3421  02B3  00D1               	movwf	___fldiv@sign
  3422  02B4                     l1601:
  3423  02B4  0847               	movf	___fldiv@b+3,w
  3424  02B5  00C8               	movwf	??___fldiv
  3425  02B6  0748               	addwf	??___fldiv,w
  3426  02B7  00C9               	movwf	??___fldiv+1
  3427  02B8  0849               	movf	??___fldiv+1,w
  3428  02B9  00D8               	movwf	___fldiv@bexp
  3429  02BA                     l1603:
  3430  02BA  1FC6               	btfss	___fldiv@b+2,7
  3431  02BB  2ABD               	goto	u1771
  3432  02BC  2ABE               	goto	u1770
  3433  02BD                     u1771:
  3434  02BD  2ABF               	goto	l1607
  3435  02BE                     u1770:
  3436  02BE                     l1605:
  3437  02BE  1458               	bsf	___fldiv@bexp,0
  3438  02BF                     l1607:
  3439  02BF  0858               	movf	___fldiv@bexp,w
  3440  02C0  1903               	btfsc	3,2
  3441  02C1  2AC3               	goto	u1781
  3442  02C2  2AC4               	goto	u1780
  3443  02C3                     u1781:
  3444  02C3  2AD4               	goto	l1617
  3445  02C4                     u1780:
  3446  02C4                     l1609:
  3447  02C4  0A58               	incf	___fldiv@bexp,w
  3448  02C5  1D03               	btfss	3,2
  3449  02C6  2AC8               	goto	u1791
  3450  02C7  2AC9               	goto	u1790
  3451  02C8                     u1791:
  3452  02C8  2AD1               	goto	l1613
  3453  02C9                     u1790:
  3454  02C9                     l1611:
  3455  02C9  3000               	movlw	0
  3456  02CA  00C7               	movwf	___fldiv@b+3
  3457  02CB  3000               	movlw	0
  3458  02CC  00C6               	movwf	___fldiv@b+2
  3459  02CD  3000               	movlw	0
  3460  02CE  00C5               	movwf	___fldiv@b+1
  3461  02CF  3000               	movlw	0
  3462  02D0  00C4               	movwf	___fldiv@b
  3463  02D1                     l1613:
  3464  02D1  17C6               	bsf	___fldiv@b+2,7
  3465  02D2                     l1615:
  3466  02D2  01C7               	clrf	___fldiv@b+3
  3467  02D3  2ADC               	goto	l1619
  3468  02D4                     l1617:
  3469  02D4  3000               	movlw	0
  3470  02D5  00C7               	movwf	___fldiv@b+3
  3471  02D6  3000               	movlw	0
  3472  02D7  00C6               	movwf	___fldiv@b+2
  3473  02D8  3000               	movlw	0
  3474  02D9  00C5               	movwf	___fldiv@b+1
  3475  02DA  3000               	movlw	0
  3476  02DB  00C4               	movwf	___fldiv@b
  3477  02DC                     l1619:
  3478  02DC  0843               	movf	___fldiv@a+3,w
  3479  02DD  3980               	andlw	128
  3480  02DE  00C8               	movwf	??___fldiv
  3481  02DF  0848               	movf	??___fldiv,w
  3482  02E0  06D1               	xorwf	___fldiv@sign,f
  3483  02E1                     l1621:
  3484  02E1  0843               	movf	___fldiv@a+3,w
  3485  02E2  00C8               	movwf	??___fldiv
  3486  02E3  0748               	addwf	??___fldiv,w
  3487  02E4  00C9               	movwf	??___fldiv+1
  3488  02E5  0849               	movf	??___fldiv+1,w
  3489  02E6  00D9               	movwf	___fldiv@aexp
  3490  02E7                     l1623:
  3491  02E7  1FC2               	btfss	___fldiv@a+2,7
  3492  02E8  2AEA               	goto	u1801
  3493  02E9  2AEB               	goto	u1800
  3494  02EA                     u1801:
  3495  02EA  2AEC               	goto	l1627
  3496  02EB                     u1800:
  3497  02EB                     l1625:
  3498  02EB  1459               	bsf	___fldiv@aexp,0
  3499  02EC                     l1627:
  3500  02EC  0859               	movf	___fldiv@aexp,w
  3501  02ED  1903               	btfsc	3,2
  3502  02EE  2AF0               	goto	u1811
  3503  02EF  2AF1               	goto	u1810
  3504  02F0                     u1811:
  3505  02F0  2B01               	goto	l1637
  3506  02F1                     u1810:
  3507  02F1                     l1629:
  3508  02F1  0A59               	incf	___fldiv@aexp,w
  3509  02F2  1D03               	btfss	3,2
  3510  02F3  2AF5               	goto	u1821
  3511  02F4  2AF6               	goto	u1820
  3512  02F5                     u1821:
  3513  02F5  2AFE               	goto	l1633
  3514  02F6                     u1820:
  3515  02F6                     l1631:
  3516  02F6  3000               	movlw	0
  3517  02F7  00C3               	movwf	___fldiv@a+3
  3518  02F8  3000               	movlw	0
  3519  02F9  00C2               	movwf	___fldiv@a+2
  3520  02FA  3000               	movlw	0
  3521  02FB  00C1               	movwf	___fldiv@a+1
  3522  02FC  3000               	movlw	0
  3523  02FD  00C0               	movwf	___fldiv@a
  3524  02FE                     l1633:
  3525  02FE  17C2               	bsf	___fldiv@a+2,7
  3526  02FF                     l1635:
  3527  02FF  01C3               	clrf	___fldiv@a+3
  3528  0300  2B09               	goto	l566
  3529  0301                     l1637:
  3530  0301  3000               	movlw	0
  3531  0302  00C3               	movwf	___fldiv@a+3
  3532  0303  3000               	movlw	0
  3533  0304  00C2               	movwf	___fldiv@a+2
  3534  0305  3000               	movlw	0
  3535  0306  00C1               	movwf	___fldiv@a+1
  3536  0307  3000               	movlw	0
  3537  0308  00C0               	movwf	___fldiv@a
  3538  0309                     l566:
  3539  0309  0843               	movf	___fldiv@a+3,w
  3540  030A  0442               	iorwf	___fldiv@a+2,w
  3541  030B  0441               	iorwf	___fldiv@a+1,w
  3542  030C  0440               	iorwf	___fldiv@a,w
  3543  030D  1D03               	skipz
  3544  030E  2B10               	goto	u1831
  3545  030F  2B11               	goto	u1830
  3546  0310                     u1831:
  3547  0310  2B2A               	goto	l1647
  3548  0311                     u1830:
  3549  0311                     l1639:
  3550  0311  3000               	movlw	0
  3551  0312  00C7               	movwf	___fldiv@b+3
  3552  0313  3000               	movlw	0
  3553  0314  00C6               	movwf	___fldiv@b+2
  3554  0315  3000               	movlw	0
  3555  0316  00C5               	movwf	___fldiv@b+1
  3556  0317  3000               	movlw	0
  3557  0318  00C4               	movwf	___fldiv@b
  3558  0319  3080               	movlw	128
  3559  031A  04C6               	iorwf	___fldiv@b+2,f
  3560  031B  307F               	movlw	127
  3561  031C  04C7               	iorwf	___fldiv@b+3,f
  3562  031D                     l1641:
  3563  031D  0851               	movf	___fldiv@sign,w
  3564  031E  00C8               	movwf	??___fldiv
  3565  031F  0848               	movf	??___fldiv,w
  3566  0320  04C7               	iorwf	___fldiv@b+3,f
  3567  0321                     l1643:
  3568  0321  0847               	movf	___fldiv@b+3,w
  3569  0322  00C3               	movwf	?___fldiv+3
  3570  0323  0846               	movf	___fldiv@b+2,w
  3571  0324  00C2               	movwf	?___fldiv+2
  3572  0325  0845               	movf	___fldiv@b+1,w
  3573  0326  00C1               	movwf	?___fldiv+1
  3574  0327  0844               	movf	___fldiv@b,w
  3575  0328  00C0               	movwf	?___fldiv
  3576  0329  2C89               	goto	l568
  3577  032A                     l1647:
  3578  032A  0858               	movf	___fldiv@bexp,w
  3579  032B  1D03               	btfss	3,2
  3580  032C  2B2E               	goto	u1841
  3581  032D  2B2F               	goto	u1840
  3582  032E                     u1841:
  3583  032E  2B38               	goto	l1653
  3584  032F                     u1840:
  3585  032F                     l1649:
  3586  032F  3000               	movlw	0
  3587  0330  00C3               	movwf	?___fldiv+3
  3588  0331  3000               	movlw	0
  3589  0332  00C2               	movwf	?___fldiv+2
  3590  0333  3000               	movlw	0
  3591  0334  00C1               	movwf	?___fldiv+1
  3592  0335  3000               	movlw	0
  3593  0336  00C0               	movwf	?___fldiv
  3594  0337  2C89               	goto	l568
  3595  0338                     l1653:
  3596  0338  0858               	movf	___fldiv@bexp,w
  3597  0339  00C8               	movwf	??___fldiv
  3598  033A  01C9               	clrf	??___fldiv+1
  3599  033B  0849               	movf	??___fldiv+1,w
  3600  033C  00CB               	movwf	??___fldiv+3
  3601  033D  0859               	movf	___fldiv@aexp,w
  3602  033E  0248               	subwf	??___fldiv,w
  3603  033F  00CA               	movwf	??___fldiv+2
  3604  0340  1C03               	skipc
  3605  0341  03CB               	decf	??___fldiv+3,f
  3606  0342  084A               	movf	??___fldiv+2,w
  3607  0343  3E7F               	addlw	127
  3608  0344  00D2               	movwf	___fldiv@new_exp
  3609  0345  084B               	movf	??___fldiv+3,w
  3610  0346  1803               	skipnc
  3611  0347  3E01               	addlw	1
  3612  0348  3E00               	addlw	0
  3613  0349  00D3               	movwf	___fldiv@new_exp+1
  3614  034A                     l1655:
  3615  034A  0847               	movf	___fldiv@b+3,w
  3616  034B  00D0               	movwf	___fldiv@rem+3
  3617  034C  0846               	movf	___fldiv@b+2,w
  3618  034D  00CF               	movwf	___fldiv@rem+2
  3619  034E  0845               	movf	___fldiv@b+1,w
  3620  034F  00CE               	movwf	___fldiv@rem+1
  3621  0350  0844               	movf	___fldiv@b,w
  3622  0351  00CD               	movwf	___fldiv@rem
  3623  0352                     l1657:
  3624  0352  3000               	movlw	0
  3625  0353  00C7               	movwf	___fldiv@b+3
  3626  0354  3000               	movlw	0
  3627  0355  00C6               	movwf	___fldiv@b+2
  3628  0356  3000               	movlw	0
  3629  0357  00C5               	movwf	___fldiv@b+1
  3630  0358  3000               	movlw	0
  3631  0359  00C4               	movwf	___fldiv@b
  3632  035A                     l1659:
  3633  035A  3000               	movlw	0
  3634  035B  00D7               	movwf	___fldiv@grs+3
  3635  035C  3000               	movlw	0
  3636  035D  00D6               	movwf	___fldiv@grs+2
  3637  035E  3000               	movlw	0
  3638  035F  00D5               	movwf	___fldiv@grs+1
  3639  0360  3000               	movlw	0
  3640  0361  00D4               	movwf	___fldiv@grs
  3641  0362                     l1661:
  3642  0362  01D9               	clrf	___fldiv@aexp
  3643  0363  2BAE               	goto	l1681
  3644  0364                     l1663:
  3645  0364  0859               	movf	___fldiv@aexp,w
  3646  0365  1903               	btfsc	3,2
  3647  0366  2B68               	goto	u1851
  3648  0367  2B69               	goto	u1850
  3649  0368                     u1851:
  3650  0368  2B89               	goto	l1673
  3651  0369                     u1850:
  3652  0369                     l1665:
  3653  0369  3001               	movlw	1
  3654  036A  00C8               	movwf	??___fldiv
  3655  036B                     u1865:
  3656  036B  1003               	clrc
  3657  036C  0DCD               	rlf	___fldiv@rem,f
  3658  036D  0DCE               	rlf	___fldiv@rem+1,f
  3659  036E  0DCF               	rlf	___fldiv@rem+2,f
  3660  036F  0DD0               	rlf	___fldiv@rem+3,f
  3661  0370  0BC8               	decfsz	??___fldiv,f
  3662  0371  2B6B               	goto	u1865
  3663  0372  3001               	movlw	1
  3664  0373  00C8               	movwf	??___fldiv
  3665  0374                     u1875:
  3666  0374  1003               	clrc
  3667  0375  0DC4               	rlf	___fldiv@b,f
  3668  0376  0DC5               	rlf	___fldiv@b+1,f
  3669  0377  0DC6               	rlf	___fldiv@b+2,f
  3670  0378  0DC7               	rlf	___fldiv@b+3,f
  3671  0379  0BC8               	decfsz	??___fldiv,f
  3672  037A  2B74               	goto	u1875
  3673  037B                     l1667:
  3674  037B  1FD7               	btfss	___fldiv@grs+3,7
  3675  037C  2B7E               	goto	u1881
  3676  037D  2B7F               	goto	u1880
  3677  037E                     u1881:
  3678  037E  2B80               	goto	l1671
  3679  037F                     u1880:
  3680  037F                     l1669:
  3681  037F  1444               	bsf	___fldiv@b,0
  3682  0380                     l1671:
  3683  0380  3001               	movlw	1
  3684  0381  00C8               	movwf	??___fldiv
  3685  0382                     u1895:
  3686  0382  1003               	clrc
  3687  0383  0DD4               	rlf	___fldiv@grs,f
  3688  0384  0DD5               	rlf	___fldiv@grs+1,f
  3689  0385  0DD6               	rlf	___fldiv@grs+2,f
  3690  0386  0DD7               	rlf	___fldiv@grs+3,f
  3691  0387  0BC8               	decfsz	??___fldiv,f
  3692  0388  2B82               	goto	u1895
  3693  0389                     l1673:
  3694  0389  0843               	movf	___fldiv@a+3,w
  3695  038A  0250               	subwf	___fldiv@rem+3,w
  3696  038B  1D03               	skipz
  3697  038C  2B97               	goto	u1905
  3698  038D  0842               	movf	___fldiv@a+2,w
  3699  038E  024F               	subwf	___fldiv@rem+2,w
  3700  038F  1D03               	skipz
  3701  0390  2B97               	goto	u1905
  3702  0391  0841               	movf	___fldiv@a+1,w
  3703  0392  024E               	subwf	___fldiv@rem+1,w
  3704  0393  1D03               	skipz
  3705  0394  2B97               	goto	u1905
  3706  0395  0840               	movf	___fldiv@a,w
  3707  0396  024D               	subwf	___fldiv@rem,w
  3708  0397                     u1905:
  3709  0397  1C03               	skipc
  3710  0398  2B9A               	goto	u1901
  3711  0399  2B9B               	goto	u1900
  3712  039A                     u1901:
  3713  039A  2BAA               	goto	l1679
  3714  039B                     u1900:
  3715  039B                     l1675:
  3716  039B  1757               	bsf	___fldiv@grs+3,6
  3717  039C                     l1677:
  3718  039C  0840               	movf	___fldiv@a,w
  3719  039D  02CD               	subwf	___fldiv@rem,f
  3720  039E  0841               	movf	___fldiv@a+1,w
  3721  039F  1C03               	skipc
  3722  03A0  0F41               	incfsz	___fldiv@a+1,w
  3723  03A1  02CE               	subwf	___fldiv@rem+1,f
  3724  03A2  0842               	movf	___fldiv@a+2,w
  3725  03A3  1C03               	skipc
  3726  03A4  0F42               	incfsz	___fldiv@a+2,w
  3727  03A5  02CF               	subwf	___fldiv@rem+2,f
  3728  03A6  0843               	movf	___fldiv@a+3,w
  3729  03A7  1C03               	skipc
  3730  03A8  0F43               	incfsz	___fldiv@a+3,w
  3731  03A9  02D0               	subwf	___fldiv@rem+3,f
  3732  03AA                     l1679:
  3733  03AA  3001               	movlw	1
  3734  03AB  00C8               	movwf	??___fldiv
  3735  03AC  0848               	movf	??___fldiv,w
  3736  03AD  07D9               	addwf	___fldiv@aexp,f
  3737  03AE                     l1681:
  3738  03AE  301A               	movlw	26
  3739  03AF  0259               	subwf	___fldiv@aexp,w
  3740  03B0  1C03               	skipc
  3741  03B1  2BB3               	goto	u1911
  3742  03B2  2BB4               	goto	u1910
  3743  03B3                     u1911:
  3744  03B3  2B64               	goto	l1663
  3745  03B4                     u1910:
  3746  03B4                     l1683:
  3747  03B4  0850               	movf	___fldiv@rem+3,w
  3748  03B5  044F               	iorwf	___fldiv@rem+2,w
  3749  03B6  044E               	iorwf	___fldiv@rem+1,w
  3750  03B7  044D               	iorwf	___fldiv@rem,w
  3751  03B8  1903               	skipnz
  3752  03B9  2BBB               	goto	u1921
  3753  03BA  2BBC               	goto	u1920
  3754  03BB                     u1921:
  3755  03BB  2BDB               	goto	l1697
  3756  03BC                     u1920:
  3757  03BC                     l1685:
  3758  03BC  1454               	bsf	___fldiv@grs,0
  3759  03BD  2BDB               	goto	l1697
  3760  03BE                     l1687:
  3761  03BE  3001               	movlw	1
  3762  03BF  00C8               	movwf	??___fldiv
  3763  03C0                     u1935:
  3764  03C0  1003               	clrc
  3765  03C1  0DC4               	rlf	___fldiv@b,f
  3766  03C2  0DC5               	rlf	___fldiv@b+1,f
  3767  03C3  0DC6               	rlf	___fldiv@b+2,f
  3768  03C4  0DC7               	rlf	___fldiv@b+3,f
  3769  03C5  0BC8               	decfsz	??___fldiv,f
  3770  03C6  2BC0               	goto	u1935
  3771  03C7                     l1689:
  3772  03C7  1FD7               	btfss	___fldiv@grs+3,7
  3773  03C8  2BCA               	goto	u1941
  3774  03C9  2BCB               	goto	u1940
  3775  03CA                     u1941:
  3776  03CA  2BCC               	goto	l1693
  3777  03CB                     u1940:
  3778  03CB                     l1691:
  3779  03CB  1444               	bsf	___fldiv@b,0
  3780  03CC                     l1693:
  3781  03CC  3001               	movlw	1
  3782  03CD  00C8               	movwf	??___fldiv
  3783  03CE                     u1955:
  3784  03CE  1003               	clrc
  3785  03CF  0DD4               	rlf	___fldiv@grs,f
  3786  03D0  0DD5               	rlf	___fldiv@grs+1,f
  3787  03D1  0DD6               	rlf	___fldiv@grs+2,f
  3788  03D2  0DD7               	rlf	___fldiv@grs+3,f
  3789  03D3  0BC8               	decfsz	??___fldiv,f
  3790  03D4  2BCE               	goto	u1955
  3791  03D5                     l1695:
  3792  03D5  30FF               	movlw	255
  3793  03D6  07D2               	addwf	___fldiv@new_exp,f
  3794  03D7  1803               	skipnc
  3795  03D8  0AD3               	incf	___fldiv@new_exp+1,f
  3796  03D9  30FF               	movlw	255
  3797  03DA  07D3               	addwf	___fldiv@new_exp+1,f
  3798  03DB                     l1697:
  3799  03DB  1FC6               	btfss	___fldiv@b+2,7
  3800  03DC  2BDE               	goto	u1961
  3801  03DD  2BDF               	goto	u1960
  3802  03DE                     u1961:
  3803  03DE  2BBE               	goto	l1687
  3804  03DF                     u1960:
  3805  03DF                     l1699:
  3806  03DF  01D9               	clrf	___fldiv@aexp
  3807  03E0                     l1701:
  3808  03E0  1FD7               	btfss	___fldiv@grs+3,7
  3809  03E1  2BE3               	goto	u1971
  3810  03E2  2BE4               	goto	u1970
  3811  03E3                     u1971:
  3812  03E3  2C00               	goto	l1709
  3813  03E4                     u1970:
  3814  03E4                     l1703:
  3815  03E4  30FF               	movlw	255
  3816  03E5  0554               	andwf	___fldiv@grs,w
  3817  03E6  00C8               	movwf	??___fldiv
  3818  03E7  30FF               	movlw	255
  3819  03E8  0555               	andwf	___fldiv@grs+1,w
  3820  03E9  00C9               	movwf	??___fldiv+1
  3821  03EA  30FF               	movlw	255
  3822  03EB  0556               	andwf	___fldiv@grs+2,w
  3823  03EC  00CA               	movwf	??___fldiv+2
  3824  03ED  307F               	movlw	127
  3825  03EE  0557               	andwf	___fldiv@grs+3,w
  3826  03EF  00CB               	movwf	??___fldiv+3
  3827  03F0  084B               	movf	??___fldiv+3,w
  3828  03F1  044A               	iorwf	??___fldiv+2,w
  3829  03F2  0449               	iorwf	??___fldiv+1,w
  3830  03F3  0448               	iorwf	??___fldiv,w
  3831  03F4  1903               	skipnz
  3832  03F5  2BF7               	goto	u1981
  3833  03F6  2BF8               	goto	u1980
  3834  03F7                     u1981:
  3835  03F7  2BFB               	goto	l582
  3836  03F8                     u1980:
  3837  03F8                     l1705:
  3838  03F8  01D9               	clrf	___fldiv@aexp
  3839  03F9  0AD9               	incf	___fldiv@aexp,f
  3840  03FA  2C00               	goto	l1709
  3841  03FB                     l582:
  3842  03FB  1C44               	btfss	___fldiv@b,0
  3843  03FC  2BFE               	goto	u1991
  3844  03FD  2BFF               	goto	u1990
  3845  03FE                     u1991:
  3846  03FE  2C00               	goto	l1709
  3847  03FF                     u1990:
  3848  03FF  2BF8               	goto	l1705
  3849  0400                     l1709:
  3850  0400  0859               	movf	___fldiv@aexp,w
  3851  0401  1903               	btfsc	3,2
  3852  0402  2C04               	goto	u2001
  3853  0403  2C05               	goto	u2000
  3854  0404                     u2001:
  3855  0404  2C36               	goto	l1719
  3856  0405                     u2000:
  3857  0405                     l1711:
  3858  0405  3001               	movlw	1
  3859  0406  07C4               	addwf	___fldiv@b,f
  3860  0407  3000               	movlw	0
  3861  0408  1803               	skipnc
  3862  0409  3001               	movlw	1
  3863  040A  07C5               	addwf	___fldiv@b+1,f
  3864  040B  3000               	movlw	0
  3865  040C  1803               	skipnc
  3866  040D  3001               	movlw	1
  3867  040E  07C6               	addwf	___fldiv@b+2,f
  3868  040F  3000               	movlw	0
  3869  0410  1803               	skipnc
  3870  0411  3001               	movlw	1
  3871  0412  07C7               	addwf	___fldiv@b+3,f
  3872  0413                     l1713:
  3873  0413  1C47               	btfss	___fldiv@b+3,0
  3874  0414  2C16               	goto	u2011
  3875  0415  2C17               	goto	u2010
  3876  0416                     u2011:
  3877  0416  2C36               	goto	l1719
  3878  0417                     u2010:
  3879  0417                     l1715:
  3880  0417  0844               	movf	___fldiv@b,w
  3881  0418  00C8               	movwf	??___fldiv
  3882  0419  0845               	movf	___fldiv@b+1,w
  3883  041A  00C9               	movwf	??___fldiv+1
  3884  041B  0846               	movf	___fldiv@b+2,w
  3885  041C  00CA               	movwf	??___fldiv+2
  3886  041D  0847               	movf	___fldiv@b+3,w
  3887  041E  00CB               	movwf	??___fldiv+3
  3888  041F  3001               	movlw	1
  3889  0420  00CC               	movwf	??___fldiv+4
  3890  0421                     u2025:
  3891  0421  0D4B               	rlf	??___fldiv+3,w
  3892  0422  0CCB               	rrf	??___fldiv+3,f
  3893  0423  0CCA               	rrf	??___fldiv+2,f
  3894  0424  0CC9               	rrf	??___fldiv+1,f
  3895  0425  0CC8               	rrf	??___fldiv,f
  3896  0426                     u2020:
  3897  0426  0BCC               	decfsz	??___fldiv+4,f
  3898  0427  2C21               	goto	u2025
  3899  0428  084B               	movf	??___fldiv+3,w
  3900  0429  00C7               	movwf	___fldiv@b+3
  3901  042A  084A               	movf	??___fldiv+2,w
  3902  042B  00C6               	movwf	___fldiv@b+2
  3903  042C  0849               	movf	??___fldiv+1,w
  3904  042D  00C5               	movwf	___fldiv@b+1
  3905  042E  0848               	movf	??___fldiv,w
  3906  042F  00C4               	movwf	___fldiv@b
  3907  0430                     l1717:
  3908  0430  3001               	movlw	1
  3909  0431  07D2               	addwf	___fldiv@new_exp,f
  3910  0432  1803               	skipnc
  3911  0433  0AD3               	incf	___fldiv@new_exp+1,f
  3912  0434  3000               	movlw	0
  3913  0435  07D3               	addwf	___fldiv@new_exp+1,f
  3914  0436                     l1719:
  3915  0436  0853               	movf	___fldiv@new_exp+1,w
  3916  0437  3A80               	xorlw	128
  3917  0438  00FF               	movwf	btemp+1
  3918  0439  3080               	movlw	128
  3919  043A  027F               	subwf	btemp+1,w
  3920  043B  1D03               	skipz
  3921  043C  2C3F               	goto	u2035
  3922  043D  30FF               	movlw	255
  3923  043E  0252               	subwf	___fldiv@new_exp,w
  3924  043F                     u2035:
  3925  043F  1C03               	skipc
  3926  0440  2C42               	goto	u2031
  3927  0441  2C43               	goto	u2030
  3928  0442                     u2031:
  3929  0442  2C51               	goto	l1723
  3930  0443                     u2030:
  3931  0443                     l1721:
  3932  0443  30FF               	movlw	255
  3933  0444  1283               	bcf	3,5	;RP0=0, select bank0
  3934  0445  1303               	bcf	3,6	;RP1=0, select bank0
  3935  0446  00D2               	movwf	___fldiv@new_exp
  3936  0447  3000               	movlw	0
  3937  0448  00D3               	movwf	___fldiv@new_exp+1
  3938  0449  3000               	movlw	0
  3939  044A  00C7               	movwf	___fldiv@b+3
  3940  044B  3000               	movlw	0
  3941  044C  00C6               	movwf	___fldiv@b+2
  3942  044D  3000               	movlw	0
  3943  044E  00C5               	movwf	___fldiv@b+1
  3944  044F  3000               	movlw	0
  3945  0450  00C4               	movwf	___fldiv@b
  3946  0451                     l1723:
  3947  0451  1283               	bcf	3,5	;RP0=0, select bank0
  3948  0452  1303               	bcf	3,6	;RP1=0, select bank0
  3949  0453  0853               	movf	___fldiv@new_exp+1,w
  3950  0454  3A80               	xorlw	128
  3951  0455  00FF               	movwf	btemp+1
  3952  0456  3080               	movlw	128
  3953  0457  027F               	subwf	btemp+1,w
  3954  0458  1D03               	skipz
  3955  0459  2C5C               	goto	u2045
  3956  045A  3001               	movlw	1
  3957  045B  0252               	subwf	___fldiv@new_exp,w
  3958  045C                     u2045:
  3959  045C  1803               	skipnc
  3960  045D  2C5F               	goto	u2041
  3961  045E  2C60               	goto	u2040
  3962  045F                     u2041:
  3963  045F  2C6D               	goto	l588
  3964  0460                     u2040:
  3965  0460                     l1725:
  3966  0460  1283               	bcf	3,5	;RP0=0, select bank0
  3967  0461  1303               	bcf	3,6	;RP1=0, select bank0
  3968  0462  01D2               	clrf	___fldiv@new_exp
  3969  0463  01D3               	clrf	___fldiv@new_exp+1
  3970  0464                     l1727:
  3971  0464  3000               	movlw	0
  3972  0465  00C7               	movwf	___fldiv@b+3
  3973  0466  3000               	movlw	0
  3974  0467  00C6               	movwf	___fldiv@b+2
  3975  0468  3000               	movlw	0
  3976  0469  00C5               	movwf	___fldiv@b+1
  3977  046A  3000               	movlw	0
  3978  046B  00C4               	movwf	___fldiv@b
  3979  046C                     l1729:
  3980  046C  01D1               	clrf	___fldiv@sign
  3981  046D                     l588:
  3982  046D  1283               	bcf	3,5	;RP0=0, select bank0
  3983  046E  1303               	bcf	3,6	;RP1=0, select bank0
  3984  046F  0852               	movf	___fldiv@new_exp,w
  3985  0470  00C8               	movwf	??___fldiv
  3986  0471  0848               	movf	??___fldiv,w
  3987  0472  00D8               	movwf	___fldiv@bexp
  3988  0473                     l1731:
  3989  0473  1C58               	btfss	___fldiv@bexp,0
  3990  0474  2C76               	goto	u2051
  3991  0475  2C77               	goto	u2050
  3992  0476                     u2051:
  3993  0476  2C79               	goto	l1735
  3994  0477                     u2050:
  3995  0477                     l1733:
  3996  0477  17C6               	bsf	___fldiv@b+2,7
  3997  0478  2C7D               	goto	l590
  3998  0479                     l1735:
  3999  0479  307F               	movlw	127
  4000  047A  00C8               	movwf	??___fldiv
  4001  047B  0848               	movf	??___fldiv,w
  4002  047C  05C6               	andwf	___fldiv@b+2,f
  4003  047D                     l590:
  4004  047D  0858               	movf	___fldiv@bexp,w
  4005  047E  00C8               	movwf	??___fldiv
  4006  047F  1003               	clrc
  4007  0480  0C48               	rrf	??___fldiv,w
  4008  0481  00C9               	movwf	??___fldiv+1
  4009  0482  0849               	movf	??___fldiv+1,w
  4010  0483  00C7               	movwf	___fldiv@b+3
  4011  0484  0851               	movf	___fldiv@sign,w
  4012  0485  00C8               	movwf	??___fldiv
  4013  0486  0848               	movf	??___fldiv,w
  4014  0487  04C7               	iorwf	___fldiv@b+3,f
  4015  0488  2B21               	goto	l1643
  4016  0489                     l568:
  4017  0489  0008               	return
  4018  048A                     __end_of___fldiv:
  4019                           
  4020                           	psect	text12
  4021  0DFB                     __ptext12:	
  4022 ;; *************** function _LCDPutStr *****************
  4023 ;; Defined at:
  4024 ;;		line 165 in file "lcd.c"
  4025 ;; Parameters:    Size  Location     Type
  4026 ;;  str             1    wreg     PTR const unsigned char 
  4027 ;;		 -> buffer(20), 
  4028 ;; Auto vars:     Size  Location     Type
  4029 ;;  str             1    7[COMMON] PTR const unsigned char 
  4030 ;;		 -> buffer(20), 
  4031 ;;  i               1    8[COMMON] unsigned char 
  4032 ;; Return value:  Size  Location     Type
  4033 ;;                  1    wreg      void 
  4034 ;; Registers used:
  4035 ;;		wreg, fsr0l, fsr0h, status,2, status,0, pclath, cstack
  4036 ;; Tracked objects:
  4037 ;;		On entry : 0/0
  4038 ;;		On exit  : 0/0
  4039 ;;		Unchanged: 0/0
  4040 ;; Data sizes:     COMMON   BANK0   BANK1   BANK3   BANK2
  4041 ;;      Params:         0       0       0       0       0
  4042 ;;      Locals:         2       0       0       0       0
  4043 ;;      Temps:          1       0       0       0       0
  4044 ;;      Totals:         3       0       0       0       0
  4045 ;;Total ram usage:        3 bytes
  4046 ;; Hardware stack levels used: 1
  4047 ;; Hardware stack levels required when called: 2
  4048 ;; This function calls:
  4049 ;;		_LCDPutChar
  4050 ;; This function is called by:
  4051 ;;		_main
  4052 ;; This function uses a non-reentrant model
  4053 ;;
  4054                           
  4055  0DFB                     _LCDPutStr:	
  4056                           ;psect for function _LCDPutStr
  4057                           
  4058                           
  4059                           ;incstack = 0
  4060                           ; Regs used in _LCDPutStr: [wreg-fsr0h+status,2+status,0+pclath+cstack]
  4061                           ;LCDPutStr@str stored from wreg
  4062  0DFB  00F7               	movwf	LCDPutStr@str
  4063  0DFC                     l1555:
  4064                           
  4065                           ;lcd.c: 165: void LCDPutStr(const char *str);lcd.c: 166: {;lcd.c: 167:     uint8_t i=0;
  4066  0DFC  01F8               	clrf	LCDPutStr@i
  4067                           
  4068                           ;lcd.c: 170:     while (str[i])
  4069  0DFD  2E0D               	goto	l1561
  4070  0DFE                     l1557:
  4071                           
  4072                           ;lcd.c: 171:     {;lcd.c: 173:         LCDPutChar(str[i++]);
  4073  0DFE  0878               	movf	LCDPutStr@i,w
  4074  0DFF  0777               	addwf	LCDPutStr@str,w
  4075  0E00  00F6               	movwf	??_LCDPutStr
  4076  0E01  0876               	movf	??_LCDPutStr,w
  4077  0E02  0084               	movwf	4
  4078  0E03  0800               	movf	0,w
  4079  0E04  120A  158A  2640  120A  158A  	fcall	_LCDPutChar
  4080  0E09                     l1559:
  4081  0E09  3001               	movlw	1
  4082  0E0A  00F6               	movwf	??_LCDPutStr
  4083  0E0B  0876               	movf	??_LCDPutStr,w
  4084  0E0C  07F8               	addwf	LCDPutStr@i,f
  4085  0E0D                     l1561:
  4086                           
  4087                           ;lcd.c: 170:     while (str[i])
  4088  0E0D  0878               	movf	LCDPutStr@i,w
  4089  0E0E  0777               	addwf	LCDPutStr@str,w
  4090  0E0F  00F6               	movwf	??_LCDPutStr
  4091  0E10  0876               	movf	??_LCDPutStr,w
  4092  0E11  0084               	movwf	4
  4093  0E12  1383               	bcf	3,7	;select IRP bank0
  4094  0E13  0800               	movf	0,w
  4095  0E14  1D03               	btfss	3,2
  4096  0E15  2E17               	goto	u1661
  4097  0E16  2E18               	goto	u1660
  4098  0E17                     u1661:
  4099  0E17  2DFE               	goto	l1557
  4100  0E18                     u1660:
  4101  0E18                     l96:
  4102  0E18  0008               	return
  4103  0E19                     __end_of_LCDPutStr:
  4104                           
  4105                           	psect	text13
  4106  0E40                     __ptext13:	
  4107 ;; *************** function _LCDPutChar *****************
  4108 ;; Defined at:
  4109 ;;		line 133 in file "lcd.c"
  4110 ;; Parameters:    Size  Location     Type
  4111 ;;  ch              1    wreg     unsigned char 
  4112 ;; Auto vars:     Size  Location     Type
  4113 ;;  ch              1    5[COMMON] unsigned char 
  4114 ;; Return value:  Size  Location     Type
  4115 ;;                  1    wreg      void 
  4116 ;; Registers used:
  4117 ;;		wreg, status,2, status,0, pclath, cstack
  4118 ;; Tracked objects:
  4119 ;;		On entry : 0/0
  4120 ;;		On exit  : 0/0
  4121 ;;		Unchanged: 0/0
  4122 ;; Data sizes:     COMMON   BANK0   BANK1   BANK3   BANK2
  4123 ;;      Params:         0       0       0       0       0
  4124 ;;      Locals:         1       0       0       0       0
  4125 ;;      Temps:          2       0       0       0       0
  4126 ;;      Totals:         3       0       0       0       0
  4127 ;;Total ram usage:        3 bytes
  4128 ;; Hardware stack levels used: 1
  4129 ;; Hardware stack levels required when called: 1
  4130 ;; This function calls:
  4131 ;;		_LCDWriteNibble
  4132 ;; This function is called by:
  4133 ;;		_LCDPutStr
  4134 ;; This function uses a non-reentrant model
  4135 ;;
  4136                           
  4137  0E40                     _LCDPutChar:	
  4138                           ;psect for function _LCDPutChar
  4139                           
  4140                           
  4141                           ;incstack = 0
  4142                           ; Regs used in _LCDPutChar: [wreg+status,2+status,0+pclath+cstack]
  4143                           ;LCDPutChar@ch stored from wreg
  4144  0E40  00F5               	movwf	LCDPutChar@ch
  4145  0E41                     l1401:
  4146                           
  4147                           ;lcd.c: 133: void LCDPutChar(uint8_t ch);lcd.c: 134: {;lcd.c: 135:     _delay((unsigned 
      +                          long)((5)*(16000000/4000.0)));
  4148  0E41  301A               	movlw	26
  4149  0E42  00F4               	movwf	??_LCDPutChar+1
  4150  0E43  30F8               	movlw	248
  4151  0E44  00F3               	movwf	??_LCDPutChar
  4152  0E45                     u2607:
  4153  0E45  0BF3               	decfsz	??_LCDPutChar,f
  4154  0E46  2E45               	goto	u2607
  4155  0E47  0BF4               	decfsz	??_LCDPutChar+1,f
  4156  0E48  2E45               	goto	u2607
  4157  0E49  0000               	nop
  4158  0E4A                     l1403:
  4159                           
  4160                           ;lcd.c: 138:     LCDWriteNibble(ch,1);
  4161  0E4A  01F0               	clrf	LCDWriteNibble@rs
  4162  0E4B  0AF0               	incf	LCDWriteNibble@rs,f
  4163  0E4C  0875               	movf	LCDPutChar@ch,w
  4164  0E4D  120A  158A  27AC  120A  158A  	fcall	_LCDWriteNibble
  4165  0E52                     l1405:
  4166                           
  4167                           ;lcd.c: 141:     ch = (ch << 4);
  4168  0E52  0875               	movf	LCDPutChar@ch,w
  4169  0E53  00F3               	movwf	??_LCDPutChar
  4170  0E54  3003               	movlw	3
  4171  0E55                     u1385:
  4172  0E55  1003               	clrc
  4173  0E56  0DF3               	rlf	??_LCDPutChar,f
  4174  0E57  3EFF               	addlw	-1
  4175  0E58  1D03               	skipz
  4176  0E59  2E55               	goto	u1385
  4177  0E5A  1003               	clrc
  4178  0E5B  0D73               	rlf	??_LCDPutChar,w
  4179  0E5C  00F4               	movwf	??_LCDPutChar+1
  4180  0E5D  0874               	movf	??_LCDPutChar+1,w
  4181  0E5E  00F5               	movwf	LCDPutChar@ch
  4182  0E5F                     l1407:
  4183                           
  4184                           ;lcd.c: 144:     LCDWriteNibble(ch,1);
  4185  0E5F  01F0               	clrf	LCDWriteNibble@rs
  4186  0E60  0AF0               	incf	LCDWriteNibble@rs,f
  4187  0E61  0875               	movf	LCDPutChar@ch,w
  4188  0E62  120A  158A  27AC  120A  158A  	fcall	_LCDWriteNibble
  4189  0E67                     l87:
  4190  0E67  0008               	return
  4191  0E68                     __end_of_LCDPutChar:
  4192                           
  4193                           	psect	text14
  4194  0E68                     __ptext14:	
  4195 ;; *************** function _LCDGoto *****************
  4196 ;; Defined at:
  4197 ;;		line 178 in file "lcd.c"
  4198 ;; Parameters:    Size  Location     Type
  4199 ;;  pos             1    wreg     unsigned char 
  4200 ;;  ln              1    6[COMMON] unsigned char 
  4201 ;; Auto vars:     Size  Location     Type
  4202 ;;  pos             1   11[COMMON] unsigned char 
  4203 ;; Return value:  Size  Location     Type
  4204 ;;                  1    wreg      void 
  4205 ;; Registers used:
  4206 ;;		wreg, status,2, status,0, pclath, cstack
  4207 ;; Tracked objects:
  4208 ;;		On entry : 0/0
  4209 ;;		On exit  : 0/0
  4210 ;;		Unchanged: 0/0
  4211 ;; Data sizes:     COMMON   BANK0   BANK1   BANK3   BANK2
  4212 ;;      Params:         1       0       0       0       0
  4213 ;;      Locals:         3       0       0       0       0
  4214 ;;      Temps:          2       0       0       0       0
  4215 ;;      Totals:         6       0       0       0       0
  4216 ;;Total ram usage:        6 bytes
  4217 ;; Hardware stack levels used: 1
  4218 ;; Hardware stack levels required when called: 2
  4219 ;; This function calls:
  4220 ;;		_LCDPutCmd
  4221 ;; This function is called by:
  4222 ;;		_main
  4223 ;; This function uses a non-reentrant model
  4224 ;;
  4225                           
  4226  0E68                     _LCDGoto:	
  4227                           ;psect for function _LCDGoto
  4228                           
  4229                           
  4230                           ;incstack = 0
  4231                           ; Regs used in _LCDGoto: [wreg+status,2+status,0+pclath+cstack]
  4232                           ;LCDGoto@pos stored from wreg
  4233  0E68  00FB               	movwf	LCDGoto@pos
  4234  0E69                     l1541:
  4235                           
  4236                           ;lcd.c: 178: void LCDGoto(uint8_t pos,uint8_t ln);lcd.c: 179: {;lcd.c: 181:     if ((ln 
      +                          > (2 -1)) || (pos > (16 -1)))
  4237  0E69  3002               	movlw	2
  4238  0E6A  0276               	subwf	LCDGoto@ln,w
  4239  0E6B  1803               	skipnc
  4240  0E6C  2E6E               	goto	u1631
  4241  0E6D  2E6F               	goto	u1630
  4242  0E6E                     u1631:
  4243  0E6E  2E95               	goto	l102
  4244  0E6F                     u1630:
  4245  0E6F                     l1543:
  4246  0E6F  3010               	movlw	16
  4247  0E70  027B               	subwf	LCDGoto@pos,w
  4248  0E71  1C03               	skipc
  4249  0E72  2E74               	goto	u1641
  4250  0E73  2E75               	goto	u1640
  4251  0E74                     u1641:
  4252  0E74  2E76               	goto	l1545
  4253  0E75                     u1640:
  4254  0E75  2E95               	goto	l102
  4255  0E76                     l1545:
  4256                           
  4257                           ;lcd.c: 188:     LCDPutCmd((ln == 1) ? (0xC0 | pos) : (0x80 | pos));
  4258  0E76  0376               	decf	LCDGoto@ln,w
  4259  0E77  1903               	btfsc	3,2
  4260  0E78  2E7A               	goto	u1651
  4261  0E79  2E7B               	goto	u1650
  4262  0E7A                     u1651:
  4263  0E7A  2E81               	goto	l1549
  4264  0E7B                     u1650:
  4265  0E7B                     l1547:
  4266  0E7B  3080               	movlw	128
  4267  0E7C  047B               	iorwf	LCDGoto@pos,w
  4268  0E7D  00F9               	movwf	_LCDGoto$228
  4269  0E7E  3000               	movlw	0
  4270  0E7F  00FA               	movwf	_LCDGoto$228+1
  4271  0E80  2E86               	goto	l1551
  4272  0E81                     l1549:
  4273  0E81  30C0               	movlw	192
  4274  0E82  047B               	iorwf	LCDGoto@pos,w
  4275  0E83  00F9               	movwf	_LCDGoto$228
  4276  0E84  3000               	movlw	0
  4277  0E85  00FA               	movwf	_LCDGoto$228+1
  4278  0E86                     l1551:
  4279  0E86  0879               	movf	_LCDGoto$228,w
  4280  0E87  120A  158A  2696  120A  158A  	fcall	_LCDPutCmd
  4281  0E8C                     l1553:
  4282                           
  4283                           ;lcd.c: 191:     _delay((unsigned long)((5)*(16000000/4000.0)));
  4284  0E8C  301A               	movlw	26
  4285  0E8D  00F8               	movwf	??_LCDGoto+1
  4286  0E8E  30F8               	movlw	248
  4287  0E8F  00F7               	movwf	??_LCDGoto
  4288  0E90                     u2617:
  4289  0E90  0BF7               	decfsz	??_LCDGoto,f
  4290  0E91  2E90               	goto	u2617
  4291  0E92  0BF8               	decfsz	??_LCDGoto+1,f
  4292  0E93  2E90               	goto	u2617
  4293  0E94  0000               	nop
  4294  0E95                     l102:
  4295  0E95  0008               	return
  4296  0E96                     __end_of_LCDGoto:
  4297                           
  4298                           	psect	text15
  4299  0E96                     __ptext15:	
  4300 ;; *************** function _LCDPutCmd *****************
  4301 ;; Defined at:
  4302 ;;		line 148 in file "lcd.c"
  4303 ;; Parameters:    Size  Location     Type
  4304 ;;  ch              1    wreg     unsigned char 
  4305 ;; Auto vars:     Size  Location     Type
  4306 ;;  ch              1    5[COMMON] unsigned char 
  4307 ;; Return value:  Size  Location     Type
  4308 ;;                  1    wreg      void 
  4309 ;; Registers used:
  4310 ;;		wreg, status,2, status,0, pclath, cstack
  4311 ;; Tracked objects:
  4312 ;;		On entry : 0/0
  4313 ;;		On exit  : 0/0
  4314 ;;		Unchanged: 0/0
  4315 ;; Data sizes:     COMMON   BANK0   BANK1   BANK3   BANK2
  4316 ;;      Params:         0       0       0       0       0
  4317 ;;      Locals:         1       0       0       0       0
  4318 ;;      Temps:          2       0       0       0       0
  4319 ;;      Totals:         3       0       0       0       0
  4320 ;;Total ram usage:        3 bytes
  4321 ;; Hardware stack levels used: 1
  4322 ;; Hardware stack levels required when called: 1
  4323 ;; This function calls:
  4324 ;;		_LCDWriteNibble
  4325 ;; This function is called by:
  4326 ;;		_LCD_Initialize
  4327 ;;		_LCDGoto
  4328 ;; This function uses a non-reentrant model
  4329 ;;
  4330                           
  4331  0E96                     _LCDPutCmd:	
  4332                           ;psect for function _LCDPutCmd
  4333                           
  4334                           
  4335                           ;incstack = 0
  4336                           ; Regs used in _LCDPutCmd: [wreg+status,2+status,0+pclath+cstack]
  4337                           ;LCDPutCmd@ch stored from wreg
  4338  0E96  00F5               	movwf	LCDPutCmd@ch
  4339  0E97                     l1377:
  4340                           
  4341                           ;lcd.c: 148: void LCDPutCmd(uint8_t ch);lcd.c: 149: {;lcd.c: 150:     _delay((unsigned l
      +                          ong)((5)*(16000000/4000.0)));
  4342  0E97  301A               	movlw	26
  4343  0E98  00F4               	movwf	??_LCDPutCmd+1
  4344  0E99  30F8               	movlw	248
  4345  0E9A  00F3               	movwf	??_LCDPutCmd
  4346  0E9B                     u2627:
  4347  0E9B  0BF3               	decfsz	??_LCDPutCmd,f
  4348  0E9C  2E9B               	goto	u2627
  4349  0E9D  0BF4               	decfsz	??_LCDPutCmd+1,f
  4350  0E9E  2E9B               	goto	u2627
  4351  0E9F  0000               	nop
  4352  0EA0                     l1379:
  4353                           
  4354                           ;lcd.c: 153:     LCDWriteNibble(ch,0);
  4355  0EA0  01F0               	clrf	LCDWriteNibble@rs
  4356  0EA1  0875               	movf	LCDPutCmd@ch,w
  4357  0EA2  120A  158A  27AC  120A  158A  	fcall	_LCDWriteNibble
  4358  0EA7                     l1381:
  4359                           
  4360                           ;lcd.c: 156:     ch = (ch << 4);
  4361  0EA7  0875               	movf	LCDPutCmd@ch,w
  4362  0EA8  00F3               	movwf	??_LCDPutCmd
  4363  0EA9  3003               	movlw	3
  4364  0EAA                     u1375:
  4365  0EAA  1003               	clrc
  4366  0EAB  0DF3               	rlf	??_LCDPutCmd,f
  4367  0EAC  3EFF               	addlw	-1
  4368  0EAD  1D03               	skipz
  4369  0EAE  2EAA               	goto	u1375
  4370  0EAF  1003               	clrc
  4371  0EB0  0D73               	rlf	??_LCDPutCmd,w
  4372  0EB1  00F4               	movwf	??_LCDPutCmd+1
  4373  0EB2  0874               	movf	??_LCDPutCmd+1,w
  4374  0EB3  00F5               	movwf	LCDPutCmd@ch
  4375  0EB4                     l1383:
  4376                           
  4377                           ;lcd.c: 158:     _delay((unsigned long)((1)*(16000000/4000.0)));
  4378  0EB4  3006               	movlw	6
  4379  0EB5  00F4               	movwf	??_LCDPutCmd+1
  4380  0EB6  3030               	movlw	48
  4381  0EB7  00F3               	movwf	??_LCDPutCmd
  4382  0EB8                     u2637:
  4383  0EB8  0BF3               	decfsz	??_LCDPutCmd,f
  4384  0EB9  2EB8               	goto	u2637
  4385  0EBA  0BF4               	decfsz	??_LCDPutCmd+1,f
  4386  0EBB  2EB8               	goto	u2637
  4387  0EBC  0000               	nop
  4388  0EBD                     l1385:
  4389                           
  4390                           ;lcd.c: 161:     LCDWriteNibble(ch,0);
  4391  0EBD  01F0               	clrf	LCDWriteNibble@rs
  4392  0EBE  0875               	movf	LCDPutCmd@ch,w
  4393  0EBF  120A  158A  27AC  120A  158A  	fcall	_LCDWriteNibble
  4394  0EC4                     l90:
  4395  0EC4  0008               	return
  4396  0EC5                     __end_of_LCDPutCmd:
  4397                           
  4398                           	psect	text16
  4399  0FAC                     __ptext16:	
  4400 ;; *************** function _LCDWriteNibble *****************
  4401 ;; Defined at:
  4402 ;;		line 80 in file "lcd.c"
  4403 ;; Parameters:    Size  Location     Type
  4404 ;;  ch              1    wreg     unsigned char 
  4405 ;;  rs              1    0[COMMON] unsigned char 
  4406 ;; Auto vars:     Size  Location     Type
  4407 ;;  ch              1    2[COMMON] unsigned char 
  4408 ;; Return value:  Size  Location     Type
  4409 ;;                  1    wreg      void 
  4410 ;; Registers used:
  4411 ;;		wreg, status,2, status,0
  4412 ;; Tracked objects:
  4413 ;;		On entry : 0/0
  4414 ;;		On exit  : 0/0
  4415 ;;		Unchanged: 0/0
  4416 ;; Data sizes:     COMMON   BANK0   BANK1   BANK3   BANK2
  4417 ;;      Params:         1       0       0       0       0
  4418 ;;      Locals:         1       0       0       0       0
  4419 ;;      Temps:          1       0       0       0       0
  4420 ;;      Totals:         3       0       0       0       0
  4421 ;;Total ram usage:        3 bytes
  4422 ;; Hardware stack levels used: 1
  4423 ;; This function calls:
  4424 ;;		Nothing
  4425 ;; This function is called by:
  4426 ;;		_LCDPutChar
  4427 ;;		_LCDPutCmd
  4428 ;; This function uses a non-reentrant model
  4429 ;;
  4430                           
  4431  0FAC                     _LCDWriteNibble:	
  4432                           ;psect for function _LCDWriteNibble
  4433                           
  4434                           
  4435                           ;incstack = 0
  4436                           ; Regs used in _LCDWriteNibble: [wreg+status,2+status,0]
  4437                           ;LCDWriteNibble@ch stored from wreg
  4438  0FAC  00F2               	movwf	LCDWriteNibble@ch
  4439  0FAD                     l1343:
  4440                           
  4441                           ;lcd.c: 80: void LCDWriteNibble(uint8_t ch,uint8_t rs);lcd.c: 81: {;lcd.c: 83:     ch = 
      +                          (ch & 0xF0);
  4442  0FAD  0872               	movf	LCDWriteNibble@ch,w
  4443  0FAE  39F0               	andlw	240
  4444  0FAF  00F1               	movwf	??_LCDWriteNibble
  4445  0FB0  0871               	movf	??_LCDWriteNibble,w
  4446  0FB1  00F2               	movwf	LCDWriteNibble@ch
  4447                           
  4448                           ;lcd.c: 86:     PORTD = (PORTD & 0x0F);
  4449  0FB2  1283               	bcf	3,5	;RP0=0, select bank0
  4450  0FB3  1303               	bcf	3,6	;RP1=0, select bank0
  4451  0FB4  0808               	movf	8,w	;volatile
  4452  0FB5  390F               	andlw	15
  4453  0FB6  0088               	movwf	8	;volatile
  4454  0FB7                     l1345:
  4455                           
  4456                           ;lcd.c: 87:     PORTDbits.RD4 = 0;
  4457  0FB7  1208               	bcf	8,4	;volatile
  4458  0FB8                     l1347:
  4459                           
  4460                           ;lcd.c: 88:     PORTDbits.RD5 = 0;
  4461  0FB8  1288               	bcf	8,5	;volatile
  4462  0FB9                     l1349:
  4463                           
  4464                           ;lcd.c: 89:     PORTDbits.RD6 = 0;
  4465  0FB9  1308               	bcf	8,6	;volatile
  4466  0FBA                     l1351:
  4467                           
  4468                           ;lcd.c: 90:     PORTDbits.RD7 = 0;
  4469  0FBA  1388               	bcf	8,7	;volatile
  4470  0FBB                     l1353:
  4471                           
  4472                           ;lcd.c: 94:     if(((ch & 0x80)>>7)==1){
  4473  0FBB  0872               	movf	LCDWriteNibble@ch,w
  4474  0FBC  00F1               	movwf	??_LCDWriteNibble
  4475  0FBD  3007               	movlw	7
  4476  0FBE                     u1295:
  4477  0FBE  1003               	clrc
  4478  0FBF  0CF1               	rrf	??_LCDWriteNibble,f
  4479  0FC0  3EFF               	addlw	-1
  4480  0FC1  1D03               	skipz
  4481  0FC2  2FBE               	goto	u1295
  4482  0FC3  1C71               	btfss	??_LCDWriteNibble,0
  4483  0FC4  2FC6               	goto	u1301
  4484  0FC5  2FC7               	goto	u1300
  4485  0FC6                     u1301:
  4486  0FC6  2FC9               	goto	l76
  4487  0FC7                     u1300:
  4488  0FC7                     l1355:
  4489                           
  4490                           ;lcd.c: 95:         PORTDbits.RD7 = 1;
  4491  0FC7  1788               	bsf	8,7	;volatile
  4492                           
  4493                           ;lcd.c: 96:     } else{
  4494  0FC8  2FCA               	goto	l1357
  4495  0FC9                     l76:
  4496                           
  4497                           ;lcd.c: 97:         PORTDbits.RD7 = 0;
  4498  0FC9  1388               	bcf	8,7	;volatile
  4499  0FCA                     l1357:
  4500                           
  4501                           ;lcd.c: 100:     if(((ch & 0x40)>>6)==1){
  4502  0FCA  0872               	movf	LCDWriteNibble@ch,w
  4503  0FCB  00F1               	movwf	??_LCDWriteNibble
  4504  0FCC  3006               	movlw	6
  4505  0FCD                     u1315:
  4506  0FCD  1003               	clrc
  4507  0FCE  0CF1               	rrf	??_LCDWriteNibble,f
  4508  0FCF  3EFF               	addlw	-1
  4509  0FD0  1D03               	skipz
  4510  0FD1  2FCD               	goto	u1315
  4511  0FD2  1C71               	btfss	??_LCDWriteNibble,0
  4512  0FD3  2FD5               	goto	u1321
  4513  0FD4  2FD6               	goto	u1320
  4514  0FD5                     u1321:
  4515  0FD5  2FD8               	goto	l78
  4516  0FD6                     u1320:
  4517  0FD6                     l1359:
  4518                           
  4519                           ;lcd.c: 101:         PORTDbits.RD6 = 1;
  4520  0FD6  1708               	bsf	8,6	;volatile
  4521                           
  4522                           ;lcd.c: 102:     } else{
  4523  0FD7  2FD9               	goto	l1361
  4524  0FD8                     l78:
  4525                           
  4526                           ;lcd.c: 103:         PORTDbits.RD6 = 0;
  4527  0FD8  1308               	bcf	8,6	;volatile
  4528  0FD9                     l1361:
  4529                           
  4530                           ;lcd.c: 106:     if(((ch & 0x20)>>5)==1){
  4531  0FD9  0872               	movf	LCDWriteNibble@ch,w
  4532  0FDA  00F1               	movwf	??_LCDWriteNibble
  4533  0FDB  3005               	movlw	5
  4534  0FDC                     u1335:
  4535  0FDC  1003               	clrc
  4536  0FDD  0CF1               	rrf	??_LCDWriteNibble,f
  4537  0FDE  3EFF               	addlw	-1
  4538  0FDF  1D03               	skipz
  4539  0FE0  2FDC               	goto	u1335
  4540  0FE1  1C71               	btfss	??_LCDWriteNibble,0
  4541  0FE2  2FE4               	goto	u1341
  4542  0FE3  2FE5               	goto	u1340
  4543  0FE4                     u1341:
  4544  0FE4  2FE7               	goto	l80
  4545  0FE5                     u1340:
  4546  0FE5                     l1363:
  4547                           
  4548                           ;lcd.c: 107:         PORTDbits.RD5 = 1;
  4549  0FE5  1688               	bsf	8,5	;volatile
  4550                           
  4551                           ;lcd.c: 108:     } else{
  4552  0FE6  2FE8               	goto	l1365
  4553  0FE7                     l80:
  4554                           
  4555                           ;lcd.c: 109:         PORTDbits.RD5 = 0;
  4556  0FE7  1288               	bcf	8,5	;volatile
  4557  0FE8                     l1365:
  4558                           
  4559                           ;lcd.c: 112:     if(((ch & 0x10)>>4)==1){
  4560  0FE8  0872               	movf	LCDWriteNibble@ch,w
  4561  0FE9  00F1               	movwf	??_LCDWriteNibble
  4562  0FEA  3004               	movlw	4
  4563  0FEB                     u1355:
  4564  0FEB  1003               	clrc
  4565  0FEC  0CF1               	rrf	??_LCDWriteNibble,f
  4566  0FED  3EFF               	addlw	-1
  4567  0FEE  1D03               	skipz
  4568  0FEF  2FEB               	goto	u1355
  4569  0FF0  1C71               	btfss	??_LCDWriteNibble,0
  4570  0FF1  2FF3               	goto	u1361
  4571  0FF2  2FF4               	goto	u1360
  4572  0FF3                     u1361:
  4573  0FF3  2FF6               	goto	l82
  4574  0FF4                     u1360:
  4575  0FF4                     l1367:
  4576                           
  4577                           ;lcd.c: 113:         PORTDbits.RD4 = 1;
  4578  0FF4  1608               	bsf	8,4	;volatile
  4579                           
  4580                           ;lcd.c: 114:     } else{
  4581  0FF5  2FF7               	goto	l1369
  4582  0FF6                     l82:
  4583                           
  4584                           ;lcd.c: 115:         PORTDbits.RD4 = 0;
  4585  0FF6  1208               	bcf	8,4	;volatile
  4586  0FF7                     l1369:
  4587                           
  4588                           ;lcd.c: 121:     PORTEbits.RE0 = rs;
  4589  0FF7  0C70               	rrf	LCDWriteNibble@rs,w
  4590  0FF8  1C03               	skipc
  4591  0FF9  1009               	bcf	9,0	;volatile
  4592  0FFA  1803               	skipnc
  4593  0FFB  1409               	bsf	9,0	;volatile
  4594  0FFC                     l1371:
  4595                           
  4596                           ;lcd.c: 124:     PORTEbits.RE1 = 0;
  4597  0FFC  1089               	bcf	9,1	;volatile
  4598  0FFD                     l1373:
  4599                           
  4600                           ;lcd.c: 127:     PORTEbits.RE2 = 1;
  4601  0FFD  1509               	bsf	9,2	;volatile
  4602  0FFE                     l1375:
  4603                           
  4604                           ;lcd.c: 130:     PORTEbits.RE2 = 0;
  4605  0FFE  1109               	bcf	9,2	;volatile
  4606  0FFF                     l84:
  4607  0FFF  0008               	return
  4608  1000                     __end_of_LCDWriteNibble:
  4609  007E                     btemp	set	126	;btemp
  4610  007E                     wtemp0	set	126
  4611                           
  4612                           	psect	idloc
  4613                           
  4614                           ;Config register IDLOC0 @ 0x2000
  4615                           ;	unspecified, using default values
  4616  2000                     	org	8192
  4617  2000  3FFF               	dw	16383
  4618                           
  4619                           ;Config register IDLOC1 @ 0x2001
  4620                           ;	unspecified, using default values
  4621  2001                     	org	8193
  4622  2001  3FFF               	dw	16383
  4623                           
  4624                           ;Config register IDLOC2 @ 0x2002
  4625                           ;	unspecified, using default values
  4626  2002                     	org	8194
  4627  2002  3FFF               	dw	16383
  4628                           
  4629                           ;Config register IDLOC3 @ 0x2003
  4630                           ;	unspecified, using default values
  4631  2003                     	org	8195
  4632  2003  3FFF               	dw	16383
  4633                           
  4634                           	psect	config
  4635                           
  4636                           ;Config register CONFIG1 @ 0x2007
  4637                           ;	Oscillator Selection bits
  4638                           ;	FOSC = HS, HS oscillator: High-speed crystal/resonator on RA6/OSC2/CLKOUT and RA7/OSC1
      +                          /CLKIN
  4639                           ;	Watchdog Timer Enable bit
  4640                           ;	WDTE = OFF, WDT disabled and can be enabled by SWDTEN bit of the WDTCON register
  4641                           ;	Power-up Timer Enable bit
  4642                           ;	PWRTE = OFF, PWRT disabled
  4643                           ;	RE3/MCLR pin function select bit
  4644                           ;	MCLRE = 0x1, unprogrammed default
  4645                           ;	Code Protection bit
  4646                           ;	CP = OFF, Program memory code protection is disabled
  4647                           ;	Data Code Protection bit
  4648                           ;	CPD = OFF, Data memory code protection is disabled
  4649                           ;	Brown Out Reset Selection bits
  4650                           ;	BOREN = OFF, BOR disabled
  4651                           ;	Internal External Switchover bit
  4652                           ;	IESO = 0x1, unprogrammed default
  4653                           ;	Fail-Safe Clock Monitor Enabled bit
  4654                           ;	FCMEN = 0x1, unprogrammed default
  4655                           ;	Low Voltage Programming Enable bit
  4656                           ;	LVP = OFF, RB3 pin has digital I/O, HV on MCLR must be used for programming
  4657                           ;	In-Circuit Debugger Mode bit
  4658                           ;	DEBUG = 0x1, unprogrammed default
  4659  2007                     	org	8199
  4660  2007  2CF2               	dw	11506
  4661                           
  4662                           ;Config register CONFIG2 @ 0x2008
  4663                           ;	Brown-out Reset Selection bit
  4664                           ;	BOR4V = 0x1, unprogrammed default
  4665                           ;	Flash Program Memory Self Write Enable bits
  4666                           ;	WRT = OFF, Write protection off
  4667  2008                     	org	8200
  4668  2008  3FFF               	dw	16383

Data Sizes:
    Strings     4
    Constant    10
    Data        0
    BSS         26
    Persistent  0
    Stack       0

Auto Spaces:
    Space          Size  Autos    Used
    COMMON           14     14      14
    BANK0            80     71      77
    BANK1            80      0      20
    BANK3            96      0       0
    BANK2            96      0       0

Pointer List with Targets:

    sprintf@f	PTR const unsigned char  size(1) Largest target is 4
		 -> STR_1(CODE[4]), 

    sprintf@sp	PTR unsigned char  size(1) Largest target is 20
		 -> buffer(BANK1[20]), 

    sprintf@ap	PTR void [1] size(1) Largest target is 2
		 -> ?_sprintf(BANK0[2]), 

    LCDPutStr@str	PTR const unsigned char  size(1) Largest target is 20
		 -> buffer(BANK1[20]), 


Critical Paths under _main in COMMON

    _main->___fltol
    _sprintf->___lwmod
    ___lwmod->___lwdiv
    _config->_LCD_Initialize
    _LCD_Initialize->_LCDPutCmd
    ___xxtofl->_get_val
    ___fltol->___xxtofl
    ___flmul->___xxtofl
    ___fldiv->___xxtofl
    _LCDPutStr->_LCDPutChar
    _LCDPutChar->_LCDWriteNibble
    _LCDGoto->_LCDPutCmd
    _LCDPutCmd->_LCDWriteNibble

Critical Paths under _main in BANK0

    _main->___fltol
    ___fltol->___fldiv
    ___flmul->___xxtofl
    ___fldiv->___flmul

Critical Paths under _main in BANK1

    None.

Critical Paths under _main in BANK3

    None.

Critical Paths under _main in BANK2

    None.

Call Graph Tables:

 ---------------------------------------------------------------------------------
 (Depth) Function   	        Calls       Base Space   Used Autos Params    Refs
 ---------------------------------------------------------------------------------
 (0) _main                                                 4     4      0    7359
                                             67 BANK0      4     4      0
                            _LCDGoto
                          _LCDPutStr
                            ___fldiv
                            ___flmul
                            ___fltol
                           ___xxtofl
                             _config
                            _get_val
                            _sprintf
 ---------------------------------------------------------------------------------
 (1) _sprintf                                             21    18      3    1121
                                              0 BANK0     13    10      3
                            ___lwdiv
                            ___lwmod
 ---------------------------------------------------------------------------------
 (2) ___lwmod                                              6     2      4     311
                                              8 COMMON     6     2      4
                            ___lwdiv (ARG)
 ---------------------------------------------------------------------------------
 (2) ___lwdiv                                              8     4      4     314
                                              0 COMMON     8     4      4
 ---------------------------------------------------------------------------------
 (1) _get_val                                              4     2      2       0
                                              0 COMMON     4     2      2
 ---------------------------------------------------------------------------------
 (1) _config                                               0     0      0     504
                     _LCD_Initialize
 ---------------------------------------------------------------------------------
 (2) _LCD_Initialize                                       2     2      0     504
                                              6 COMMON     2     2      0
                          _LCDPutCmd
 ---------------------------------------------------------------------------------
 (1) ___xxtofl                                            14    10      4     398
                                              4 COMMON     8     4      4
                                              0 BANK0      6     6      0
                            _get_val (ARG)
 ---------------------------------------------------------------------------------
 (1) ___fltol                                             11     7      4     305
                                             12 COMMON     2     2      0
                                             58 BANK0      9     5      4
                            ___fldiv (ARG)
                            ___flmul (ARG)
                           ___xxtofl (ARG)
                            _get_val (ARG)
 ---------------------------------------------------------------------------------
 (1) ___flmul                                             26    18      8    2417
                                              6 BANK0     26    18      8
                          __Umul8_16
                           ___xxtofl (ARG)
                            _get_val (ARG)
 ---------------------------------------------------------------------------------
 (2) __Umul8_16                                            9     7      2     799
                                              0 COMMON     9     7      2
 ---------------------------------------------------------------------------------
 (1) ___fldiv                                             26    18      8    1273
                                             32 BANK0     26    18      8
                            ___flmul (ARG)
                           ___xxtofl (ARG)
                            _get_val (ARG)
 ---------------------------------------------------------------------------------
 (1) _LCDPutStr                                            3     3      0     627
                                              6 COMMON     3     3      0
                         _LCDPutChar
 ---------------------------------------------------------------------------------
 (2) _LCDPutChar                                           3     3      0     504
                                              3 COMMON     3     3      0
                     _LCDWriteNibble
 ---------------------------------------------------------------------------------
 (1) _LCDGoto                                              6     5      1     714
                                              6 COMMON     6     5      1
                          _LCDPutCmd
 ---------------------------------------------------------------------------------
 (3) _LCDPutCmd                                            3     3      0     504
                                              3 COMMON     3     3      0
                     _LCDWriteNibble
 ---------------------------------------------------------------------------------
 (4) _LCDWriteNibble                                       3     2      1     437
                                              0 COMMON     3     2      1
 ---------------------------------------------------------------------------------
 Estimated maximum stack depth 4
 ---------------------------------------------------------------------------------

 Call Graph Graphs:

 _main (ROOT)
   _LCDGoto
     _LCDPutCmd
       _LCDWriteNibble
   _LCDPutStr
     _LCDPutChar
       _LCDWriteNibble
   ___fldiv
     ___flmul (ARG)
       __Umul8_16
       ___xxtofl (ARG)
         _get_val (ARG)
       _get_val (ARG)
     ___xxtofl (ARG)
     _get_val (ARG)
   ___flmul
   ___fltol
     ___fldiv (ARG)
     ___flmul (ARG)
     ___xxtofl (ARG)
     _get_val (ARG)
   ___xxtofl
   _config
     _LCD_Initialize
       _LCDPutCmd
   _get_val
   _sprintf
     ___lwdiv
     ___lwmod
       ___lwdiv (ARG)

 Address spaces:
Name               Size   Autos  Total    Cost      Usage
BITCOMMON            E      0       0       0        0.0%
EEDATA             100      0       0       0        0.0%
NULL                 0      0       0       0        0.0%
CODE                 0      0       0       0        0.0%
COMMON               E      E       E       1      100.0%
BITSFR0              0      0       0       1        0.0%
SFR0                 0      0       0       1        0.0%
BITSFR1              0      0       0       2        0.0%
SFR1                 0      0       0       2        0.0%
STACK                0      0       0       2        0.0%
ABS                  0      0      6F       3        0.0%
BITBANK0            50      0       0       4        0.0%
BITSFR3              0      0       0       4        0.0%
SFR3                 0      0       0       4        0.0%
BANK0               50     47      4D       5       96.2%
BITSFR2              0      0       0       5        0.0%
SFR2                 0      0       0       5        0.0%
BITBANK1            50      0       0       6        0.0%
BANK1               50      0      14       7       25.0%
BITBANK3            60      0       0       8        0.0%
BANK3               60      0       0       9        0.0%
BITBANK2            60      0       0      10        0.0%
BANK2               60      0       0      11        0.0%
DATA                 0      0      6F      12        0.0%


Microchip Technology PIC Macro Assembler V2.36 build 20220127204148 
Symbol Table                                                                                   Fri Nov 04 15:08:16 2022

           ___fldiv@aexp 0059             ___fldiv@bexp 0058           _LCD_Initialize 0EC5  
                      pc 0002             ___fldiv@sign 0051                       l40 0F0D  
                     l42 0F11                       l43 0F2D              ?_LCDPutChar 0070  
                     l37 0F08                       l46 0DFA                       l39 0F0C  
                     l80 0FE7                       l73 0EF5                       l82 0FF6  
                     l90 0EC4                       l84 0FFF                       l76 0FC9  
                     l78 0FD8                       l87 0E67                       l96 0E18  
                     fsr 0004      __Umul8_16@word_mpld 0076                      l102 0E95  
                    l213 02AC                      l410 006F                      l403 0084  
                    l413 0084                      l612 0756                      l606 07EA  
                    l625 0E2D                      l618 07DE                      l650 0148  
                    l627 0E3F                      l652 01DF                      l590 047D  
                    l582 03FB                      l566 0309                      l663 01A9  
                    l568 0489                      l664 01B5                      l656 018D  
                    l489 0FAB                      l499 0F67                      l588 046D  
                    fsr0 0004                      indf 0000             ___flmul@aexp 0038  
           ___flmul@bexp 0039             ___flmul@sign 0033             ___flmul@temp 003E  
           ___flmul@prod 003A          __end_of_LCDGoto 0E96             ___fltol@exp1 007D  
                   l1401 0E41                     l1403 0E4A                     l1411 0F6A  
                   l1405 0E52                     l1421 0F82                     l1413 0F70  
                   l1351 0FBA                     l1343 0FAD                     l1407 0E5F  
                   l1423 0F93                     l1415 0F73                     l1431 0FA7  
                   l1503 0201                     l1361 0FD9                     l1353 0FBB  
                   l1345 0FB7                     l1601 02B4                     l1425 0F99  
                   l1417 0F7A                     l1409 0F68                     l1441 0F3E  
                   l1521 024F                     l1505 021B                     l1371 0FFC  
                   l1363 0FE5                     l1355 0FC7                     l1347 0FB8  
                   l1611 02C9                     l1603 02BA                     l1427 0F9A  
                   l1419 0F7E                     l1451 0F5D                     l1443 0F42  
                   l1435 0F2E                     l1523 0254                     l1515 0229  
                   l1507 0223                     l1531 0296                     l1373 0FFD  
                   l1365 0FE8                     l1357 0FCA                     l1349 0FB9  
                   l1381 0EA7                     l1541 0E69                     l1701 03E0  
                   l1621 02E1                     l1613 02D1                     l1605 02BE  
                   l1461 0E23                     l1429 0FA1                     l1445 0F46  
                   l1437 0F34                     l1453 0F63                     l1525 0282  
                   l1509 0227                     l1533 02A8                     l1375 0FFE  
                   l1367 0FF4                     l1359 0FD6                     l1383 0EB4  
                   l1551 0E86                     l1543 0E6F                     l1711 0405  
                   l1703 03E4                     l1631 02F6                     l1623 02E7  
                   l1615 02D2                     l1607 02BF                     l1463 0E27  
                   l1391 0ED7                     l1471 0EF6                     l1447 0F50  
                   l1439 0F37                     l1527 0289                     l1519 0245  
                   l1369 0FF7                     l1385 0EBD                     l1377 0E97  
                   l1553 0E8C                     l1545 0E76                     l1561 0E0D  
                   l1721 0443                     l1713 0413                     l1705 03F8  
                   l1641 031D                     l1633 02FE                     l1625 02EB  
                   l1609 02C4                     l1617 02D4                     l1465 0E36  
                   l1457 0E1A                     l1801 05BA                     l1393 0EDD  
                   l1481 0DF0                     l1473 0EFC                     l1449 0F56  
                   l1529 028D                     l1379 0EA0                     l1547 0E7B  
                   l1555 0DFC                     l1731 0473                     l1723 0451  
                   l1715 0417                     l1643 0321                     l1635 02FF  
                   l1627 02EC                     l1619 02DC                     l1467 0E3B  
                   l1459 0E1C                     l1811 062D                     l1803 05CA  
                   l1571 0034                     l1563 0009                     l1395 0EE3  
                   l1387 0EC5                     l1483 0DF3                     l1475 0F05  
                   l1491 01E8                     l1549 0E81                     l1557 0DFE  
                   l1733 0477                     l1725 0460                     l1717 0430  
                   l1709 0400                     l1661 0362                     l1653 0338  
                   l1629 02F1                     l1637 0301                     l1821 06DA  
                   l1813 064A                     l1805 05E7                     l1741 048A  
                   l1573 0035                     l1565 0016                     l1901 0176  
                   l1397 0EE9                     l1389 0ECF                     l1485 0DF4  
                   l1477 0F12                     l1493 01EE                     l1559 0E09  
                   l1735 0479                     l1727 0464                     l1719 0436  
                   l1671 0380                     l1663 0364                     l1655 034A  
                   l1639 0311                     l1647 032A                     l1831 0726  
                   l1823 0702                     l1815 0677                     l1807 05F7  
                   l1751 04A1                     l1743 0491                     l1575 003D  
                   l1911 01AD                     l1903 0184                     l1399 0EEF  
                   l1487 0DF5                     l1495 01F5                     l1729 046C  
                   l1665 0369                     l1673 0389                     l1681 03AE  
                   l1657 0352                     l1649 032F                     l1841 073B  
                   l1833 0727                     l1825 070B                     l1817 0687  
                   l1809 0614                     l1761 04BD                     l1753 04A6  
                   l1745 0497                     l1593 0064                     l1585 004B  
                   l1577 003F                     l1569 001F                     l1921 01D7  
                   l1913 01B7                     l1905 0194                     l1497 01FA  
                   l1489 01E3                     l1691 03CB                     l1683 03B4  
                   l1675 039B                     l1667 037B                     l1659 035A  
                   l1851 0760                     l1843 073F                     l1835 0730  
                   l1827 0719                     l1819 06B4                     l1771 04D2  
                   l1763 04C3                     l1755 04AE                     l1747 049B  
                   l1595 0074                     l1579 0043                     l1587 005D  
                   l1915 01CD                     l1907 019F                     l1499 01FC  
                   l1931 00F3                     l1693 03CC                     l1685 03BC  
                   l1677 039C                     l1669 037F                     l1861 079E  
                   l1853 076E                     l1845 0753                     l1829 0722  
                   l1837 0736                     l1781 04EE                     l1773 04DA  
                   l1765 04C7                     l1757 04B0                     l1749 049C  
                   l1597 0079                     l1917 01D2                     l1909 01A3  
                   l1941 011F                     l1933 0101                     l1925 0085  
                   l1695 03D5                     l1687 03BE                     l1679 03AA  
                   l1599 02AD                     l1871 07D2                     l1863 07A9  
                   l1855 0772                     l1839 073A                     l1791 0531  
                   l1775 04DC                     l1767 04C8                     l1759 04B8  
                   l1919 01D6                     l1935 0108                     l1927 008A  
                   l1689 03C7                     l1697 03DB                     l1873 07D6  
                   l1865 07B8                     l1857 078B                     l1849 075B  
                   l1793 054D                     l1785 04F7                     l1777 04E4  
                   l1769 04CD                     l1881 0127                     l1937 010E  
                   l1929 0095                     l1699 03DF                     l1875 07D7  
                   l1867 07C2                     l1859 0791                     l1795 0579  
                   l1787 0507                     l1779 04E9                     l1883 012C  
                   l1963 0213                     l1939 011C                     l1877 07E2  
                   l1869 07C4                     l1797 0595                     l1789 0514  
                   l1893 0159                     l1885 0130                     l1799 05B1  
                   l1895 015E                     l1887 0140                     l1897 016B  
                   l1889 0150                     l1899 0172                     STR_1 0810  
                   u2000 0405                     u2001 0404                     u2010 0417  
                   u2011 0416                     u1300 0FC7                     u2020 0426  
                   u2100 04CD                     u1301 0FC6                     u2101 04CC  
                   u2030 0443                     u2110 04D2                     u2031 0442  
                   u2111 04D1                     u1320 0FD6                     u2040 0460  
                   u2120 04E9                     u1321 0FD5                     u2041 045F  
                   u2025 0421                     u2201 0606                     u2121 04E8  
                   u2050 0477                     u2202 060D                     u2130 04EE  
                   u1410 0F82                     u1315 0FCD                     u2051 0476  
                   u2035 043F                     u2203 0614                     u2131 04ED  
                   u1411 0F81                     u1340 0FE5                     u2060 049B  
                   u1341 0FE4                     u2045 045C                     u2221 063C  
                   u2141 053F                     u2061 049A                     u1405 0F74  
                   u2310 0726                     u2222 0643                     u2142 0546  
                   u2070 04A1                     u1430 0F93                     u1510 0F63  
                   u1335 0FDC                     u2311 0725                     u2231 0669  
                   u2223 064A                     u2215 0616                     u2151 055B  
                   u2143 054D                     u2071 04A0                     u1431 0F92  
                   u1511 0F62                     u1360 0FF4                     u1520 0E27  
                   u2400 079E                     u2232 0670                     u2152 0562  
                   u2080 04A6                     u1600 024F                     u1361 0FF3  
                   u1521 0E26                     u2401 079D                     u2305 071B  
                   u2241 0696                     u2233 0677                     u2161 0587  
                   u2153 0569                     u2081 04A5                     u1425 0F83  
                   u1505 0F57                     u1601 024E                     u2410 07B8  
                   u2330 073A                     u2250 06C0                     u2242 069D  
                   u2162 058E                     u2090 04C7                     u1450 0FA7  
                   u1610 0296                     u1355 0FEB                     u2411 07B7  
                   u2331 0739                     u2243 06A4                     u2171 05A3  
                   u2163 0595                     u2091 04C6                     u1451 0FA6  
                   u1435 0F8F                     u1611 0295                     u1540 0E3B  
                   u2420 07D6                     u2340 073F                     u2172 05AA  
                   u1700 004A                     u1460 0F34                     u1620 02A8  
                   u1541 0E3A                     u2421 07D5                     u2405 079A  
                   u2341 073E                     u2325 0729                     u2261 06CC  
                   u2173 05B1                     u1701 0049                     u1445 0F9B  
                   u1461 0F33                     u1621 02A7                     u1630 0E6F  
                   u2350 0753                     u2270 06E8                     u2262 06D3  
                   u2510 01A3                     u2430 012C                     u1550 0F0C  
                   u1390 0F70                     u1295 0FBE                     u1375 0EAA  
                   u1631 0E6E                     u1535 0E2E                     u2415 07B4  
                   u2351 0752                     u2263 06DA                     u2255 06BB  
                   u2191 05D9                     u2511 01A2                     u2431 012B  
                   u1551 0F0B                     u1391 0F6F                     u1640 0E75  
                   u1800 02EB                     u2360 075A                     u2192 05E0  
                   u1720 005C                     u2520 01A9                     u2440 0130  
                   u1560 0F11                     u1480 0F46                     u1641 0E74  
                   u1385 0E55                     u1801 02EA                     u2361 0759  
                   u2281 06F4                     u2193 05E7                     u2185 05B3  
                   u1721 005B                     u2521 01A8                     u2505 0198  
                   u2441 012F                     u1561 0F10                     u1481 0F45  
                   u1650 0E7B                     u1810 02F1                     u2370 0760  
                   u2282 06FB                     u1730 0063                     u2530 01AD  
                   u2450 0150                     u1490 0F50                     u1651 0E7A  
                   u1811 02F0                     u2371 075F                     u2283 0702  
                   u2275 06E3                     u1731 0062                     u1715 004C  
                   u2531 01AC                     u2451 014F                     u1491 0F4F  
                   u1475 0F38                     u1660 0E18                     u1900 039B  
                   u1820 02F6                     u2380 0772                     u2540 01C2  
                   u1580 01EE                     u1661 0E17                     u1901 039A  
                   u1821 02F5                     u2381 0771                     u1581 01ED  
                   u1910 03B4                     u1830 0311                     u2390 0781  
                   u1750 0074                     u1670 0016                     u2550 01D2  
                   u2470 0171                     u1590 0244                     u2607 0E45  
                   u1911 03B3                     u1831 0310                     u2295 0704  
                   u1751 0073                     u1671 0015                     u2551 01D1  
                   u2471 0170                     u1575 0F1A                     u1495 0F4C  
                   u1591 0243                     u1920 03BC                     u1840 032F  
                   u1760 0079                     u1680 002D                     u2560 01D6  
                   u2617 0E90                     u1921 03BB                     u1905 0397  
                   u1841 032E                     u1761 0078                     u1745 0066  
                   u2561 01D5                     u2545 01BD                     u2465 0163  
                   u1850 0369                     u1770 02BE                     u1690 0043  
                   u2490 0193                     u2627 0E9B                     u1851 0368  
                   u1771 02BD                     u2395 077C                     u1691 0042  
                   u2491 0192                     u1595 0240                     u1940 03CB  
                   u1780 02C4                     u2637 0EB8                     u1941 03CA  
                   u1781 02C3                     u1685 0028                     u2485 0185  
                   u1790 02C9                     u1935 03C0                     u1791 02C8  
                   u1960 03DF                     u1880 037F                     u1961 03DE  
                   u1881 037E                     u1865 036B                     u2577 0116  
                   u1970 03E4                     u1971 03E3                     u1955 03CE  
                   u1875 0374                     u2587 0F00                     u1980 03F8  
                   u1981 03F7                     u2597 0ED3                     u1990 03FF  
                   u1991 03FE                     u1895 0382                     _main 0085  
                   _temp 0069                     _time 0067                     btemp 007E  
                   start 0000          ___fldiv@new_exp 0052   __end_of_LCD_Initialize 0EF6  
            LCDPutCmd@ch 0075            ___fltol@sign1 007C                    ?_main 0070  
        __end_of___fldiv 048A          __end_of___flmul 07EB          __end_of___fltol 0085  
                  _ANSEL 0188          __end_of___lwdiv 0FAC          __end_of___lwmod 0F68  
                  _TMR1H 000F                    _TMR1L 000E                    _PORTD 0008  
                  _TRISD 0088                    _TRISE 0089          __end_of_get_val 0F2E  
        __end_of_dpowers 0810                    _temp1 006B                    pclath 000A  
                  status 0003                    wtemp0 007E          __end_of_sprintf 02AD  
        ?_LCD_Initialize 0070          __initialization 07EB             __end_of_main 0124  
                 ??_main 0063                ??_LCDGoto 0077        __end_of_LCDPutCmd 0EC5  
           LCDPutChar@ch 0075        __end_of_LCDPutStr 0E19                   _ANSELH 0189  
                 _TMR1ON 0080             LCDPutStr@str 0077                   _TRISC0 0438  
                 _TRISC1 0439         __end_of___xxtofl 01E0           _LCDWriteNibble 0FAC  
              ??___fldiv 0048                ??___flmul 002E                ??___fltol 005E  
              ??___lwdiv 0074                ??___lwmod 007C                   _config 0DF0  
                 _buffer 00A0                ??_get_val 0072                ??_sprintf 0023  
           ___xxtofl@arg 0022             ___xxtofl@exp 0021             ___xxtofl@val 0074  
 __end_of_LCDWriteNibble 1000  __end_of__initialization 07FC               ___fltol@f1 005A  
              LCDGoto@ln 0076           __pcstackCOMMON 0070             ??_LCDPutChar 0073  
             __pbssBANK0 0067               __pbssBANK1 00A0          ?_LCDWriteNibble 0070  
     __end_of_LCDPutChar 0E68        __end_of__Umul8_16 0E40               __pmaintext 0085  
                ?_config 0070                  _LCDGoto 0E68                ?___xxtofl 0074  
             __stringtab 0800         ??_LCD_Initialize 0076                  ___fldiv 02AD  
                ___flmul 048A                  ___fltol 0009                  ___lwdiv 0F68  
                ___lwmod 0F2E                  __ptext1 01E0                  __ptext2 0F2E  
                __ptext3 0F68                  __ptext4 0EF6                  __ptext5 0DF0  
                __ptext6 0EC5                  __ptext7 0124                  __ptext8 0009  
                __ptext9 048A                  _get_val 0EF6                _T1CONbits 0010  
                _dpowers 0806               ??___xxtofl 0078                _LCDPutCmd 0E96  
                _sprintf 01E0                  clrloop0 0DE9                _LCDPutStr 0DFB  
   end_of_initialization 07FC                _PORTCbits 0007                _PORTDbits 0008  
              _PORTEbits 0009            ___xxtofl@sign 0020              ___fldiv@grs 0054  
            ___fldiv@rem 004D               ?_LCDPutCmd 0070               ?_LCDPutStr 0070  
            ___flmul@grs 0034               LCDGoto@pos 007B               LCDPutStr@i 0078  
         __end_of_config 0DFB      start_initialization 07EB         ??_LCDWriteNibble 0071  
              __Umul8_16 0E19                 ??_config 0078                 ?_LCDGoto 0076  
              ___fldiv@a 0040                ___fldiv@b 0044                ___flmul@a 002A  
              ___flmul@b 0026                ___latbits 0002            __pcstackBANK0 0020  
            ??_LCDPutCmd 0073              ??_LCDPutStr 0076              sprintf@flag 0026  
            sprintf@prec 002A         ___lwdiv@dividend 0072                 ?___fldiv 0040  
               ?___flmul 0026                 ?___fltol 005A               ?__Umul8_16 0070  
               ?___lwdiv 0070                 ?___lwmod 0078         LCDWriteNibble@ch 0072  
       LCDWriteNibble@rs 0070                __pstrings 0800                 ?_get_val 0070  
       ___lwdiv@quotient 0075                 ?_sprintf 0020                clear_ram0 0DE8  
            _LCDGoto$228 0079              __stringbase 0805              ??__Umul8_16 0072  
     __end_of__stringtab 0806               sprintf@val 0028                 ___xxtofl 0124  
        ___lwdiv@divisor 0070          ___lwdiv@counter 0077                 __ptext10 0E19  
               __ptext11 02AD                 __ptext12 0DFB                 __ptext13 0E40  
               __ptext14 0E68                 __ptext15 0E96                 __ptext16 0FAC  
             _LCDPutChar 0E40                sprintf@ap 0027                sprintf@sp 002B  
       ___lwmod@dividend 007A                stringcode 0800   __Umul8_16@multiplicand 0070  
               sprintf@c 002C                 sprintf@f 0020          ___lwmod@divisor 0078  
        ___lwmod@counter 007D                 stringdir 0800                 stringtab 0800  
   __Umul8_16@multiplier 0078        __Umul8_16@product 0074  
