

Microchip MPLAB XC8 Assembler V2.36 build 20220127204148 
                                                                                               Tue Apr 05 23:04:39 2022

Microchip MPLAB XC8 C Compiler v2.36 (Free license) build 20220127204148 Og1 
     1                           	processor	16F887
     2                           	pagewidth 120
     3                           	opt	flic
     4                           	psect	idataBANK1,global,class=CODE,delta=2,noexec
     5                           	psect	strings,global,class=STRING,delta=2,noexec
     6                           	psect	nvBANK1,global,class=BANK1,space=1,delta=1,noexec
     7                           	psect	cinit,global,class=CODE,merge=1,delta=2
     8                           	psect	bssBANK1,global,class=BANK1,space=1,delta=1,noexec
     9                           	psect	dataBANK1,global,class=BANK1,space=1,delta=1,noexec
    10                           	psect	clrtext,global,class=CODE,delta=2
    11                           	psect	cstackBANK1,global,class=BANK1,space=1,delta=1,noexec
    12                           	psect	cstackCOMMON,global,class=COMMON,space=1,delta=1,noexec
    13                           	psect	cstackBANK0,global,class=BANK0,space=1,delta=1,noexec
    14                           	psect	maintext,global,class=CODE,split=1,delta=2
    15                           	psect	text1,local,class=CODE,merge=1,delta=2,group=3
    16                           	psect	text2,local,class=CODE,merge=1,delta=2,group=1
    17                           	psect	text3,local,class=CODE,merge=1,delta=2
    18                           	psect	text4,local,class=CODE,merge=1,delta=2
    19                           	psect	text5,local,class=CODE,merge=1,delta=2,group=2
    20                           	psect	text6,local,class=CODE,merge=1,delta=2,group=2
    21                           	psect	text7,local,class=CODE,merge=1,delta=2
    22                           	psect	text8,local,class=CODE,merge=1,delta=2
    23                           	psect	text9,local,class=CODE,merge=1,delta=2,group=3
    24                           	psect	text10,local,class=CODE,merge=1,delta=2,group=2
    25                           	psect	text11,local,class=CODE,merge=1,delta=2,group=2
    26                           	psect	text12,local,class=CODE,merge=1,delta=2,group=2
    27                           	psect	text13,local,class=CODE,merge=1,delta=2,group=2
    28                           	psect	text14,local,class=CODE,merge=1,delta=2,group=2
    29                           	psect	text15,local,class=CODE,merge=1,delta=2,group=2
    30                           	psect	text16,local,class=CODE,merge=1,delta=2,group=2
    31                           	psect	idloc,global,abs,ovrld,class=IDLOC,space=5,delta=2,noexec
    32                           	psect	config,global,abs,ovrld,class=CONFIG,space=4,delta=2,noexec
    33                           	dabs	1,0x7E,2
    34  0000                     
    35                           ; Version 2.40
    36                           ; Generated 17/11/2021 GMT
    37                           ; 
    38                           ; Copyright © 2021, Microchip Technology Inc. and its subsidiaries ("Microchip")
    39                           ; All rights reserved.
    40                           ; 
    41                           ; This software is developed by Microchip Technology Inc. and its subsidiaries ("Microch
      +                          ip").
    42                           ; 
    43                           ; Redistribution and use in source and binary forms, with or without modification, are
    44                           ; permitted provided that the following conditions are met:
    45                           ; 
    46                           ;     1. Redistributions of source code must retain the above copyright notice, this lis
      +                          t of
    47                           ;        conditions and the following disclaimer.
    48                           ; 
    49                           ;     2. Redistributions in binary form must reproduce the above copyright notice, this 
      +                          list
    50                           ;        of conditions and the following disclaimer in the documentation and/or other
    51                           ;        materials provided with the distribution. Publication is not required when
    52                           ;        this file is used in an embedded application.
    53                           ; 
    54                           ;     3. Microchip's name may not be used to endorse or promote products derived from th
      +                          is
    55                           ;        software without specific prior written permission.
    56                           ; 
    57                           ; THIS SOFTWARE IS PROVIDED BY MICROCHIP "AS IS" AND ANY EXPRESS OR IMPLIED WARRANTIES,
    58                           ; INCLUDING, BUT NOT LIMITED TO, THE IMPLIED WARRANTIES OF MERCHANTABILITY AND FITNESS F
      +                          OR
    59                           ; PURPOSE ARE DISCLAIMED.  IN NO EVENT SHALL MICROCHIP BE LIABLE FOR ANY DIRECT, INDIREC
      +                          T,
    60                           ; INCIDENTAL, SPECIAL, EXEMPLARY, OR CONSEQUENTIAL DAMAGES (INCLUDING BUT NOT LIMITED TO
    61                           ; PROCUREMENT OF SUBSTITUTE GOODS OR SERVICES; LOSS OF USE, DATA OR PROFITS; OR BUSINESS
    62                           ; INTERRUPTION) HOWSOEVER CAUSED AND ON ANY THEORY OF LIABILITY, WHETHER IN CONTRACT, ST
      +                          RICT
    63                           ; LIABILITY, OR TORT (INCLUDING NEGLIGENCE OR OTHERWISE) ARISING IN ANY WAY OUT OF THE U
      +                          SE OF
    64                           ; THIS SOFTWARE, EVEN IF ADVISED OF THE POSSIBILITY OF SUCH DAMAGE.
    65                           ; 
    66                           ; 
    67                           ; Code-generator required, PIC16F887 Definitions
    68                           ; 
    69                           ; SFR Addresses
    70  0000                     	;# 
    71  0001                     	;# 
    72  0002                     	;# 
    73  0003                     	;# 
    74  0004                     	;# 
    75  0005                     	;# 
    76  0006                     	;# 
    77  0007                     	;# 
    78  0008                     	;# 
    79  0009                     	;# 
    80  000A                     	;# 
    81  000B                     	;# 
    82  000C                     	;# 
    83  000D                     	;# 
    84  000E                     	;# 
    85  000E                     	;# 
    86  000F                     	;# 
    87  0010                     	;# 
    88  0011                     	;# 
    89  0012                     	;# 
    90  0013                     	;# 
    91  0014                     	;# 
    92  0015                     	;# 
    93  0015                     	;# 
    94  0016                     	;# 
    95  0017                     	;# 
    96  0018                     	;# 
    97  0019                     	;# 
    98  001A                     	;# 
    99  001B                     	;# 
   100  001B                     	;# 
   101  001C                     	;# 
   102  001D                     	;# 
   103  001E                     	;# 
   104  001F                     	;# 
   105  0081                     	;# 
   106  0085                     	;# 
   107  0086                     	;# 
   108  0087                     	;# 
   109  0088                     	;# 
   110  0089                     	;# 
   111  008C                     	;# 
   112  008D                     	;# 
   113  008E                     	;# 
   114  008F                     	;# 
   115  0090                     	;# 
   116  0091                     	;# 
   117  0092                     	;# 
   118  0093                     	;# 
   119  0093                     	;# 
   120  0093                     	;# 
   121  0094                     	;# 
   122  0095                     	;# 
   123  0096                     	;# 
   124  0097                     	;# 
   125  0098                     	;# 
   126  0099                     	;# 
   127  009A                     	;# 
   128  009B                     	;# 
   129  009C                     	;# 
   130  009D                     	;# 
   131  009E                     	;# 
   132  009F                     	;# 
   133  0105                     	;# 
   134  0107                     	;# 
   135  0108                     	;# 
   136  0109                     	;# 
   137  010C                     	;# 
   138  010C                     	;# 
   139  010D                     	;# 
   140  010E                     	;# 
   141  010F                     	;# 
   142  0185                     	;# 
   143  0187                     	;# 
   144  0188                     	;# 
   145  0189                     	;# 
   146  018C                     	;# 
   147  018D                     	;# 
   148  0000                     	;# 
   149  0001                     	;# 
   150  0002                     	;# 
   151  0003                     	;# 
   152  0004                     	;# 
   153  0005                     	;# 
   154  0006                     	;# 
   155  0007                     	;# 
   156  0008                     	;# 
   157  0009                     	;# 
   158  000A                     	;# 
   159  000B                     	;# 
   160  000C                     	;# 
   161  000D                     	;# 
   162  000E                     	;# 
   163  000E                     	;# 
   164  000F                     	;# 
   165  0010                     	;# 
   166  0011                     	;# 
   167  0012                     	;# 
   168  0013                     	;# 
   169  0014                     	;# 
   170  0015                     	;# 
   171  0015                     	;# 
   172  0016                     	;# 
   173  0017                     	;# 
   174  0018                     	;# 
   175  0019                     	;# 
   176  001A                     	;# 
   177  001B                     	;# 
   178  001B                     	;# 
   179  001C                     	;# 
   180  001D                     	;# 
   181  001E                     	;# 
   182  001F                     	;# 
   183  0081                     	;# 
   184  0085                     	;# 
   185  0086                     	;# 
   186  0087                     	;# 
   187  0088                     	;# 
   188  0089                     	;# 
   189  008C                     	;# 
   190  008D                     	;# 
   191  008E                     	;# 
   192  008F                     	;# 
   193  0090                     	;# 
   194  0091                     	;# 
   195  0092                     	;# 
   196  0093                     	;# 
   197  0093                     	;# 
   198  0093                     	;# 
   199  0094                     	;# 
   200  0095                     	;# 
   201  0096                     	;# 
   202  0097                     	;# 
   203  0098                     	;# 
   204  0099                     	;# 
   205  009A                     	;# 
   206  009B                     	;# 
   207  009C                     	;# 
   208  009D                     	;# 
   209  009E                     	;# 
   210  009F                     	;# 
   211  0105                     	;# 
   212  0107                     	;# 
   213  0108                     	;# 
   214  0109                     	;# 
   215  010C                     	;# 
   216  010C                     	;# 
   217  010D                     	;# 
   218  010E                     	;# 
   219  010F                     	;# 
   220  0185                     	;# 
   221  0187                     	;# 
   222  0188                     	;# 
   223  0189                     	;# 
   224  018C                     	;# 
   225  018D                     	;# 
   226                           
   227                           	psect	idataBANK1
   228  0000'                    __pidataBANK1:
   229                           
   230                           ;initializer for _randx
   231  0000' 3401               	retlw	1
   232  0001' 3400               	retlw	0
   233  0002' 3400               	retlw	0
   234  0003' 3400               	retlw	0
   235                           
   236                           	psect	strings
   237  0000'                    __pstrings:
   238  0000'                    stringtab:
   239  0000'                    __stringtab:
   240  0000'                    stringcode:	
   241                           ;	String table - string pointers are 1 byte each
   242                           
   243  0000'                    stringdir:
   244  0000' 3000'              	movlw	high stringdir
   245  0001' 008A               	movwf	10
   246  0002' 0804               	movf	4,w
   247  0003' 0A84               	incf	4,f
   248  0004' 0782               	addwf	2,f
   249  0005'                    __stringbase:
   250  0005' 3400               	retlw	0
   251  0006'                    __end_of__stringtab:
   252  0006'                    _dpowers:
   253  0006' 3401               	retlw	1
   254  0007' 3400               	retlw	0
   255  0008' 340A               	retlw	10
   256  0009' 3400               	retlw	0
   257  000A' 3464               	retlw	100
   258  000B' 3400               	retlw	0
   259  000C' 34E8               	retlw	232
   260  000D' 3403               	retlw	3
   261  000E' 3410               	retlw	16
   262  000F' 3427               	retlw	39
   263  0010'                    __end_of_dpowers:
   264  0010'                    STR_1:
   265  0010' 3425               	retlw	37	;'%'
   266  0011' 3464               	retlw	100	;'d'
   267  0012' 3420               	retlw	32	;' '
   268  0013' 3400               	retlw	0
   269                           
   270                           	psect	nvBANK1
   271  0000'                    __pnvBANK1:
   272  0000'                    _randomNum:
   273  0000'                    	ds	1
   274  001A                     _RCREG	set	26
   275  0019                     _TXREG	set	25
   276  0065                     _RCIF	set	101
   277  00C1                     _OERR	set	193
   278  0064                     _TXIF	set	100
   279  00C6                     _RX9	set	198
   280  00C4                     _CREN	set	196
   281  00C7                     _SPEN	set	199
   282  0099                     _SPBRG	set	153
   283  04C6                     _TX9	set	1222
   284  04C5                     _TXEN	set	1221
   285  04C4                     _SYNC	set	1220
   286  04C2                     _BRGH	set	1218
   287  043F                     _TRISC7	set	1087
   288  043E                     _TRISC6	set	1086
   289                           
   290                           	psect	cinit
   291  0000'                    start_initialization:	
   292                           ; #config settings
   293                           
   294  0000'                    __initialization:
   295                           
   296                           ; Initialize objects allocated to BANK1
   297  0000' 1683               	bsf	3,5	;RP0=1, select bank1
   298  0001' 1303               	bcf	3,6	;RP1=0, select bank1
   299  0002' 120A' 118A' 2000' 120A' 118A' 	fcall	__pidataBANK1	;fetch initializer
   300  0007' 0080'              	movwf	__pdataBANK1& (0+127)
   301  0008' 120A' 118A' 2000' 120A' 118A' 	fcall	__pidataBANK1+1	;fetch initializer
   302  000D' 0080'              	movwf	(__pdataBANK1+1)& (0+127)
   303  000E' 120A' 118A' 2000' 120A' 118A' 	fcall	__pidataBANK1+2	;fetch initializer
   304  0013' 0080'              	movwf	(__pdataBANK1+2)& (0+127)
   305  0014' 120A' 118A' 2000' 120A' 118A' 	fcall	__pidataBANK1+3	;fetch initializer
   306  0019' 0080'              	movwf	(__pdataBANK1+3)& (0+127)
   307                           
   308                           ; Clear objects allocated to BANK1
   309  001A' 1383               	bcf	3,7	;select IRP bank0
   310  001B' 3000'              	movlw	low __pbssBANK1
   311  001C' 0084               	movwf	4
   312  001D' 3000'              	movlw	low (__pbssBANK1+21)
   313  001E' 120A' 118A' 2000' 120A' 118A' 	fcall	clear_ram0
   314  0023'                    end_of_initialization:	
   315                           ;End of C runtime variable initialization code
   316                           
   317  0023'                    __end_of__initialization:
   318  0023' 0183               	clrf	3
   319  0024' 120A' 118A' 2800'  	ljmp	_main	;jump to C main() function
   320                           
   321                           	psect	bssBANK1
   322  0000'                    __pbssBANK1:
   323  0000'                    _name:
   324  0000'                    	ds	20
   325  0014'                    _get_value:
   326  0014'                    	ds	1
   327                           
   328                           	psect	dataBANK1
   329  0000'                    __pdataBANK1:
   330  0000'                    _randx:
   331  0000'                    	ds	4
   332                           
   333                           	psect	clrtext
   334  0000'                    clear_ram0:	
   335                           ;	Called with FSR containing the base address, and
   336                           ;	W with the last address+1
   337                           
   338  0000' 0064               	clrwdt	;clear the watchdog before getting into this loop
   339  0001'                    clrloop0:
   340  0001' 0180               	clrf	0	;clear RAM location pointed to by FSR
   341  0002' 0A84               	incf	4,f	;increment pointer
   342  0003' 0604               	xorwf	4,w	;XOR with final address
   343  0004' 1903               	btfsc	3,2	;have we reached the end yet?
   344  0005' 3400               	retlw	0	;all done for this memory range, return
   345  0006' 0604               	xorwf	4,w	;XOR again to restore value
   346  0007' 2800'              	goto	clrloop0	;do the next byte
   347                           
   348                           	psect	cstackBANK1
   349  0000'                    __pcstackBANK1:
   350  0000'                    ___fldiv@rem:
   351                           
   352                           ; 4 bytes @ 0x0
   353  0000'                    	ds	4
   354  0004'                    ___fldiv@sign:
   355                           
   356                           ; 1 bytes @ 0x4
   357  0004'                    	ds	1
   358  0005'                    ___fldiv@new_exp:
   359                           
   360                           ; 2 bytes @ 0x5
   361  0005'                    	ds	2
   362  0007'                    ___fldiv@grs:
   363                           
   364                           ; 4 bytes @ 0x7
   365  0007'                    	ds	4
   366  000B'                    ___fldiv@bexp:
   367                           
   368                           ; 1 bytes @ 0xB
   369  000B'                    	ds	1
   370  000C'                    ___fldiv@aexp:
   371                           
   372                           ; 1 bytes @ 0xC
   373  000C'                    	ds	1
   374  000D'                    ?___fltol:
   375  000D'                    ___fltol@f1:	
   376                           ; 4 bytes @ 0xD
   377                           
   378                           
   379                           ; 4 bytes @ 0xD
   380  000D'                    	ds	4
   381  0011'                    ??___fltol:
   382                           
   383                           ; 1 bytes @ 0x11
   384  0011'                    	ds	5
   385  0016'                    ___fltol@sign1:
   386                           
   387                           ; 1 bytes @ 0x16
   388  0016'                    	ds	1
   389  0017'                    ___fltol@exp1:
   390                           
   391                           ; 1 bytes @ 0x17
   392  0017'                    	ds	1
   393  0018'                    ?_GetRandom:
   394  0018'                    GetRandom@max:	
   395                           ; 1 bytes @ 0x18
   396                           
   397                           
   398                           ; 1 bytes @ 0x18
   399  0018'                    	ds	1
   400  0019'                    ??_main:
   401                           
   402                           ; 1 bytes @ 0x19
   403  0019'                    	ds	2
   404                           
   405                           	psect	cstackCOMMON
   406  0000'                    __pcstackCOMMON:
   407  0000'                    ?_srand:
   408  0000'                    ??_time:	
   409                           ; 1 bytes @ 0x0
   410                           
   411  0000'                    ?_Initialize_UART:	
   412                           ; 1 bytes @ 0x0
   413                           
   414  0000'                    ??_Initialize_UART:	
   415                           ; 1 bytes @ 0x0
   416                           
   417  0000'                    ?_UART_send_char:	
   418                           ; 1 bytes @ 0x0
   419                           
   420  0000'                    ??_UART_send_char:	
   421                           ; 1 bytes @ 0x0
   422                           
   423  0000'                    ?_putch:	
   424                           ; 1 bytes @ 0x0
   425                           
   426  0000'                    ?_main:	
   427                           ; 1 bytes @ 0x0
   428                           
   429  0000'                    ?__Umul8_16:	
   430                           ; 1 bytes @ 0x0
   431                           
   432  0000'                    ?___lwdiv:	
   433                           ; 2 bytes @ 0x0
   434                           
   435  0000'                    ?_time:	
   436                           ; 2 bytes @ 0x0
   437                           
   438  0000'                    ?___lmul:	
   439                           ; 4 bytes @ 0x0
   440                           
   441  0000'                    _time$0:	
   442                           ; 4 bytes @ 0x0
   443                           
   444  0000'                    UART_send_char@bt:	
   445                           ; 1 bytes @ 0x0
   446                           
   447  0000'                    __Umul8_16@multiplicand:	
   448                           ; 1 bytes @ 0x0
   449                           
   450  0000'                    ___lwdiv@divisor:	
   451                           ; 1 bytes @ 0x0
   452                           
   453  0000'                    srand@x:	
   454                           ; 2 bytes @ 0x0
   455                           
   456  0000'                    ___lmul@multiplier:	
   457                           ; 2 bytes @ 0x0
   458                           
   459                           
   460                           ; 4 bytes @ 0x0
   461  0000'                    	ds	1
   462  0001'                    ??_putch:
   463  0001'                    putch@data:	
   464                           ; 1 bytes @ 0x1
   465                           
   466                           
   467                           ; 1 bytes @ 0x1
   468  0001'                    	ds	1
   469  0002'                    ??_srand:
   470  0002'                    ??__Umul8_16:	
   471                           ; 1 bytes @ 0x2
   472                           
   473  0002'                    ___lwdiv@dividend:	
   474                           ; 1 bytes @ 0x2
   475                           
   476                           
   477                           ; 2 bytes @ 0x2
   478  0002'                    	ds	2
   479  0004'                    ??___lwdiv:
   480  0004'                    __Umul8_16@product:	
   481                           ; 1 bytes @ 0x4
   482                           
   483  0004'                    ___lmul@multiplicand:	
   484                           ; 2 bytes @ 0x4
   485                           
   486                           
   487                           ; 4 bytes @ 0x4
   488  0004'                    	ds	1
   489  0005'                    ___lwdiv@quotient:
   490                           
   491                           ; 2 bytes @ 0x5
   492  0005'                    	ds	1
   493  0006'                    __Umul8_16@word_mpld:
   494                           
   495                           ; 2 bytes @ 0x6
   496  0006'                    	ds	1
   497  0007'                    ___lwdiv@counter:
   498                           
   499                           ; 1 bytes @ 0x7
   500  0007'                    	ds	1
   501  0008'                    ??___lmul:
   502  0008'                    ?___lwmod:	
   503                           ; 1 bytes @ 0x8
   504                           
   505  0008'                    __Umul8_16@multiplier:	
   506                           ; 2 bytes @ 0x8
   507                           
   508  0008'                    ___lwmod@divisor:	
   509                           ; 1 bytes @ 0x8
   510                           
   511                           
   512                           ; 2 bytes @ 0x8
   513  0008'                    	ds	1
   514  0009'                    ___lmul@product:
   515                           
   516                           ; 4 bytes @ 0x9
   517  0009'                    	ds	1
   518  000A'                    ___lwmod@dividend:
   519                           
   520                           ; 2 bytes @ 0xA
   521  000A'                    	ds	2
   522  000C'                    ??___lwmod:
   523                           
   524                           ; 1 bytes @ 0xC
   525  000C'                    	ds	1
   526  000D'                    ??_GetRandom:
   527  000D'                    GetRandom@min:	
   528                           ; 1 bytes @ 0xD
   529                           
   530  000D'                    ___lwmod@counter:	
   531                           ; 1 bytes @ 0xD
   532                           
   533                           
   534                           ; 1 bytes @ 0xD
   535  000D'                    	ds	1
   536                           
   537                           	psect	cstackBANK0
   538  0000'                    __pcstackBANK0:
   539  0000'                    ?_rand:
   540  0000'                    ?_printf:	
   541                           ; 2 bytes @ 0x0
   542                           
   543                           
   544                           ; 2 bytes @ 0x0
   545  0000'                    	ds	2
   546  0002'                    ??_rand:
   547  0002'                    ??_printf:	
   548                           ; 1 bytes @ 0x2
   549                           
   550                           
   551                           ; 1 bytes @ 0x2
   552  0002'                    	ds	3
   553  0005'                    printf@ap:
   554                           
   555                           ; 1 bytes @ 0x5
   556  0005'                    	ds	1
   557  0006'                    printf@flag:
   558                           
   559                           ; 1 bytes @ 0x6
   560  0006'                    	ds	1
   561  0007'                    ?___xxtofl:
   562  0007'                    printf@prec:	
   563                           ; 4 bytes @ 0x7
   564                           
   565  0007'                    ___xxtofl@val:	
   566                           ; 1 bytes @ 0x7
   567                           
   568                           
   569                           ; 4 bytes @ 0x7
   570  0007'                    	ds	1
   571  0008'                    printf@f:
   572                           
   573                           ; 1 bytes @ 0x8
   574  0008'                    	ds	1
   575  0009'                    printf@val:
   576                           
   577                           ; 2 bytes @ 0x9
   578  0009'                    	ds	2
   579  000B'                    ??___xxtofl:
   580  000B'                    printf@c:	
   581                           ; 1 bytes @ 0xB
   582                           
   583                           
   584                           ; 1 bytes @ 0xB
   585  000B'                    	ds	4
   586  000F'                    ___xxtofl@sign:
   587                           
   588                           ; 1 bytes @ 0xF
   589  000F'                    	ds	1
   590  0010'                    ___xxtofl@exp:
   591                           
   592                           ; 1 bytes @ 0x10
   593  0010'                    	ds	1
   594  0011'                    ___xxtofl@arg:
   595                           
   596                           ; 4 bytes @ 0x11
   597  0011'                    	ds	4
   598  0015'                    ?___fladd:
   599  0015'                    ___fladd@b:	
   600                           ; 4 bytes @ 0x15
   601                           
   602                           
   603                           ; 4 bytes @ 0x15
   604  0015'                    	ds	4
   605  0019'                    ___fladd@a:
   606                           
   607                           ; 4 bytes @ 0x19
   608  0019'                    	ds	4
   609  001D'                    ??___fladd:
   610                           
   611                           ; 1 bytes @ 0x1D
   612  001D'                    	ds	8
   613  0025'                    ___fladd@signs:
   614                           
   615                           ; 1 bytes @ 0x25
   616  0025'                    	ds	1
   617  0026'                    ___fladd@aexp:
   618                           
   619                           ; 1 bytes @ 0x26
   620  0026'                    	ds	1
   621  0027'                    ___fladd@bexp:
   622                           
   623                           ; 1 bytes @ 0x27
   624  0027'                    	ds	1
   625  0028'                    ___fladd@grs:
   626                           
   627                           ; 1 bytes @ 0x28
   628  0028'                    	ds	1
   629  0029'                    ?___flmul:
   630  0029'                    ___flmul@b:	
   631                           ; 4 bytes @ 0x29
   632                           
   633                           
   634                           ; 4 bytes @ 0x29
   635  0029'                    	ds	4
   636  002D'                    ___flmul@a:
   637                           
   638                           ; 4 bytes @ 0x2D
   639  002D'                    	ds	4
   640  0031'                    ??___flmul:
   641                           
   642                           ; 1 bytes @ 0x31
   643  0031'                    	ds	5
   644  0036'                    ___flmul@sign:
   645                           
   646                           ; 1 bytes @ 0x36
   647  0036'                    	ds	1
   648  0037'                    ___flmul@grs:
   649                           
   650                           ; 4 bytes @ 0x37
   651  0037'                    	ds	4
   652  003B'                    ___flmul@aexp:
   653                           
   654                           ; 1 bytes @ 0x3B
   655  003B'                    	ds	1
   656  003C'                    ___flmul@bexp:
   657                           
   658                           ; 1 bytes @ 0x3C
   659  003C'                    	ds	1
   660  003D'                    ___flmul@prod:
   661                           
   662                           ; 4 bytes @ 0x3D
   663  003D'                    	ds	4
   664  0041'                    ___flmul@temp:
   665                           
   666                           ; 2 bytes @ 0x41
   667  0041'                    	ds	2
   668  0043'                    ?___fldiv:
   669  0043'                    ___fldiv@a:	
   670                           ; 4 bytes @ 0x43
   671                           
   672                           
   673                           ; 4 bytes @ 0x43
   674  0043'                    	ds	4
   675  0047'                    ___fldiv@b:
   676                           
   677                           ; 4 bytes @ 0x47
   678  0047'                    	ds	4
   679  004B'                    ??___fldiv:
   680                           
   681                           ; 1 bytes @ 0x4B
   682  004B'                    	ds	5
   683                           
   684                           	psect	maintext
   685  0000'                    __pmaintext:	
   686 ;;
   687 ;;Main: autosize = 0, tempsize = 2, incstack = 0, save=0
   688 ;;
   689 ;; *************** function _main *****************
   690 ;; Defined at:
   691 ;;		line 77 in file "newmain.c"
   692 ;; Parameters:    Size  Location     Type
   693 ;;		None
   694 ;; Auto vars:     Size  Location     Type
   695 ;;		None
   696 ;; Return value:  Size  Location     Type
   697 ;;                  1    wreg      void 
   698 ;; Registers used:
   699 ;;		wreg, fsr0l, fsr0h, fsr1l, fsr1h, fsr1l, fsr1h, status,2, status,0, btemp+1, pclath, cstack
   700 ;; Tracked objects:
   701 ;;		On entry : B00/0
   702 ;;		On exit  : 0/0
   703 ;;		Unchanged: 0/0
   704 ;; Data sizes:     COMMON   BANK0   BANK1   BANK3   BANK2
   705 ;;      Params:         0       0       0       0       0
   706 ;;      Locals:         0       0       0       0       0
   707 ;;      Temps:          0       0       2       0       0
   708 ;;      Totals:         0       0       2       0       0
   709 ;;Total ram usage:        2 bytes
   710 ;; Hardware stack levels required when called: 3
   711 ;; This function calls:
   712 ;;		_GetRandom
   713 ;;		_Initialize_UART
   714 ;;		_printf
   715 ;;		_srand
   716 ;;		_time
   717 ;; This function is called by:
   718 ;;		Startup code after reset
   719 ;; This function uses a non-reentrant model
   720 ;;
   721                           
   722  0000'                    _main:	
   723                           ;psect for function _main
   724                           
   725  0000'                    l2213:	
   726                           ;incstack = 0
   727                           ; Regs used in _main: [allreg]
   728                           
   729                           
   730                           ;newmain.c: 78:     Initialize_UART();
   731  0000' 120A' 118A' 2000' 120A' 118A' 	fcall	_Initialize_UART
   732  0005'                    l2215:
   733                           
   734                           ;newmain.c: 79:     srand(time((0)));
   735  0005' 3000               	movlw	0
   736  0006' 120A' 118A' 2000' 120A' 118A' 	fcall	_time
   737  000B' 0801'              	movf	?_time+1,w
   738  000C' 0081'              	movwf	srand@x+1
   739  000D' 0800'              	movf	?_time,w
   740  000E' 0080'              	movwf	srand@x
   741  000F' 120A' 118A' 2000' 120A' 118A' 	fcall	_srand
   742  0014'                    l2217:
   743                           
   744                           ;newmain.c: 81:     randomNum = GetRandom(20, 60);
   745  0014' 303C               	movlw	60
   746  0015' 1683               	bsf	3,5	;RP0=1, select bank1
   747  0016' 1303               	bcf	3,6	;RP1=0, select bank1
   748  0017' 0080'              	movwf	??_main^(0+128)
   749  0018' 0800'              	movf	??_main^(0+128),w
   750  0019' 0080'              	movwf	GetRandom@max^(0+128)
   751  001A' 3014               	movlw	20
   752  001B' 120A' 118A' 2000' 120A' 118A' 	fcall	_GetRandom
   753  0020' 1683               	bsf	3,5	;RP0=1, select bank1
   754  0021' 1303               	bcf	3,6	;RP1=0, select bank1
   755  0022' 0080'              	movwf	(??_main+1)^(0+128)
   756  0023' 0800'              	movf	(??_main+1)^(0+128),w
   757  0024' 0080'              	movwf	_randomNum^(0+128)
   758  0025'                    l2219:
   759                           
   760                           ;newmain.c: 83:     {;newmain.c: 85:         printf("%d ", randomNum);
   761  0025' 1683               	bsf	3,5	;RP0=1, select bank1
   762  0026' 1303               	bcf	3,6	;RP1=0, select bank1
   763  0027' 0800'              	movf	_randomNum^(0+128),w
   764  0028' 0080'              	movwf	??_main^(0+128)
   765  0029' 0181'              	clrf	(??_main^(0+128)+1)
   766  002A' 0800'              	movf	??_main^(0+128),w
   767  002B' 1283               	bcf	3,5	;RP0=0, select bank0
   768  002C' 1303               	bcf	3,6	;RP1=0, select bank0
   769  002D' 0080'              	movwf	?_printf
   770  002E' 1683               	bsf	3,5	;RP0=1, select bank1
   771  002F' 1303               	bcf	3,6	;RP1=0, select bank1
   772  0030' 0800'              	movf	(??_main+1)^(0+128),w
   773  0031' 1283               	bcf	3,5	;RP0=0, select bank0
   774  0032' 1303               	bcf	3,6	;RP1=0, select bank0
   775  0033' 0081'              	movwf	?_printf+1
   776  0034' 300B               	movlw	(low ((STR_1-__stringbase)| (0+32768)))& (0+255)
   777  0035' 120A' 118A' 2000' 120A' 118A' 	fcall	_printf
   778  003A' 2800'              	goto	l2219
   779  003B' 120A' 118A' 2800'  	ljmp	start
   780  003E'                    __end_of_main:
   781                           
   782                           	psect	text1
   783  0000'                    __ptext1:	
   784 ;; *************** function _srand *****************
   785 ;; Defined at:
   786 ;;		line 6 in file "C:\Program Files\Microchip\xc8\v2.36\pic\sources\c90\common\rand.c"
   787 ;; Parameters:    Size  Location     Type
   788 ;;  x               2    0[COMMON] unsigned int 
   789 ;; Auto vars:     Size  Location     Type
   790 ;;		None
   791 ;; Return value:  Size  Location     Type
   792 ;;                  1    wreg      void 
   793 ;; Registers used:
   794 ;;		wreg
   795 ;; Tracked objects:
   796 ;;		On entry : 0/0
   797 ;;		On exit  : 0/0
   798 ;;		Unchanged: 0/0
   799 ;; Data sizes:     COMMON   BANK0   BANK1   BANK3   BANK2
   800 ;;      Params:         2       0       0       0       0
   801 ;;      Locals:         0       0       0       0       0
   802 ;;      Temps:          0       0       0       0       0
   803 ;;      Totals:         2       0       0       0       0
   804 ;;Total ram usage:        2 bytes
   805 ;; Hardware stack levels used: 1
   806 ;; This function calls:
   807 ;;		Nothing
   808 ;; This function is called by:
   809 ;;		_main
   810 ;; This function uses a non-reentrant model
   811 ;;
   812                           
   813  0000'                    _srand:	
   814                           ;psect for function _srand
   815                           
   816  0000'                    l2151:	
   817                           ;incstack = 0
   818                           ; Regs used in _srand: [wreg]
   819                           
   820  0000' 0800'              	movf	srand@x,w
   821  0001' 1683               	bsf	3,5	;RP0=1, select bank1
   822  0002' 1303               	bcf	3,6	;RP1=0, select bank1
   823  0003' 0080'              	movwf	_randx^(0+128)
   824  0004' 0801'              	movf	srand@x+1,w
   825  0005' 0081'              	movwf	(_randx^(0+128)+1)
   826  0006' 0182'              	clrf	(_randx^(0+128)+2)
   827  0007' 0183'              	clrf	(_randx^(0+128)+3)
   828  0008'                    l652:
   829  0008' 0008               	return
   830  0009'                    __end_of_srand:
   831                           
   832                           	psect	text2
   833  0000'                    __ptext2:	
   834 ;; *************** function _printf *****************
   835 ;; Defined at:
   836 ;;		line 477 in file "C:\Program Files\Microchip\xc8\v2.36\pic\sources\c90\common\doprnt.c"
   837 ;; Parameters:    Size  Location     Type
   838 ;;  f               1    wreg     PTR const unsigned char 
   839 ;;		 -> STR_1(4), 
   840 ;; Auto vars:     Size  Location     Type
   841 ;;  f               1    8[BANK0 ] PTR const unsigned char 
   842 ;;		 -> STR_1(4), 
   843 ;;  tmpval          4    0        struct .
   844 ;;  val             2    9[BANK0 ] unsigned int 
   845 ;;  cp              2    0        PTR const unsigned char 
   846 ;;  len             2    0        unsigned int 
   847 ;;  c               1   11[BANK0 ] unsigned char 
   848 ;;  prec            1    7[BANK0 ] char 
   849 ;;  flag            1    6[BANK0 ] unsigned char 
   850 ;;  ap              1    5[BANK0 ] PTR void [1]
   851 ;;		 -> ?_printf(2), 
   852 ;; Return value:  Size  Location     Type
   853 ;;                  2    0[BANK0 ] int 
   854 ;; Registers used:
   855 ;;		wreg, fsr0l, fsr0h, status,2, status,0, btemp+1, pclath, cstack
   856 ;; Tracked objects:
   857 ;;		On entry : 0/0
   858 ;;		On exit  : 0/0
   859 ;;		Unchanged: 0/0
   860 ;; Data sizes:     COMMON   BANK0   BANK1   BANK3   BANK2
   861 ;;      Params:         0       2       0       0       0
   862 ;;      Locals:         0       7       0       0       0
   863 ;;      Temps:          0       3       0       0       0
   864 ;;      Totals:         0      12       0       0       0
   865 ;;Total ram usage:       12 bytes
   866 ;; Hardware stack levels used: 1
   867 ;; Hardware stack levels required when called: 2
   868 ;; This function calls:
   869 ;;		___lwdiv
   870 ;;		___lwmod
   871 ;;		_putch
   872 ;; This function is called by:
   873 ;;		_main
   874 ;; This function uses a non-reentrant model
   875 ;;
   876                           
   877  0000'                    _printf:	
   878                           ;psect for function _printf
   879                           
   880                           
   881                           ;incstack = 0
   882                           ; Regs used in _printf: [wreg-fsr0h+status,2+status,0+btemp+1+pclath+cstack]
   883                           ;printf@f stored from wreg
   884  0000' 1283               	bcf	3,5	;RP0=0, select bank0
   885  0001' 1303               	bcf	3,6	;RP1=0, select bank0
   886  0002' 0088'              	movwf	printf@f
   887  0003'                    l2153:
   888                           
   889                           ;C:\Program Files\Microchip\xc8\v2.36\pic\sources\c90\common\doprnt.c: 477: printf(const
      +                           char * f, ...);C:\Program Files\Microchip\xc8\v2.36\pic\sources\c90\common\doprnt.c: 47
      +                          8: {;C:\Program Files\Microchip\xc8\v2.36\pic\sources\c90\common\doprnt.c: 479:  va_list
      +                           ap;;C:\Program Files\Microchip\xc8\v2.36\pic\sources\c90\common\doprnt.c: 512:  char c;
      +                          ;C:\Program Files\Microchip\xc8\v2.36\pic\sources\c90\common\doprnt.c: 521:  signed char
      +                           prec;;C:\Program Files\Microchip\xc8\v2.36\pic\sources\c90\common\doprnt.c: 525:  unsig
      +                          ned char flag;
   890  0003' 3000'              	movlw	(low (?_printf| 0))& (0+255)
   891  0004' 0082'              	movwf	??_printf
   892  0005' 0802'              	movf	??_printf,w
   893  0006' 0085'              	movwf	printf@ap
   894                           
   895                           ;C:\Program Files\Microchip\xc8\v2.36\pic\sources\c90\common\doprnt.c: 553:  while((c = 
      +                          *f++)) {
   896  0007' 2800'              	goto	l2199
   897  0008'                    l2155:
   898                           
   899                           ;C:\Program Files\Microchip\xc8\v2.36\pic\sources\c90\common\doprnt.c: 555:   if(c != '%
      +                          ')
   900  0008' 3025               	movlw	37
   901  0009' 060B'              	xorwf	printf@c,w
   902  000A' 1903               	btfsc	3,2
   903  000B' 2800'              	goto	u3321
   904  000C' 2800'              	goto	u3320
   905  000D'                    u3321:
   906  000D' 2800'              	goto	l2159
   907  000E'                    u3320:
   908  000E'                    l2157:
   909                           
   910                           ;C:\Program Files\Microchip\xc8\v2.36\pic\sources\c90\common\doprnt.c: 557:   {;C:\Progr
      +                          am Files\Microchip\xc8\v2.36\pic\sources\c90\common\doprnt.c: 558:    (putch(c) );
   911  000E' 080B'              	movf	printf@c,w
   912  000F' 120A' 118A' 2000' 120A' 118A' 	fcall	_putch
   913                           
   914                           ;C:\Program Files\Microchip\xc8\v2.36\pic\sources\c90\common\doprnt.c: 559:    continue;
   915  0014' 2800'              	goto	l2199
   916  0015'                    l2159:
   917                           
   918                           ;C:\Program Files\Microchip\xc8\v2.36\pic\sources\c90\common\doprnt.c: 565:   flag = 0;
   919  0015' 0186'              	clrf	printf@flag
   920  0016'                    l2163:	
   921                           ;C:\Program Files\Microchip\xc8\v2.36\pic\sources\c90\common\doprnt.c: 661:   switch(c =
      +                           *f++) {
   922                           
   923  0016' 3001               	movlw	1
   924  0017' 0788'              	addwf	printf@f,f
   925  0018' 30FF               	movlw	-1
   926  0019' 0708'              	addwf	printf@f,w
   927  001A' 0084               	movwf	4
   928  001B' 120A' 118A' 2000' 120A' 118A' 	fcall	stringdir
   929  0020' 008B'              	movwf	printf@c
   930  0021' 0082'              	movwf	??_printf
   931  0022' 0183'              	clrf	??_printf+1
   932                           
   933                           ; Switch on 2 bytes has been partitioned into a top level switch of size 1, and 1 sub-sw
      +                          itches
   934                           ; Switch size 1, requested type "simple"
   935                           ; Number of cases is 1, Range of values is 0 to 0
   936                           ; switch strategies available:
   937                           ; Name         Instructions Cycles
   938                           ; simple_byte            4     3 (average)
   939                           ; direct_byte           11     8 (fixed)
   940                           ; jumptable            260     6 (fixed)
   941                           ;	Chosen strategy is simple_byte
   942  0023' 0803'              	movf	??_printf+1,w
   943  0024' 3A00               	xorlw	0	; case 0
   944  0025' 1903               	skipnz
   945  0026' 2800'              	goto	l2241
   946  0027' 2800'              	goto	l2199
   947  0028'                    l2241:
   948                           
   949                           ; Switch size 1, requested type "simple"
   950                           ; Number of cases is 3, Range of values is 0 to 105
   951                           ; switch strategies available:
   952                           ; Name         Instructions Cycles
   953                           ; simple_byte           10     6 (average)
   954                           ; jumptable            260     6 (fixed)
   955                           ;	Chosen strategy is simple_byte
   956  0028' 0802'              	movf	??_printf,w
   957  0029' 3A00               	xorlw	0	; case 0
   958  002A' 1903               	skipnz
   959  002B' 2800'              	goto	l195
   960  002C' 3A64               	xorlw	100	; case 100
   961  002D' 1903               	skipnz
   962  002E' 2800'              	goto	l2165
   963  002F' 3A0D               	xorlw	13	; case 105
   964  0030' 1903               	skipnz
   965  0031' 2800'              	goto	l2165
   966  0032' 2800'              	goto	l2199
   967  0033'                    l2165:
   968                           
   969                           ;C:\Program Files\Microchip\xc8\v2.36\pic\sources\c90\common\doprnt.c: 1279:   {;C:\Prog
      +                          ram Files\Microchip\xc8\v2.36\pic\sources\c90\common\doprnt.c: 1285:     val = (unsigned
      +                           int)(*(int *)__va_arg((*(int **)ap), (int)0));
   970  0033' 0805'              	movf	printf@ap,w
   971  0034' 0084               	movwf	4
   972  0035' 1383               	bcf	3,7	;select IRP bank0
   973  0036' 0800               	movf	0,w
   974  0037' 0089'              	movwf	printf@val
   975  0038' 0A84               	incf	4,f
   976  0039' 0800               	movf	0,w
   977  003A' 008A'              	movwf	printf@val+1
   978  003B'                    l2167:
   979  003B' 3002               	movlw	2
   980  003C' 0082'              	movwf	??_printf
   981  003D' 0802'              	movf	??_printf,w
   982  003E' 0785'              	addwf	printf@ap,f
   983  003F'                    l2169:
   984                           
   985                           ;C:\Program Files\Microchip\xc8\v2.36\pic\sources\c90\common\doprnt.c: 1287:    if((int)
      +                          val < 0) {
   986  003F' 1F8A'              	btfss	printf@val+1,7
   987  0040' 2800'              	goto	u3331
   988  0041' 2800'              	goto	u3330
   989  0042'                    u3331:
   990  0042' 2800'              	goto	l2175
   991  0043'                    u3330:
   992  0043'                    l2171:
   993                           
   994                           ;C:\Program Files\Microchip\xc8\v2.36\pic\sources\c90\common\doprnt.c: 1288:     flag |=
      +                           0x03;
   995  0043' 3003               	movlw	3
   996  0044' 0082'              	movwf	??_printf
   997  0045' 0802'              	movf	??_printf,w
   998  0046' 0486'              	iorwf	printf@flag,f
   999  0047'                    l2173:
  1000                           
  1001                           ;C:\Program Files\Microchip\xc8\v2.36\pic\sources\c90\common\doprnt.c: 1289:     val = -
      +                          val;
  1002  0047' 0989'              	comf	printf@val,f
  1003  0048' 098A'              	comf	printf@val+1,f
  1004  0049' 0A89'              	incf	printf@val,f
  1005  004A' 1903               	skipnz
  1006  004B' 0A8A'              	incf	printf@val+1,f
  1007  004C'                    l2175:
  1008                           
  1009                           ;C:\Program Files\Microchip\xc8\v2.36\pic\sources\c90\common\doprnt.c: 1292:   };C:\Prog
      +                          ram Files\Microchip\xc8\v2.36\pic\sources\c90\common\doprnt.c: 1331:    for(c = 1 ; c !=
      +                           sizeof dpowers/sizeof dpowers[0] ; c++)
  1010  004C' 018B'              	clrf	printf@c
  1011  004D' 0A8B'              	incf	printf@c,f
  1012  004E'                    l2181:
  1013                           
  1014                           ;C:\Program Files\Microchip\xc8\v2.36\pic\sources\c90\common\doprnt.c: 1332:     if(val 
      +                          < dpowers[c])
  1015  004E' 080B'              	movf	printf@c,w
  1016  004F' 0082'              	movwf	??_printf
  1017  0050' 0702'              	addwf	??_printf,w
  1018  0051' 3E01               	addlw	low ((_dpowers-__stringbase)| (0+32768))
  1019  0052' 0084               	movwf	4
  1020  0053' 120A' 118A' 2000' 120A' 118A' 	fcall	stringdir
  1021  0058' 0083'              	movwf	??_printf+1
  1022  0059' 120A' 118A' 2000' 120A' 118A' 	fcall	stringdir
  1023  005E' 0084'              	movwf	??_printf+2
  1024  005F' 0804'              	movf	??_printf+2,w
  1025  0060' 020A'              	subwf	printf@val+1,w
  1026  0061' 1D03               	skipz
  1027  0062' 2800'              	goto	u3345
  1028  0063' 0803'              	movf	??_printf+1,w
  1029  0064' 0209'              	subwf	printf@val,w
  1030  0065'                    u3345:
  1031  0065' 1803               	skipnc
  1032  0066' 2800'              	goto	u3341
  1033  0067' 2800'              	goto	u3340
  1034  0068'                    u3341:
  1035  0068' 2800'              	goto	l2185
  1036  0069'                    u3340:
  1037  0069' 2800'              	goto	l2187
  1038  006A'                    l2185:
  1039  006A' 3001               	movlw	1
  1040  006B' 0082'              	movwf	??_printf
  1041  006C' 0802'              	movf	??_printf,w
  1042  006D' 078B'              	addwf	printf@c,f
  1043  006E' 3005               	movlw	5
  1044  006F' 060B'              	xorwf	printf@c,w
  1045  0070' 1D03               	btfss	3,2
  1046  0071' 2800'              	goto	u3351
  1047  0072' 2800'              	goto	u3350
  1048  0073'                    u3351:
  1049  0073' 2800'              	goto	l2181
  1050  0074'                    u3350:
  1051  0074'                    l2187:
  1052                           
  1053                           ;C:\Program Files\Microchip\xc8\v2.36\pic\sources\c90\common\doprnt.c: 1448:   {;C:\Prog
      +                          ram Files\Microchip\xc8\v2.36\pic\sources\c90\common\doprnt.c: 1464:    if(flag & 0x03)
  1054  0074' 0806'              	movf	printf@flag,w
  1055  0075' 3903               	andlw	3
  1056  0076' 1903               	btfsc	3,2
  1057  0077' 2800'              	goto	u3361
  1058  0078' 2800'              	goto	u3360
  1059  0079'                    u3361:
  1060  0079' 2800'              	goto	l2191
  1061  007A'                    u3360:
  1062  007A'                    l2189:
  1063                           
  1064                           ;C:\Program Files\Microchip\xc8\v2.36\pic\sources\c90\common\doprnt.c: 1465:     (putch(
      +                          '-') );
  1065  007A' 302D               	movlw	45
  1066  007B' 120A' 118A' 2000' 120A' 118A' 	fcall	_putch
  1067  0080'                    l2191:
  1068                           
  1069                           ;C:\Program Files\Microchip\xc8\v2.36\pic\sources\c90\common\doprnt.c: 1495:   };C:\Prog
      +                          ram Files\Microchip\xc8\v2.36\pic\sources\c90\common\doprnt.c: 1498:   prec = c;
  1070  0080' 1283               	bcf	3,5	;RP0=0, select bank0
  1071  0081' 1303               	bcf	3,6	;RP1=0, select bank0
  1072  0082' 080B'              	movf	printf@c,w
  1073  0083' 0082'              	movwf	??_printf
  1074  0084' 0802'              	movf	??_printf,w
  1075  0085' 0087'              	movwf	printf@prec
  1076                           
  1077                           ;C:\Program Files\Microchip\xc8\v2.36\pic\sources\c90\common\doprnt.c: 1500:   while(pre
      +                          c--) {
  1078  0086' 2800'              	goto	l2197
  1079  0087'                    l2193:
  1080                           
  1081                           ;C:\Program Files\Microchip\xc8\v2.36\pic\sources\c90\common\doprnt.c: 1504:    {;C:\Pro
      +                          gram Files\Microchip\xc8\v2.36\pic\sources\c90\common\doprnt.c: 1515:     c = (val / dpo
      +                          wers[(unsigned char)prec]) % 10 + '0';
  1082  0087' 300A               	movlw	10
  1083  0088' 0088'              	movwf	___lwmod@divisor
  1084  0089' 3000               	movlw	0
  1085  008A' 0089'              	movwf	___lwmod@divisor+1
  1086  008B' 0807'              	movf	printf@prec,w
  1087  008C' 0082'              	movwf	??_printf
  1088  008D' 0702'              	addwf	??_printf,w
  1089  008E' 3E01               	addlw	low ((_dpowers-__stringbase)| (0+32768))
  1090  008F' 0084               	movwf	4
  1091  0090' 120A' 118A' 2000' 120A' 118A' 	fcall	stringdir
  1092  0095' 0080'              	movwf	___lwdiv@divisor
  1093  0096' 120A' 118A' 2000' 120A' 118A' 	fcall	stringdir
  1094  009B' 0081'              	movwf	___lwdiv@divisor+1
  1095  009C' 080A'              	movf	printf@val+1,w
  1096  009D' 0083'              	movwf	___lwdiv@dividend+1
  1097  009E' 0809'              	movf	printf@val,w
  1098  009F' 0082'              	movwf	___lwdiv@dividend
  1099  00A0' 120A' 118A' 2000' 120A' 118A' 	fcall	___lwdiv
  1100  00A5' 0801'              	movf	?___lwdiv+1,w
  1101  00A6' 008B'              	movwf	___lwmod@dividend+1
  1102  00A7' 0800'              	movf	?___lwdiv,w
  1103  00A8' 008A'              	movwf	___lwmod@dividend
  1104  00A9' 120A' 118A' 2000' 120A' 118A' 	fcall	___lwmod
  1105  00AE' 0808'              	movf	?___lwmod,w
  1106  00AF' 3E30               	addlw	48
  1107  00B0' 1283               	bcf	3,5	;RP0=0, select bank0
  1108  00B1' 1303               	bcf	3,6	;RP1=0, select bank0
  1109  00B2' 0083'              	movwf	??_printf+1
  1110  00B3' 0803'              	movf	??_printf+1,w
  1111  00B4' 008B'              	movwf	printf@c
  1112  00B5'                    l2195:
  1113                           
  1114                           ;C:\Program Files\Microchip\xc8\v2.36\pic\sources\c90\common\doprnt.c: 1549:    };C:\Pro
      +                          gram Files\Microchip\xc8\v2.36\pic\sources\c90\common\doprnt.c: 1550:    (putch(c) );
  1115  00B5' 080B'              	movf	printf@c,w
  1116  00B6' 120A' 118A' 2000' 120A' 118A' 	fcall	_putch
  1117  00BB'                    l2197:
  1118                           
  1119                           ;C:\Program Files\Microchip\xc8\v2.36\pic\sources\c90\common\doprnt.c: 1500:   while(pre
      +                          c--) {
  1120  00BB' 30FF               	movlw	255
  1121  00BC' 1283               	bcf	3,5	;RP0=0, select bank0
  1122  00BD' 1303               	bcf	3,6	;RP1=0, select bank0
  1123  00BE' 0082'              	movwf	??_printf
  1124  00BF' 0802'              	movf	??_printf,w
  1125  00C0' 0787'              	addwf	printf@prec,f
  1126  00C1' 0A07'              	incf	printf@prec,w
  1127  00C2' 1D03               	btfss	3,2
  1128  00C3' 2800'              	goto	u3371
  1129  00C4' 2800'              	goto	u3370
  1130  00C5'                    u3371:
  1131  00C5' 2800'              	goto	l2193
  1132  00C6'                    u3370:
  1133  00C6'                    l2199:
  1134                           
  1135                           ;C:\Program Files\Microchip\xc8\v2.36\pic\sources\c90\common\doprnt.c: 553:  while((c = 
      +                          *f++)) {
  1136  00C6' 3001               	movlw	1
  1137  00C7' 1283               	bcf	3,5	;RP0=0, select bank0
  1138  00C8' 1303               	bcf	3,6	;RP1=0, select bank0
  1139  00C9' 0788'              	addwf	printf@f,f
  1140  00CA' 30FF               	movlw	-1
  1141  00CB' 0708'              	addwf	printf@f,w
  1142  00CC' 0084               	movwf	4
  1143  00CD' 120A' 118A' 2000' 120A' 118A' 	fcall	stringdir
  1144  00D2' 0082'              	movwf	??_printf
  1145  00D3' 0802'              	movf	??_printf,w
  1146  00D4' 008B'              	movwf	printf@c
  1147  00D5' 080B'              	movf	printf@c,w
  1148  00D6' 1D03               	btfss	3,2
  1149  00D7' 2800'              	goto	u3381
  1150  00D8' 2800'              	goto	u3380
  1151  00D9'                    u3381:
  1152  00D9' 2800'              	goto	l2155
  1153  00DA'                    u3380:
  1154  00DA'                    l195:
  1155  00DA' 0008               	return
  1156  00DB'                    __end_of_printf:
  1157                           
  1158                           	psect	text3
  1159  0000'                    __ptext3:	
  1160 ;; *************** function _putch *****************
  1161 ;; Defined at:
  1162 ;;		line 72 in file "newmain.c"
  1163 ;; Parameters:    Size  Location     Type
  1164 ;;  data            1    wreg     unsigned char 
  1165 ;; Auto vars:     Size  Location     Type
  1166 ;;  data            1    1[COMMON] unsigned char 
  1167 ;; Return value:  Size  Location     Type
  1168 ;;                  1    wreg      void 
  1169 ;; Registers used:
  1170 ;;		wreg, status,2, status,0, pclath, cstack
  1171 ;; Tracked objects:
  1172 ;;		On entry : 0/0
  1173 ;;		On exit  : 0/0
  1174 ;;		Unchanged: 0/0
  1175 ;; Data sizes:     COMMON   BANK0   BANK1   BANK3   BANK2
  1176 ;;      Params:         0       0       0       0       0
  1177 ;;      Locals:         1       0       0       0       0
  1178 ;;      Temps:          0       0       0       0       0
  1179 ;;      Totals:         1       0       0       0       0
  1180 ;;Total ram usage:        1 bytes
  1181 ;; Hardware stack levels used: 1
  1182 ;; Hardware stack levels required when called: 1
  1183 ;; This function calls:
  1184 ;;		_UART_send_char
  1185 ;; This function is called by:
  1186 ;;		_printf
  1187 ;; This function uses a non-reentrant model
  1188 ;;
  1189                           
  1190  0000'                    _putch:	
  1191                           ;psect for function _putch
  1192                           
  1193                           
  1194                           ;incstack = 0
  1195                           ; Regs used in _putch: [wreg+status,2+status,0+pclath+cstack]
  1196                           ;putch@data stored from wreg
  1197  0000' 0081'              	movwf	putch@data
  1198  0001'                    l1521:
  1199  0001'                    l72:	
  1200                           ;newmain.c: 72: void putch(char data);newmain.c: 73: {;newmain.c: 74:     while(!TXIF);
  1201                           
  1202  0001' 1283               	bcf	3,5	;RP0=0, select bank0
  1203  0002' 1303               	bcf	3,6	;RP1=0, select bank0
  1204  0003' 1E0C               	btfss	12,4	;volatile
  1205  0004' 2800'              	goto	u1811
  1206  0005' 2800'              	goto	u1810
  1207  0006'                    u1811:
  1208  0006' 2800'              	goto	l72
  1209  0007'                    u1810:
  1210  0007'                    l1523:
  1211                           
  1212                           ;newmain.c: 75:     UART_send_char(data);
  1213  0007' 0801'              	movf	putch@data,w
  1214  0008' 120A' 118A' 2000' 120A' 118A' 	fcall	_UART_send_char
  1215  000D'                    l75:
  1216  000D' 0008               	return
  1217  000E'                    __end_of_putch:
  1218                           
  1219                           	psect	text4
  1220  0000'                    __ptext4:	
  1221 ;; *************** function _UART_send_char *****************
  1222 ;; Defined at:
  1223 ;;		line 52 in file "newmain.c"
  1224 ;; Parameters:    Size  Location     Type
  1225 ;;  bt              1    wreg     unsigned char 
  1226 ;; Auto vars:     Size  Location     Type
  1227 ;;  bt              1    0[COMMON] unsigned char 
  1228 ;; Return value:  Size  Location     Type
  1229 ;;                  1    wreg      void 
  1230 ;; Registers used:
  1231 ;;		wreg
  1232 ;; Tracked objects:
  1233 ;;		On entry : 0/0
  1234 ;;		On exit  : 0/0
  1235 ;;		Unchanged: 0/0
  1236 ;; Data sizes:     COMMON   BANK0   BANK1   BANK3   BANK2
  1237 ;;      Params:         0       0       0       0       0
  1238 ;;      Locals:         1       0       0       0       0
  1239 ;;      Temps:          0       0       0       0       0
  1240 ;;      Totals:         1       0       0       0       0
  1241 ;;Total ram usage:        1 bytes
  1242 ;; Hardware stack levels used: 1
  1243 ;; This function calls:
  1244 ;;		Nothing
  1245 ;; This function is called by:
  1246 ;;		_putch
  1247 ;;		_UART_send_string
  1248 ;; This function uses a non-reentrant model
  1249 ;;
  1250                           
  1251  0000'                    _UART_send_char:	
  1252                           ;psect for function _UART_send_char
  1253                           
  1254                           
  1255                           ;incstack = 0
  1256                           ; Regs used in _UART_send_char: [wreg]
  1257                           ;UART_send_char@bt stored from wreg
  1258  0000' 0080'              	movwf	UART_send_char@bt
  1259  0001'                    l1481:
  1260  0001'                    l53:	
  1261                           ;newmain.c: 52: void UART_send_char(char bt);newmain.c: 53: {;newmain.c: 54:     while(!
      +                          TXIF);
  1262                           
  1263  0001' 1283               	bcf	3,5	;RP0=0, select bank0
  1264  0002' 1303               	bcf	3,6	;RP1=0, select bank0
  1265  0003' 1E0C               	btfss	12,4	;volatile
  1266  0004' 2800'              	goto	u1711
  1267  0005' 2800'              	goto	u1710
  1268  0006'                    u1711:
  1269  0006' 2800'              	goto	l53
  1270  0007'                    u1710:
  1271  0007'                    l1483:
  1272                           
  1273                           ;newmain.c: 55:     TXREG = bt;
  1274  0007' 0800'              	movf	UART_send_char@bt,w
  1275  0008' 0099               	movwf	25	;volatile
  1276  0009'                    l56:
  1277  0009' 0008               	return
  1278  000A'                    __end_of_UART_send_char:
  1279                           
  1280                           	psect	text5
  1281  0000'                    __ptext5:	
  1282 ;; *************** function ___lwmod *****************
  1283 ;; Defined at:
  1284 ;;		line 5 in file "C:\Program Files\Microchip\xc8\v2.36\pic\sources\c90\common\lwmod.c"
  1285 ;; Parameters:    Size  Location     Type
  1286 ;;  divisor         2    8[COMMON] unsigned int 
  1287 ;;  dividend        2   10[COMMON] unsigned int 
  1288 ;; Auto vars:     Size  Location     Type
  1289 ;;  counter         1   13[COMMON] unsigned char 
  1290 ;; Return value:  Size  Location     Type
  1291 ;;                  2    8[COMMON] unsigned int 
  1292 ;; Registers used:
  1293 ;;		wreg, status,2, status,0
  1294 ;; Tracked objects:
  1295 ;;		On entry : 0/0
  1296 ;;		On exit  : 0/0
  1297 ;;		Unchanged: 0/0
  1298 ;; Data sizes:     COMMON   BANK0   BANK1   BANK3   BANK2
  1299 ;;      Params:         4       0       0       0       0
  1300 ;;      Locals:         1       0       0       0       0
  1301 ;;      Temps:          1       0       0       0       0
  1302 ;;      Totals:         6       0       0       0       0
  1303 ;;Total ram usage:        6 bytes
  1304 ;; Hardware stack levels used: 1
  1305 ;; This function calls:
  1306 ;;		Nothing
  1307 ;; This function is called by:
  1308 ;;		_printf
  1309 ;; This function uses a non-reentrant model
  1310 ;;
  1311                           
  1312  0000'                    ___lwmod:	
  1313                           ;psect for function ___lwmod
  1314                           
  1315  0000'                    l1587:	
  1316                           ;incstack = 0
  1317                           ; Regs used in ___lwmod: [wreg+status,2+status,0]
  1318                           
  1319  0000' 0808'              	movf	___lwmod@divisor,w
  1320  0001' 0409'              	iorwf	___lwmod@divisor+1,w
  1321  0002' 1903               	btfsc	3,2
  1322  0003' 2800'              	goto	u1991
  1323  0004' 2800'              	goto	u1990
  1324  0005'                    u1991:
  1325  0005' 2800'              	goto	l1605
  1326  0006'                    u1990:
  1327  0006'                    l1589:
  1328  0006' 018D'              	clrf	___lwmod@counter
  1329  0007' 0A8D'              	incf	___lwmod@counter,f
  1330  0008' 2800'              	goto	l1595
  1331  0009'                    l1591:
  1332  0009' 3001               	movlw	1
  1333  000A'                    u2005:
  1334  000A' 1003               	clrc
  1335  000B' 0D88'              	rlf	___lwmod@divisor,f
  1336  000C' 0D89'              	rlf	___lwmod@divisor+1,f
  1337  000D' 3EFF               	addlw	-1
  1338  000E' 1D03               	skipz
  1339  000F' 2800'              	goto	u2005
  1340  0010'                    l1593:
  1341  0010' 3001               	movlw	1
  1342  0011' 008C'              	movwf	??___lwmod
  1343  0012' 080C'              	movf	??___lwmod,w
  1344  0013' 078D'              	addwf	___lwmod@counter,f
  1345  0014'                    l1595:
  1346  0014' 1F89'              	btfss	___lwmod@divisor+1,7
  1347  0015' 2800'              	goto	u2011
  1348  0016' 2800'              	goto	u2010
  1349  0017'                    u2011:
  1350  0017' 2800'              	goto	l1591
  1351  0018'                    u2010:
  1352  0018'                    l1597:
  1353  0018' 0809'              	movf	___lwmod@divisor+1,w
  1354  0019' 020B'              	subwf	___lwmod@dividend+1,w
  1355  001A' 1D03               	skipz
  1356  001B' 2800'              	goto	u2025
  1357  001C' 0808'              	movf	___lwmod@divisor,w
  1358  001D' 020A'              	subwf	___lwmod@dividend,w
  1359  001E'                    u2025:
  1360  001E' 1C03               	skipc
  1361  001F' 2800'              	goto	u2021
  1362  0020' 2800'              	goto	u2020
  1363  0021'                    u2021:
  1364  0021' 2800'              	goto	l1601
  1365  0022'                    u2020:
  1366  0022'                    l1599:
  1367  0022' 0808'              	movf	___lwmod@divisor,w
  1368  0023' 028A'              	subwf	___lwmod@dividend,f
  1369  0024' 0809'              	movf	___lwmod@divisor+1,w
  1370  0025' 1C03               	skipc
  1371  0026' 038B'              	decf	___lwmod@dividend+1,f
  1372  0027' 028B'              	subwf	___lwmod@dividend+1,f
  1373  0028'                    l1601:
  1374  0028' 3001               	movlw	1
  1375  0029'                    u2035:
  1376  0029' 1003               	clrc
  1377  002A' 0C89'              	rrf	___lwmod@divisor+1,f
  1378  002B' 0C88'              	rrf	___lwmod@divisor,f
  1379  002C' 3EFF               	addlw	-1
  1380  002D' 1D03               	skipz
  1381  002E' 2800'              	goto	u2035
  1382  002F'                    l1603:
  1383  002F' 3001               	movlw	1
  1384  0030' 028D'              	subwf	___lwmod@counter,f
  1385  0031' 1D03               	btfss	3,2
  1386  0032' 2800'              	goto	u2041
  1387  0033' 2800'              	goto	u2040
  1388  0034'                    u2041:
  1389  0034' 2800'              	goto	l1597
  1390  0035'                    u2040:
  1391  0035'                    l1605:
  1392  0035' 080B'              	movf	___lwmod@dividend+1,w
  1393  0036' 0089'              	movwf	?___lwmod+1
  1394  0037' 080A'              	movf	___lwmod@dividend,w
  1395  0038' 0088'              	movwf	?___lwmod
  1396  0039'                    l481:
  1397  0039' 0008               	return
  1398  003A'                    __end_of___lwmod:
  1399                           
  1400                           	psect	text6
  1401  0000'                    __ptext6:	
  1402 ;; *************** function ___lwdiv *****************
  1403 ;; Defined at:
  1404 ;;		line 5 in file "C:\Program Files\Microchip\xc8\v2.36\pic\sources\c90\common\lwdiv.c"
  1405 ;; Parameters:    Size  Location     Type
  1406 ;;  divisor         2    0[COMMON] unsigned int 
  1407 ;;  dividend        2    2[COMMON] unsigned int 
  1408 ;; Auto vars:     Size  Location     Type
  1409 ;;  quotient        2    5[COMMON] unsigned int 
  1410 ;;  counter         1    7[COMMON] unsigned char 
  1411 ;; Return value:  Size  Location     Type
  1412 ;;                  2    0[COMMON] unsigned int 
  1413 ;; Registers used:
  1414 ;;		wreg, status,2, status,0
  1415 ;; Tracked objects:
  1416 ;;		On entry : 0/0
  1417 ;;		On exit  : 0/0
  1418 ;;		Unchanged: 0/0
  1419 ;; Data sizes:     COMMON   BANK0   BANK1   BANK3   BANK2
  1420 ;;      Params:         4       0       0       0       0
  1421 ;;      Locals:         3       0       0       0       0
  1422 ;;      Temps:          1       0       0       0       0
  1423 ;;      Totals:         8       0       0       0       0
  1424 ;;Total ram usage:        8 bytes
  1425 ;; Hardware stack levels used: 1
  1426 ;; This function calls:
  1427 ;;		Nothing
  1428 ;; This function is called by:
  1429 ;;		_printf
  1430 ;; This function uses a non-reentrant model
  1431 ;;
  1432                           
  1433  0000'                    ___lwdiv:	
  1434                           ;psect for function ___lwdiv
  1435                           
  1436  0000'                    l1561:	
  1437                           ;incstack = 0
  1438                           ; Regs used in ___lwdiv: [wreg+status,2+status,0]
  1439                           
  1440  0000' 0185'              	clrf	___lwdiv@quotient
  1441  0001' 0186'              	clrf	___lwdiv@quotient+1
  1442  0002'                    l1563:
  1443  0002' 0800'              	movf	___lwdiv@divisor,w
  1444  0003' 0401'              	iorwf	___lwdiv@divisor+1,w
  1445  0004' 1903               	btfsc	3,2
  1446  0005' 2800'              	goto	u1921
  1447  0006' 2800'              	goto	u1920
  1448  0007'                    u1921:
  1449  0007' 2800'              	goto	l1583
  1450  0008'                    u1920:
  1451  0008'                    l1565:
  1452  0008' 0187'              	clrf	___lwdiv@counter
  1453  0009' 0A87'              	incf	___lwdiv@counter,f
  1454  000A' 2800'              	goto	l1571
  1455  000B'                    l1567:
  1456  000B' 3001               	movlw	1
  1457  000C'                    u1935:
  1458  000C' 1003               	clrc
  1459  000D' 0D80'              	rlf	___lwdiv@divisor,f
  1460  000E' 0D81'              	rlf	___lwdiv@divisor+1,f
  1461  000F' 3EFF               	addlw	-1
  1462  0010' 1D03               	skipz
  1463  0011' 2800'              	goto	u1935
  1464  0012'                    l1569:
  1465  0012' 3001               	movlw	1
  1466  0013' 0084'              	movwf	??___lwdiv
  1467  0014' 0804'              	movf	??___lwdiv,w
  1468  0015' 0787'              	addwf	___lwdiv@counter,f
  1469  0016'                    l1571:
  1470  0016' 1F81'              	btfss	___lwdiv@divisor+1,7
  1471  0017' 2800'              	goto	u1941
  1472  0018' 2800'              	goto	u1940
  1473  0019'                    u1941:
  1474  0019' 2800'              	goto	l1567
  1475  001A'                    u1940:
  1476  001A'                    l1573:
  1477  001A' 3001               	movlw	1
  1478  001B'                    u1955:
  1479  001B' 1003               	clrc
  1480  001C' 0D85'              	rlf	___lwdiv@quotient,f
  1481  001D' 0D86'              	rlf	___lwdiv@quotient+1,f
  1482  001E' 3EFF               	addlw	-1
  1483  001F' 1D03               	skipz
  1484  0020' 2800'              	goto	u1955
  1485  0021' 0801'              	movf	___lwdiv@divisor+1,w
  1486  0022' 0203'              	subwf	___lwdiv@dividend+1,w
  1487  0023' 1D03               	skipz
  1488  0024' 2800'              	goto	u1965
  1489  0025' 0800'              	movf	___lwdiv@divisor,w
  1490  0026' 0202'              	subwf	___lwdiv@dividend,w
  1491  0027'                    u1965:
  1492  0027' 1C03               	skipc
  1493  0028' 2800'              	goto	u1961
  1494  0029' 2800'              	goto	u1960
  1495  002A'                    u1961:
  1496  002A' 2800'              	goto	l1579
  1497  002B'                    u1960:
  1498  002B'                    l1575:
  1499  002B' 0800'              	movf	___lwdiv@divisor,w
  1500  002C' 0282'              	subwf	___lwdiv@dividend,f
  1501  002D' 0801'              	movf	___lwdiv@divisor+1,w
  1502  002E' 1C03               	skipc
  1503  002F' 0383'              	decf	___lwdiv@dividend+1,f
  1504  0030' 0283'              	subwf	___lwdiv@dividend+1,f
  1505  0031'                    l1577:
  1506  0031' 1405'              	bsf	___lwdiv@quotient,0
  1507  0032'                    l1579:
  1508  0032' 3001               	movlw	1
  1509  0033'                    u1975:
  1510  0033' 1003               	clrc
  1511  0034' 0C81'              	rrf	___lwdiv@divisor+1,f
  1512  0035' 0C80'              	rrf	___lwdiv@divisor,f
  1513  0036' 3EFF               	addlw	-1
  1514  0037' 1D03               	skipz
  1515  0038' 2800'              	goto	u1975
  1516  0039'                    l1581:
  1517  0039' 3001               	movlw	1
  1518  003A' 0287'              	subwf	___lwdiv@counter,f
  1519  003B' 1D03               	btfss	3,2
  1520  003C' 2800'              	goto	u1981
  1521  003D' 2800'              	goto	u1980
  1522  003E'                    u1981:
  1523  003E' 2800'              	goto	l1573
  1524  003F'                    u1980:
  1525  003F'                    l1583:
  1526  003F' 0806'              	movf	___lwdiv@quotient+1,w
  1527  0040' 0081'              	movwf	?___lwdiv+1
  1528  0041' 0805'              	movf	___lwdiv@quotient,w
  1529  0042' 0080'              	movwf	?___lwdiv
  1530  0043'                    l471:
  1531  0043' 0008               	return
  1532  0044'                    __end_of___lwdiv:
  1533                           
  1534                           	psect	text7
  1535  0000'                    __ptext7:	
  1536 ;; *************** function _Initialize_UART *****************
  1537 ;; Defined at:
  1538 ;;		line 39 in file "newmain.c"
  1539 ;; Parameters:    Size  Location     Type
  1540 ;;		None
  1541 ;; Auto vars:     Size  Location     Type
  1542 ;;		None
  1543 ;; Return value:  Size  Location     Type
  1544 ;;                  1    wreg      void 
  1545 ;; Registers used:
  1546 ;;		wreg
  1547 ;; Tracked objects:
  1548 ;;		On entry : 0/0
  1549 ;;		On exit  : 0/0
  1550 ;;		Unchanged: 0/0
  1551 ;; Data sizes:     COMMON   BANK0   BANK1   BANK3   BANK2
  1552 ;;      Params:         0       0       0       0       0
  1553 ;;      Locals:         0       0       0       0       0
  1554 ;;      Temps:          0       0       0       0       0
  1555 ;;      Totals:         0       0       0       0       0
  1556 ;;Total ram usage:        0 bytes
  1557 ;; Hardware stack levels used: 1
  1558 ;; This function calls:
  1559 ;;		Nothing
  1560 ;; This function is called by:
  1561 ;;		_main
  1562 ;; This function uses a non-reentrant model
  1563 ;;
  1564                           
  1565  0000'                    _Initialize_UART:	
  1566                           ;psect for function _Initialize_UART
  1567                           
  1568  0000'                    l2133:	
  1569                           ;incstack = 0
  1570                           ; Regs used in _Initialize_UART: [wreg]
  1571                           
  1572                           
  1573                           ;newmain.c: 41:     TRISC6 = 0;
  1574  0000' 1683               	bsf	3,5	;RP0=1, select bank1
  1575  0001' 1303               	bcf	3,6	;RP1=0, select bank1
  1576  0002' 1307               	bcf	7,6	;volatile
  1577                           
  1578                           ;newmain.c: 42:     TRISC7 = 1;
  1579  0003' 1787               	bsf	7,7	;volatile
  1580  0004'                    l2135:
  1581                           
  1582                           ;newmain.c: 43:     SPBRG = ((8000000/16)/9600) - 1;
  1583  0004' 3033               	movlw	51
  1584  0005' 0099               	movwf	25	;volatile
  1585  0006'                    l2137:
  1586                           
  1587                           ;newmain.c: 44:     BRGH = 1;
  1588  0006' 1518               	bsf	24,2	;volatile
  1589  0007'                    l2139:
  1590                           
  1591                           ;newmain.c: 45:     SYNC = 0;
  1592  0007' 1218               	bcf	24,4	;volatile
  1593  0008'                    l2141:
  1594                           
  1595                           ;newmain.c: 46:     SPEN = 1;
  1596  0008' 1283               	bcf	3,5	;RP0=0, select bank0
  1597  0009' 1303               	bcf	3,6	;RP1=0, select bank0
  1598  000A' 1798               	bsf	24,7	;volatile
  1599  000B'                    l2143:
  1600                           
  1601                           ;newmain.c: 47:     TXEN = 1;
  1602  000B' 1683               	bsf	3,5	;RP0=1, select bank1
  1603  000C' 1303               	bcf	3,6	;RP1=0, select bank1
  1604  000D' 1698               	bsf	24,5	;volatile
  1605  000E'                    l2145:
  1606                           
  1607                           ;newmain.c: 48:     CREN = 1;
  1608  000E' 1283               	bcf	3,5	;RP0=0, select bank0
  1609  000F' 1303               	bcf	3,6	;RP1=0, select bank0
  1610  0010' 1618               	bsf	24,4	;volatile
  1611  0011'                    l2147:
  1612                           
  1613                           ;newmain.c: 49:     TX9 = 0;
  1614  0011' 1683               	bsf	3,5	;RP0=1, select bank1
  1615  0012' 1303               	bcf	3,6	;RP1=0, select bank1
  1616  0013' 1318               	bcf	24,6	;volatile
  1617  0014'                    l2149:
  1618                           
  1619                           ;newmain.c: 50:     RX9 = 0;
  1620  0014' 1283               	bcf	3,5	;RP0=0, select bank0
  1621  0015' 1303               	bcf	3,6	;RP1=0, select bank0
  1622  0016' 1318               	bcf	24,6	;volatile
  1623  0017'                    l50:
  1624  0017' 0008               	return
  1625  0018'                    __end_of_Initialize_UART:
  1626                           
  1627                           	psect	text8
  1628  0000'                    __ptext8:	
  1629 ;; *************** function _GetRandom *****************
  1630 ;; Defined at:
  1631 ;;		line 36 in file "newmain.c"
  1632 ;; Parameters:    Size  Location     Type
  1633 ;;  min             1    wreg     unsigned char 
  1634 ;;  max             1   24[BANK1 ] unsigned char 
  1635 ;; Auto vars:     Size  Location     Type
  1636 ;;  min             1   13[COMMON] unsigned char 
  1637 ;; Return value:  Size  Location     Type
  1638 ;;                  1    wreg      unsigned char 
  1639 ;; Registers used:
  1640 ;;		wreg, status,2, status,0, btemp+1, pclath, cstack
  1641 ;; Tracked objects:
  1642 ;;		On entry : 0/0
  1643 ;;		On exit  : 0/0
  1644 ;;		Unchanged: 0/0
  1645 ;; Data sizes:     COMMON   BANK0   BANK1   BANK3   BANK2
  1646 ;;      Params:         0       0       1       0       0
  1647 ;;      Locals:         1       0       0       0       0
  1648 ;;      Temps:          0       0       0       0       0
  1649 ;;      Totals:         1       0       1       0       0
  1650 ;;Total ram usage:        2 bytes
  1651 ;; Hardware stack levels used: 1
  1652 ;; Hardware stack levels required when called: 2
  1653 ;; This function calls:
  1654 ;;		___fladd
  1655 ;;		___fldiv
  1656 ;;		___flmul
  1657 ;;		___fltol
  1658 ;;		___xxtofl
  1659 ;;		_rand
  1660 ;; This function is called by:
  1661 ;;		_main
  1662 ;; This function uses a non-reentrant model
  1663 ;;
  1664                           
  1665  0000'                    _GetRandom:	
  1666                           ;psect for function _GetRandom
  1667                           
  1668                           
  1669                           ;incstack = 0
  1670                           ; Regs used in _GetRandom: [wreg+status,2+status,0+btemp+1+pclath+cstack]
  1671                           ;GetRandom@min stored from wreg
  1672  0000' 008D'              	movwf	GetRandom@min
  1673  0001'                    l2129:
  1674                           
  1675                           ;newmain.c: 37:     return min + (char)(rand()*(max-min+1.0)/(1.0+32767));
  1676  0001' 080D'              	movf	GetRandom@min,w
  1677  0002' 1683               	bsf	3,5	;RP0=1, select bank1
  1678  0003' 1303               	bcf	3,6	;RP1=0, select bank1
  1679  0004' 0200'              	subwf	GetRandom@max^(0+128),w
  1680  0005' 1283               	bcf	3,5	;RP0=0, select bank0
  1681  0006' 1303               	bcf	3,6	;RP1=0, select bank0
  1682  0007' 0087'              	movwf	___xxtofl@val
  1683  0008' 0188'              	clrf	___xxtofl@val+1
  1684  0009' 1C03               	skipc
  1685  000A' 0388'              	decf	___xxtofl@val+1,f
  1686  000B' 0189'              	clrf	___xxtofl@val+2
  1687  000C' 1B88'              	btfsc	___xxtofl@val+1,7
  1688  000D' 0389'              	decf	___xxtofl@val+2,f
  1689  000E' 0809'              	movf	___xxtofl@val+2,w
  1690  000F' 008A'              	movwf	___xxtofl@val+3
  1691  0010' 3001               	movlw	1
  1692  0011' 120A' 118A' 2000' 120A' 118A' 	fcall	___xxtofl
  1693  0016' 1283               	bcf	3,5	;RP0=0, select bank0
  1694  0017' 1303               	bcf	3,6	;RP1=0, select bank0
  1695  0018' 080A'              	movf	?___xxtofl+3,w
  1696  0019' 009C'              	movwf	___fladd@a+3
  1697  001A' 0809'              	movf	?___xxtofl+2,w
  1698  001B' 009B'              	movwf	___fladd@a+2
  1699  001C' 0808'              	movf	?___xxtofl+1,w
  1700  001D' 009A'              	movwf	___fladd@a+1
  1701  001E' 0807'              	movf	?___xxtofl,w
  1702  001F' 0099'              	movwf	___fladd@a
  1703  0020' 303F               	movlw	63
  1704  0021' 0098'              	movwf	___fladd@b+3
  1705  0022' 3080               	movlw	128
  1706  0023' 0097'              	movwf	___fladd@b+2
  1707  0024' 3000               	movlw	0
  1708  0025' 0096'              	movwf	___fladd@b+1
  1709  0026' 3000               	movlw	0
  1710  0027' 0095'              	movwf	___fladd@b
  1711  0028' 120A' 118A' 2000' 120A' 118A' 	fcall	___fladd
  1712  002D' 1283               	bcf	3,5	;RP0=0, select bank0
  1713  002E' 1303               	bcf	3,6	;RP1=0, select bank0
  1714  002F' 0818'              	movf	?___fladd+3,w
  1715  0030' 00B0'              	movwf	___flmul@a+3
  1716  0031' 0817'              	movf	?___fladd+2,w
  1717  0032' 00AF'              	movwf	___flmul@a+2
  1718  0033' 0816'              	movf	?___fladd+1,w
  1719  0034' 00AE'              	movwf	___flmul@a+1
  1720  0035' 0815'              	movf	?___fladd,w
  1721  0036' 00AD'              	movwf	___flmul@a
  1722  0037' 120A' 118A' 2000' 120A' 118A' 	fcall	_rand
  1723  003C' 1283               	bcf	3,5	;RP0=0, select bank0
  1724  003D' 1303               	bcf	3,6	;RP1=0, select bank0
  1725  003E' 0800'              	movf	?_rand,w
  1726  003F' 0087'              	movwf	___xxtofl@val
  1727  0040' 0801'              	movf	?_rand+1,w
  1728  0041' 0088'              	movwf	___xxtofl@val+1
  1729  0042' 3000               	movlw	0
  1730  0043' 1B88'              	btfsc	___xxtofl@val+1,7
  1731  0044' 30FF               	movlw	255
  1732  0045' 0089'              	movwf	___xxtofl@val+2
  1733  0046' 008A'              	movwf	___xxtofl@val+3
  1734  0047' 3001               	movlw	1
  1735  0048' 120A' 118A' 2000' 120A' 118A' 	fcall	___xxtofl
  1736  004D' 1283               	bcf	3,5	;RP0=0, select bank0
  1737  004E' 1303               	bcf	3,6	;RP1=0, select bank0
  1738  004F' 080A'              	movf	?___xxtofl+3,w
  1739  0050' 00AC'              	movwf	___flmul@b+3
  1740  0051' 0809'              	movf	?___xxtofl+2,w
  1741  0052' 00AB'              	movwf	___flmul@b+2
  1742  0053' 0808'              	movf	?___xxtofl+1,w
  1743  0054' 00AA'              	movwf	___flmul@b+1
  1744  0055' 0807'              	movf	?___xxtofl,w
  1745  0056' 00A9'              	movwf	___flmul@b
  1746  0057' 120A' 118A' 2000' 120A' 118A' 	fcall	___flmul
  1747  005C' 1283               	bcf	3,5	;RP0=0, select bank0
  1748  005D' 1303               	bcf	3,6	;RP1=0, select bank0
  1749  005E' 082C'              	movf	?___flmul+3,w
  1750  005F' 00CA'              	movwf	___fldiv@b+3
  1751  0060' 082B'              	movf	?___flmul+2,w
  1752  0061' 00C9'              	movwf	___fldiv@b+2
  1753  0062' 082A'              	movf	?___flmul+1,w
  1754  0063' 00C8'              	movwf	___fldiv@b+1
  1755  0064' 0829'              	movf	?___flmul,w
  1756  0065' 00C7'              	movwf	___fldiv@b
  1757  0066' 3047               	movlw	71
  1758  0067' 00C6'              	movwf	___fldiv@a+3
  1759  0068' 3000               	movlw	0
  1760  0069' 00C5'              	movwf	___fldiv@a+2
  1761  006A' 3000               	movlw	0
  1762  006B' 00C4'              	movwf	___fldiv@a+1
  1763  006C' 3000               	movlw	0
  1764  006D' 00C3'              	movwf	___fldiv@a
  1765  006E' 120A' 118A' 2000' 120A' 118A' 	fcall	___fldiv
  1766  0073' 1283               	bcf	3,5	;RP0=0, select bank0
  1767  0074' 1303               	bcf	3,6	;RP1=0, select bank0
  1768  0075' 0846'              	movf	?___fldiv+3,w
  1769  0076' 1683               	bsf	3,5	;RP0=1, select bank1
  1770  0077' 1303               	bcf	3,6	;RP1=0, select bank1
  1771  0078' 0080'              	movwf	(___fltol@f1+3)^(0+128)
  1772  0079' 1283               	bcf	3,5	;RP0=0, select bank0
  1773  007A' 1303               	bcf	3,6	;RP1=0, select bank0
  1774  007B' 0845'              	movf	?___fldiv+2,w
  1775  007C' 1683               	bsf	3,5	;RP0=1, select bank1
  1776  007D' 1303               	bcf	3,6	;RP1=0, select bank1
  1777  007E' 0080'              	movwf	(___fltol@f1+2)^(0+128)
  1778  007F' 1283               	bcf	3,5	;RP0=0, select bank0
  1779  0080' 1303               	bcf	3,6	;RP1=0, select bank0
  1780  0081' 0844'              	movf	?___fldiv+1,w
  1781  0082' 1683               	bsf	3,5	;RP0=1, select bank1
  1782  0083' 1303               	bcf	3,6	;RP1=0, select bank1
  1783  0084' 0080'              	movwf	(___fltol@f1+1)^(0+128)
  1784  0085' 1283               	bcf	3,5	;RP0=0, select bank0
  1785  0086' 1303               	bcf	3,6	;RP1=0, select bank0
  1786  0087' 0843'              	movf	?___fldiv,w
  1787  0088' 1683               	bsf	3,5	;RP0=1, select bank1
  1788  0089' 1303               	bcf	3,6	;RP1=0, select bank1
  1789  008A' 0080'              	movwf	___fltol@f1^(0+128)
  1790  008B' 120A' 118A' 2000' 120A' 118A' 	fcall	___fltol
  1791  0090' 080D'              	movf	GetRandom@min,w
  1792  0091' 1683               	bsf	3,5	;RP0=1, select bank1
  1793  0092' 1303               	bcf	3,6	;RP1=0, select bank1
  1794  0093' 0700'              	addwf	?___fltol^(0+128),w
  1795  0094'                    l47:
  1796  0094' 0008               	return
  1797  0095'                    __end_of_GetRandom:
  1798                           
  1799                           	psect	text9
  1800  0000'                    __ptext9:	
  1801 ;; *************** function _rand *****************
  1802 ;; Defined at:
  1803 ;;		line 12 in file "C:\Program Files\Microchip\xc8\v2.36\pic\sources\c90\common\rand.c"
  1804 ;; Parameters:    Size  Location     Type
  1805 ;;		None
  1806 ;; Auto vars:     Size  Location     Type
  1807 ;;		None
  1808 ;; Return value:  Size  Location     Type
  1809 ;;                  2    0[BANK0 ] int 
  1810 ;; Registers used:
  1811 ;;		wreg, status,2, status,0, pclath, cstack
  1812 ;; Tracked objects:
  1813 ;;		On entry : 0/0
  1814 ;;		On exit  : 0/0
  1815 ;;		Unchanged: 0/0
  1816 ;; Data sizes:     COMMON   BANK0   BANK1   BANK3   BANK2
  1817 ;;      Params:         0       2       0       0       0
  1818 ;;      Locals:         0       0       0       0       0
  1819 ;;      Temps:          0       5       0       0       0
  1820 ;;      Totals:         0       7       0       0       0
  1821 ;;Total ram usage:        7 bytes
  1822 ;; Hardware stack levels used: 1
  1823 ;; Hardware stack levels required when called: 1
  1824 ;; This function calls:
  1825 ;;		___lmul
  1826 ;; This function is called by:
  1827 ;;		_GetRandom
  1828 ;; This function uses a non-reentrant model
  1829 ;;
  1830                           
  1831  0000'                    _rand:	
  1832                           ;psect for function _rand
  1833                           
  1834  0000'                    l1513:	
  1835                           ;incstack = 0
  1836                           ; Regs used in _rand: [wreg+status,2+status,0+pclath+cstack]
  1837                           
  1838  0000' 1683               	bsf	3,5	;RP0=1, select bank1
  1839  0001' 1303               	bcf	3,6	;RP1=0, select bank1
  1840  0002' 0800'              	movf	(_randx+3)^(0+128),w
  1841  0003' 0083'              	movwf	___lmul@multiplier+3
  1842  0004' 0800'              	movf	(_randx+2)^(0+128),w
  1843  0005' 0082'              	movwf	___lmul@multiplier+2
  1844  0006' 0800'              	movf	(_randx+1)^(0+128),w
  1845  0007' 0081'              	movwf	___lmul@multiplier+1
  1846  0008' 0800'              	movf	_randx^(0+128),w
  1847  0009' 0080'              	movwf	___lmul@multiplier
  1848  000A' 3041               	movlw	65
  1849  000B' 0087'              	movwf	___lmul@multiplicand+3
  1850  000C' 30C6               	movlw	198
  1851  000D' 0086'              	movwf	___lmul@multiplicand+2
  1852  000E' 304E               	movlw	78
  1853  000F' 0085'              	movwf	___lmul@multiplicand+1
  1854  0010' 306D               	movlw	109
  1855  0011' 0084'              	movwf	___lmul@multiplicand
  1856  0012' 120A' 118A' 2000' 120A' 118A' 	fcall	___lmul
  1857  0017' 0803'              	movf	?___lmul+3,w
  1858  0018' 1683               	bsf	3,5	;RP0=1, select bank1
  1859  0019' 1303               	bcf	3,6	;RP1=0, select bank1
  1860  001A' 0080'              	movwf	(_randx+3)^(0+128)
  1861  001B' 0802'              	movf	?___lmul+2,w
  1862  001C' 0080'              	movwf	(_randx+2)^(0+128)
  1863  001D' 0801'              	movf	?___lmul+1,w
  1864  001E' 0080'              	movwf	(_randx+1)^(0+128)
  1865  001F' 0800'              	movf	?___lmul,w
  1866  0020' 0080'              	movwf	_randx^(0+128)
  1867  0021'                    l1515:
  1868  0021' 3039               	movlw	57
  1869  0022' 0780'              	addwf	_randx^(0+128),f
  1870  0023' 3030               	movlw	48
  1871  0024' 1803               	skipnc
  1872  0025' 3031               	movlw	49
  1873  0026' 0780'              	addwf	(_randx+1)^(0+128),f
  1874  0027' 3000               	movlw	0
  1875  0028' 1803               	skipnc
  1876  0029' 3001               	movlw	1
  1877  002A' 0780'              	addwf	(_randx+2)^(0+128),f
  1878  002B' 3000               	movlw	0
  1879  002C' 1803               	skipnc
  1880  002D' 3001               	movlw	1
  1881  002E' 0780'              	addwf	(_randx+3)^(0+128),f
  1882  002F'                    l1517:
  1883  002F' 0800'              	movf	_randx^(0+128),w
  1884  0030' 1283               	bcf	3,5	;RP0=0, select bank0
  1885  0031' 1303               	bcf	3,6	;RP1=0, select bank0
  1886  0032' 0082'              	movwf	??_rand
  1887  0033' 1683               	bsf	3,5	;RP0=1, select bank1
  1888  0034' 1303               	bcf	3,6	;RP1=0, select bank1
  1889  0035' 0800'              	movf	(_randx+1)^(0+128),w
  1890  0036' 1283               	bcf	3,5	;RP0=0, select bank0
  1891  0037' 1303               	bcf	3,6	;RP1=0, select bank0
  1892  0038' 0083'              	movwf	??_rand+1
  1893  0039' 1683               	bsf	3,5	;RP0=1, select bank1
  1894  003A' 1303               	bcf	3,6	;RP1=0, select bank1
  1895  003B' 0800'              	movf	(_randx+2)^(0+128),w
  1896  003C' 1283               	bcf	3,5	;RP0=0, select bank0
  1897  003D' 1303               	bcf	3,6	;RP1=0, select bank0
  1898  003E' 0084'              	movwf	??_rand+2
  1899  003F' 1683               	bsf	3,5	;RP0=1, select bank1
  1900  0040' 1303               	bcf	3,6	;RP1=0, select bank1
  1901  0041' 0800'              	movf	(_randx+3)^(0+128),w
  1902  0042' 1283               	bcf	3,5	;RP0=0, select bank0
  1903  0043' 1303               	bcf	3,6	;RP1=0, select bank0
  1904  0044' 0085'              	movwf	??_rand+3
  1905  0045' 3010               	movlw	16
  1906  0046' 0086'              	movwf	??_rand+4
  1907  0047'                    u1805:
  1908  0047' 0D05'              	rlf	??_rand+3,w
  1909  0048' 0C85'              	rrf	??_rand+3,f
  1910  0049' 0C84'              	rrf	??_rand+2,f
  1911  004A' 0C83'              	rrf	??_rand+1,f
  1912  004B' 0C82'              	rrf	??_rand,f
  1913  004C'                    u1800:
  1914  004C' 0B86'              	decfsz	??_rand+4,f
  1915  004D' 2800'              	goto	u1805
  1916  004E' 30FF               	movlw	255
  1917  004F' 0502'              	andwf	??_rand,w
  1918  0050' 0080'              	movwf	?_rand
  1919  0051' 307F               	movlw	127
  1920  0052' 0503'              	andwf	??_rand+1,w
  1921  0053' 0081'              	movwf	?_rand+1
  1922  0054'                    l655:
  1923  0054' 0008               	return
  1924  0055'                    __end_of_rand:
  1925                           
  1926                           	psect	text10
  1927  0000'                    __ptext10:	
  1928 ;; *************** function ___lmul *****************
  1929 ;; Defined at:
  1930 ;;		line 15 in file "C:\Program Files\Microchip\xc8\v2.36\pic\sources\c90\common\Umul32.c"
  1931 ;; Parameters:    Size  Location     Type
  1932 ;;  multiplier      4    0[COMMON] unsigned long 
  1933 ;;  multiplicand    4    4[COMMON] unsigned long 
  1934 ;; Auto vars:     Size  Location     Type
  1935 ;;  product         4    9[COMMON] unsigned long 
  1936 ;; Return value:  Size  Location     Type
  1937 ;;                  4    0[COMMON] unsigned long 
  1938 ;; Registers used:
  1939 ;;		wreg, status,2, status,0
  1940 ;; Tracked objects:
  1941 ;;		On entry : 0/0
  1942 ;;		On exit  : 0/0
  1943 ;;		Unchanged: 0/0
  1944 ;; Data sizes:     COMMON   BANK0   BANK1   BANK3   BANK2
  1945 ;;      Params:         8       0       0       0       0
  1946 ;;      Locals:         4       0       0       0       0
  1947 ;;      Temps:          1       0       0       0       0
  1948 ;;      Totals:        13       0       0       0       0
  1949 ;;Total ram usage:       13 bytes
  1950 ;; Hardware stack levels used: 1
  1951 ;; This function calls:
  1952 ;;		Nothing
  1953 ;; This function is called by:
  1954 ;;		_rand
  1955 ;; This function uses a non-reentrant model
  1956 ;;
  1957                           
  1958  0000'                    ___lmul:	
  1959                           ;psect for function ___lmul
  1960                           
  1961  0000'                    l1485:	
  1962                           ;incstack = 0
  1963                           ; Regs used in ___lmul: [wreg+status,2+status,0]
  1964                           
  1965  0000' 3000               	movlw	0
  1966  0001' 008C'              	movwf	___lmul@product+3
  1967  0002' 3000               	movlw	0
  1968  0003' 008B'              	movwf	___lmul@product+2
  1969  0004' 3000               	movlw	0
  1970  0005' 008A'              	movwf	___lmul@product+1
  1971  0006' 3000               	movlw	0
  1972  0007' 0089'              	movwf	___lmul@product
  1973  0008'                    l1487:
  1974  0008' 1C00'              	btfss	___lmul@multiplier,0
  1975  0009' 2800'              	goto	u1721
  1976  000A' 2800'              	goto	u1720
  1977  000B'                    u1721:
  1978  000B' 2800'              	goto	l1491
  1979  000C'                    u1720:
  1980  000C'                    l1489:
  1981  000C' 0804'              	movf	___lmul@multiplicand,w
  1982  000D' 0789'              	addwf	___lmul@product,f
  1983  000E' 0805'              	movf	___lmul@multiplicand+1,w
  1984  000F' 1103               	clrz
  1985  0010' 1803               	skipnc
  1986  0011' 3E01               	addlw	1
  1987  0012' 1903               	skipnz
  1988  0013' 2800'              	goto	u1731
  1989  0014' 078A'              	addwf	___lmul@product+1,f
  1990  0015'                    u1731:
  1991  0015' 0806'              	movf	___lmul@multiplicand+2,w
  1992  0016' 1103               	clrz
  1993  0017' 1803               	skipnc
  1994  0018' 3E01               	addlw	1
  1995  0019' 1903               	skipnz
  1996  001A' 2800'              	goto	u1732
  1997  001B' 078B'              	addwf	___lmul@product+2,f
  1998  001C'                    u1732:
  1999  001C' 0807'              	movf	___lmul@multiplicand+3,w
  2000  001D' 1103               	clrz
  2001  001E' 1803               	skipnc
  2002  001F' 3E01               	addlw	1
  2003  0020' 1903               	skipnz
  2004  0021' 2800'              	goto	u1733
  2005  0022' 078C'              	addwf	___lmul@product+3,f
  2006  0023'                    u1733:
  2007  0023'                    l1491:
  2008  0023' 3001               	movlw	1
  2009  0024' 0088'              	movwf	??___lmul
  2010  0025'                    u1745:
  2011  0025' 1003               	clrc
  2012  0026' 0D84'              	rlf	___lmul@multiplicand,f
  2013  0027' 0D85'              	rlf	___lmul@multiplicand+1,f
  2014  0028' 0D86'              	rlf	___lmul@multiplicand+2,f
  2015  0029' 0D87'              	rlf	___lmul@multiplicand+3,f
  2016  002A' 0B88'              	decfsz	??___lmul,f
  2017  002B' 2800'              	goto	u1745
  2018  002C'                    l1493:
  2019  002C' 3001               	movlw	1
  2020  002D'                    u1755:
  2021  002D' 1003               	clrc
  2022  002E' 0C83'              	rrf	___lmul@multiplier+3,f
  2023  002F' 0C82'              	rrf	___lmul@multiplier+2,f
  2024  0030' 0C81'              	rrf	___lmul@multiplier+1,f
  2025  0031' 0C80'              	rrf	___lmul@multiplier,f
  2026  0032' 3EFF               	addlw	-1
  2027  0033' 1D03               	skipz
  2028  0034' 2800'              	goto	u1755
  2029  0035' 0803'              	movf	___lmul@multiplier+3,w
  2030  0036' 0402'              	iorwf	___lmul@multiplier+2,w
  2031  0037' 0401'              	iorwf	___lmul@multiplier+1,w
  2032  0038' 0400'              	iorwf	___lmul@multiplier,w
  2033  0039' 1D03               	skipz
  2034  003A' 2800'              	goto	u1761
  2035  003B' 2800'              	goto	u1760
  2036  003C'                    u1761:
  2037  003C' 2800'              	goto	l1487
  2038  003D'                    u1760:
  2039  003D'                    l1495:
  2040  003D' 080C'              	movf	___lmul@product+3,w
  2041  003E' 0083'              	movwf	?___lmul+3
  2042  003F' 080B'              	movf	___lmul@product+2,w
  2043  0040' 0082'              	movwf	?___lmul+2
  2044  0041' 080A'              	movf	___lmul@product+1,w
  2045  0042' 0081'              	movwf	?___lmul+1
  2046  0043' 0809'              	movf	___lmul@product,w
  2047  0044' 0080'              	movwf	?___lmul
  2048  0045'                    l213:
  2049  0045' 0008               	return
  2050  0046'                    __end_of___lmul:
  2051                           
  2052                           	psect	text11
  2053  0000'                    __ptext11:	
  2054 ;; *************** function ___xxtofl *****************
  2055 ;; Defined at:
  2056 ;;		line 10 in file "C:\Program Files\Microchip\xc8\v2.36\pic\sources\c90\common\xxtofl.c"
  2057 ;; Parameters:    Size  Location     Type
  2058 ;;  sign            1    wreg     unsigned char 
  2059 ;;  val             4    7[BANK0 ] long 
  2060 ;; Auto vars:     Size  Location     Type
  2061 ;;  sign            1   15[BANK0 ] unsigned char 
  2062 ;;  arg             4   17[BANK0 ] unsigned long 
  2063 ;;  exp             1   16[BANK0 ] unsigned char 
  2064 ;; Return value:  Size  Location     Type
  2065 ;;                  4    7[BANK0 ] unsigned char 
  2066 ;; Registers used:
  2067 ;;		wreg, status,2, status,0
  2068 ;; Tracked objects:
  2069 ;;		On entry : 0/0
  2070 ;;		On exit  : 0/0
  2071 ;;		Unchanged: 0/0
  2072 ;; Data sizes:     COMMON   BANK0   BANK1   BANK3   BANK2
  2073 ;;      Params:         0       4       0       0       0
  2074 ;;      Locals:         0       6       0       0       0
  2075 ;;      Temps:          0       4       0       0       0
  2076 ;;      Totals:         0      14       0       0       0
  2077 ;;Total ram usage:       14 bytes
  2078 ;; Hardware stack levels used: 1
  2079 ;; This function calls:
  2080 ;;		Nothing
  2081 ;; This function is called by:
  2082 ;;		_GetRandom
  2083 ;; This function uses a non-reentrant model
  2084 ;;
  2085                           
  2086  0000'                    ___xxtofl:	
  2087                           ;psect for function ___xxtofl
  2088                           
  2089                           
  2090                           ;incstack = 0
  2091                           ; Regs used in ___xxtofl: [wreg+status,2+status,0]
  2092                           ;___xxtofl@sign stored from wreg
  2093  0000' 1283               	bcf	3,5	;RP0=0, select bank0
  2094  0001' 1303               	bcf	3,6	;RP1=0, select bank0
  2095  0002' 008F'              	movwf	___xxtofl@sign
  2096  0003'                    l2085:
  2097  0003' 080F'              	movf	___xxtofl@sign,w
  2098  0004' 1903               	btfsc	3,2
  2099  0005' 2800'              	goto	u3181
  2100  0006' 2800'              	goto	u3180
  2101  0007'                    u3181:
  2102  0007' 2800'              	goto	l2091
  2103  0008'                    u3180:
  2104  0008'                    l2087:
  2105  0008' 1F8A'              	btfss	___xxtofl@val+3,7
  2106  0009' 2800'              	goto	u3191
  2107  000A' 2800'              	goto	u3190
  2108  000B'                    u3191:
  2109  000B' 2800'              	goto	l2091
  2110  000C'                    u3190:
  2111  000C'                    l2089:
  2112  000C' 0907'              	comf	___xxtofl@val,w
  2113  000D' 0091'              	movwf	___xxtofl@arg
  2114  000E' 0908'              	comf	___xxtofl@val+1,w
  2115  000F' 0092'              	movwf	___xxtofl@arg+1
  2116  0010' 0909'              	comf	___xxtofl@val+2,w
  2117  0011' 0093'              	movwf	___xxtofl@arg+2
  2118  0012' 090A'              	comf	___xxtofl@val+3,w
  2119  0013' 0094'              	movwf	___xxtofl@arg+3
  2120  0014' 0A91'              	incf	___xxtofl@arg,f
  2121  0015' 1903               	skipnz
  2122  0016' 0A92'              	incf	___xxtofl@arg+1,f
  2123  0017' 1903               	skipnz
  2124  0018' 0A93'              	incf	___xxtofl@arg+2,f
  2125  0019' 1903               	skipnz
  2126  001A' 0A94'              	incf	___xxtofl@arg+3,f
  2127  001B' 2800'              	goto	l632
  2128  001C'                    l2091:
  2129  001C' 080A'              	movf	___xxtofl@val+3,w
  2130  001D' 0094'              	movwf	___xxtofl@arg+3
  2131  001E' 0809'              	movf	___xxtofl@val+2,w
  2132  001F' 0093'              	movwf	___xxtofl@arg+2
  2133  0020' 0808'              	movf	___xxtofl@val+1,w
  2134  0021' 0092'              	movwf	___xxtofl@arg+1
  2135  0022' 0807'              	movf	___xxtofl@val,w
  2136  0023' 0091'              	movwf	___xxtofl@arg
  2137  0024'                    l632:
  2138  0024' 080A'              	movf	___xxtofl@val+3,w
  2139  0025' 0409'              	iorwf	___xxtofl@val+2,w
  2140  0026' 0408'              	iorwf	___xxtofl@val+1,w
  2141  0027' 0407'              	iorwf	___xxtofl@val,w
  2142  0028' 1D03               	skipz
  2143  0029' 2800'              	goto	u3201
  2144  002A' 2800'              	goto	u3200
  2145  002B'                    u3201:
  2146  002B' 2800'              	goto	l2097
  2147  002C'                    u3200:
  2148  002C'                    l2093:
  2149  002C' 3000               	movlw	0
  2150  002D' 008A'              	movwf	?___xxtofl+3
  2151  002E' 3000               	movlw	0
  2152  002F' 0089'              	movwf	?___xxtofl+2
  2153  0030' 3000               	movlw	0
  2154  0031' 0088'              	movwf	?___xxtofl+1
  2155  0032' 3000               	movlw	0
  2156  0033' 0087'              	movwf	?___xxtofl
  2157  0034' 2800'              	goto	l634
  2158  0035'                    l2097:
  2159  0035' 3096               	movlw	150
  2160  0036' 008B'              	movwf	??___xxtofl
  2161  0037' 080B'              	movf	??___xxtofl,w
  2162  0038' 0090'              	movwf	___xxtofl@exp
  2163  0039' 2800'              	goto	l2101
  2164  003A'                    l2099:
  2165  003A' 3001               	movlw	1
  2166  003B' 008B'              	movwf	??___xxtofl
  2167  003C' 080B'              	movf	??___xxtofl,w
  2168  003D' 0790'              	addwf	___xxtofl@exp,f
  2169  003E' 3001               	movlw	1
  2170  003F'                    u3215:
  2171  003F' 1003               	clrc
  2172  0040' 0C94'              	rrf	___xxtofl@arg+3,f
  2173  0041' 0C93'              	rrf	___xxtofl@arg+2,f
  2174  0042' 0C92'              	rrf	___xxtofl@arg+1,f
  2175  0043' 0C91'              	rrf	___xxtofl@arg,f
  2176  0044' 3EFF               	addlw	-1
  2177  0045' 1D03               	skipz
  2178  0046' 2800'              	goto	u3215
  2179  0047'                    l2101:
  2180  0047' 30FE               	movlw	254
  2181  0048' 0514'              	andwf	___xxtofl@arg+3,w
  2182  0049' 1D03               	btfss	3,2
  2183  004A' 2800'              	goto	u3221
  2184  004B' 2800'              	goto	u3220
  2185  004C'                    u3221:
  2186  004C' 2800'              	goto	l2099
  2187  004D'                    u3220:
  2188  004D' 2800'              	goto	l638
  2189  004E'                    l2103:
  2190  004E' 3001               	movlw	1
  2191  004F' 008B'              	movwf	??___xxtofl
  2192  0050' 080B'              	movf	??___xxtofl,w
  2193  0051' 0790'              	addwf	___xxtofl@exp,f
  2194  0052'                    l2105:
  2195  0052' 3001               	movlw	1
  2196  0053' 0791'              	addwf	___xxtofl@arg,f
  2197  0054' 3000               	movlw	0
  2198  0055' 1803               	skipnc
  2199  0056' 3001               	movlw	1
  2200  0057' 0792'              	addwf	___xxtofl@arg+1,f
  2201  0058' 3000               	movlw	0
  2202  0059' 1803               	skipnc
  2203  005A' 3001               	movlw	1
  2204  005B' 0793'              	addwf	___xxtofl@arg+2,f
  2205  005C' 3000               	movlw	0
  2206  005D' 1803               	skipnc
  2207  005E' 3001               	movlw	1
  2208  005F' 0794'              	addwf	___xxtofl@arg+3,f
  2209  0060'                    l2107:
  2210  0060' 3001               	movlw	1
  2211  0061'                    u3235:
  2212  0061' 1003               	clrc
  2213  0062' 0C94'              	rrf	___xxtofl@arg+3,f
  2214  0063' 0C93'              	rrf	___xxtofl@arg+2,f
  2215  0064' 0C92'              	rrf	___xxtofl@arg+1,f
  2216  0065' 0C91'              	rrf	___xxtofl@arg,f
  2217  0066' 3EFF               	addlw	-1
  2218  0067' 1D03               	skipz
  2219  0068' 2800'              	goto	u3235
  2220  0069'                    l638:
  2221  0069' 30FF               	movlw	255
  2222  006A' 0514'              	andwf	___xxtofl@arg+3,w
  2223  006B' 1D03               	btfss	3,2
  2224  006C' 2800'              	goto	u3241
  2225  006D' 2800'              	goto	u3240
  2226  006E'                    u3241:
  2227  006E' 2800'              	goto	l2103
  2228  006F'                    u3240:
  2229  006F' 2800'              	goto	l2111
  2230  0070'                    l2109:
  2231  0070' 3001               	movlw	1
  2232  0071' 0290'              	subwf	___xxtofl@exp,f
  2233  0072' 3001               	movlw	1
  2234  0073' 008B'              	movwf	??___xxtofl
  2235  0074'                    u3255:
  2236  0074' 1003               	clrc
  2237  0075' 0D91'              	rlf	___xxtofl@arg,f
  2238  0076' 0D92'              	rlf	___xxtofl@arg+1,f
  2239  0077' 0D93'              	rlf	___xxtofl@arg+2,f
  2240  0078' 0D94'              	rlf	___xxtofl@arg+3,f
  2241  0079' 0B8B'              	decfsz	??___xxtofl,f
  2242  007A' 2800'              	goto	u3255
  2243  007B'                    l2111:
  2244  007B' 1B93'              	btfsc	___xxtofl@arg+2,7
  2245  007C' 2800'              	goto	u3261
  2246  007D' 2800'              	goto	u3260
  2247  007E'                    u3261:
  2248  007E' 2800'              	goto	l645
  2249  007F'                    u3260:
  2250  007F'                    l2113:
  2251  007F' 3002               	movlw	2
  2252  0080' 0210'              	subwf	___xxtofl@exp,w
  2253  0081' 1803               	skipnc
  2254  0082' 2800'              	goto	u3271
  2255  0083' 2800'              	goto	u3270
  2256  0084'                    u3271:
  2257  0084' 2800'              	goto	l2109
  2258  0085'                    u3270:
  2259  0085'                    l645:
  2260  0085' 1810'              	btfsc	___xxtofl@exp,0
  2261  0086' 2800'              	goto	u3281
  2262  0087' 2800'              	goto	u3280
  2263  0088'                    u3281:
  2264  0088' 2800'              	goto	l646
  2265  0089'                    u3280:
  2266  0089'                    l2115:
  2267  0089' 30FF               	movlw	255
  2268  008A' 0591'              	andwf	___xxtofl@arg,f
  2269  008B' 30FF               	movlw	255
  2270  008C' 0592'              	andwf	___xxtofl@arg+1,f
  2271  008D' 307F               	movlw	127
  2272  008E' 0593'              	andwf	___xxtofl@arg+2,f
  2273  008F' 30FF               	movlw	255
  2274  0090' 0594'              	andwf	___xxtofl@arg+3,f
  2275  0091'                    l646:
  2276  0091' 1003               	clrc
  2277  0092' 0C90'              	rrf	___xxtofl@exp,f
  2278  0093'                    l2117:
  2279  0093' 0810'              	movf	___xxtofl@exp,w
  2280  0094' 008B'              	movwf	??___xxtofl
  2281  0095' 018C'              	clrf	??___xxtofl+1
  2282  0096' 018D'              	clrf	??___xxtofl+2
  2283  0097' 018E'              	clrf	??___xxtofl+3
  2284  0098' 3018               	movlw	24
  2285  0099'                    u3295:
  2286  0099' 1003               	clrc
  2287  009A' 0D8B'              	rlf	??___xxtofl,f
  2288  009B' 0D8C'              	rlf	??___xxtofl+1,f
  2289  009C' 0D8D'              	rlf	??___xxtofl+2,f
  2290  009D' 0D8E'              	rlf	??___xxtofl+3,f
  2291  009E'                    u3290:
  2292  009E' 3EFF               	addlw	-1
  2293  009F' 1D03               	skipz
  2294  00A0' 2800'              	goto	u3295
  2295  00A1' 080B'              	movf	??___xxtofl,w
  2296  00A2' 0491'              	iorwf	___xxtofl@arg,f
  2297  00A3' 080C'              	movf	??___xxtofl+1,w
  2298  00A4' 0492'              	iorwf	___xxtofl@arg+1,f
  2299  00A5' 080D'              	movf	??___xxtofl+2,w
  2300  00A6' 0493'              	iorwf	___xxtofl@arg+2,f
  2301  00A7' 080E'              	movf	??___xxtofl+3,w
  2302  00A8' 0494'              	iorwf	___xxtofl@arg+3,f
  2303  00A9'                    l2119:
  2304  00A9' 080F'              	movf	___xxtofl@sign,w
  2305  00AA' 1903               	btfsc	3,2
  2306  00AB' 2800'              	goto	u3301
  2307  00AC' 2800'              	goto	u3300
  2308  00AD'                    u3301:
  2309  00AD' 2800'              	goto	l2125
  2310  00AE'                    u3300:
  2311  00AE'                    l2121:
  2312  00AE' 1F8A'              	btfss	___xxtofl@val+3,7
  2313  00AF' 2800'              	goto	u3311
  2314  00B0' 2800'              	goto	u3310
  2315  00B1'                    u3311:
  2316  00B1' 2800'              	goto	l2125
  2317  00B2'                    u3310:
  2318  00B2'                    l2123:
  2319  00B2' 1794'              	bsf	___xxtofl@arg+3,7
  2320  00B3'                    l2125:
  2321  00B3' 0814'              	movf	___xxtofl@arg+3,w
  2322  00B4' 008A'              	movwf	?___xxtofl+3
  2323  00B5' 0813'              	movf	___xxtofl@arg+2,w
  2324  00B6' 0089'              	movwf	?___xxtofl+2
  2325  00B7' 0812'              	movf	___xxtofl@arg+1,w
  2326  00B8' 0088'              	movwf	?___xxtofl+1
  2327  00B9' 0811'              	movf	___xxtofl@arg,w
  2328  00BA' 0087'              	movwf	?___xxtofl
  2329  00BB'                    l634:
  2330  00BB' 0008               	return
  2331  00BC'                    __end_of___xxtofl:
  2332                           
  2333                           	psect	text12
  2334  0000'                    __ptext12:	
  2335 ;; *************** function ___fltol *****************
  2336 ;; Defined at:
  2337 ;;		line 43 in file "C:\Program Files\Microchip\xc8\v2.36\pic\sources\c90\common\fltol.c"
  2338 ;; Parameters:    Size  Location     Type
  2339 ;;  f1              4   13[BANK1 ] unsigned char 
  2340 ;; Auto vars:     Size  Location     Type
  2341 ;;  exp1            1   23[BANK1 ] unsigned char 
  2342 ;;  sign1           1   22[BANK1 ] unsigned char 
  2343 ;; Return value:  Size  Location     Type
  2344 ;;                  4   13[BANK1 ] long 
  2345 ;; Registers used:
  2346 ;;		wreg, status,2, status,0
  2347 ;; Tracked objects:
  2348 ;;		On entry : 0/0
  2349 ;;		On exit  : 0/0
  2350 ;;		Unchanged: 0/0
  2351 ;; Data sizes:     COMMON   BANK0   BANK1   BANK3   BANK2
  2352 ;;      Params:         0       0       4       0       0
  2353 ;;      Locals:         0       0       2       0       0
  2354 ;;      Temps:          0       0       5       0       0
  2355 ;;      Totals:         0       0      11       0       0
  2356 ;;Total ram usage:       11 bytes
  2357 ;; Hardware stack levels used: 1
  2358 ;; This function calls:
  2359 ;;		Nothing
  2360 ;; This function is called by:
  2361 ;;		_GetRandom
  2362 ;; This function uses a non-reentrant model
  2363 ;;
  2364                           
  2365  0000'                    ___fltol:	
  2366                           ;psect for function ___fltol
  2367                           
  2368  0000'                    l1525:	
  2369                           ;incstack = 0
  2370                           ; Regs used in ___fltol: [wreg+status,2+status,0]
  2371                           
  2372  0000' 1003               	clrc
  2373  0001' 1683               	bsf	3,5	;RP0=1, select bank1
  2374  0002' 1303               	bcf	3,6	;RP1=0, select bank1
  2375  0003' 0D00'              	rlf	(___fltol@f1+2)^(0+128),w
  2376  0004' 0D00'              	rlf	(___fltol@f1+3)^(0+128),w
  2377  0005' 0080'              	movwf	??___fltol^(0+128)
  2378  0006' 0800'              	movf	??___fltol^(0+128),w
  2379  0007' 0080'              	movwf	___fltol@exp1^(0+128)
  2380  0008' 0800'              	movf	___fltol@exp1^(0+128),w
  2381  0009' 1D03               	btfss	3,2
  2382  000A' 2800'              	goto	u1821
  2383  000B' 2800'              	goto	u1820
  2384  000C'                    u1821:
  2385  000C' 2800'              	goto	l1531
  2386  000D'                    u1820:
  2387  000D'                    l1527:
  2388  000D' 3000               	movlw	0
  2389  000E' 0080'              	movwf	(?___fltol+3)^(0+128)
  2390  000F' 3000               	movlw	0
  2391  0010' 0080'              	movwf	(?___fltol+2)^(0+128)
  2392  0011' 3000               	movlw	0
  2393  0012' 0080'              	movwf	(?___fltol+1)^(0+128)
  2394  0013' 3000               	movlw	0
  2395  0014' 0080'              	movwf	?___fltol^(0+128)
  2396  0015' 2800'              	goto	l385
  2397  0016'                    l1531:
  2398  0016' 0800'              	movf	___fltol@f1^(0+128),w
  2399  0017' 0080'              	movwf	??___fltol^(0+128)
  2400  0018' 0800'              	movf	(___fltol@f1+1)^(0+128),w
  2401  0019' 0081'              	movwf	(??___fltol^(0+128)+1)
  2402  001A' 0800'              	movf	(___fltol@f1+2)^(0+128),w
  2403  001B' 0082'              	movwf	(??___fltol^(0+128)+2)
  2404  001C' 0800'              	movf	(___fltol@f1+3)^(0+128),w
  2405  001D' 0083'              	movwf	(??___fltol^(0+128)+3)
  2406  001E' 301F               	movlw	31
  2407  001F'                    u1835:
  2408  001F' 1003               	clrc
  2409  0020' 0C83'              	rrf	(??___fltol^(0+128)+3),f
  2410  0021' 0C82'              	rrf	(??___fltol^(0+128)+2),f
  2411  0022' 0C81'              	rrf	(??___fltol^(0+128)+1),f
  2412  0023' 0C80'              	rrf	??___fltol^(0+128),f
  2413  0024'                    u1830:
  2414  0024' 3EFF               	addlw	-1
  2415  0025' 1D03               	skipz
  2416  0026' 2800'              	goto	u1835
  2417  0027' 0800'              	movf	??___fltol^(0+128),w
  2418  0028' 0080'              	movwf	(??___fltol+4)^(0+128)
  2419  0029' 0800'              	movf	(??___fltol+4)^(0+128),w
  2420  002A' 0080'              	movwf	___fltol@sign1^(0+128)
  2421  002B'                    l1533:
  2422  002B' 1782'              	bsf	(___fltol@f1^(0+128)+2),7
  2423  002C'                    l1535:
  2424  002C' 30FF               	movlw	255
  2425  002D' 0580'              	andwf	___fltol@f1^(0+128),f
  2426  002E' 30FF               	movlw	255
  2427  002F' 0580'              	andwf	(___fltol@f1+1)^(0+128),f
  2428  0030' 30FF               	movlw	255
  2429  0031' 0580'              	andwf	(___fltol@f1+2)^(0+128),f
  2430  0032' 3000               	movlw	0
  2431  0033' 0580'              	andwf	(___fltol@f1+3)^(0+128),f
  2432  0034'                    l1537:
  2433  0034' 3096               	movlw	150
  2434  0035' 0280'              	subwf	___fltol@exp1^(0+128),f
  2435  0036'                    l1539:
  2436  0036' 1F80'              	btfss	___fltol@exp1^(0+128),7
  2437  0037' 2800'              	goto	u1841
  2438  0038' 2800'              	goto	u1840
  2439  0039'                    u1841:
  2440  0039' 2800'              	goto	l1549
  2441  003A'                    u1840:
  2442  003A'                    l1541:
  2443  003A' 0800'              	movf	___fltol@exp1^(0+128),w
  2444  003B' 3A80               	xorlw	128
  2445  003C' 3E97               	addlw	151
  2446  003D' 1803               	skipnc
  2447  003E' 2800'              	goto	u1851
  2448  003F' 2800'              	goto	u1850
  2449  0040'                    u1851:
  2450  0040' 2800'              	goto	l1547
  2451  0041'                    u1850:
  2452  0041' 2800'              	goto	l1527
  2453  0042'                    l1547:
  2454  0042' 3001               	movlw	1
  2455  0043'                    u1865:
  2456  0043' 1003               	clrc
  2457  0044' 0C80'              	rrf	(___fltol@f1+3)^(0+128),f
  2458  0045' 0C80'              	rrf	(___fltol@f1+2)^(0+128),f
  2459  0046' 0C80'              	rrf	(___fltol@f1+1)^(0+128),f
  2460  0047' 0C80'              	rrf	___fltol@f1^(0+128),f
  2461  0048' 3EFF               	addlw	-1
  2462  0049' 1D03               	skipz
  2463  004A' 2800'              	goto	u1865
  2464  004B' 3001               	movlw	1
  2465  004C' 0080'              	movwf	??___fltol^(0+128)
  2466  004D' 0800'              	movf	??___fltol^(0+128),w
  2467  004E' 0780'              	addwf	___fltol@exp1^(0+128),f
  2468  004F' 1D03               	btfss	3,2
  2469  0050' 2800'              	goto	u1871
  2470  0051' 2800'              	goto	u1870
  2471  0052'                    u1871:
  2472  0052' 2800'              	goto	l1547
  2473  0053'                    u1870:
  2474  0053' 2800'              	goto	l1557
  2475  0054'                    l1549:
  2476  0054' 3020               	movlw	32
  2477  0055' 0200'              	subwf	___fltol@exp1^(0+128),w
  2478  0056' 1C03               	skipc
  2479  0057' 2800'              	goto	u1881
  2480  0058' 2800'              	goto	u1880
  2481  0059'                    u1881:
  2482  0059' 2800'              	goto	l392
  2483  005A'                    u1880:
  2484  005A' 2800'              	goto	l1527
  2485  005B'                    l1555:
  2486  005B' 3001               	movlw	1
  2487  005C' 0080'              	movwf	??___fltol^(0+128)
  2488  005D'                    u1895:
  2489  005D' 1003               	clrc
  2490  005E' 0D80'              	rlf	___fltol@f1^(0+128),f
  2491  005F' 0D80'              	rlf	(___fltol@f1+1)^(0+128),f
  2492  0060' 0D80'              	rlf	(___fltol@f1+2)^(0+128),f
  2493  0061' 0D80'              	rlf	(___fltol@f1+3)^(0+128),f
  2494  0062' 0B80'              	decfsz	??___fltol^(0+128),f
  2495  0063' 2800'              	goto	u1895
  2496  0064' 3001               	movlw	1
  2497  0065' 0280'              	subwf	___fltol@exp1^(0+128),f
  2498  0066'                    l392:
  2499  0066' 0800'              	movf	___fltol@exp1^(0+128),w
  2500  0067' 1D03               	btfss	3,2
  2501  0068' 2800'              	goto	u1901
  2502  0069' 2800'              	goto	u1900
  2503  006A'                    u1901:
  2504  006A' 2800'              	goto	l1555
  2505  006B'                    u1900:
  2506  006B'                    l1557:
  2507  006B' 0800'              	movf	___fltol@sign1^(0+128),w
  2508  006C' 1903               	btfsc	3,2
  2509  006D' 2800'              	goto	u1911
  2510  006E' 2800'              	goto	u1910
  2511  006F'                    u1911:
  2512  006F' 2800'              	goto	l395
  2513  0070'                    u1910:
  2514  0070'                    l1559:
  2515  0070' 0980'              	comf	___fltol@f1^(0+128),f
  2516  0071' 0980'              	comf	(___fltol@f1+1)^(0+128),f
  2517  0072' 0980'              	comf	(___fltol@f1+2)^(0+128),f
  2518  0073' 0980'              	comf	(___fltol@f1+3)^(0+128),f
  2519  0074' 0A80'              	incf	___fltol@f1^(0+128),f
  2520  0075' 1903               	skipnz
  2521  0076' 0A80'              	incf	(___fltol@f1+1)^(0+128),f
  2522  0077' 1903               	skipnz
  2523  0078' 0A80'              	incf	(___fltol@f1+2)^(0+128),f
  2524  0079' 1903               	skipnz
  2525  007A' 0A80'              	incf	(___fltol@f1+3)^(0+128),f
  2526  007B'                    l395:
  2527  007B'                    l385:
  2528  007B' 0008               	return
  2529  007C'                    __end_of___fltol:
  2530                           
  2531                           	psect	text13
  2532  0000'                    __ptext13:	
  2533 ;; *************** function ___flmul *****************
  2534 ;; Defined at:
  2535 ;;		line 8 in file "C:\Program Files\Microchip\xc8\v2.36\pic\sources\c90\common\sprcmul.c"
  2536 ;; Parameters:    Size  Location     Type
  2537 ;;  b               4   41[BANK0 ] long 
  2538 ;;  a               4   45[BANK0 ] long 
  2539 ;; Auto vars:     Size  Location     Type
  2540 ;;  prod            4   61[BANK0 ] struct .
  2541 ;;  grs             4   55[BANK0 ] unsigned long 
  2542 ;;  temp            2   65[BANK0 ] struct .
  2543 ;;  bexp            1   60[BANK0 ] unsigned char 
  2544 ;;  aexp            1   59[BANK0 ] unsigned char 
  2545 ;;  sign            1   54[BANK0 ] unsigned char 
  2546 ;; Return value:  Size  Location     Type
  2547 ;;                  4   41[BANK0 ] unsigned char 
  2548 ;; Registers used:
  2549 ;;		wreg, status,2, status,0, btemp+1, pclath, cstack
  2550 ;; Tracked objects:
  2551 ;;		On entry : 0/0
  2552 ;;		On exit  : 0/0
  2553 ;;		Unchanged: 0/0
  2554 ;; Data sizes:     COMMON   BANK0   BANK1   BANK3   BANK2
  2555 ;;      Params:         0       8       0       0       0
  2556 ;;      Locals:         0      13       0       0       0
  2557 ;;      Temps:          0       5       0       0       0
  2558 ;;      Totals:         0      26       0       0       0
  2559 ;;Total ram usage:       26 bytes
  2560 ;; Hardware stack levels used: 1
  2561 ;; Hardware stack levels required when called: 1
  2562 ;; This function calls:
  2563 ;;		__Umul8_16
  2564 ;; This function is called by:
  2565 ;;		_GetRandom
  2566 ;; This function uses a non-reentrant model
  2567 ;;
  2568                           
  2569  0000'                    ___flmul:	
  2570                           ;psect for function ___flmul
  2571                           
  2572  0000'                    l1945:	
  2573                           ;incstack = 0
  2574                           ; Regs used in ___flmul: [wreg+status,2+status,0+btemp+1+pclath+cstack]
  2575                           
  2576  0000' 1283               	bcf	3,5	;RP0=0, select bank0
  2577  0001' 1303               	bcf	3,6	;RP1=0, select bank0
  2578  0002' 082C'              	movf	___flmul@b+3,w
  2579  0003' 3980               	andlw	128
  2580  0004' 00B1'              	movwf	??___flmul
  2581  0005' 0831'              	movf	??___flmul,w
  2582  0006' 00B6'              	movwf	___flmul@sign
  2583  0007'                    l1947:
  2584  0007' 082C'              	movf	___flmul@b+3,w
  2585  0008' 00B1'              	movwf	??___flmul
  2586  0009' 0731'              	addwf	??___flmul,w
  2587  000A' 00B2'              	movwf	??___flmul+1
  2588  000B' 0832'              	movf	??___flmul+1,w
  2589  000C' 00BC'              	movwf	___flmul@bexp
  2590  000D'                    l1949:
  2591  000D' 1FAB'              	btfss	___flmul@b+2,7
  2592  000E' 2800'              	goto	u2811
  2593  000F' 2800'              	goto	u2810
  2594  0010'                    u2811:
  2595  0010' 2800'              	goto	l1953
  2596  0011'                    u2810:
  2597  0011'                    l1951:
  2598  0011' 143C'              	bsf	___flmul@bexp,0
  2599  0012'                    l1953:
  2600  0012' 083C'              	movf	___flmul@bexp,w
  2601  0013' 1903               	btfsc	3,2
  2602  0014' 2800'              	goto	u2821
  2603  0015' 2800'              	goto	u2820
  2604  0016'                    u2821:
  2605  0016' 2800'              	goto	l1961
  2606  0017'                    u2820:
  2607  0017'                    l1955:
  2608  0017' 0A3C'              	incf	___flmul@bexp,w
  2609  0018' 1D03               	btfss	3,2
  2610  0019' 2800'              	goto	u2831
  2611  001A' 2800'              	goto	u2830
  2612  001B'                    u2831:
  2613  001B' 2800'              	goto	l1959
  2614  001C'                    u2830:
  2615  001C'                    l1957:
  2616  001C' 3000               	movlw	0
  2617  001D' 00AC'              	movwf	___flmul@b+3
  2618  001E' 3000               	movlw	0
  2619  001F' 00AB'              	movwf	___flmul@b+2
  2620  0020' 3000               	movlw	0
  2621  0021' 00AA'              	movwf	___flmul@b+1
  2622  0022' 3000               	movlw	0
  2623  0023' 00A9'              	movwf	___flmul@b
  2624  0024'                    l1959:
  2625  0024' 17AB'              	bsf	___flmul@b+2,7
  2626  0025' 2800'              	goto	l1963
  2627  0026'                    l1961:
  2628  0026' 3000               	movlw	0
  2629  0027' 00AC'              	movwf	___flmul@b+3
  2630  0028' 3000               	movlw	0
  2631  0029' 00AB'              	movwf	___flmul@b+2
  2632  002A' 3000               	movlw	0
  2633  002B' 00AA'              	movwf	___flmul@b+1
  2634  002C' 3000               	movlw	0
  2635  002D' 00A9'              	movwf	___flmul@b
  2636  002E'                    l1963:
  2637  002E' 0830'              	movf	___flmul@a+3,w
  2638  002F' 3980               	andlw	128
  2639  0030' 00B1'              	movwf	??___flmul
  2640  0031' 0831'              	movf	??___flmul,w
  2641  0032' 06B6'              	xorwf	___flmul@sign,f
  2642  0033'                    l1965:
  2643  0033' 0830'              	movf	___flmul@a+3,w
  2644  0034' 00B1'              	movwf	??___flmul
  2645  0035' 0731'              	addwf	??___flmul,w
  2646  0036' 00B2'              	movwf	??___flmul+1
  2647  0037' 0832'              	movf	??___flmul+1,w
  2648  0038' 00BB'              	movwf	___flmul@aexp
  2649  0039'                    l1967:
  2650  0039' 1FAF'              	btfss	___flmul@a+2,7
  2651  003A' 2800'              	goto	u2841
  2652  003B' 2800'              	goto	u2840
  2653  003C'                    u2841:
  2654  003C' 2800'              	goto	l1971
  2655  003D'                    u2840:
  2656  003D'                    l1969:
  2657  003D' 143B'              	bsf	___flmul@aexp,0
  2658  003E'                    l1971:
  2659  003E' 083B'              	movf	___flmul@aexp,w
  2660  003F' 1903               	btfsc	3,2
  2661  0040' 2800'              	goto	u2851
  2662  0041' 2800'              	goto	u2850
  2663  0042'                    u2851:
  2664  0042' 2800'              	goto	l1979
  2665  0043'                    u2850:
  2666  0043'                    l1973:
  2667  0043' 0A3B'              	incf	___flmul@aexp,w
  2668  0044' 1D03               	btfss	3,2
  2669  0045' 2800'              	goto	u2861
  2670  0046' 2800'              	goto	u2860
  2671  0047'                    u2861:
  2672  0047' 2800'              	goto	l1977
  2673  0048'                    u2860:
  2674  0048'                    l1975:
  2675  0048' 3000               	movlw	0
  2676  0049' 00B0'              	movwf	___flmul@a+3
  2677  004A' 3000               	movlw	0
  2678  004B' 00AF'              	movwf	___flmul@a+2
  2679  004C' 3000               	movlw	0
  2680  004D' 00AE'              	movwf	___flmul@a+1
  2681  004E' 3000               	movlw	0
  2682  004F' 00AD'              	movwf	___flmul@a
  2683  0050'                    l1977:
  2684  0050' 17AF'              	bsf	___flmul@a+2,7
  2685  0051' 2800'              	goto	l1981
  2686  0052'                    l1979:
  2687  0052' 3000               	movlw	0
  2688  0053' 00B0'              	movwf	___flmul@a+3
  2689  0054' 3000               	movlw	0
  2690  0055' 00AF'              	movwf	___flmul@a+2
  2691  0056' 3000               	movlw	0
  2692  0057' 00AE'              	movwf	___flmul@a+1
  2693  0058' 3000               	movlw	0
  2694  0059' 00AD'              	movwf	___flmul@a
  2695  005A'                    l1981:
  2696  005A' 083B'              	movf	___flmul@aexp,w
  2697  005B' 1903               	btfsc	3,2
  2698  005C' 2800'              	goto	u2871
  2699  005D' 2800'              	goto	u2870
  2700  005E'                    u2871:
  2701  005E' 2800'              	goto	l1985
  2702  005F'                    u2870:
  2703  005F'                    l1983:
  2704  005F' 083C'              	movf	___flmul@bexp,w
  2705  0060' 1D03               	btfss	3,2
  2706  0061' 2800'              	goto	u2881
  2707  0062' 2800'              	goto	u2880
  2708  0063'                    u2881:
  2709  0063' 2800'              	goto	l1989
  2710  0064'                    u2880:
  2711  0064'                    l1985:
  2712  0064' 3000               	movlw	0
  2713  0065' 00AC'              	movwf	?___flmul+3
  2714  0066' 3000               	movlw	0
  2715  0067' 00AB'              	movwf	?___flmul+2
  2716  0068' 3000               	movlw	0
  2717  0069' 00AA'              	movwf	?___flmul+1
  2718  006A' 3000               	movlw	0
  2719  006B' 00A9'              	movwf	?___flmul
  2720  006C' 2800'              	goto	l588
  2721  006D'                    l1989:
  2722  006D' 0829'              	movf	___flmul@b,w
  2723  006E' 00B1'              	movwf	??___flmul
  2724  006F' 0831'              	movf	??___flmul,w
  2725  0070' 0080'              	movwf	__Umul8_16@multiplicand
  2726  0071' 082F'              	movf	___flmul@a+2,w
  2727  0072' 120A' 118A' 2000' 120A' 118A' 	fcall	__Umul8_16
  2728  0077' 0801'              	movf	?__Umul8_16+1,w
  2729  0078' 1283               	bcf	3,5	;RP0=0, select bank0
  2730  0079' 1303               	bcf	3,6	;RP1=0, select bank0
  2731  007A' 00C2'              	movwf	___flmul@temp+1
  2732  007B' 0800'              	movf	?__Umul8_16,w
  2733  007C' 00C1'              	movwf	___flmul@temp
  2734  007D'                    l1991:
  2735  007D' 0841'              	movf	___flmul@temp,w
  2736  007E' 00B1'              	movwf	??___flmul
  2737  007F' 01B2'              	clrf	??___flmul+1
  2738  0080' 01B3'              	clrf	??___flmul+2
  2739  0081' 01B4'              	clrf	??___flmul+3
  2740  0082' 0834'              	movf	??___flmul+3,w
  2741  0083' 00BA'              	movwf	___flmul@grs+3
  2742  0084' 0833'              	movf	??___flmul+2,w
  2743  0085' 00B9'              	movwf	___flmul@grs+2
  2744  0086' 0832'              	movf	??___flmul+1,w
  2745  0087' 00B8'              	movwf	___flmul@grs+1
  2746  0088' 0831'              	movf	??___flmul,w
  2747  0089' 00B7'              	movwf	___flmul@grs
  2748  008A'                    l1993:
  2749  008A' 0842'              	movf	___flmul@temp+1,w
  2750  008B' 00B1'              	movwf	??___flmul
  2751  008C' 01B2'              	clrf	??___flmul+1
  2752  008D' 01B3'              	clrf	??___flmul+2
  2753  008E' 01B4'              	clrf	??___flmul+3
  2754  008F' 0834'              	movf	??___flmul+3,w
  2755  0090' 00C0'              	movwf	___flmul@prod+3
  2756  0091' 0833'              	movf	??___flmul+2,w
  2757  0092' 00BF'              	movwf	___flmul@prod+2
  2758  0093' 0832'              	movf	??___flmul+1,w
  2759  0094' 00BE'              	movwf	___flmul@prod+1
  2760  0095' 0831'              	movf	??___flmul,w
  2761  0096' 00BD'              	movwf	___flmul@prod
  2762  0097' 082A'              	movf	___flmul@b+1,w
  2763  0098' 00B1'              	movwf	??___flmul
  2764  0099' 0831'              	movf	??___flmul,w
  2765  009A' 0080'              	movwf	__Umul8_16@multiplicand
  2766  009B' 082E'              	movf	___flmul@a+1,w
  2767  009C' 120A' 118A' 2000' 120A' 118A' 	fcall	__Umul8_16
  2768  00A1' 0801'              	movf	?__Umul8_16+1,w
  2769  00A2' 1283               	bcf	3,5	;RP0=0, select bank0
  2770  00A3' 1303               	bcf	3,6	;RP1=0, select bank0
  2771  00A4' 00C2'              	movwf	___flmul@temp+1
  2772  00A5' 0800'              	movf	?__Umul8_16,w
  2773  00A6' 00C1'              	movwf	___flmul@temp
  2774  00A7'                    l1995:
  2775  00A7' 0841'              	movf	___flmul@temp,w
  2776  00A8' 00B1'              	movwf	??___flmul
  2777  00A9' 01B2'              	clrf	??___flmul+1
  2778  00AA' 01B3'              	clrf	??___flmul+2
  2779  00AB' 01B4'              	clrf	??___flmul+3
  2780  00AC' 0831'              	movf	??___flmul,w
  2781  00AD' 07B7'              	addwf	___flmul@grs,f
  2782  00AE' 0832'              	movf	??___flmul+1,w
  2783  00AF' 1103               	clrz
  2784  00B0' 1803               	skipnc
  2785  00B1' 3E01               	addlw	1
  2786  00B2' 1903               	skipnz
  2787  00B3' 2800'              	goto	u2891
  2788  00B4' 07B8'              	addwf	___flmul@grs+1,f
  2789  00B5'                    u2891:
  2790  00B5' 0833'              	movf	??___flmul+2,w
  2791  00B6' 1103               	clrz
  2792  00B7' 1803               	skipnc
  2793  00B8' 3E01               	addlw	1
  2794  00B9' 1903               	skipnz
  2795  00BA' 2800'              	goto	u2892
  2796  00BB' 07B9'              	addwf	___flmul@grs+2,f
  2797  00BC'                    u2892:
  2798  00BC' 0834'              	movf	??___flmul+3,w
  2799  00BD' 1103               	clrz
  2800  00BE' 1803               	skipnc
  2801  00BF' 3E01               	addlw	1
  2802  00C0' 1903               	skipnz
  2803  00C1' 2800'              	goto	u2893
  2804  00C2' 07BA'              	addwf	___flmul@grs+3,f
  2805  00C3'                    u2893:
  2806  00C3'                    l1997:
  2807  00C3' 0842'              	movf	___flmul@temp+1,w
  2808  00C4' 00B1'              	movwf	??___flmul
  2809  00C5' 01B2'              	clrf	??___flmul+1
  2810  00C6' 01B3'              	clrf	??___flmul+2
  2811  00C7' 01B4'              	clrf	??___flmul+3
  2812  00C8' 0831'              	movf	??___flmul,w
  2813  00C9' 07BD'              	addwf	___flmul@prod,f
  2814  00CA' 0832'              	movf	??___flmul+1,w
  2815  00CB' 1103               	clrz
  2816  00CC' 1803               	skipnc
  2817  00CD' 3E01               	addlw	1
  2818  00CE' 1903               	skipnz
  2819  00CF' 2800'              	goto	u2901
  2820  00D0' 07BE'              	addwf	___flmul@prod+1,f
  2821  00D1'                    u2901:
  2822  00D1' 0833'              	movf	??___flmul+2,w
  2823  00D2' 1103               	clrz
  2824  00D3' 1803               	skipnc
  2825  00D4' 3E01               	addlw	1
  2826  00D5' 1903               	skipnz
  2827  00D6' 2800'              	goto	u2902
  2828  00D7' 07BF'              	addwf	___flmul@prod+2,f
  2829  00D8'                    u2902:
  2830  00D8' 0834'              	movf	??___flmul+3,w
  2831  00D9' 1103               	clrz
  2832  00DA' 1803               	skipnc
  2833  00DB' 3E01               	addlw	1
  2834  00DC' 1903               	skipnz
  2835  00DD' 2800'              	goto	u2903
  2836  00DE' 07C0'              	addwf	___flmul@prod+3,f
  2837  00DF'                    u2903:
  2838  00DF' 082B'              	movf	___flmul@b+2,w
  2839  00E0' 00B1'              	movwf	??___flmul
  2840  00E1' 0831'              	movf	??___flmul,w
  2841  00E2' 0080'              	movwf	__Umul8_16@multiplicand
  2842  00E3' 082D'              	movf	___flmul@a,w
  2843  00E4' 120A' 118A' 2000' 120A' 118A' 	fcall	__Umul8_16
  2844  00E9' 0801'              	movf	?__Umul8_16+1,w
  2845  00EA' 1283               	bcf	3,5	;RP0=0, select bank0
  2846  00EB' 1303               	bcf	3,6	;RP1=0, select bank0
  2847  00EC' 00C2'              	movwf	___flmul@temp+1
  2848  00ED' 0800'              	movf	?__Umul8_16,w
  2849  00EE' 00C1'              	movwf	___flmul@temp
  2850  00EF'                    l1999:
  2851  00EF' 0841'              	movf	___flmul@temp,w
  2852  00F0' 00B1'              	movwf	??___flmul
  2853  00F1' 01B2'              	clrf	??___flmul+1
  2854  00F2' 01B3'              	clrf	??___flmul+2
  2855  00F3' 01B4'              	clrf	??___flmul+3
  2856  00F4' 0831'              	movf	??___flmul,w
  2857  00F5' 07B7'              	addwf	___flmul@grs,f
  2858  00F6' 0832'              	movf	??___flmul+1,w
  2859  00F7' 1103               	clrz
  2860  00F8' 1803               	skipnc
  2861  00F9' 3E01               	addlw	1
  2862  00FA' 1903               	skipnz
  2863  00FB' 2800'              	goto	u2911
  2864  00FC' 07B8'              	addwf	___flmul@grs+1,f
  2865  00FD'                    u2911:
  2866  00FD' 0833'              	movf	??___flmul+2,w
  2867  00FE' 1103               	clrz
  2868  00FF' 1803               	skipnc
  2869  0100' 3E01               	addlw	1
  2870  0101' 1903               	skipnz
  2871  0102' 2800'              	goto	u2912
  2872  0103' 07B9'              	addwf	___flmul@grs+2,f
  2873  0104'                    u2912:
  2874  0104' 0834'              	movf	??___flmul+3,w
  2875  0105' 1103               	clrz
  2876  0106' 1803               	skipnc
  2877  0107' 3E01               	addlw	1
  2878  0108' 1903               	skipnz
  2879  0109' 2800'              	goto	u2913
  2880  010A' 07BA'              	addwf	___flmul@grs+3,f
  2881  010B'                    u2913:
  2882  010B'                    l2001:
  2883  010B' 0842'              	movf	___flmul@temp+1,w
  2884  010C' 00B1'              	movwf	??___flmul
  2885  010D' 01B2'              	clrf	??___flmul+1
  2886  010E' 01B3'              	clrf	??___flmul+2
  2887  010F' 01B4'              	clrf	??___flmul+3
  2888  0110' 0831'              	movf	??___flmul,w
  2889  0111' 07BD'              	addwf	___flmul@prod,f
  2890  0112' 0832'              	movf	??___flmul+1,w
  2891  0113' 1103               	clrz
  2892  0114' 1803               	skipnc
  2893  0115' 3E01               	addlw	1
  2894  0116' 1903               	skipnz
  2895  0117' 2800'              	goto	u2921
  2896  0118' 07BE'              	addwf	___flmul@prod+1,f
  2897  0119'                    u2921:
  2898  0119' 0833'              	movf	??___flmul+2,w
  2899  011A' 1103               	clrz
  2900  011B' 1803               	skipnc
  2901  011C' 3E01               	addlw	1
  2902  011D' 1903               	skipnz
  2903  011E' 2800'              	goto	u2922
  2904  011F' 07BF'              	addwf	___flmul@prod+2,f
  2905  0120'                    u2922:
  2906  0120' 0834'              	movf	??___flmul+3,w
  2907  0121' 1103               	clrz
  2908  0122' 1803               	skipnc
  2909  0123' 3E01               	addlw	1
  2910  0124' 1903               	skipnz
  2911  0125' 2800'              	goto	u2923
  2912  0126' 07C0'              	addwf	___flmul@prod+3,f
  2913  0127'                    u2923:
  2914  0127'                    l2003:
  2915  0127' 3008               	movlw	8
  2916  0128' 00B1'              	movwf	??___flmul
  2917  0129'                    u2935:
  2918  0129' 1003               	clrc
  2919  012A' 0DB7'              	rlf	___flmul@grs,f
  2920  012B' 0DB8'              	rlf	___flmul@grs+1,f
  2921  012C' 0DB9'              	rlf	___flmul@grs+2,f
  2922  012D' 0DBA'              	rlf	___flmul@grs+3,f
  2923  012E' 0BB1'              	decfsz	??___flmul,f
  2924  012F' 2800'              	goto	u2935
  2925  0130'                    l2005:
  2926  0130' 082A'              	movf	___flmul@b+1,w
  2927  0131' 00B1'              	movwf	??___flmul
  2928  0132' 0831'              	movf	??___flmul,w
  2929  0133' 0080'              	movwf	__Umul8_16@multiplicand
  2930  0134' 082D'              	movf	___flmul@a,w
  2931  0135' 120A' 118A' 2000' 120A' 118A' 	fcall	__Umul8_16
  2932  013A' 0801'              	movf	?__Umul8_16+1,w
  2933  013B' 1283               	bcf	3,5	;RP0=0, select bank0
  2934  013C' 1303               	bcf	3,6	;RP1=0, select bank0
  2935  013D' 00C2'              	movwf	___flmul@temp+1
  2936  013E' 0800'              	movf	?__Umul8_16,w
  2937  013F' 00C1'              	movwf	___flmul@temp
  2938  0140'                    l2007:
  2939  0140' 0841'              	movf	___flmul@temp,w
  2940  0141' 00B1'              	movwf	??___flmul
  2941  0142' 0842'              	movf	___flmul@temp+1,w
  2942  0143' 00B2'              	movwf	??___flmul+1
  2943  0144' 01B3'              	clrf	??___flmul+2
  2944  0145' 01B4'              	clrf	??___flmul+3
  2945  0146' 0831'              	movf	??___flmul,w
  2946  0147' 07B7'              	addwf	___flmul@grs,f
  2947  0148' 0832'              	movf	??___flmul+1,w
  2948  0149' 1103               	clrz
  2949  014A' 1803               	skipnc
  2950  014B' 3E01               	addlw	1
  2951  014C' 1903               	skipnz
  2952  014D' 2800'              	goto	u2941
  2953  014E' 07B8'              	addwf	___flmul@grs+1,f
  2954  014F'                    u2941:
  2955  014F' 0833'              	movf	??___flmul+2,w
  2956  0150' 1103               	clrz
  2957  0151' 1803               	skipnc
  2958  0152' 3E01               	addlw	1
  2959  0153' 1903               	skipnz
  2960  0154' 2800'              	goto	u2942
  2961  0155' 07B9'              	addwf	___flmul@grs+2,f
  2962  0156'                    u2942:
  2963  0156' 0834'              	movf	??___flmul+3,w
  2964  0157' 1103               	clrz
  2965  0158' 1803               	skipnc
  2966  0159' 3E01               	addlw	1
  2967  015A' 1903               	skipnz
  2968  015B' 2800'              	goto	u2943
  2969  015C' 07BA'              	addwf	___flmul@grs+3,f
  2970  015D'                    u2943:
  2971  015D'                    l2009:
  2972  015D' 0829'              	movf	___flmul@b,w
  2973  015E' 00B1'              	movwf	??___flmul
  2974  015F' 0831'              	movf	??___flmul,w
  2975  0160' 0080'              	movwf	__Umul8_16@multiplicand
  2976  0161' 082E'              	movf	___flmul@a+1,w
  2977  0162' 120A' 118A' 2000' 120A' 118A' 	fcall	__Umul8_16
  2978  0167' 0801'              	movf	?__Umul8_16+1,w
  2979  0168' 1283               	bcf	3,5	;RP0=0, select bank0
  2980  0169' 1303               	bcf	3,6	;RP1=0, select bank0
  2981  016A' 00C2'              	movwf	___flmul@temp+1
  2982  016B' 0800'              	movf	?__Umul8_16,w
  2983  016C' 00C1'              	movwf	___flmul@temp
  2984  016D'                    l2011:
  2985  016D' 0841'              	movf	___flmul@temp,w
  2986  016E' 00B1'              	movwf	??___flmul
  2987  016F' 0842'              	movf	___flmul@temp+1,w
  2988  0170' 00B2'              	movwf	??___flmul+1
  2989  0171' 01B3'              	clrf	??___flmul+2
  2990  0172' 01B4'              	clrf	??___flmul+3
  2991  0173' 0831'              	movf	??___flmul,w
  2992  0174' 07B7'              	addwf	___flmul@grs,f
  2993  0175' 0832'              	movf	??___flmul+1,w
  2994  0176' 1103               	clrz
  2995  0177' 1803               	skipnc
  2996  0178' 3E01               	addlw	1
  2997  0179' 1903               	skipnz
  2998  017A' 2800'              	goto	u2951
  2999  017B' 07B8'              	addwf	___flmul@grs+1,f
  3000  017C'                    u2951:
  3001  017C' 0833'              	movf	??___flmul+2,w
  3002  017D' 1103               	clrz
  3003  017E' 1803               	skipnc
  3004  017F' 3E01               	addlw	1
  3005  0180' 1903               	skipnz
  3006  0181' 2800'              	goto	u2952
  3007  0182' 07B9'              	addwf	___flmul@grs+2,f
  3008  0183'                    u2952:
  3009  0183' 0834'              	movf	??___flmul+3,w
  3010  0184' 1103               	clrz
  3011  0185' 1803               	skipnc
  3012  0186' 3E01               	addlw	1
  3013  0187' 1903               	skipnz
  3014  0188' 2800'              	goto	u2953
  3015  0189' 07BA'              	addwf	___flmul@grs+3,f
  3016  018A'                    u2953:
  3017  018A'                    l2013:
  3018  018A' 3008               	movlw	8
  3019  018B' 00B1'              	movwf	??___flmul
  3020  018C'                    u2965:
  3021  018C' 1003               	clrc
  3022  018D' 0DB7'              	rlf	___flmul@grs,f
  3023  018E' 0DB8'              	rlf	___flmul@grs+1,f
  3024  018F' 0DB9'              	rlf	___flmul@grs+2,f
  3025  0190' 0DBA'              	rlf	___flmul@grs+3,f
  3026  0191' 0BB1'              	decfsz	??___flmul,f
  3027  0192' 2800'              	goto	u2965
  3028  0193' 0829'              	movf	___flmul@b,w
  3029  0194' 00B1'              	movwf	??___flmul
  3030  0195' 0831'              	movf	??___flmul,w
  3031  0196' 0080'              	movwf	__Umul8_16@multiplicand
  3032  0197' 082D'              	movf	___flmul@a,w
  3033  0198' 120A' 118A' 2000' 120A' 118A' 	fcall	__Umul8_16
  3034  019D' 0801'              	movf	?__Umul8_16+1,w
  3035  019E' 1283               	bcf	3,5	;RP0=0, select bank0
  3036  019F' 1303               	bcf	3,6	;RP1=0, select bank0
  3037  01A0' 00C2'              	movwf	___flmul@temp+1
  3038  01A1' 0800'              	movf	?__Umul8_16,w
  3039  01A2' 00C1'              	movwf	___flmul@temp
  3040  01A3'                    l2015:
  3041  01A3' 0841'              	movf	___flmul@temp,w
  3042  01A4' 00B1'              	movwf	??___flmul
  3043  01A5' 0842'              	movf	___flmul@temp+1,w
  3044  01A6' 00B2'              	movwf	??___flmul+1
  3045  01A7' 01B3'              	clrf	??___flmul+2
  3046  01A8' 01B4'              	clrf	??___flmul+3
  3047  01A9' 0831'              	movf	??___flmul,w
  3048  01AA' 07B7'              	addwf	___flmul@grs,f
  3049  01AB' 0832'              	movf	??___flmul+1,w
  3050  01AC' 1103               	clrz
  3051  01AD' 1803               	skipnc
  3052  01AE' 3E01               	addlw	1
  3053  01AF' 1903               	skipnz
  3054  01B0' 2800'              	goto	u2971
  3055  01B1' 07B8'              	addwf	___flmul@grs+1,f
  3056  01B2'                    u2971:
  3057  01B2' 0833'              	movf	??___flmul+2,w
  3058  01B3' 1103               	clrz
  3059  01B4' 1803               	skipnc
  3060  01B5' 3E01               	addlw	1
  3061  01B6' 1903               	skipnz
  3062  01B7' 2800'              	goto	u2972
  3063  01B8' 07B9'              	addwf	___flmul@grs+2,f
  3064  01B9'                    u2972:
  3065  01B9' 0834'              	movf	??___flmul+3,w
  3066  01BA' 1103               	clrz
  3067  01BB' 1803               	skipnc
  3068  01BC' 3E01               	addlw	1
  3069  01BD' 1903               	skipnz
  3070  01BE' 2800'              	goto	u2973
  3071  01BF' 07BA'              	addwf	___flmul@grs+3,f
  3072  01C0'                    u2973:
  3073  01C0'                    l2017:
  3074  01C0' 082A'              	movf	___flmul@b+1,w
  3075  01C1' 00B1'              	movwf	??___flmul
  3076  01C2' 0831'              	movf	??___flmul,w
  3077  01C3' 0080'              	movwf	__Umul8_16@multiplicand
  3078  01C4' 082F'              	movf	___flmul@a+2,w
  3079  01C5' 120A' 118A' 2000' 120A' 118A' 	fcall	__Umul8_16
  3080  01CA' 0801'              	movf	?__Umul8_16+1,w
  3081  01CB' 1283               	bcf	3,5	;RP0=0, select bank0
  3082  01CC' 1303               	bcf	3,6	;RP1=0, select bank0
  3083  01CD' 00C2'              	movwf	___flmul@temp+1
  3084  01CE' 0800'              	movf	?__Umul8_16,w
  3085  01CF' 00C1'              	movwf	___flmul@temp
  3086  01D0' 0841'              	movf	___flmul@temp,w
  3087  01D1' 00B1'              	movwf	??___flmul
  3088  01D2' 0842'              	movf	___flmul@temp+1,w
  3089  01D3' 00B2'              	movwf	??___flmul+1
  3090  01D4' 01B3'              	clrf	??___flmul+2
  3091  01D5' 01B4'              	clrf	??___flmul+3
  3092  01D6' 0831'              	movf	??___flmul,w
  3093  01D7' 07BD'              	addwf	___flmul@prod,f
  3094  01D8' 0832'              	movf	??___flmul+1,w
  3095  01D9' 1103               	clrz
  3096  01DA' 1803               	skipnc
  3097  01DB' 3E01               	addlw	1
  3098  01DC' 1903               	skipnz
  3099  01DD' 2800'              	goto	u2981
  3100  01DE' 07BE'              	addwf	___flmul@prod+1,f
  3101  01DF'                    u2981:
  3102  01DF' 0833'              	movf	??___flmul+2,w
  3103  01E0' 1103               	clrz
  3104  01E1' 1803               	skipnc
  3105  01E2' 3E01               	addlw	1
  3106  01E3' 1903               	skipnz
  3107  01E4' 2800'              	goto	u2982
  3108  01E5' 07BF'              	addwf	___flmul@prod+2,f
  3109  01E6'                    u2982:
  3110  01E6' 0834'              	movf	??___flmul+3,w
  3111  01E7' 1103               	clrz
  3112  01E8' 1803               	skipnc
  3113  01E9' 3E01               	addlw	1
  3114  01EA' 1903               	skipnz
  3115  01EB' 2800'              	goto	u2983
  3116  01EC' 07C0'              	addwf	___flmul@prod+3,f
  3117  01ED'                    u2983:
  3118  01ED'                    l2019:
  3119  01ED' 082B'              	movf	___flmul@b+2,w
  3120  01EE' 00B1'              	movwf	??___flmul
  3121  01EF' 0831'              	movf	??___flmul,w
  3122  01F0' 0080'              	movwf	__Umul8_16@multiplicand
  3123  01F1' 082E'              	movf	___flmul@a+1,w
  3124  01F2' 120A' 118A' 2000' 120A' 118A' 	fcall	__Umul8_16
  3125  01F7' 0801'              	movf	?__Umul8_16+1,w
  3126  01F8' 1283               	bcf	3,5	;RP0=0, select bank0
  3127  01F9' 1303               	bcf	3,6	;RP1=0, select bank0
  3128  01FA' 00C2'              	movwf	___flmul@temp+1
  3129  01FB' 0800'              	movf	?__Umul8_16,w
  3130  01FC' 00C1'              	movwf	___flmul@temp
  3131  01FD'                    l2021:
  3132  01FD' 0841'              	movf	___flmul@temp,w
  3133  01FE' 00B1'              	movwf	??___flmul
  3134  01FF' 0842'              	movf	___flmul@temp+1,w
  3135  0200' 00B2'              	movwf	??___flmul+1
  3136  0201' 01B3'              	clrf	??___flmul+2
  3137  0202' 01B4'              	clrf	??___flmul+3
  3138  0203' 0831'              	movf	??___flmul,w
  3139  0204' 07BD'              	addwf	___flmul@prod,f
  3140  0205' 0832'              	movf	??___flmul+1,w
  3141  0206' 1103               	clrz
  3142  0207' 1803               	skipnc
  3143  0208' 3E01               	addlw	1
  3144  0209' 1903               	skipnz
  3145  020A' 2800'              	goto	u2991
  3146  020B' 07BE'              	addwf	___flmul@prod+1,f
  3147  020C'                    u2991:
  3148  020C' 0833'              	movf	??___flmul+2,w
  3149  020D' 1103               	clrz
  3150  020E' 1803               	skipnc
  3151  020F' 3E01               	addlw	1
  3152  0210' 1903               	skipnz
  3153  0211' 2800'              	goto	u2992
  3154  0212' 07BF'              	addwf	___flmul@prod+2,f
  3155  0213'                    u2992:
  3156  0213' 0834'              	movf	??___flmul+3,w
  3157  0214' 1103               	clrz
  3158  0215' 1803               	skipnc
  3159  0216' 3E01               	addlw	1
  3160  0217' 1903               	skipnz
  3161  0218' 2800'              	goto	u2993
  3162  0219' 07C0'              	addwf	___flmul@prod+3,f
  3163  021A'                    u2993:
  3164  021A' 082B'              	movf	___flmul@b+2,w
  3165  021B' 00B1'              	movwf	??___flmul
  3166  021C' 0831'              	movf	??___flmul,w
  3167  021D' 0080'              	movwf	__Umul8_16@multiplicand
  3168  021E' 082F'              	movf	___flmul@a+2,w
  3169  021F' 120A' 118A' 2000' 120A' 118A' 	fcall	__Umul8_16
  3170  0224' 0801'              	movf	?__Umul8_16+1,w
  3171  0225' 1283               	bcf	3,5	;RP0=0, select bank0
  3172  0226' 1303               	bcf	3,6	;RP1=0, select bank0
  3173  0227' 00C2'              	movwf	___flmul@temp+1
  3174  0228' 0800'              	movf	?__Umul8_16,w
  3175  0229' 00C1'              	movwf	___flmul@temp
  3176  022A'                    l2023:
  3177  022A' 0841'              	movf	___flmul@temp,w
  3178  022B' 00B1'              	movwf	??___flmul
  3179  022C' 0842'              	movf	___flmul@temp+1,w
  3180  022D' 00B2'              	movwf	??___flmul+1
  3181  022E' 01B3'              	clrf	??___flmul+2
  3182  022F' 01B4'              	clrf	??___flmul+3
  3183  0230' 3008               	movlw	8
  3184  0231'                    u3005:
  3185  0231' 1003               	clrc
  3186  0232' 0DB1'              	rlf	??___flmul,f
  3187  0233' 0DB2'              	rlf	??___flmul+1,f
  3188  0234' 0DB3'              	rlf	??___flmul+2,f
  3189  0235' 0DB4'              	rlf	??___flmul+3,f
  3190  0236'                    u3000:
  3191  0236' 3EFF               	addlw	-1
  3192  0237' 1D03               	skipz
  3193  0238' 2800'              	goto	u3005
  3194  0239' 0831'              	movf	??___flmul,w
  3195  023A' 07BD'              	addwf	___flmul@prod,f
  3196  023B' 0832'              	movf	??___flmul+1,w
  3197  023C' 1103               	clrz
  3198  023D' 1803               	skipnc
  3199  023E' 3E01               	addlw	1
  3200  023F' 1903               	skipnz
  3201  0240' 2800'              	goto	u3011
  3202  0241' 07BE'              	addwf	___flmul@prod+1,f
  3203  0242'                    u3011:
  3204  0242' 0833'              	movf	??___flmul+2,w
  3205  0243' 1103               	clrz
  3206  0244' 1803               	skipnc
  3207  0245' 3E01               	addlw	1
  3208  0246' 1903               	skipnz
  3209  0247' 2800'              	goto	u3012
  3210  0248' 07BF'              	addwf	___flmul@prod+2,f
  3211  0249'                    u3012:
  3212  0249' 0834'              	movf	??___flmul+3,w
  3213  024A' 1103               	clrz
  3214  024B' 1803               	skipnc
  3215  024C' 3E01               	addlw	1
  3216  024D' 1903               	skipnz
  3217  024E' 2800'              	goto	u3013
  3218  024F' 07C0'              	addwf	___flmul@prod+3,f
  3219  0250'                    u3013:
  3220  0250'                    l2025:
  3221  0250' 0837'              	movf	___flmul@grs,w
  3222  0251' 00B1'              	movwf	??___flmul
  3223  0252' 0838'              	movf	___flmul@grs+1,w
  3224  0253' 00B2'              	movwf	??___flmul+1
  3225  0254' 0839'              	movf	___flmul@grs+2,w
  3226  0255' 00B3'              	movwf	??___flmul+2
  3227  0256' 083A'              	movf	___flmul@grs+3,w
  3228  0257' 00B4'              	movwf	??___flmul+3
  3229  0258' 3018               	movlw	24
  3230  0259'                    u3025:
  3231  0259' 1003               	clrc
  3232  025A' 0CB4'              	rrf	??___flmul+3,f
  3233  025B' 0CB3'              	rrf	??___flmul+2,f
  3234  025C' 0CB2'              	rrf	??___flmul+1,f
  3235  025D' 0CB1'              	rrf	??___flmul,f
  3236  025E'                    u3020:
  3237  025E' 3EFF               	addlw	-1
  3238  025F' 1D03               	skipz
  3239  0260' 2800'              	goto	u3025
  3240  0261' 0831'              	movf	??___flmul,w
  3241  0262' 07BD'              	addwf	___flmul@prod,f
  3242  0263' 0832'              	movf	??___flmul+1,w
  3243  0264' 1103               	clrz
  3244  0265' 1803               	skipnc
  3245  0266' 3E01               	addlw	1
  3246  0267' 1903               	skipnz
  3247  0268' 2800'              	goto	u3031
  3248  0269' 07BE'              	addwf	___flmul@prod+1,f
  3249  026A'                    u3031:
  3250  026A' 0833'              	movf	??___flmul+2,w
  3251  026B' 1103               	clrz
  3252  026C' 1803               	skipnc
  3253  026D' 3E01               	addlw	1
  3254  026E' 1903               	skipnz
  3255  026F' 2800'              	goto	u3032
  3256  0270' 07BF'              	addwf	___flmul@prod+2,f
  3257  0271'                    u3032:
  3258  0271' 0834'              	movf	??___flmul+3,w
  3259  0272' 1103               	clrz
  3260  0273' 1803               	skipnc
  3261  0274' 3E01               	addlw	1
  3262  0275' 1903               	skipnz
  3263  0276' 2800'              	goto	u3033
  3264  0277' 07C0'              	addwf	___flmul@prod+3,f
  3265  0278'                    u3033:
  3266  0278'                    l2027:
  3267  0278' 3008               	movlw	8
  3268  0279' 00B1'              	movwf	??___flmul
  3269  027A'                    u3045:
  3270  027A' 1003               	clrc
  3271  027B' 0DB7'              	rlf	___flmul@grs,f
  3272  027C' 0DB8'              	rlf	___flmul@grs+1,f
  3273  027D' 0DB9'              	rlf	___flmul@grs+2,f
  3274  027E' 0DBA'              	rlf	___flmul@grs+3,f
  3275  027F' 0BB1'              	decfsz	??___flmul,f
  3276  0280' 2800'              	goto	u3045
  3277  0281'                    l2029:
  3278  0281' 083C'              	movf	___flmul@bexp,w
  3279  0282' 073B'              	addwf	___flmul@aexp,w
  3280  0283' 00B1'              	movwf	??___flmul
  3281  0284' 01B2'              	clrf	??___flmul+1
  3282  0285' 0DB2'              	rlf	??___flmul+1,f
  3283  0286' 0831'              	movf	??___flmul,w
  3284  0287' 3E82               	addlw	130
  3285  0288' 00C1'              	movwf	___flmul@temp
  3286  0289' 0832'              	movf	??___flmul+1,w
  3287  028A' 1803               	skipnc
  3288  028B' 3E01               	addlw	1
  3289  028C' 3EFF               	addlw	255
  3290  028D' 00C2'              	movwf	___flmul@temp+1
  3291  028E' 2800'              	goto	l2041
  3292  028F'                    l2031:
  3293  028F' 3001               	movlw	1
  3294  0290' 00B1'              	movwf	??___flmul
  3295  0291'                    u3055:
  3296  0291' 1003               	clrc
  3297  0292' 0DBD'              	rlf	___flmul@prod,f
  3298  0293' 0DBE'              	rlf	___flmul@prod+1,f
  3299  0294' 0DBF'              	rlf	___flmul@prod+2,f
  3300  0295' 0DC0'              	rlf	___flmul@prod+3,f
  3301  0296' 0BB1'              	decfsz	??___flmul,f
  3302  0297' 2800'              	goto	u3055
  3303  0298'                    l2033:
  3304  0298' 1FBA'              	btfss	___flmul@grs+3,7
  3305  0299' 2800'              	goto	u3061
  3306  029A' 2800'              	goto	u3060
  3307  029B'                    u3061:
  3308  029B' 2800'              	goto	l2037
  3309  029C'                    u3060:
  3310  029C'                    l2035:
  3311  029C' 143D'              	bsf	___flmul@prod,0
  3312  029D'                    l2037:
  3313  029D' 3001               	movlw	1
  3314  029E' 00B1'              	movwf	??___flmul
  3315  029F'                    u3075:
  3316  029F' 1003               	clrc
  3317  02A0' 0DB7'              	rlf	___flmul@grs,f
  3318  02A1' 0DB8'              	rlf	___flmul@grs+1,f
  3319  02A2' 0DB9'              	rlf	___flmul@grs+2,f
  3320  02A3' 0DBA'              	rlf	___flmul@grs+3,f
  3321  02A4' 0BB1'              	decfsz	??___flmul,f
  3322  02A5' 2800'              	goto	u3075
  3323  02A6'                    l2039:
  3324  02A6' 30FF               	movlw	255
  3325  02A7' 07C1'              	addwf	___flmul@temp,f
  3326  02A8' 1803               	skipnc
  3327  02A9' 0AC2'              	incf	___flmul@temp+1,f
  3328  02AA' 30FF               	movlw	255
  3329  02AB' 07C2'              	addwf	___flmul@temp+1,f
  3330  02AC'                    l2041:
  3331  02AC' 1FBF'              	btfss	___flmul@prod+2,7
  3332  02AD' 2800'              	goto	u3081
  3333  02AE' 2800'              	goto	u3080
  3334  02AF'                    u3081:
  3335  02AF' 2800'              	goto	l2031
  3336  02B0'                    u3080:
  3337  02B0'                    l2043:
  3338  02B0' 01BB'              	clrf	___flmul@aexp
  3339  02B1'                    l2045:
  3340  02B1' 1FBA'              	btfss	___flmul@grs+3,7
  3341  02B2' 2800'              	goto	u3091
  3342  02B3' 2800'              	goto	u3090
  3343  02B4'                    u3091:
  3344  02B4' 2800'              	goto	l2053
  3345  02B5'                    u3090:
  3346  02B5'                    l2047:
  3347  02B5' 30FF               	movlw	255
  3348  02B6' 0537'              	andwf	___flmul@grs,w
  3349  02B7' 00B1'              	movwf	??___flmul
  3350  02B8' 30FF               	movlw	255
  3351  02B9' 0538'              	andwf	___flmul@grs+1,w
  3352  02BA' 00B2'              	movwf	??___flmul+1
  3353  02BB' 30FF               	movlw	255
  3354  02BC' 0539'              	andwf	___flmul@grs+2,w
  3355  02BD' 00B3'              	movwf	??___flmul+2
  3356  02BE' 307F               	movlw	127
  3357  02BF' 053A'              	andwf	___flmul@grs+3,w
  3358  02C0' 00B4'              	movwf	??___flmul+3
  3359  02C1' 0834'              	movf	??___flmul+3,w
  3360  02C2' 0433'              	iorwf	??___flmul+2,w
  3361  02C3' 0432'              	iorwf	??___flmul+1,w
  3362  02C4' 0431'              	iorwf	??___flmul,w
  3363  02C5' 1903               	skipnz
  3364  02C6' 2800'              	goto	u3101
  3365  02C7' 2800'              	goto	u3100
  3366  02C8'                    u3101:
  3367  02C8' 2800'              	goto	l594
  3368  02C9'                    u3100:
  3369  02C9'                    l2049:
  3370  02C9' 01BB'              	clrf	___flmul@aexp
  3371  02CA' 0ABB'              	incf	___flmul@aexp,f
  3372  02CB' 2800'              	goto	l2053
  3373  02CC'                    l594:
  3374  02CC' 1C3D'              	btfss	___flmul@prod,0
  3375  02CD' 2800'              	goto	u3111
  3376  02CE' 2800'              	goto	u3110
  3377  02CF'                    u3111:
  3378  02CF' 2800'              	goto	l2053
  3379  02D0'                    u3110:
  3380  02D0' 2800'              	goto	l2049
  3381  02D1'                    l2053:
  3382  02D1' 083B'              	movf	___flmul@aexp,w
  3383  02D2' 1903               	btfsc	3,2
  3384  02D3' 2800'              	goto	u3121
  3385  02D4' 2800'              	goto	u3120
  3386  02D5'                    u3121:
  3387  02D5' 2800'              	goto	l2063
  3388  02D6'                    u3120:
  3389  02D6'                    l2055:
  3390  02D6' 3001               	movlw	1
  3391  02D7' 07BD'              	addwf	___flmul@prod,f
  3392  02D8' 3000               	movlw	0
  3393  02D9' 1803               	skipnc
  3394  02DA' 3001               	movlw	1
  3395  02DB' 07BE'              	addwf	___flmul@prod+1,f
  3396  02DC' 3000               	movlw	0
  3397  02DD' 1803               	skipnc
  3398  02DE' 3001               	movlw	1
  3399  02DF' 07BF'              	addwf	___flmul@prod+2,f
  3400  02E0' 3000               	movlw	0
  3401  02E1' 1803               	skipnc
  3402  02E2' 3001               	movlw	1
  3403  02E3' 07C0'              	addwf	___flmul@prod+3,f
  3404  02E4'                    l2057:
  3405  02E4' 1C40'              	btfss	___flmul@prod+3,0
  3406  02E5' 2800'              	goto	u3131
  3407  02E6' 2800'              	goto	u3130
  3408  02E7'                    u3131:
  3409  02E7' 2800'              	goto	l2063
  3410  02E8'                    u3130:
  3411  02E8'                    l2059:
  3412  02E8' 083D'              	movf	___flmul@prod,w
  3413  02E9' 00B1'              	movwf	??___flmul
  3414  02EA' 083E'              	movf	___flmul@prod+1,w
  3415  02EB' 00B2'              	movwf	??___flmul+1
  3416  02EC' 083F'              	movf	___flmul@prod+2,w
  3417  02ED' 00B3'              	movwf	??___flmul+2
  3418  02EE' 0840'              	movf	___flmul@prod+3,w
  3419  02EF' 00B4'              	movwf	??___flmul+3
  3420  02F0' 3001               	movlw	1
  3421  02F1' 00B5'              	movwf	??___flmul+4
  3422  02F2'                    u3145:
  3423  02F2' 0D34'              	rlf	??___flmul+3,w
  3424  02F3' 0CB4'              	rrf	??___flmul+3,f
  3425  02F4' 0CB3'              	rrf	??___flmul+2,f
  3426  02F5' 0CB2'              	rrf	??___flmul+1,f
  3427  02F6' 0CB1'              	rrf	??___flmul,f
  3428  02F7'                    u3140:
  3429  02F7' 0BB5'              	decfsz	??___flmul+4,f
  3430  02F8' 2800'              	goto	u3145
  3431  02F9' 0834'              	movf	??___flmul+3,w
  3432  02FA' 00C0'              	movwf	___flmul@prod+3
  3433  02FB' 0833'              	movf	??___flmul+2,w
  3434  02FC' 00BF'              	movwf	___flmul@prod+2
  3435  02FD' 0832'              	movf	??___flmul+1,w
  3436  02FE' 00BE'              	movwf	___flmul@prod+1
  3437  02FF' 0831'              	movf	??___flmul,w
  3438  0300' 00BD'              	movwf	___flmul@prod
  3439  0301'                    l2061:
  3440  0301' 3001               	movlw	1
  3441  0302' 07C1'              	addwf	___flmul@temp,f
  3442  0303' 1803               	skipnc
  3443  0304' 0AC2'              	incf	___flmul@temp+1,f
  3444  0305' 3000               	movlw	0
  3445  0306' 07C2'              	addwf	___flmul@temp+1,f
  3446  0307'                    l2063:
  3447  0307' 0842'              	movf	___flmul@temp+1,w
  3448  0308' 3A80               	xorlw	128
  3449  0309' 00FF               	movwf	btemp+1
  3450  030A' 3080               	movlw	128
  3451  030B' 027F               	subwf	btemp+1,w
  3452  030C' 1D03               	skipz
  3453  030D' 2800'              	goto	u3155
  3454  030E' 30FF               	movlw	255
  3455  030F' 0241'              	subwf	___flmul@temp,w
  3456  0310'                    u3155:
  3457  0310' 1C03               	skipc
  3458  0311' 2800'              	goto	u3151
  3459  0312' 2800'              	goto	u3150
  3460  0313'                    u3151:
  3461  0313' 2800'              	goto	l2067
  3462  0314'                    u3150:
  3463  0314'                    l2065:
  3464  0314' 307F               	movlw	127
  3465  0315' 1283               	bcf	3,5	;RP0=0, select bank0
  3466  0316' 1303               	bcf	3,6	;RP1=0, select bank0
  3467  0317' 00C0'              	movwf	___flmul@prod+3
  3468  0318' 3080               	movlw	128
  3469  0319' 00BF'              	movwf	___flmul@prod+2
  3470  031A' 3000               	movlw	0
  3471  031B' 00BE'              	movwf	___flmul@prod+1
  3472  031C' 3000               	movlw	0
  3473  031D' 00BD'              	movwf	___flmul@prod
  3474  031E' 2800'              	goto	l600
  3475  031F'                    l2067:
  3476  031F' 1283               	bcf	3,5	;RP0=0, select bank0
  3477  0320' 1303               	bcf	3,6	;RP1=0, select bank0
  3478  0321' 0842'              	movf	___flmul@temp+1,w
  3479  0322' 3A80               	xorlw	128
  3480  0323' 00FF               	movwf	btemp+1
  3481  0324' 3080               	movlw	128
  3482  0325' 027F               	subwf	btemp+1,w
  3483  0326' 1D03               	skipz
  3484  0327' 2800'              	goto	u3165
  3485  0328' 3001               	movlw	1
  3486  0329' 0241'              	subwf	___flmul@temp,w
  3487  032A'                    u3165:
  3488  032A' 1803               	skipnc
  3489  032B' 2800'              	goto	u3161
  3490  032C' 2800'              	goto	u3160
  3491  032D'                    u3161:
  3492  032D' 2800'              	goto	l2073
  3493  032E'                    u3160:
  3494  032E'                    l2069:
  3495  032E' 3000               	movlw	0
  3496  032F' 1283               	bcf	3,5	;RP0=0, select bank0
  3497  0330' 1303               	bcf	3,6	;RP1=0, select bank0
  3498  0331' 00C0'              	movwf	___flmul@prod+3
  3499  0332' 3000               	movlw	0
  3500  0333' 00BF'              	movwf	___flmul@prod+2
  3501  0334' 3000               	movlw	0
  3502  0335' 00BE'              	movwf	___flmul@prod+1
  3503  0336' 3000               	movlw	0
  3504  0337' 00BD'              	movwf	___flmul@prod
  3505  0338'                    l2071:
  3506  0338' 01B6'              	clrf	___flmul@sign
  3507  0339' 2800'              	goto	l600
  3508  033A'                    l2073:
  3509  033A' 1283               	bcf	3,5	;RP0=0, select bank0
  3510  033B' 1303               	bcf	3,6	;RP1=0, select bank0
  3511  033C' 0841'              	movf	___flmul@temp,w
  3512  033D' 00B1'              	movwf	??___flmul
  3513  033E' 0831'              	movf	??___flmul,w
  3514  033F' 00BC'              	movwf	___flmul@bexp
  3515  0340' 30FF               	movlw	255
  3516  0341' 05BD'              	andwf	___flmul@prod,f
  3517  0342' 30FF               	movlw	255
  3518  0343' 05BE'              	andwf	___flmul@prod+1,f
  3519  0344' 307F               	movlw	127
  3520  0345' 05BF'              	andwf	___flmul@prod+2,f
  3521  0346' 3000               	movlw	0
  3522  0347' 05C0'              	andwf	___flmul@prod+3,f
  3523  0348'                    l2075:
  3524  0348' 1C3C'              	btfss	___flmul@bexp,0
  3525  0349' 2800'              	goto	u3171
  3526  034A' 2800'              	goto	u3170
  3527  034B'                    u3171:
  3528  034B' 2800'              	goto	l2079
  3529  034C'                    u3170:
  3530  034C'                    l2077:
  3531  034C' 17BF'              	bsf	___flmul@prod+2,7
  3532  034D'                    l2079:
  3533  034D' 083C'              	movf	___flmul@bexp,w
  3534  034E' 00B1'              	movwf	??___flmul
  3535  034F' 1003               	clrc
  3536  0350' 0C31'              	rrf	??___flmul,w
  3537  0351' 00B2'              	movwf	??___flmul+1
  3538  0352' 0832'              	movf	??___flmul+1,w
  3539  0353' 00C0'              	movwf	___flmul@prod+3
  3540  0354'                    l600:
  3541  0354' 0836'              	movf	___flmul@sign,w
  3542  0355' 00B1'              	movwf	??___flmul
  3543  0356' 0831'              	movf	??___flmul,w
  3544  0357' 04C0'              	iorwf	___flmul@prod+3,f
  3545  0358'                    l2081:
  3546  0358' 0840'              	movf	___flmul@prod+3,w
  3547  0359' 00AC'              	movwf	?___flmul+3
  3548  035A' 083F'              	movf	___flmul@prod+2,w
  3549  035B' 00AB'              	movwf	?___flmul+2
  3550  035C' 083E'              	movf	___flmul@prod+1,w
  3551  035D' 00AA'              	movwf	?___flmul+1
  3552  035E' 083D'              	movf	___flmul@prod,w
  3553  035F' 00A9'              	movwf	?___flmul
  3554  0360'                    l588:
  3555  0360' 0008               	return
  3556  0361'                    __end_of___flmul:
  3557                           
  3558                           	psect	text14
  3559  0000'                    __ptext14:	
  3560 ;; *************** function __Umul8_16 *****************
  3561 ;; Defined at:
  3562 ;;		line 4 in file "C:\Program Files\Microchip\xc8\v2.36\pic\sources\c90\common\Umul8_16.c"
  3563 ;; Parameters:    Size  Location     Type
  3564 ;;  multiplier      1    wreg     unsigned char 
  3565 ;;  multiplicand    1    0[COMMON] unsigned char 
  3566 ;; Auto vars:     Size  Location     Type
  3567 ;;  multiplier      1    8[COMMON] unsigned char 
  3568 ;;  word_mpld       2    6[COMMON] unsigned int 
  3569 ;;  product         2    4[COMMON] unsigned int 
  3570 ;; Return value:  Size  Location     Type
  3571 ;;                  2    0[COMMON] unsigned int 
  3572 ;; Registers used:
  3573 ;;		wreg, status,2, status,0
  3574 ;; Tracked objects:
  3575 ;;		On entry : 0/0
  3576 ;;		On exit  : 0/0
  3577 ;;		Unchanged: 0/0
  3578 ;; Data sizes:     COMMON   BANK0   BANK1   BANK3   BANK2
  3579 ;;      Params:         2       0       0       0       0
  3580 ;;      Locals:         5       0       0       0       0
  3581 ;;      Temps:          2       0       0       0       0
  3582 ;;      Totals:         9       0       0       0       0
  3583 ;;Total ram usage:        9 bytes
  3584 ;; Hardware stack levels used: 1
  3585 ;; This function calls:
  3586 ;;		Nothing
  3587 ;; This function is called by:
  3588 ;;		___flmul
  3589 ;; This function uses a non-reentrant model
  3590 ;;
  3591                           
  3592  0000'                    __Umul8_16:	
  3593                           ;psect for function __Umul8_16
  3594                           
  3595                           
  3596                           ;incstack = 0
  3597                           ; Regs used in __Umul8_16: [wreg+status,2+status,0]
  3598                           ;__Umul8_16@multiplier stored from wreg
  3599  0000' 0088'              	movwf	__Umul8_16@multiplier
  3600  0001'                    l1499:
  3601  0001' 0184'              	clrf	__Umul8_16@product
  3602  0002' 0185'              	clrf	__Umul8_16@product+1
  3603  0003'                    l1501:
  3604  0003' 0800'              	movf	__Umul8_16@multiplicand,w
  3605  0004' 0082'              	movwf	??__Umul8_16
  3606  0005' 0183'              	clrf	??__Umul8_16+1
  3607  0006' 0802'              	movf	??__Umul8_16,w
  3608  0007' 0086'              	movwf	__Umul8_16@word_mpld
  3609  0008' 0803'              	movf	??__Umul8_16+1,w
  3610  0009' 0087'              	movwf	__Umul8_16@word_mpld+1
  3611  000A'                    l1503:
  3612  000A' 1C08'              	btfss	__Umul8_16@multiplier,0
  3613  000B' 2800'              	goto	u1771
  3614  000C' 2800'              	goto	u1770
  3615  000D'                    u1771:
  3616  000D' 2800'              	goto	l607
  3617  000E'                    u1770:
  3618  000E'                    l1505:
  3619  000E' 0806'              	movf	__Umul8_16@word_mpld,w
  3620  000F' 0784'              	addwf	__Umul8_16@product,f
  3621  0010' 1803               	skipnc
  3622  0011' 0A85'              	incf	__Umul8_16@product+1,f
  3623  0012' 0807'              	movf	__Umul8_16@word_mpld+1,w
  3624  0013' 0785'              	addwf	__Umul8_16@product+1,f
  3625  0014'                    l607:
  3626  0014' 3001               	movlw	1
  3627  0015'                    u1785:
  3628  0015' 1003               	clrc
  3629  0016' 0D86'              	rlf	__Umul8_16@word_mpld,f
  3630  0017' 0D87'              	rlf	__Umul8_16@word_mpld+1,f
  3631  0018' 3EFF               	addlw	-1
  3632  0019' 1D03               	skipz
  3633  001A' 2800'              	goto	u1785
  3634  001B' 1003               	clrc
  3635  001C' 0C88'              	rrf	__Umul8_16@multiplier,f
  3636  001D'                    l1507:
  3637  001D' 0808'              	movf	__Umul8_16@multiplier,w
  3638  001E' 1D03               	btfss	3,2
  3639  001F' 2800'              	goto	u1791
  3640  0020' 2800'              	goto	u1790
  3641  0021'                    u1791:
  3642  0021' 2800'              	goto	l1503
  3643  0022'                    u1790:
  3644  0022'                    l1509:
  3645  0022' 0805'              	movf	__Umul8_16@product+1,w
  3646  0023' 0081'              	movwf	?__Umul8_16+1
  3647  0024' 0804'              	movf	__Umul8_16@product,w
  3648  0025' 0080'              	movwf	?__Umul8_16
  3649  0026'                    l609:
  3650  0026' 0008               	return
  3651  0027'                    __end_of__Umul8_16:
  3652                           
  3653                           	psect	text15
  3654  0000'                    __ptext15:	
  3655 ;; *************** function ___fldiv *****************
  3656 ;; Defined at:
  3657 ;;		line 8 in file "C:\Program Files\Microchip\xc8\v2.36\pic\sources\c90\common\sprcdiv.c"
  3658 ;; Parameters:    Size  Location     Type
  3659 ;;  a               4   67[BANK0 ] unsigned int 
  3660 ;;  b               4   71[BANK0 ] unsigned int 
  3661 ;; Auto vars:     Size  Location     Type
  3662 ;;  grs             4    7[BANK1 ] unsigned long 
  3663 ;;  rem             4    0[BANK1 ] unsigned long 
  3664 ;;  new_exp         2    5[BANK1 ] int 
  3665 ;;  aexp            1   12[BANK1 ] unsigned char 
  3666 ;;  bexp            1   11[BANK1 ] unsigned char 
  3667 ;;  sign            1    4[BANK1 ] unsigned char 
  3668 ;; Return value:  Size  Location     Type
  3669 ;;                  4   67[BANK0 ] unsigned char 
  3670 ;; Registers used:
  3671 ;;		wreg, status,2, status,0, btemp+1
  3672 ;; Tracked objects:
  3673 ;;		On entry : 0/0
  3674 ;;		On exit  : 0/0
  3675 ;;		Unchanged: 0/0
  3676 ;; Data sizes:     COMMON   BANK0   BANK1   BANK3   BANK2
  3677 ;;      Params:         0       8       0       0       0
  3678 ;;      Locals:         0       0      13       0       0
  3679 ;;      Temps:          0       5       0       0       0
  3680 ;;      Totals:         0      13      13       0       0
  3681 ;;Total ram usage:       26 bytes
  3682 ;; Hardware stack levels used: 1
  3683 ;; This function calls:
  3684 ;;		Nothing
  3685 ;; This function is called by:
  3686 ;;		_GetRandom
  3687 ;; This function uses a non-reentrant model
  3688 ;;
  3689                           
  3690  0000'                    ___fldiv:	
  3691                           ;psect for function ___fldiv
  3692                           
  3693  0000'                    l1803:	
  3694                           ;incstack = 0
  3695                           ; Regs used in ___fldiv: [wreg+status,2+status,0+btemp+1]
  3696                           
  3697  0000' 1283               	bcf	3,5	;RP0=0, select bank0
  3698  0001' 1303               	bcf	3,6	;RP1=0, select bank0
  3699  0002' 084A'              	movf	___fldiv@b+3,w
  3700  0003' 3980               	andlw	128
  3701  0004' 00CB'              	movwf	??___fldiv
  3702  0005' 084B'              	movf	??___fldiv,w
  3703  0006' 1683               	bsf	3,5	;RP0=1, select bank1
  3704  0007' 1303               	bcf	3,6	;RP1=0, select bank1
  3705  0008' 0080'              	movwf	___fldiv@sign^(0+128)
  3706  0009'                    l1805:
  3707  0009' 1283               	bcf	3,5	;RP0=0, select bank0
  3708  000A' 1303               	bcf	3,6	;RP1=0, select bank0
  3709  000B' 084A'              	movf	___fldiv@b+3,w
  3710  000C' 00CB'              	movwf	??___fldiv
  3711  000D' 074B'              	addwf	??___fldiv,w
  3712  000E' 00CC'              	movwf	??___fldiv+1
  3713  000F' 084C'              	movf	??___fldiv+1,w
  3714  0010' 1683               	bsf	3,5	;RP0=1, select bank1
  3715  0011' 1303               	bcf	3,6	;RP1=0, select bank1
  3716  0012' 0080'              	movwf	___fldiv@bexp^(0+128)
  3717  0013'                    l1807:
  3718  0013' 1283               	bcf	3,5	;RP0=0, select bank0
  3719  0014' 1303               	bcf	3,6	;RP1=0, select bank0
  3720  0015' 1FC9'              	btfss	___fldiv@b+2,7
  3721  0016' 2800'              	goto	u2511
  3722  0017' 2800'              	goto	u2510
  3723  0018'                    u2511:
  3724  0018' 2800'              	goto	l1811
  3725  0019'                    u2510:
  3726  0019'                    l1809:
  3727  0019' 1683               	bsf	3,5	;RP0=1, select bank1
  3728  001A' 1303               	bcf	3,6	;RP1=0, select bank1
  3729  001B' 1400'              	bsf	___fldiv@bexp^(0+128),0
  3730  001C'                    l1811:
  3731  001C' 1683               	bsf	3,5	;RP0=1, select bank1
  3732  001D' 1303               	bcf	3,6	;RP1=0, select bank1
  3733  001E' 0800'              	movf	___fldiv@bexp^(0+128),w
  3734  001F' 1903               	btfsc	3,2
  3735  0020' 2800'              	goto	u2521
  3736  0021' 2800'              	goto	u2520
  3737  0022'                    u2521:
  3738  0022' 2800'              	goto	l1821
  3739  0023'                    u2520:
  3740  0023'                    l1813:
  3741  0023' 0A00'              	incf	___fldiv@bexp^(0+128),w
  3742  0024' 1D03               	btfss	3,2
  3743  0025' 2800'              	goto	u2531
  3744  0026' 2800'              	goto	u2530
  3745  0027'                    u2531:
  3746  0027' 2800'              	goto	l1817
  3747  0028'                    u2530:
  3748  0028'                    l1815:
  3749  0028' 3000               	movlw	0
  3750  0029' 1283               	bcf	3,5	;RP0=0, select bank0
  3751  002A' 1303               	bcf	3,6	;RP1=0, select bank0
  3752  002B' 00CA'              	movwf	___fldiv@b+3
  3753  002C' 3000               	movlw	0
  3754  002D' 00C9'              	movwf	___fldiv@b+2
  3755  002E' 3000               	movlw	0
  3756  002F' 00C8'              	movwf	___fldiv@b+1
  3757  0030' 3000               	movlw	0
  3758  0031' 00C7'              	movwf	___fldiv@b
  3759  0032'                    l1817:
  3760  0032' 1283               	bcf	3,5	;RP0=0, select bank0
  3761  0033' 17C9'              	bsf	___fldiv@b+2,7
  3762  0034'                    l1819:
  3763  0034' 01CA'              	clrf	___fldiv@b+3
  3764  0035' 2800'              	goto	l1823
  3765  0036'                    l1821:
  3766  0036' 3000               	movlw	0
  3767  0037' 1283               	bcf	3,5	;RP0=0, select bank0
  3768  0038' 1303               	bcf	3,6	;RP1=0, select bank0
  3769  0039' 00CA'              	movwf	___fldiv@b+3
  3770  003A' 3000               	movlw	0
  3771  003B' 00C9'              	movwf	___fldiv@b+2
  3772  003C' 3000               	movlw	0
  3773  003D' 00C8'              	movwf	___fldiv@b+1
  3774  003E' 3000               	movlw	0
  3775  003F' 00C7'              	movwf	___fldiv@b
  3776  0040'                    l1823:
  3777  0040' 0846'              	movf	___fldiv@a+3,w
  3778  0041' 3980               	andlw	128
  3779  0042' 00CB'              	movwf	??___fldiv
  3780  0043' 084B'              	movf	??___fldiv,w
  3781  0044' 1683               	bsf	3,5	;RP0=1, select bank1
  3782  0045' 1303               	bcf	3,6	;RP1=0, select bank1
  3783  0046' 0680'              	xorwf	___fldiv@sign^(0+128),f
  3784  0047'                    l1825:
  3785  0047' 1283               	bcf	3,5	;RP0=0, select bank0
  3786  0048' 1303               	bcf	3,6	;RP1=0, select bank0
  3787  0049' 0846'              	movf	___fldiv@a+3,w
  3788  004A' 00CB'              	movwf	??___fldiv
  3789  004B' 074B'              	addwf	??___fldiv,w
  3790  004C' 00CC'              	movwf	??___fldiv+1
  3791  004D' 084C'              	movf	??___fldiv+1,w
  3792  004E' 1683               	bsf	3,5	;RP0=1, select bank1
  3793  004F' 1303               	bcf	3,6	;RP1=0, select bank1
  3794  0050' 0080'              	movwf	___fldiv@aexp^(0+128)
  3795  0051'                    l1827:
  3796  0051' 1283               	bcf	3,5	;RP0=0, select bank0
  3797  0052' 1303               	bcf	3,6	;RP1=0, select bank0
  3798  0053' 1FC5'              	btfss	___fldiv@a+2,7
  3799  0054' 2800'              	goto	u2541
  3800  0055' 2800'              	goto	u2540
  3801  0056'                    u2541:
  3802  0056' 2800'              	goto	l1831
  3803  0057'                    u2540:
  3804  0057'                    l1829:
  3805  0057' 1683               	bsf	3,5	;RP0=1, select bank1
  3806  0058' 1303               	bcf	3,6	;RP1=0, select bank1
  3807  0059' 1400'              	bsf	___fldiv@aexp^(0+128),0
  3808  005A'                    l1831:
  3809  005A' 1683               	bsf	3,5	;RP0=1, select bank1
  3810  005B' 1303               	bcf	3,6	;RP1=0, select bank1
  3811  005C' 0800'              	movf	___fldiv@aexp^(0+128),w
  3812  005D' 1903               	btfsc	3,2
  3813  005E' 2800'              	goto	u2551
  3814  005F' 2800'              	goto	u2550
  3815  0060'                    u2551:
  3816  0060' 2800'              	goto	l1841
  3817  0061'                    u2550:
  3818  0061'                    l1833:
  3819  0061' 0A00'              	incf	___fldiv@aexp^(0+128),w
  3820  0062' 1D03               	btfss	3,2
  3821  0063' 2800'              	goto	u2561
  3822  0064' 2800'              	goto	u2560
  3823  0065'                    u2561:
  3824  0065' 2800'              	goto	l1837
  3825  0066'                    u2560:
  3826  0066'                    l1835:
  3827  0066' 3000               	movlw	0
  3828  0067' 1283               	bcf	3,5	;RP0=0, select bank0
  3829  0068' 1303               	bcf	3,6	;RP1=0, select bank0
  3830  0069' 00C6'              	movwf	___fldiv@a+3
  3831  006A' 3000               	movlw	0
  3832  006B' 00C5'              	movwf	___fldiv@a+2
  3833  006C' 3000               	movlw	0
  3834  006D' 00C4'              	movwf	___fldiv@a+1
  3835  006E' 3000               	movlw	0
  3836  006F' 00C3'              	movwf	___fldiv@a
  3837  0070'                    l1837:
  3838  0070' 1283               	bcf	3,5	;RP0=0, select bank0
  3839  0071' 17C5'              	bsf	___fldiv@a+2,7
  3840  0072'                    l1839:
  3841  0072' 01C6'              	clrf	___fldiv@a+3
  3842  0073' 2800'              	goto	l548
  3843  0074'                    l1841:
  3844  0074' 3000               	movlw	0
  3845  0075' 1283               	bcf	3,5	;RP0=0, select bank0
  3846  0076' 1303               	bcf	3,6	;RP1=0, select bank0
  3847  0077' 00C6'              	movwf	___fldiv@a+3
  3848  0078' 3000               	movlw	0
  3849  0079' 00C5'              	movwf	___fldiv@a+2
  3850  007A' 3000               	movlw	0
  3851  007B' 00C4'              	movwf	___fldiv@a+1
  3852  007C' 3000               	movlw	0
  3853  007D' 00C3'              	movwf	___fldiv@a
  3854  007E'                    l548:
  3855  007E' 0846'              	movf	___fldiv@a+3,w
  3856  007F' 0445'              	iorwf	___fldiv@a+2,w
  3857  0080' 0444'              	iorwf	___fldiv@a+1,w
  3858  0081' 0443'              	iorwf	___fldiv@a,w
  3859  0082' 1D03               	skipz
  3860  0083' 2800'              	goto	u2571
  3861  0084' 2800'              	goto	u2570
  3862  0085'                    u2571:
  3863  0085' 2800'              	goto	l1851
  3864  0086'                    u2570:
  3865  0086'                    l1843:
  3866  0086' 3000               	movlw	0
  3867  0087' 00CA'              	movwf	___fldiv@b+3
  3868  0088' 3000               	movlw	0
  3869  0089' 00C9'              	movwf	___fldiv@b+2
  3870  008A' 3000               	movlw	0
  3871  008B' 00C8'              	movwf	___fldiv@b+1
  3872  008C' 3000               	movlw	0
  3873  008D' 00C7'              	movwf	___fldiv@b
  3874  008E' 3080               	movlw	128
  3875  008F' 04C9'              	iorwf	___fldiv@b+2,f
  3876  0090' 307F               	movlw	127
  3877  0091' 04CA'              	iorwf	___fldiv@b+3,f
  3878  0092'                    l1845:
  3879  0092' 1683               	bsf	3,5	;RP0=1, select bank1
  3880  0093' 1303               	bcf	3,6	;RP1=0, select bank1
  3881  0094' 0800'              	movf	___fldiv@sign^(0+128),w
  3882  0095' 1283               	bcf	3,5	;RP0=0, select bank0
  3883  0096' 1303               	bcf	3,6	;RP1=0, select bank0
  3884  0097' 00CB'              	movwf	??___fldiv
  3885  0098' 084B'              	movf	??___fldiv,w
  3886  0099' 04CA'              	iorwf	___fldiv@b+3,f
  3887  009A'                    l1847:
  3888  009A' 084A'              	movf	___fldiv@b+3,w
  3889  009B' 00C6'              	movwf	?___fldiv+3
  3890  009C' 0849'              	movf	___fldiv@b+2,w
  3891  009D' 00C5'              	movwf	?___fldiv+2
  3892  009E' 0848'              	movf	___fldiv@b+1,w
  3893  009F' 00C4'              	movwf	?___fldiv+1
  3894  00A0' 0847'              	movf	___fldiv@b,w
  3895  00A1' 00C3'              	movwf	?___fldiv
  3896  00A2' 2800'              	goto	l550
  3897  00A3'                    l1851:
  3898  00A3' 1683               	bsf	3,5	;RP0=1, select bank1
  3899  00A4' 1303               	bcf	3,6	;RP1=0, select bank1
  3900  00A5' 0800'              	movf	___fldiv@bexp^(0+128),w
  3901  00A6' 1D03               	btfss	3,2
  3902  00A7' 2800'              	goto	u2581
  3903  00A8' 2800'              	goto	u2580
  3904  00A9'                    u2581:
  3905  00A9' 2800'              	goto	l1857
  3906  00AA'                    u2580:
  3907  00AA'                    l1853:
  3908  00AA' 3000               	movlw	0
  3909  00AB' 1283               	bcf	3,5	;RP0=0, select bank0
  3910  00AC' 1303               	bcf	3,6	;RP1=0, select bank0
  3911  00AD' 00C6'              	movwf	?___fldiv+3
  3912  00AE' 3000               	movlw	0
  3913  00AF' 00C5'              	movwf	?___fldiv+2
  3914  00B0' 3000               	movlw	0
  3915  00B1' 00C4'              	movwf	?___fldiv+1
  3916  00B2' 3000               	movlw	0
  3917  00B3' 00C3'              	movwf	?___fldiv
  3918  00B4' 2800'              	goto	l550
  3919  00B5'                    l1857:
  3920  00B5' 0800'              	movf	___fldiv@bexp^(0+128),w
  3921  00B6' 1283               	bcf	3,5	;RP0=0, select bank0
  3922  00B7' 1303               	bcf	3,6	;RP1=0, select bank0
  3923  00B8' 00CB'              	movwf	??___fldiv
  3924  00B9' 01CC'              	clrf	??___fldiv+1
  3925  00BA' 084C'              	movf	??___fldiv+1,w
  3926  00BB' 00CE'              	movwf	??___fldiv+3
  3927  00BC' 1683               	bsf	3,5	;RP0=1, select bank1
  3928  00BD' 1303               	bcf	3,6	;RP1=0, select bank1
  3929  00BE' 0800'              	movf	___fldiv@aexp^(0+128),w
  3930  00BF' 1283               	bcf	3,5	;RP0=0, select bank0
  3931  00C0' 1303               	bcf	3,6	;RP1=0, select bank0
  3932  00C1' 024B'              	subwf	??___fldiv,w
  3933  00C2' 00CD'              	movwf	??___fldiv+2
  3934  00C3' 1C03               	skipc
  3935  00C4' 03CE'              	decf	??___fldiv+3,f
  3936  00C5' 084D'              	movf	??___fldiv+2,w
  3937  00C6' 3E7F               	addlw	127
  3938  00C7' 1683               	bsf	3,5	;RP0=1, select bank1
  3939  00C8' 1303               	bcf	3,6	;RP1=0, select bank1
  3940  00C9' 0080'              	movwf	___fldiv@new_exp^(0+128)
  3941  00CA' 1283               	bcf	3,5	;RP0=0, select bank0
  3942  00CB' 1303               	bcf	3,6	;RP1=0, select bank0
  3943  00CC' 084E'              	movf	??___fldiv+3,w
  3944  00CD' 1803               	skipnc
  3945  00CE' 3E01               	addlw	1
  3946  00CF' 3E00               	addlw	0
  3947  00D0' 1683               	bsf	3,5	;RP0=1, select bank1
  3948  00D1' 1303               	bcf	3,6	;RP1=0, select bank1
  3949  00D2' 0080'              	movwf	(___fldiv@new_exp+1)^(0+128)
  3950  00D3'                    l1859:
  3951  00D3' 1283               	bcf	3,5	;RP0=0, select bank0
  3952  00D4' 1303               	bcf	3,6	;RP1=0, select bank0
  3953  00D5' 084A'              	movf	___fldiv@b+3,w
  3954  00D6' 1683               	bsf	3,5	;RP0=1, select bank1
  3955  00D7' 1303               	bcf	3,6	;RP1=0, select bank1
  3956  00D8' 0080'              	movwf	(___fldiv@rem+3)^(0+128)
  3957  00D9' 1283               	bcf	3,5	;RP0=0, select bank0
  3958  00DA' 1303               	bcf	3,6	;RP1=0, select bank0
  3959  00DB' 0849'              	movf	___fldiv@b+2,w
  3960  00DC' 1683               	bsf	3,5	;RP0=1, select bank1
  3961  00DD' 1303               	bcf	3,6	;RP1=0, select bank1
  3962  00DE' 0080'              	movwf	(___fldiv@rem+2)^(0+128)
  3963  00DF' 1283               	bcf	3,5	;RP0=0, select bank0
  3964  00E0' 1303               	bcf	3,6	;RP1=0, select bank0
  3965  00E1' 0848'              	movf	___fldiv@b+1,w
  3966  00E2' 1683               	bsf	3,5	;RP0=1, select bank1
  3967  00E3' 1303               	bcf	3,6	;RP1=0, select bank1
  3968  00E4' 0080'              	movwf	(___fldiv@rem+1)^(0+128)
  3969  00E5' 1283               	bcf	3,5	;RP0=0, select bank0
  3970  00E6' 1303               	bcf	3,6	;RP1=0, select bank0
  3971  00E7' 0847'              	movf	___fldiv@b,w
  3972  00E8' 1683               	bsf	3,5	;RP0=1, select bank1
  3973  00E9' 1303               	bcf	3,6	;RP1=0, select bank1
  3974  00EA' 0080'              	movwf	___fldiv@rem^(0+128)
  3975  00EB'                    l1861:
  3976  00EB' 3000               	movlw	0
  3977  00EC' 1283               	bcf	3,5	;RP0=0, select bank0
  3978  00ED' 1303               	bcf	3,6	;RP1=0, select bank0
  3979  00EE' 00CA'              	movwf	___fldiv@b+3
  3980  00EF' 3000               	movlw	0
  3981  00F0' 00C9'              	movwf	___fldiv@b+2
  3982  00F1' 3000               	movlw	0
  3983  00F2' 00C8'              	movwf	___fldiv@b+1
  3984  00F3' 3000               	movlw	0
  3985  00F4' 00C7'              	movwf	___fldiv@b
  3986  00F5'                    l1863:
  3987  00F5' 3000               	movlw	0
  3988  00F6' 1683               	bsf	3,5	;RP0=1, select bank1
  3989  00F7' 1303               	bcf	3,6	;RP1=0, select bank1
  3990  00F8' 0080'              	movwf	(___fldiv@grs+3)^(0+128)
  3991  00F9' 3000               	movlw	0
  3992  00FA' 0080'              	movwf	(___fldiv@grs+2)^(0+128)
  3993  00FB' 3000               	movlw	0
  3994  00FC' 0080'              	movwf	(___fldiv@grs+1)^(0+128)
  3995  00FD' 3000               	movlw	0
  3996  00FE' 0080'              	movwf	___fldiv@grs^(0+128)
  3997  00FF'                    l1865:
  3998  00FF' 0180'              	clrf	___fldiv@aexp^(0+128)
  3999  0100' 2800'              	goto	l1885
  4000  0101'                    l1867:
  4001  0101' 0800'              	movf	___fldiv@aexp^(0+128),w
  4002  0102' 1903               	btfsc	3,2
  4003  0103' 2800'              	goto	u2591
  4004  0104' 2800'              	goto	u2590
  4005  0105'                    u2591:
  4006  0105' 2800'              	goto	l1877
  4007  0106'                    u2590:
  4008  0106'                    l1869:
  4009  0106' 3001               	movlw	1
  4010  0107' 1283               	bcf	3,5	;RP0=0, select bank0
  4011  0108' 1303               	bcf	3,6	;RP1=0, select bank0
  4012  0109' 00CB'              	movwf	??___fldiv
  4013  010A'                    u2605:
  4014  010A' 1003               	clrc
  4015  010B' 1683               	bsf	3,5	;RP0=1, select bank1
  4016  010C' 1303               	bcf	3,6	;RP1=0, select bank1
  4017  010D' 0D80'              	rlf	___fldiv@rem^(0+128),f
  4018  010E' 0D80'              	rlf	(___fldiv@rem+1)^(0+128),f
  4019  010F' 0D80'              	rlf	(___fldiv@rem+2)^(0+128),f
  4020  0110' 0D80'              	rlf	(___fldiv@rem+3)^(0+128),f
  4021  0111' 1283               	bcf	3,5	;RP0=0, select bank0
  4022  0112' 1303               	bcf	3,6	;RP1=0, select bank0
  4023  0113' 0BCB'              	decfsz	??___fldiv,f
  4024  0114' 2800'              	goto	u2605
  4025  0115' 3001               	movlw	1
  4026  0116' 00CB'              	movwf	??___fldiv
  4027  0117'                    u2615:
  4028  0117' 1003               	clrc
  4029  0118' 0DC7'              	rlf	___fldiv@b,f
  4030  0119' 0DC8'              	rlf	___fldiv@b+1,f
  4031  011A' 0DC9'              	rlf	___fldiv@b+2,f
  4032  011B' 0DCA'              	rlf	___fldiv@b+3,f
  4033  011C' 0BCB'              	decfsz	??___fldiv,f
  4034  011D' 2800'              	goto	u2615
  4035  011E'                    l1871:
  4036  011E' 1683               	bsf	3,5	;RP0=1, select bank1
  4037  011F' 1303               	bcf	3,6	;RP1=0, select bank1
  4038  0120' 1F80'              	btfss	(___fldiv@grs+3)^(0+128),7
  4039  0121' 2800'              	goto	u2621
  4040  0122' 2800'              	goto	u2620
  4041  0123'                    u2621:
  4042  0123' 2800'              	goto	l1875
  4043  0124'                    u2620:
  4044  0124'                    l1873:
  4045  0124' 1283               	bcf	3,5	;RP0=0, select bank0
  4046  0125' 1303               	bcf	3,6	;RP1=0, select bank0
  4047  0126' 1447'              	bsf	___fldiv@b,0
  4048  0127'                    l1875:
  4049  0127' 3001               	movlw	1
  4050  0128' 1283               	bcf	3,5	;RP0=0, select bank0
  4051  0129' 00CB'              	movwf	??___fldiv
  4052  012A'                    u2635:
  4053  012A' 1003               	clrc
  4054  012B' 1683               	bsf	3,5	;RP0=1, select bank1
  4055  012C' 1303               	bcf	3,6	;RP1=0, select bank1
  4056  012D' 0D80'              	rlf	___fldiv@grs^(0+128),f
  4057  012E' 0D80'              	rlf	(___fldiv@grs+1)^(0+128),f
  4058  012F' 0D80'              	rlf	(___fldiv@grs+2)^(0+128),f
  4059  0130' 0D80'              	rlf	(___fldiv@grs+3)^(0+128),f
  4060  0131' 1283               	bcf	3,5	;RP0=0, select bank0
  4061  0132' 1303               	bcf	3,6	;RP1=0, select bank0
  4062  0133' 0BCB'              	decfsz	??___fldiv,f
  4063  0134' 2800'              	goto	u2635
  4064  0135'                    l1877:
  4065  0135' 1283               	bcf	3,5	;RP0=0, select bank0
  4066  0136' 0846'              	movf	___fldiv@a+3,w
  4067  0137' 1683               	bsf	3,5	;RP0=1, select bank1
  4068  0138' 1303               	bcf	3,6	;RP1=0, select bank1
  4069  0139' 0200'              	subwf	(___fldiv@rem+3)^(0+128),w
  4070  013A' 1D03               	skipz
  4071  013B' 2800'              	goto	u2645
  4072  013C' 1283               	bcf	3,5	;RP0=0, select bank0
  4073  013D' 1303               	bcf	3,6	;RP1=0, select bank0
  4074  013E' 0845'              	movf	___fldiv@a+2,w
  4075  013F' 1683               	bsf	3,5	;RP0=1, select bank1
  4076  0140' 1303               	bcf	3,6	;RP1=0, select bank1
  4077  0141' 0200'              	subwf	(___fldiv@rem+2)^(0+128),w
  4078  0142' 1D03               	skipz
  4079  0143' 2800'              	goto	u2645
  4080  0144' 1283               	bcf	3,5	;RP0=0, select bank0
  4081  0145' 1303               	bcf	3,6	;RP1=0, select bank0
  4082  0146' 0844'              	movf	___fldiv@a+1,w
  4083  0147' 1683               	bsf	3,5	;RP0=1, select bank1
  4084  0148' 1303               	bcf	3,6	;RP1=0, select bank1
  4085  0149' 0200'              	subwf	(___fldiv@rem+1)^(0+128),w
  4086  014A' 1D03               	skipz
  4087  014B' 2800'              	goto	u2645
  4088  014C' 1283               	bcf	3,5	;RP0=0, select bank0
  4089  014D' 1303               	bcf	3,6	;RP1=0, select bank0
  4090  014E' 0843'              	movf	___fldiv@a,w
  4091  014F' 1683               	bsf	3,5	;RP0=1, select bank1
  4092  0150' 1303               	bcf	3,6	;RP1=0, select bank1
  4093  0151' 0200'              	subwf	___fldiv@rem^(0+128),w
  4094  0152'                    u2645:
  4095  0152' 1C03               	skipc
  4096  0153' 2800'              	goto	u2641
  4097  0154' 2800'              	goto	u2640
  4098  0155'                    u2641:
  4099  0155' 2800'              	goto	l1883
  4100  0156'                    u2640:
  4101  0156'                    l1879:
  4102  0156' 1703'              	bsf	(___fldiv@grs^(0+128)+3),6
  4103  0157'                    l1881:
  4104  0157' 1283               	bcf	3,5	;RP0=0, select bank0
  4105  0158' 1303               	bcf	3,6	;RP1=0, select bank0
  4106  0159' 0843'              	movf	___fldiv@a,w
  4107  015A' 1683               	bsf	3,5	;RP0=1, select bank1
  4108  015B' 1303               	bcf	3,6	;RP1=0, select bank1
  4109  015C' 0280'              	subwf	___fldiv@rem^(0+128),f
  4110  015D' 1283               	bcf	3,5	;RP0=0, select bank0
  4111  015E' 1303               	bcf	3,6	;RP1=0, select bank0
  4112  015F' 0844'              	movf	___fldiv@a+1,w
  4113  0160' 1C03               	skipc
  4114  0161' 0F44'              	incfsz	___fldiv@a+1,w
  4115  0162' 2800'              	goto	u2655
  4116  0163' 2800'              	goto	u2656
  4117  0164'                    u2655:
  4118  0164' 1683               	bsf	3,5	;RP0=1, select bank1
  4119  0165' 1303               	bcf	3,6	;RP1=0, select bank1
  4120  0166' 0280'              	subwf	(___fldiv@rem+1)^(0+128),f
  4121  0167'                    u2656:
  4122  0167' 1283               	bcf	3,5	;RP0=0, select bank0
  4123  0168' 1303               	bcf	3,6	;RP1=0, select bank0
  4124  0169' 0845'              	movf	___fldiv@a+2,w
  4125  016A' 1C03               	skipc
  4126  016B' 0F45'              	incfsz	___fldiv@a+2,w
  4127  016C' 2800'              	goto	u2657
  4128  016D' 2800'              	goto	u2658
  4129  016E'                    u2657:
  4130  016E' 1683               	bsf	3,5	;RP0=1, select bank1
  4131  016F' 1303               	bcf	3,6	;RP1=0, select bank1
  4132  0170' 0280'              	subwf	(___fldiv@rem+2)^(0+128),f
  4133  0171'                    u2658:
  4134  0171' 1283               	bcf	3,5	;RP0=0, select bank0
  4135  0172' 1303               	bcf	3,6	;RP1=0, select bank0
  4136  0173' 0846'              	movf	___fldiv@a+3,w
  4137  0174' 1C03               	skipc
  4138  0175' 0F46'              	incfsz	___fldiv@a+3,w
  4139  0176' 2800'              	goto	u2659
  4140  0177' 2800'              	goto	u2650
  4141  0178'                    u2659:
  4142  0178' 1683               	bsf	3,5	;RP0=1, select bank1
  4143  0179' 1303               	bcf	3,6	;RP1=0, select bank1
  4144  017A' 0280'              	subwf	(___fldiv@rem+3)^(0+128),f
  4145  017B'                    u2650:
  4146  017B' 1283               	bcf	3,5	;RP0=0, select bank0
  4147  017C' 1303               	bcf	3,6	;RP1=0, select bank0
  4148  017D' 1683               	bsf	3,5	;RP0=1, select bank1
  4149  017E' 1303               	bcf	3,6	;RP1=0, select bank1
  4150  017F'                    l1883:
  4151  017F' 3001               	movlw	1
  4152  0180' 1283               	bcf	3,5	;RP0=0, select bank0
  4153  0181' 1303               	bcf	3,6	;RP1=0, select bank0
  4154  0182' 00CB'              	movwf	??___fldiv
  4155  0183' 084B'              	movf	??___fldiv,w
  4156  0184' 1683               	bsf	3,5	;RP0=1, select bank1
  4157  0185' 1303               	bcf	3,6	;RP1=0, select bank1
  4158  0186' 0780'              	addwf	___fldiv@aexp^(0+128),f
  4159  0187'                    l1885:
  4160  0187' 301A               	movlw	26
  4161  0188' 0200'              	subwf	___fldiv@aexp^(0+128),w
  4162  0189' 1C03               	skipc
  4163  018A' 2800'              	goto	u2661
  4164  018B' 2800'              	goto	u2660
  4165  018C'                    u2661:
  4166  018C' 2800'              	goto	l1867
  4167  018D'                    u2660:
  4168  018D'                    l1887:
  4169  018D' 0800'              	movf	(___fldiv@rem+3)^(0+128),w
  4170  018E' 0400'              	iorwf	(___fldiv@rem+2)^(0+128),w
  4171  018F' 0400'              	iorwf	(___fldiv@rem+1)^(0+128),w
  4172  0190' 0400'              	iorwf	___fldiv@rem^(0+128),w
  4173  0191' 1903               	skipnz
  4174  0192' 2800'              	goto	u2671
  4175  0193' 2800'              	goto	u2670
  4176  0194'                    u2671:
  4177  0194' 2800'              	goto	l1901
  4178  0195'                    u2670:
  4179  0195'                    l1889:
  4180  0195' 1400'              	bsf	___fldiv@grs^(0+128),0
  4181  0196' 2800'              	goto	l1901
  4182  0197'                    l1891:
  4183  0197' 3001               	movlw	1
  4184  0198' 00CB'              	movwf	??___fldiv
  4185  0199'                    u2685:
  4186  0199' 1003               	clrc
  4187  019A' 0DC7'              	rlf	___fldiv@b,f
  4188  019B' 0DC8'              	rlf	___fldiv@b+1,f
  4189  019C' 0DC9'              	rlf	___fldiv@b+2,f
  4190  019D' 0DCA'              	rlf	___fldiv@b+3,f
  4191  019E' 0BCB'              	decfsz	??___fldiv,f
  4192  019F' 2800'              	goto	u2685
  4193  01A0'                    l1893:
  4194  01A0' 1683               	bsf	3,5	;RP0=1, select bank1
  4195  01A1' 1303               	bcf	3,6	;RP1=0, select bank1
  4196  01A2' 1F80'              	btfss	(___fldiv@grs+3)^(0+128),7
  4197  01A3' 2800'              	goto	u2691
  4198  01A4' 2800'              	goto	u2690
  4199  01A5'                    u2691:
  4200  01A5' 2800'              	goto	l1897
  4201  01A6'                    u2690:
  4202  01A6'                    l1895:
  4203  01A6' 1283               	bcf	3,5	;RP0=0, select bank0
  4204  01A7' 1303               	bcf	3,6	;RP1=0, select bank0
  4205  01A8' 1447'              	bsf	___fldiv@b,0
  4206  01A9'                    l1897:
  4207  01A9' 3001               	movlw	1
  4208  01AA' 1283               	bcf	3,5	;RP0=0, select bank0
  4209  01AB' 00CB'              	movwf	??___fldiv
  4210  01AC'                    u2705:
  4211  01AC' 1003               	clrc
  4212  01AD' 1683               	bsf	3,5	;RP0=1, select bank1
  4213  01AE' 1303               	bcf	3,6	;RP1=0, select bank1
  4214  01AF' 0D80'              	rlf	___fldiv@grs^(0+128),f
  4215  01B0' 0D80'              	rlf	(___fldiv@grs+1)^(0+128),f
  4216  01B1' 0D80'              	rlf	(___fldiv@grs+2)^(0+128),f
  4217  01B2' 0D80'              	rlf	(___fldiv@grs+3)^(0+128),f
  4218  01B3' 1283               	bcf	3,5	;RP0=0, select bank0
  4219  01B4' 1303               	bcf	3,6	;RP1=0, select bank0
  4220  01B5' 0BCB'              	decfsz	??___fldiv,f
  4221  01B6' 2800'              	goto	u2705
  4222  01B7'                    l1899:
  4223  01B7' 30FF               	movlw	255
  4224  01B8' 1683               	bsf	3,5	;RP0=1, select bank1
  4225  01B9' 1303               	bcf	3,6	;RP1=0, select bank1
  4226  01BA' 0780'              	addwf	___fldiv@new_exp^(0+128),f
  4227  01BB' 1803               	skipnc
  4228  01BC' 0A80'              	incf	(___fldiv@new_exp+1)^(0+128),f
  4229  01BD' 30FF               	movlw	255
  4230  01BE' 0780'              	addwf	(___fldiv@new_exp+1)^(0+128),f
  4231  01BF'                    l1901:
  4232  01BF' 1283               	bcf	3,5	;RP0=0, select bank0
  4233  01C0' 1303               	bcf	3,6	;RP1=0, select bank0
  4234  01C1' 1FC9'              	btfss	___fldiv@b+2,7
  4235  01C2' 2800'              	goto	u2711
  4236  01C3' 2800'              	goto	u2710
  4237  01C4'                    u2711:
  4238  01C4' 2800'              	goto	l1891
  4239  01C5'                    u2710:
  4240  01C5'                    l1903:
  4241  01C5' 1683               	bsf	3,5	;RP0=1, select bank1
  4242  01C6' 1303               	bcf	3,6	;RP1=0, select bank1
  4243  01C7' 0180'              	clrf	___fldiv@aexp^(0+128)
  4244  01C8'                    l1905:
  4245  01C8' 1F80'              	btfss	(___fldiv@grs+3)^(0+128),7
  4246  01C9' 2800'              	goto	u2721
  4247  01CA' 2800'              	goto	u2720
  4248  01CB'                    u2721:
  4249  01CB' 2800'              	goto	l1913
  4250  01CC'                    u2720:
  4251  01CC'                    l1907:
  4252  01CC' 30FF               	movlw	255
  4253  01CD' 0500'              	andwf	___fldiv@grs^(0+128),w
  4254  01CE' 1283               	bcf	3,5	;RP0=0, select bank0
  4255  01CF' 1303               	bcf	3,6	;RP1=0, select bank0
  4256  01D0' 00CB'              	movwf	??___fldiv
  4257  01D1' 30FF               	movlw	255
  4258  01D2' 1683               	bsf	3,5	;RP0=1, select bank1
  4259  01D3' 1303               	bcf	3,6	;RP1=0, select bank1
  4260  01D4' 0500'              	andwf	(___fldiv@grs+1)^(0+128),w
  4261  01D5' 1283               	bcf	3,5	;RP0=0, select bank0
  4262  01D6' 1303               	bcf	3,6	;RP1=0, select bank0
  4263  01D7' 00CC'              	movwf	??___fldiv+1
  4264  01D8' 30FF               	movlw	255
  4265  01D9' 1683               	bsf	3,5	;RP0=1, select bank1
  4266  01DA' 1303               	bcf	3,6	;RP1=0, select bank1
  4267  01DB' 0500'              	andwf	(___fldiv@grs+2)^(0+128),w
  4268  01DC' 1283               	bcf	3,5	;RP0=0, select bank0
  4269  01DD' 1303               	bcf	3,6	;RP1=0, select bank0
  4270  01DE' 00CD'              	movwf	??___fldiv+2
  4271  01DF' 307F               	movlw	127
  4272  01E0' 1683               	bsf	3,5	;RP0=1, select bank1
  4273  01E1' 1303               	bcf	3,6	;RP1=0, select bank1
  4274  01E2' 0500'              	andwf	(___fldiv@grs+3)^(0+128),w
  4275  01E3' 1283               	bcf	3,5	;RP0=0, select bank0
  4276  01E4' 1303               	bcf	3,6	;RP1=0, select bank0
  4277  01E5' 00CE'              	movwf	??___fldiv+3
  4278  01E6' 084E'              	movf	??___fldiv+3,w
  4279  01E7' 044D'              	iorwf	??___fldiv+2,w
  4280  01E8' 044C'              	iorwf	??___fldiv+1,w
  4281  01E9' 044B'              	iorwf	??___fldiv,w
  4282  01EA' 1903               	skipnz
  4283  01EB' 2800'              	goto	u2731
  4284  01EC' 2800'              	goto	u2730
  4285  01ED'                    u2731:
  4286  01ED' 2800'              	goto	l564
  4287  01EE'                    u2730:
  4288  01EE'                    l1909:
  4289  01EE' 1683               	bsf	3,5	;RP0=1, select bank1
  4290  01EF' 1303               	bcf	3,6	;RP1=0, select bank1
  4291  01F0' 0180'              	clrf	___fldiv@aexp^(0+128)
  4292  01F1' 0A80'              	incf	___fldiv@aexp^(0+128),f
  4293  01F2' 2800'              	goto	l1913
  4294  01F3'                    l564:
  4295  01F3' 1C47'              	btfss	___fldiv@b,0
  4296  01F4' 2800'              	goto	u2741
  4297  01F5' 2800'              	goto	u2740
  4298  01F6'                    u2741:
  4299  01F6' 2800'              	goto	l1913
  4300  01F7'                    u2740:
  4301  01F7' 2800'              	goto	l1909
  4302  01F8'                    l1913:
  4303  01F8' 1683               	bsf	3,5	;RP0=1, select bank1
  4304  01F9' 1303               	bcf	3,6	;RP1=0, select bank1
  4305  01FA' 0800'              	movf	___fldiv@aexp^(0+128),w
  4306  01FB' 1903               	btfsc	3,2
  4307  01FC' 2800'              	goto	u2751
  4308  01FD' 2800'              	goto	u2750
  4309  01FE'                    u2751:
  4310  01FE' 2800'              	goto	l1923
  4311  01FF'                    u2750:
  4312  01FF'                    l1915:
  4313  01FF' 3001               	movlw	1
  4314  0200' 1283               	bcf	3,5	;RP0=0, select bank0
  4315  0201' 1303               	bcf	3,6	;RP1=0, select bank0
  4316  0202' 07C7'              	addwf	___fldiv@b,f
  4317  0203' 3000               	movlw	0
  4318  0204' 1803               	skipnc
  4319  0205' 3001               	movlw	1
  4320  0206' 07C8'              	addwf	___fldiv@b+1,f
  4321  0207' 3000               	movlw	0
  4322  0208' 1803               	skipnc
  4323  0209' 3001               	movlw	1
  4324  020A' 07C9'              	addwf	___fldiv@b+2,f
  4325  020B' 3000               	movlw	0
  4326  020C' 1803               	skipnc
  4327  020D' 3001               	movlw	1
  4328  020E' 07CA'              	addwf	___fldiv@b+3,f
  4329  020F'                    l1917:
  4330  020F' 1C4A'              	btfss	___fldiv@b+3,0
  4331  0210' 2800'              	goto	u2761
  4332  0211' 2800'              	goto	u2760
  4333  0212'                    u2761:
  4334  0212' 2800'              	goto	l1923
  4335  0213'                    u2760:
  4336  0213'                    l1919:
  4337  0213' 0847'              	movf	___fldiv@b,w
  4338  0214' 00CB'              	movwf	??___fldiv
  4339  0215' 0848'              	movf	___fldiv@b+1,w
  4340  0216' 00CC'              	movwf	??___fldiv+1
  4341  0217' 0849'              	movf	___fldiv@b+2,w
  4342  0218' 00CD'              	movwf	??___fldiv+2
  4343  0219' 084A'              	movf	___fldiv@b+3,w
  4344  021A' 00CE'              	movwf	??___fldiv+3
  4345  021B' 3001               	movlw	1
  4346  021C' 00CF'              	movwf	??___fldiv+4
  4347  021D'                    u2775:
  4348  021D' 0D4E'              	rlf	??___fldiv+3,w
  4349  021E' 0CCE'              	rrf	??___fldiv+3,f
  4350  021F' 0CCD'              	rrf	??___fldiv+2,f
  4351  0220' 0CCC'              	rrf	??___fldiv+1,f
  4352  0221' 0CCB'              	rrf	??___fldiv,f
  4353  0222'                    u2770:
  4354  0222' 0BCF'              	decfsz	??___fldiv+4,f
  4355  0223' 2800'              	goto	u2775
  4356  0224' 084E'              	movf	??___fldiv+3,w
  4357  0225' 00CA'              	movwf	___fldiv@b+3
  4358  0226' 084D'              	movf	??___fldiv+2,w
  4359  0227' 00C9'              	movwf	___fldiv@b+2
  4360  0228' 084C'              	movf	??___fldiv+1,w
  4361  0229' 00C8'              	movwf	___fldiv@b+1
  4362  022A' 084B'              	movf	??___fldiv,w
  4363  022B' 00C7'              	movwf	___fldiv@b
  4364  022C'                    l1921:
  4365  022C' 3001               	movlw	1
  4366  022D' 1683               	bsf	3,5	;RP0=1, select bank1
  4367  022E' 1303               	bcf	3,6	;RP1=0, select bank1
  4368  022F' 0780'              	addwf	___fldiv@new_exp^(0+128),f
  4369  0230' 1803               	skipnc
  4370  0231' 0A80'              	incf	(___fldiv@new_exp+1)^(0+128),f
  4371  0232' 3000               	movlw	0
  4372  0233' 0780'              	addwf	(___fldiv@new_exp+1)^(0+128),f
  4373  0234'                    l1923:
  4374  0234' 1683               	bsf	3,5	;RP0=1, select bank1
  4375  0235' 1303               	bcf	3,6	;RP1=0, select bank1
  4376  0236' 0800'              	movf	(___fldiv@new_exp+1)^(0+128),w
  4377  0237' 3A80               	xorlw	128
  4378  0238' 00FF               	movwf	btemp+1
  4379  0239' 3080               	movlw	128
  4380  023A' 027F               	subwf	btemp+1,w
  4381  023B' 1D03               	skipz
  4382  023C' 2800'              	goto	u2785
  4383  023D' 30FF               	movlw	255
  4384  023E' 0200'              	subwf	___fldiv@new_exp^(0+128),w
  4385  023F'                    u2785:
  4386  023F' 1C03               	skipc
  4387  0240' 2800'              	goto	u2781
  4388  0241' 2800'              	goto	u2780
  4389  0242'                    u2781:
  4390  0242' 2800'              	goto	l1927
  4391  0243'                    u2780:
  4392  0243'                    l1925:
  4393  0243' 30FF               	movlw	255
  4394  0244' 1683               	bsf	3,5	;RP0=1, select bank1
  4395  0245' 1303               	bcf	3,6	;RP1=0, select bank1
  4396  0246' 0080'              	movwf	___fldiv@new_exp^(0+128)
  4397  0247' 3000               	movlw	0
  4398  0248' 0081'              	movwf	(___fldiv@new_exp^(0+128)+1)
  4399  0249' 3000               	movlw	0
  4400  024A' 1283               	bcf	3,5	;RP0=0, select bank0
  4401  024B' 1303               	bcf	3,6	;RP1=0, select bank0
  4402  024C' 00CA'              	movwf	___fldiv@b+3
  4403  024D' 3000               	movlw	0
  4404  024E' 00C9'              	movwf	___fldiv@b+2
  4405  024F' 3000               	movlw	0
  4406  0250' 00C8'              	movwf	___fldiv@b+1
  4407  0251' 3000               	movlw	0
  4408  0252' 00C7'              	movwf	___fldiv@b
  4409  0253'                    l1927:
  4410  0253' 1683               	bsf	3,5	;RP0=1, select bank1
  4411  0254' 1303               	bcf	3,6	;RP1=0, select bank1
  4412  0255' 0800'              	movf	(___fldiv@new_exp+1)^(0+128),w
  4413  0256' 3A80               	xorlw	128
  4414  0257' 00FF               	movwf	btemp+1
  4415  0258' 3080               	movlw	128
  4416  0259' 027F               	subwf	btemp+1,w
  4417  025A' 1D03               	skipz
  4418  025B' 2800'              	goto	u2795
  4419  025C' 3001               	movlw	1
  4420  025D' 0200'              	subwf	___fldiv@new_exp^(0+128),w
  4421  025E'                    u2795:
  4422  025E' 1803               	skipnc
  4423  025F' 2800'              	goto	u2791
  4424  0260' 2800'              	goto	u2790
  4425  0261'                    u2791:
  4426  0261' 2800'              	goto	l570
  4427  0262'                    u2790:
  4428  0262'                    l1929:
  4429  0262' 1683               	bsf	3,5	;RP0=1, select bank1
  4430  0263' 1303               	bcf	3,6	;RP1=0, select bank1
  4431  0264' 0180'              	clrf	___fldiv@new_exp^(0+128)
  4432  0265' 0180'              	clrf	(___fldiv@new_exp+1)^(0+128)
  4433  0266'                    l1931:
  4434  0266' 3000               	movlw	0
  4435  0267' 1283               	bcf	3,5	;RP0=0, select bank0
  4436  0268' 1303               	bcf	3,6	;RP1=0, select bank0
  4437  0269' 00CA'              	movwf	___fldiv@b+3
  4438  026A' 3000               	movlw	0
  4439  026B' 00C9'              	movwf	___fldiv@b+2
  4440  026C' 3000               	movlw	0
  4441  026D' 00C8'              	movwf	___fldiv@b+1
  4442  026E' 3000               	movlw	0
  4443  026F' 00C7'              	movwf	___fldiv@b
  4444  0270'                    l1933:
  4445  0270' 1683               	bsf	3,5	;RP0=1, select bank1
  4446  0271' 1303               	bcf	3,6	;RP1=0, select bank1
  4447  0272' 0180'              	clrf	___fldiv@sign^(0+128)
  4448  0273'                    l570:
  4449  0273' 1683               	bsf	3,5	;RP0=1, select bank1
  4450  0274' 1303               	bcf	3,6	;RP1=0, select bank1
  4451  0275' 0800'              	movf	___fldiv@new_exp^(0+128),w
  4452  0276' 1283               	bcf	3,5	;RP0=0, select bank0
  4453  0277' 1303               	bcf	3,6	;RP1=0, select bank0
  4454  0278' 00CB'              	movwf	??___fldiv
  4455  0279' 084B'              	movf	??___fldiv,w
  4456  027A' 1683               	bsf	3,5	;RP0=1, select bank1
  4457  027B' 1303               	bcf	3,6	;RP1=0, select bank1
  4458  027C' 0080'              	movwf	___fldiv@bexp^(0+128)
  4459  027D'                    l1935:
  4460  027D' 1C00'              	btfss	___fldiv@bexp^(0+128),0
  4461  027E' 2800'              	goto	u2801
  4462  027F' 2800'              	goto	u2800
  4463  0280'                    u2801:
  4464  0280' 2800'              	goto	l1939
  4465  0281'                    u2800:
  4466  0281'                    l1937:
  4467  0281' 1283               	bcf	3,5	;RP0=0, select bank0
  4468  0282' 1303               	bcf	3,6	;RP1=0, select bank0
  4469  0283' 17C9'              	bsf	___fldiv@b+2,7
  4470  0284' 2800'              	goto	l572
  4471  0285'                    l1939:
  4472  0285' 307F               	movlw	127
  4473  0286' 1283               	bcf	3,5	;RP0=0, select bank0
  4474  0287' 1303               	bcf	3,6	;RP1=0, select bank0
  4475  0288' 00CB'              	movwf	??___fldiv
  4476  0289' 084B'              	movf	??___fldiv,w
  4477  028A' 05C9'              	andwf	___fldiv@b+2,f
  4478  028B'                    l572:
  4479  028B' 1683               	bsf	3,5	;RP0=1, select bank1
  4480  028C' 1303               	bcf	3,6	;RP1=0, select bank1
  4481  028D' 0800'              	movf	___fldiv@bexp^(0+128),w
  4482  028E' 1283               	bcf	3,5	;RP0=0, select bank0
  4483  028F' 1303               	bcf	3,6	;RP1=0, select bank0
  4484  0290' 00CB'              	movwf	??___fldiv
  4485  0291' 1003               	clrc
  4486  0292' 0C4B'              	rrf	??___fldiv,w
  4487  0293' 00CC'              	movwf	??___fldiv+1
  4488  0294' 084C'              	movf	??___fldiv+1,w
  4489  0295' 00CA'              	movwf	___fldiv@b+3
  4490  0296' 1683               	bsf	3,5	;RP0=1, select bank1
  4491  0297' 1303               	bcf	3,6	;RP1=0, select bank1
  4492  0298' 0800'              	movf	___fldiv@sign^(0+128),w
  4493  0299' 1283               	bcf	3,5	;RP0=0, select bank0
  4494  029A' 1303               	bcf	3,6	;RP1=0, select bank0
  4495  029B' 00CB'              	movwf	??___fldiv
  4496  029C' 084B'              	movf	??___fldiv,w
  4497  029D' 04CA'              	iorwf	___fldiv@b+3,f
  4498  029E' 2800'              	goto	l1847
  4499  029F'                    l550:
  4500  029F' 0008               	return
  4501  02A0'                    __end_of___fldiv:
  4502                           
  4503                           	psect	text16
  4504  0000'                    __ptext16:	
  4505 ;; *************** function ___fladd *****************
  4506 ;; Defined at:
  4507 ;;		line 10 in file "C:\Program Files\Microchip\xc8\v2.36\pic\sources\c90\common\sprcadd.c"
  4508 ;; Parameters:    Size  Location     Type
  4509 ;;  b               4   21[BANK0 ] unsigned char 
  4510 ;;  a               4   25[BANK0 ] unsigned char 
  4511 ;; Auto vars:     Size  Location     Type
  4512 ;;  grs             1   40[BANK0 ] unsigned char 
  4513 ;;  bexp            1   39[BANK0 ] unsigned char 
  4514 ;;  aexp            1   38[BANK0 ] unsigned char 
  4515 ;;  signs           1   37[BANK0 ] unsigned char 
  4516 ;; Return value:  Size  Location     Type
  4517 ;;                  4   21[BANK0 ] unsigned char 
  4518 ;; Registers used:
  4519 ;;		wreg, status,2, status,0, btemp+1
  4520 ;; Tracked objects:
  4521 ;;		On entry : 0/0
  4522 ;;		On exit  : 0/0
  4523 ;;		Unchanged: 0/0
  4524 ;; Data sizes:     COMMON   BANK0   BANK1   BANK3   BANK2
  4525 ;;      Params:         0       8       0       0       0
  4526 ;;      Locals:         0       4       0       0       0
  4527 ;;      Temps:          0       8       0       0       0
  4528 ;;      Totals:         0      20       0       0       0
  4529 ;;Total ram usage:       20 bytes
  4530 ;; Hardware stack levels used: 1
  4531 ;; This function calls:
  4532 ;;		Nothing
  4533 ;; This function is called by:
  4534 ;;		_GetRandom
  4535 ;; This function uses a non-reentrant model
  4536 ;;
  4537                           
  4538  0000'                    ___fladd:	
  4539                           ;psect for function ___fladd
  4540                           
  4541  0000'                    l1609:	
  4542                           ;incstack = 0
  4543                           ; Regs used in ___fladd: [wreg+status,2+status,0+btemp+1]
  4544                           
  4545  0000' 1283               	bcf	3,5	;RP0=0, select bank0
  4546  0001' 1303               	bcf	3,6	;RP1=0, select bank0
  4547  0002' 0818'              	movf	___fladd@b+3,w
  4548  0003' 3980               	andlw	128
  4549  0004' 009D'              	movwf	??___fladd
  4550  0005' 081D'              	movf	??___fladd,w
  4551  0006' 00A5'              	movwf	___fladd@signs
  4552  0007'                    l1611:
  4553  0007' 0818'              	movf	___fladd@b+3,w
  4554  0008' 009D'              	movwf	??___fladd
  4555  0009' 071D'              	addwf	??___fladd,w
  4556  000A' 009E'              	movwf	??___fladd+1
  4557  000B' 081E'              	movf	??___fladd+1,w
  4558  000C' 00A7'              	movwf	___fladd@bexp
  4559  000D'                    l1613:
  4560  000D' 1F97'              	btfss	___fladd@b+2,7
  4561  000E' 2800'              	goto	u2051
  4562  000F' 2800'              	goto	u2050
  4563  0010'                    u2051:
  4564  0010' 2800'              	goto	l1617
  4565  0011'                    u2050:
  4566  0011'                    l1615:
  4567  0011' 1427'              	bsf	___fladd@bexp,0
  4568  0012'                    l1617:
  4569  0012' 0827'              	movf	___fladd@bexp,w
  4570  0013' 1903               	btfsc	3,2
  4571  0014' 2800'              	goto	u2061
  4572  0015' 2800'              	goto	u2060
  4573  0016'                    u2061:
  4574  0016' 2800'              	goto	l1627
  4575  0017'                    u2060:
  4576  0017'                    l1619:
  4577  0017' 0A27'              	incf	___fladd@bexp,w
  4578  0018' 1D03               	btfss	3,2
  4579  0019' 2800'              	goto	u2071
  4580  001A' 2800'              	goto	u2070
  4581  001B'                    u2071:
  4582  001B' 2800'              	goto	l1623
  4583  001C'                    u2070:
  4584  001C'                    l1621:
  4585  001C' 3000               	movlw	0
  4586  001D' 0098'              	movwf	___fladd@b+3
  4587  001E' 3000               	movlw	0
  4588  001F' 0097'              	movwf	___fladd@b+2
  4589  0020' 3000               	movlw	0
  4590  0021' 0096'              	movwf	___fladd@b+1
  4591  0022' 3000               	movlw	0
  4592  0023' 0095'              	movwf	___fladd@b
  4593  0024'                    l1623:
  4594  0024' 1797'              	bsf	___fladd@b+2,7
  4595  0025'                    l1625:
  4596  0025' 0198'              	clrf	___fladd@b+3
  4597  0026' 2800'              	goto	l1629
  4598  0027'                    l1627:
  4599  0027' 3000               	movlw	0
  4600  0028' 0098'              	movwf	___fladd@b+3
  4601  0029' 3000               	movlw	0
  4602  002A' 0097'              	movwf	___fladd@b+2
  4603  002B' 3000               	movlw	0
  4604  002C' 0096'              	movwf	___fladd@b+1
  4605  002D' 3000               	movlw	0
  4606  002E' 0095'              	movwf	___fladd@b
  4607  002F'                    l1629:
  4608  002F' 081C'              	movf	___fladd@a+3,w
  4609  0030' 3980               	andlw	128
  4610  0031' 009D'              	movwf	??___fladd
  4611  0032' 081D'              	movf	??___fladd,w
  4612  0033' 00A6'              	movwf	___fladd@aexp
  4613  0034'                    l1631:
  4614  0034' 0826'              	movf	___fladd@aexp,w
  4615  0035' 0625'              	xorwf	___fladd@signs,w
  4616  0036' 1903               	skipnz
  4617  0037' 2800'              	goto	u2081
  4618  0038' 2800'              	goto	u2080
  4619  0039'                    u2081:
  4620  0039' 2800'              	goto	l1635
  4621  003A'                    u2080:
  4622  003A'                    l1633:
  4623  003A' 1725'              	bsf	___fladd@signs,6
  4624  003B'                    l1635:
  4625  003B' 081C'              	movf	___fladd@a+3,w
  4626  003C' 009D'              	movwf	??___fladd
  4627  003D' 071D'              	addwf	??___fladd,w
  4628  003E' 009E'              	movwf	??___fladd+1
  4629  003F' 081E'              	movf	??___fladd+1,w
  4630  0040' 00A6'              	movwf	___fladd@aexp
  4631  0041'                    l1637:
  4632  0041' 1F9B'              	btfss	___fladd@a+2,7
  4633  0042' 2800'              	goto	u2091
  4634  0043' 2800'              	goto	u2090
  4635  0044'                    u2091:
  4636  0044' 2800'              	goto	l1641
  4637  0045'                    u2090:
  4638  0045'                    l1639:
  4639  0045' 1426'              	bsf	___fladd@aexp,0
  4640  0046'                    l1641:
  4641  0046' 0826'              	movf	___fladd@aexp,w
  4642  0047' 1903               	btfsc	3,2
  4643  0048' 2800'              	goto	u2101
  4644  0049' 2800'              	goto	u2100
  4645  004A'                    u2101:
  4646  004A' 2800'              	goto	l1651
  4647  004B'                    u2100:
  4648  004B'                    l1643:
  4649  004B' 0A26'              	incf	___fladd@aexp,w
  4650  004C' 1D03               	btfss	3,2
  4651  004D' 2800'              	goto	u2111
  4652  004E' 2800'              	goto	u2110
  4653  004F'                    u2111:
  4654  004F' 2800'              	goto	l1647
  4655  0050'                    u2110:
  4656  0050'                    l1645:
  4657  0050' 3000               	movlw	0
  4658  0051' 009C'              	movwf	___fladd@a+3
  4659  0052' 3000               	movlw	0
  4660  0053' 009B'              	movwf	___fladd@a+2
  4661  0054' 3000               	movlw	0
  4662  0055' 009A'              	movwf	___fladd@a+1
  4663  0056' 3000               	movlw	0
  4664  0057' 0099'              	movwf	___fladd@a
  4665  0058'                    l1647:
  4666  0058' 179B'              	bsf	___fladd@a+2,7
  4667  0059'                    l1649:
  4668  0059' 019C'              	clrf	___fladd@a+3
  4669  005A' 2800'              	goto	l492
  4670  005B'                    l1651:
  4671  005B' 3000               	movlw	0
  4672  005C' 009C'              	movwf	___fladd@a+3
  4673  005D' 3000               	movlw	0
  4674  005E' 009B'              	movwf	___fladd@a+2
  4675  005F' 3000               	movlw	0
  4676  0060' 009A'              	movwf	___fladd@a+1
  4677  0061' 3000               	movlw	0
  4678  0062' 0099'              	movwf	___fladd@a
  4679  0063'                    l492:
  4680  0063' 0827'              	movf	___fladd@bexp,w
  4681  0064' 0226'              	subwf	___fladd@aexp,w
  4682  0065' 1803               	skipnc
  4683  0066' 2800'              	goto	u2121
  4684  0067' 2800'              	goto	u2120
  4685  0068'                    u2121:
  4686  0068' 2800'              	goto	l1687
  4687  0069'                    u2120:
  4688  0069'                    l1653:
  4689  0069' 1F25'              	btfss	___fladd@signs,6
  4690  006A' 2800'              	goto	u2131
  4691  006B' 2800'              	goto	u2130
  4692  006C'                    u2131:
  4693  006C' 2800'              	goto	l1657
  4694  006D'                    u2130:
  4695  006D'                    l1655:
  4696  006D' 3080               	movlw	128
  4697  006E' 009D'              	movwf	??___fladd
  4698  006F' 081D'              	movf	??___fladd,w
  4699  0070' 06A5'              	xorwf	___fladd@signs,f
  4700  0071'                    l1657:
  4701  0071' 0827'              	movf	___fladd@bexp,w
  4702  0072' 009D'              	movwf	??___fladd
  4703  0073' 081D'              	movf	??___fladd,w
  4704  0074' 00A8'              	movwf	___fladd@grs
  4705  0075'                    l1659:
  4706  0075' 0826'              	movf	___fladd@aexp,w
  4707  0076' 009D'              	movwf	??___fladd
  4708  0077' 081D'              	movf	??___fladd,w
  4709  0078' 00A7'              	movwf	___fladd@bexp
  4710  0079'                    l1661:
  4711  0079' 0828'              	movf	___fladd@grs,w
  4712  007A' 009D'              	movwf	??___fladd
  4713  007B' 081D'              	movf	??___fladd,w
  4714  007C' 00A6'              	movwf	___fladd@aexp
  4715  007D'                    l1663:
  4716  007D' 0815'              	movf	___fladd@b,w
  4717  007E' 009D'              	movwf	??___fladd
  4718  007F' 081D'              	movf	??___fladd,w
  4719  0080' 00A8'              	movwf	___fladd@grs
  4720  0081'                    l1665:
  4721  0081' 0819'              	movf	___fladd@a,w
  4722  0082' 009D'              	movwf	??___fladd
  4723  0083' 081D'              	movf	??___fladd,w
  4724  0084' 0095'              	movwf	___fladd@b
  4725  0085'                    l1667:
  4726  0085' 0828'              	movf	___fladd@grs,w
  4727  0086' 009D'              	movwf	??___fladd
  4728  0087' 081D'              	movf	??___fladd,w
  4729  0088' 0099'              	movwf	___fladd@a
  4730  0089'                    l1669:
  4731  0089' 0816'              	movf	___fladd@b+1,w
  4732  008A' 009D'              	movwf	??___fladd
  4733  008B' 081D'              	movf	??___fladd,w
  4734  008C' 00A8'              	movwf	___fladd@grs
  4735  008D'                    l1671:
  4736  008D' 081A'              	movf	___fladd@a+1,w
  4737  008E' 009D'              	movwf	??___fladd
  4738  008F' 081D'              	movf	??___fladd,w
  4739  0090' 0096'              	movwf	___fladd@b+1
  4740  0091'                    l1673:
  4741  0091' 0828'              	movf	___fladd@grs,w
  4742  0092' 009D'              	movwf	??___fladd
  4743  0093' 081D'              	movf	??___fladd,w
  4744  0094' 009A'              	movwf	___fladd@a+1
  4745  0095'                    l1675:
  4746  0095' 0817'              	movf	___fladd@b+2,w
  4747  0096' 009D'              	movwf	??___fladd
  4748  0097' 081D'              	movf	??___fladd,w
  4749  0098' 00A8'              	movwf	___fladd@grs
  4750  0099'                    l1677:
  4751  0099' 081B'              	movf	___fladd@a+2,w
  4752  009A' 009D'              	movwf	??___fladd
  4753  009B' 081D'              	movf	??___fladd,w
  4754  009C' 0097'              	movwf	___fladd@b+2
  4755  009D'                    l1679:
  4756  009D' 0828'              	movf	___fladd@grs,w
  4757  009E' 009D'              	movwf	??___fladd
  4758  009F' 081D'              	movf	??___fladd,w
  4759  00A0' 009B'              	movwf	___fladd@a+2
  4760  00A1'                    l1681:
  4761  00A1' 0818'              	movf	___fladd@b+3,w
  4762  00A2' 009D'              	movwf	??___fladd
  4763  00A3' 081D'              	movf	??___fladd,w
  4764  00A4' 00A8'              	movwf	___fladd@grs
  4765  00A5'                    l1683:
  4766  00A5' 081C'              	movf	___fladd@a+3,w
  4767  00A6' 009D'              	movwf	??___fladd
  4768  00A7' 081D'              	movf	??___fladd,w
  4769  00A8' 0098'              	movwf	___fladd@b+3
  4770  00A9'                    l1685:
  4771  00A9' 0828'              	movf	___fladd@grs,w
  4772  00AA' 009D'              	movwf	??___fladd
  4773  00AB' 081D'              	movf	??___fladd,w
  4774  00AC' 009C'              	movwf	___fladd@a+3
  4775  00AD'                    l1687:
  4776  00AD' 01A8'              	clrf	___fladd@grs
  4777  00AE'                    l1689:
  4778  00AE' 0826'              	movf	___fladd@aexp,w
  4779  00AF' 009D'              	movwf	??___fladd
  4780  00B0' 019E'              	clrf	??___fladd+1
  4781  00B1' 081E'              	movf	??___fladd+1,w
  4782  00B2' 00A0'              	movwf	??___fladd+3
  4783  00B3' 0827'              	movf	___fladd@bexp,w
  4784  00B4' 021D'              	subwf	??___fladd,w
  4785  00B5' 009F'              	movwf	??___fladd+2
  4786  00B6' 1C03               	skipc
  4787  00B7' 03A0'              	decf	??___fladd+3,f
  4788  00B8' 0820'              	movf	??___fladd+3,w
  4789  00B9' 3A80               	xorlw	128
  4790  00BA' 00FF               	movwf	btemp+1
  4791  00BB' 3080               	movlw	128
  4792  00BC' 027F               	subwf	btemp+1,w
  4793  00BD' 1D03               	skipz
  4794  00BE' 2800'              	goto	u2145
  4795  00BF' 301A               	movlw	26
  4796  00C0' 021F'              	subwf	??___fladd+2,w
  4797  00C1'                    u2145:
  4798  00C1' 1C03               	skipc
  4799  00C2' 2800'              	goto	u2141
  4800  00C3' 2800'              	goto	u2140
  4801  00C4'                    u2141:
  4802  00C4' 2800'              	goto	l1705
  4803  00C5'                    u2140:
  4804  00C5'                    l1691:
  4805  00C5' 1283               	bcf	3,5	;RP0=0, select bank0
  4806  00C6' 1303               	bcf	3,6	;RP1=0, select bank0
  4807  00C7' 0818'              	movf	___fladd@b+3,w
  4808  00C8' 0417'              	iorwf	___fladd@b+2,w
  4809  00C9' 0416'              	iorwf	___fladd@b+1,w
  4810  00CA' 0415'              	iorwf	___fladd@b,w
  4811  00CB' 1D03               	skipz
  4812  00CC' 2800'              	goto	u2151
  4813  00CD' 2800'              	goto	u2150
  4814  00CE'                    u2151:
  4815  00CE' 3001               	movlw	1
  4816  00CF' 2800'              	goto	u2160
  4817  00D0'                    u2150:
  4818  00D0' 3000               	movlw	0
  4819  00D1'                    u2160:
  4820  00D1' 009D'              	movwf	??___fladd
  4821  00D2' 081D'              	movf	??___fladd,w
  4822  00D3' 00A8'              	movwf	___fladd@grs
  4823  00D4' 3000               	movlw	0
  4824  00D5' 0098'              	movwf	___fladd@b+3
  4825  00D6' 3000               	movlw	0
  4826  00D7' 0097'              	movwf	___fladd@b+2
  4827  00D8' 3000               	movlw	0
  4828  00D9' 0096'              	movwf	___fladd@b+1
  4829  00DA' 3000               	movlw	0
  4830  00DB' 0095'              	movwf	___fladd@b
  4831  00DC' 0826'              	movf	___fladd@aexp,w
  4832  00DD' 009D'              	movwf	??___fladd
  4833  00DE' 081D'              	movf	??___fladd,w
  4834  00DF' 00A7'              	movwf	___fladd@bexp
  4835  00E0' 2800'              	goto	l496
  4836  00E1'                    l498:
  4837  00E1' 1C28'              	btfss	___fladd@grs,0
  4838  00E2' 2800'              	goto	u2171
  4839  00E3' 2800'              	goto	u2170
  4840  00E4'                    u2171:
  4841  00E4' 2800'              	goto	l1695
  4842  00E5'                    u2170:
  4843  00E5'                    l1693:
  4844  00E5' 0828'              	movf	___fladd@grs,w
  4845  00E6' 009D'              	movwf	??___fladd
  4846  00E7' 1003               	clrc
  4847  00E8' 0C1D'              	rrf	??___fladd,w
  4848  00E9' 3801               	iorlw	1
  4849  00EA' 009E'              	movwf	??___fladd+1
  4850  00EB' 081E'              	movf	??___fladd+1,w
  4851  00EC' 00A8'              	movwf	___fladd@grs
  4852  00ED' 2800'              	goto	l1697
  4853  00EE'                    l1695:
  4854  00EE' 1003               	clrc
  4855  00EF' 0CA8'              	rrf	___fladd@grs,f
  4856  00F0'                    l1697:
  4857  00F0' 1C15'              	btfss	___fladd@b,0
  4858  00F1' 2800'              	goto	u2181
  4859  00F2' 2800'              	goto	u2180
  4860  00F3'                    u2181:
  4861  00F3' 2800'              	goto	l1701
  4862  00F4'                    u2180:
  4863  00F4'                    l1699:
  4864  00F4' 17A8'              	bsf	___fladd@grs,7
  4865  00F5'                    l1701:
  4866  00F5' 3001               	movlw	1
  4867  00F6' 009D'              	movwf	??___fladd
  4868  00F7'                    u2195:
  4869  00F7' 0D18'              	rlf	___fladd@b+3,w
  4870  00F8' 0C98'              	rrf	___fladd@b+3,f
  4871  00F9' 0C97'              	rrf	___fladd@b+2,f
  4872  00FA' 0C96'              	rrf	___fladd@b+1,f
  4873  00FB' 0C95'              	rrf	___fladd@b,f
  4874  00FC' 0B80'              	decfsz	??___fladd& (0+127),f
  4875  00FD' 2800'              	goto	u2195
  4876  00FE'                    l1703:
  4877  00FE' 3001               	movlw	1
  4878  00FF' 009D'              	movwf	??___fladd
  4879  0100' 081D'              	movf	??___fladd,w
  4880  0101' 07A7'              	addwf	___fladd@bexp,f
  4881  0102'                    l1705:
  4882  0102' 1283               	bcf	3,5	;RP0=0, select bank0
  4883  0103' 1303               	bcf	3,6	;RP1=0, select bank0
  4884  0104' 0826'              	movf	___fladd@aexp,w
  4885  0105' 0227'              	subwf	___fladd@bexp,w
  4886  0106' 1C03               	skipc
  4887  0107' 2800'              	goto	u2201
  4888  0108' 2800'              	goto	u2200
  4889  0109'                    u2201:
  4890  0109' 2800'              	goto	l498
  4891  010A'                    u2200:
  4892  010A'                    l496:
  4893  010A' 1B25'              	btfsc	___fladd@signs,6
  4894  010B' 2800'              	goto	u2211
  4895  010C' 2800'              	goto	u2210
  4896  010D'                    u2211:
  4897  010D' 2800'              	goto	l1731
  4898  010E'                    u2210:
  4899  010E'                    l1707:
  4900  010E' 0827'              	movf	___fladd@bexp,w
  4901  010F' 1D03               	btfss	3,2
  4902  0110' 2800'              	goto	u2221
  4903  0111' 2800'              	goto	u2220
  4904  0112'                    u2221:
  4905  0112' 2800'              	goto	l1713
  4906  0113'                    u2220:
  4907  0113'                    l1709:
  4908  0113' 3000               	movlw	0
  4909  0114' 0098'              	movwf	?___fladd+3
  4910  0115' 3000               	movlw	0
  4911  0116' 0097'              	movwf	?___fladd+2
  4912  0117' 3000               	movlw	0
  4913  0118' 0096'              	movwf	?___fladd+1
  4914  0119' 3000               	movlw	0
  4915  011A' 0095'              	movwf	?___fladd
  4916  011B' 2800'              	goto	l505
  4917  011C'                    l1713:
  4918  011C' 0819'              	movf	___fladd@a,w
  4919  011D' 0795'              	addwf	___fladd@b,f
  4920  011E' 081A'              	movf	___fladd@a+1,w
  4921  011F' 1103               	clrz
  4922  0120' 1803               	skipnc
  4923  0121' 3E01               	addlw	1
  4924  0122' 1903               	skipnz
  4925  0123' 2800'              	goto	u2231
  4926  0124' 0796'              	addwf	___fladd@b+1,f
  4927  0125'                    u2231:
  4928  0125' 081B'              	movf	___fladd@a+2,w
  4929  0126' 1103               	clrz
  4930  0127' 1803               	skipnc
  4931  0128' 3E01               	addlw	1
  4932  0129' 1903               	skipnz
  4933  012A' 2800'              	goto	u2232
  4934  012B' 0797'              	addwf	___fladd@b+2,f
  4935  012C'                    u2232:
  4936  012C' 081C'              	movf	___fladd@a+3,w
  4937  012D' 1103               	clrz
  4938  012E' 1803               	skipnc
  4939  012F' 3E01               	addlw	1
  4940  0130' 1903               	skipnz
  4941  0131' 2800'              	goto	u2233
  4942  0132' 0798'              	addwf	___fladd@b+3,f
  4943  0133'                    u2233:
  4944  0133'                    l1715:
  4945  0133' 1C18'              	btfss	___fladd@b+3,0
  4946  0134' 2800'              	goto	u2241
  4947  0135' 2800'              	goto	u2240
  4948  0136'                    u2241:
  4949  0136' 2800'              	goto	l1765
  4950  0137'                    u2240:
  4951  0137'                    l1717:
  4952  0137' 1C28'              	btfss	___fladd@grs,0
  4953  0138' 2800'              	goto	u2251
  4954  0139' 2800'              	goto	u2250
  4955  013A'                    u2251:
  4956  013A' 2800'              	goto	l1721
  4957  013B'                    u2250:
  4958  013B'                    l1719:
  4959  013B' 0828'              	movf	___fladd@grs,w
  4960  013C' 009D'              	movwf	??___fladd
  4961  013D' 1003               	clrc
  4962  013E' 0C1D'              	rrf	??___fladd,w
  4963  013F' 3801               	iorlw	1
  4964  0140' 009E'              	movwf	??___fladd+1
  4965  0141' 081E'              	movf	??___fladd+1,w
  4966  0142' 00A8'              	movwf	___fladd@grs
  4967  0143' 2800'              	goto	l1723
  4968  0144'                    l1721:
  4969  0144' 1003               	clrc
  4970  0145' 0CA8'              	rrf	___fladd@grs,f
  4971  0146'                    l1723:
  4972  0146' 1C15'              	btfss	___fladd@b,0
  4973  0147' 2800'              	goto	u2261
  4974  0148' 2800'              	goto	u2260
  4975  0149'                    u2261:
  4976  0149' 2800'              	goto	l1727
  4977  014A'                    u2260:
  4978  014A'                    l1725:
  4979  014A' 17A8'              	bsf	___fladd@grs,7
  4980  014B'                    l1727:
  4981  014B' 3001               	movlw	1
  4982  014C' 009D'              	movwf	??___fladd
  4983  014D'                    u2275:
  4984  014D' 0D18'              	rlf	___fladd@b+3,w
  4985  014E' 0C98'              	rrf	___fladd@b+3,f
  4986  014F' 0C97'              	rrf	___fladd@b+2,f
  4987  0150' 0C96'              	rrf	___fladd@b+1,f
  4988  0151' 0C95'              	rrf	___fladd@b,f
  4989  0152' 0B80'              	decfsz	??___fladd& (0+127),f
  4990  0153' 2800'              	goto	u2275
  4991  0154'                    l1729:
  4992  0154' 3001               	movlw	1
  4993  0155' 009D'              	movwf	??___fladd
  4994  0156' 081D'              	movf	??___fladd,w
  4995  0157' 07A7'              	addwf	___fladd@bexp,f
  4996  0158' 2800'              	goto	l1765
  4997  0159'                    l1731:
  4998  0159' 0818'              	movf	___fladd@b+3,w
  4999  015A' 3A80               	xorlw	128
  5000  015B' 00FF               	movwf	btemp+1
  5001  015C' 081C'              	movf	___fladd@a+3,w
  5002  015D' 3A80               	xorlw	128
  5003  015E' 027F               	subwf	btemp+1,w
  5004  015F' 1D03               	skipz
  5005  0160' 2800'              	goto	u2283
  5006  0161' 081B'              	movf	___fladd@a+2,w
  5007  0162' 0217'              	subwf	___fladd@b+2,w
  5008  0163' 1D03               	skipz
  5009  0164' 2800'              	goto	u2283
  5010  0165' 081A'              	movf	___fladd@a+1,w
  5011  0166' 0216'              	subwf	___fladd@b+1,w
  5012  0167' 1D03               	skipz
  5013  0168' 2800'              	goto	u2283
  5014  0169' 0819'              	movf	___fladd@a,w
  5015  016A' 0215'              	subwf	___fladd@b,w
  5016  016B'                    u2283:
  5017  016B' 1803               	skipnc
  5018  016C' 2800'              	goto	u2281
  5019  016D' 2800'              	goto	u2280
  5020  016E'                    u2281:
  5021  016E' 2800'              	goto	l1741
  5022  016F'                    u2280:
  5023  016F'                    l1733:
  5024  016F' 30FF               	movlw	255
  5025  0170' 009D'              	movwf	??___fladd
  5026  0171' 30FF               	movlw	255
  5027  0172' 009E'              	movwf	??___fladd+1
  5028  0173' 30FF               	movlw	255
  5029  0174' 009F'              	movwf	??___fladd+2
  5030  0175' 30FF               	movlw	255
  5031  0176' 00A0'              	movwf	??___fladd+3
  5032  0177' 0819'              	movf	___fladd@a,w
  5033  0178' 00A1'              	movwf	??___fladd+4
  5034  0179' 081A'              	movf	___fladd@a+1,w
  5035  017A' 00A2'              	movwf	??___fladd+5
  5036  017B' 081B'              	movf	___fladd@a+2,w
  5037  017C' 00A3'              	movwf	??___fladd+6
  5038  017D' 081C'              	movf	___fladd@a+3,w
  5039  017E' 00A4'              	movwf	??___fladd+7
  5040  017F' 0815'              	movf	___fladd@b,w
  5041  0180' 02A1'              	subwf	??___fladd+4,f
  5042  0181' 0816'              	movf	___fladd@b+1,w
  5043  0182' 1C03               	skipc
  5044  0183' 0F16'              	incfsz	___fladd@b+1,w
  5045  0184' 2800'              	goto	u2291
  5046  0185' 2800'              	goto	u2292
  5047  0186'                    u2291:
  5048  0186' 02A2'              	subwf	??___fladd+5,f
  5049  0187'                    u2292:
  5050  0187' 0817'              	movf	___fladd@b+2,w
  5051  0188' 1C03               	skipc
  5052  0189' 0F17'              	incfsz	___fladd@b+2,w
  5053  018A' 2800'              	goto	u2293
  5054  018B' 2800'              	goto	u2294
  5055  018C'                    u2293:
  5056  018C' 02A3'              	subwf	??___fladd+6,f
  5057  018D'                    u2294:
  5058  018D' 0818'              	movf	___fladd@b+3,w
  5059  018E' 1C03               	skipc
  5060  018F' 0F18'              	incfsz	___fladd@b+3,w
  5061  0190' 2800'              	goto	u2295
  5062  0191' 2800'              	goto	u2296
  5063  0192'                    u2295:
  5064  0192' 02A4'              	subwf	??___fladd+7,f
  5065  0193'                    u2296:
  5066  0193' 0821'              	movf	??___fladd+4,w
  5067  0194' 079D'              	addwf	??___fladd,f
  5068  0195' 0822'              	movf	??___fladd+5,w
  5069  0196' 1803               	skipnc
  5070  0197' 0F22'              	incfsz	??___fladd+5,w
  5071  0198' 2800'              	goto	u2300
  5072  0199' 2800'              	goto	u2301
  5073  019A'                    u2300:
  5074  019A' 079E'              	addwf	??___fladd+1,f
  5075  019B'                    u2301:
  5076  019B' 0823'              	movf	??___fladd+6,w
  5077  019C' 1803               	skipnc
  5078  019D' 0F23'              	incfsz	??___fladd+6,w
  5079  019E' 2800'              	goto	u2302
  5080  019F' 2800'              	goto	u2303
  5081  01A0'                    u2302:
  5082  01A0' 079F'              	addwf	??___fladd+2,f
  5083  01A1'                    u2303:
  5084  01A1' 0824'              	movf	??___fladd+7,w
  5085  01A2' 1803               	skipnc
  5086  01A3' 0A24'              	incf	??___fladd+7,w
  5087  01A4' 07A0'              	addwf	??___fladd+3,f
  5088  01A5' 0820'              	movf	??___fladd+3,w
  5089  01A6' 0098'              	movwf	___fladd@b+3
  5090  01A7' 081F'              	movf	??___fladd+2,w
  5091  01A8' 0097'              	movwf	___fladd@b+2
  5092  01A9' 081E'              	movf	??___fladd+1,w
  5093  01AA' 0096'              	movwf	___fladd@b+1
  5094  01AB' 081D'              	movf	??___fladd,w
  5095  01AC' 0095'              	movwf	___fladd@b
  5096  01AD'                    l1735:
  5097  01AD' 3080               	movlw	128
  5098  01AE' 009D'              	movwf	??___fladd
  5099  01AF' 081D'              	movf	??___fladd,w
  5100  01B0' 06A5'              	xorwf	___fladd@signs,f
  5101  01B1' 09A8'              	comf	___fladd@grs,f
  5102  01B2' 0AA8'              	incf	___fladd@grs,f
  5103  01B3'                    l1737:
  5104  01B3' 0828'              	movf	___fladd@grs,w
  5105  01B4' 1D03               	btfss	3,2
  5106  01B5' 2800'              	goto	u2311
  5107  01B6' 2800'              	goto	u2310
  5108  01B7'                    u2311:
  5109  01B7' 2800'              	goto	l513
  5110  01B8'                    u2310:
  5111  01B8'                    l1739:
  5112  01B8' 3001               	movlw	1
  5113  01B9' 0795'              	addwf	___fladd@b,f
  5114  01BA' 3000               	movlw	0
  5115  01BB' 1803               	skipnc
  5116  01BC' 3001               	movlw	1
  5117  01BD' 0796'              	addwf	___fladd@b+1,f
  5118  01BE' 3000               	movlw	0
  5119  01BF' 1803               	skipnc
  5120  01C0' 3001               	movlw	1
  5121  01C1' 0797'              	addwf	___fladd@b+2,f
  5122  01C2' 3000               	movlw	0
  5123  01C3' 1803               	skipnc
  5124  01C4' 3001               	movlw	1
  5125  01C5' 0798'              	addwf	___fladd@b+3,f
  5126  01C6' 2800'              	goto	l513
  5127  01C7'                    l1741:
  5128  01C7' 0819'              	movf	___fladd@a,w
  5129  01C8' 0295'              	subwf	___fladd@b,f
  5130  01C9' 081A'              	movf	___fladd@a+1,w
  5131  01CA' 1C03               	skipc
  5132  01CB' 0F1A'              	incfsz	___fladd@a+1,w
  5133  01CC' 0296'              	subwf	___fladd@b+1,f
  5134  01CD' 081B'              	movf	___fladd@a+2,w
  5135  01CE' 1C03               	skipc
  5136  01CF' 0F1B'              	incfsz	___fladd@a+2,w
  5137  01D0' 0297'              	subwf	___fladd@b+2,f
  5138  01D1' 081C'              	movf	___fladd@a+3,w
  5139  01D2' 1C03               	skipc
  5140  01D3' 0F1C'              	incfsz	___fladd@a+3,w
  5141  01D4' 0298'              	subwf	___fladd@b+3,f
  5142  01D5'                    l513:
  5143  01D5' 0818'              	movf	___fladd@b+3,w
  5144  01D6' 0417'              	iorwf	___fladd@b+2,w
  5145  01D7' 0416'              	iorwf	___fladd@b+1,w
  5146  01D8' 0415'              	iorwf	___fladd@b,w
  5147  01D9' 1D03               	skipz
  5148  01DA' 2800'              	goto	u2321
  5149  01DB' 2800'              	goto	u2320
  5150  01DC'                    u2321:
  5151  01DC' 2800'              	goto	l1763
  5152  01DD'                    u2320:
  5153  01DD'                    l1743:
  5154  01DD' 0828'              	movf	___fladd@grs,w
  5155  01DE' 1D03               	btfss	3,2
  5156  01DF' 2800'              	goto	u2331
  5157  01E0' 2800'              	goto	u2330
  5158  01E1'                    u2331:
  5159  01E1' 2800'              	goto	l1763
  5160  01E2'                    u2330:
  5161  01E2'                    l1745:
  5162  01E2' 3000               	movlw	0
  5163  01E3' 0098'              	movwf	?___fladd+3
  5164  01E4' 3000               	movlw	0
  5165  01E5' 0097'              	movwf	?___fladd+2
  5166  01E6' 3000               	movlw	0
  5167  01E7' 0096'              	movwf	?___fladd+1
  5168  01E8' 3000               	movlw	0
  5169  01E9' 0095'              	movwf	?___fladd
  5170  01EA' 2800'              	goto	l505
  5171  01EB'                    l1749:
  5172  01EB' 3001               	movlw	1
  5173  01EC' 009D'              	movwf	??___fladd
  5174  01ED'                    u2345:
  5175  01ED' 1003               	clrc
  5176  01EE' 0D95'              	rlf	___fladd@b,f
  5177  01EF' 0D96'              	rlf	___fladd@b+1,f
  5178  01F0' 0D97'              	rlf	___fladd@b+2,f
  5179  01F1' 0D98'              	rlf	___fladd@b+3,f
  5180  01F2' 0B9D'              	decfsz	??___fladd,f
  5181  01F3' 2800'              	goto	u2345
  5182  01F4'                    l1751:
  5183  01F4' 1FA8'              	btfss	___fladd@grs,7
  5184  01F5' 2800'              	goto	u2351
  5185  01F6' 2800'              	goto	u2350
  5186  01F7'                    u2351:
  5187  01F7' 2800'              	goto	l517
  5188  01F8'                    u2350:
  5189  01F8'                    l1753:
  5190  01F8' 1415'              	bsf	___fladd@b,0
  5191  01F9'                    l517:
  5192  01F9' 1C28'              	btfss	___fladd@grs,0
  5193  01FA' 2800'              	goto	u2361
  5194  01FB' 2800'              	goto	u2360
  5195  01FC'                    u2361:
  5196  01FC' 2800'              	goto	l1757
  5197  01FD'                    u2360:
  5198  01FD'                    l1755:
  5199  01FD' 1403               	setc
  5200  01FE' 0DA8'              	rlf	___fladd@grs,f
  5201  01FF' 2800'              	goto	l1759
  5202  0200'                    l1757:
  5203  0200' 1003               	clrc
  5204  0201' 0DA8'              	rlf	___fladd@grs,f
  5205  0202'                    l1759:
  5206  0202' 0827'              	movf	___fladd@bexp,w
  5207  0203' 1903               	btfsc	3,2
  5208  0204' 2800'              	goto	u2371
  5209  0205' 2800'              	goto	u2370
  5210  0206'                    u2371:
  5211  0206' 2800'              	goto	l1763
  5212  0207'                    u2370:
  5213  0207'                    l1761:
  5214  0207' 3001               	movlw	1
  5215  0208' 02A7'              	subwf	___fladd@bexp,f
  5216  0209'                    l1763:
  5217  0209' 1F97'              	btfss	___fladd@b+2,7
  5218  020A' 2800'              	goto	u2381
  5219  020B' 2800'              	goto	u2380
  5220  020C'                    u2381:
  5221  020C' 2800'              	goto	l1749
  5222  020D'                    u2380:
  5223  020D'                    l1765:
  5224  020D' 01A6'              	clrf	___fladd@aexp
  5225  020E'                    l1767:
  5226  020E' 1FA8'              	btfss	___fladd@grs,7
  5227  020F' 2800'              	goto	u2391
  5228  0210' 2800'              	goto	u2390
  5229  0211'                    u2391:
  5230  0211' 2800'              	goto	l1775
  5231  0212'                    u2390:
  5232  0212'                    l1769:
  5233  0212' 0828'              	movf	___fladd@grs,w
  5234  0213' 397F               	andlw	127
  5235  0214' 1903               	btfsc	3,2
  5236  0215' 2800'              	goto	u2401
  5237  0216' 2800'              	goto	u2400
  5238  0217'                    u2401:
  5239  0217' 2800'              	goto	l523
  5240  0218'                    u2400:
  5241  0218'                    l1771:
  5242  0218' 01A6'              	clrf	___fladd@aexp
  5243  0219' 0AA6'              	incf	___fladd@aexp,f
  5244  021A' 2800'              	goto	l1775
  5245  021B'                    l523:
  5246  021B' 1C15'              	btfss	___fladd@b,0
  5247  021C' 2800'              	goto	u2411
  5248  021D' 2800'              	goto	u2410
  5249  021E'                    u2411:
  5250  021E' 2800'              	goto	l1775
  5251  021F'                    u2410:
  5252  021F' 2800'              	goto	l1771
  5253  0220'                    l1775:
  5254  0220' 0826'              	movf	___fladd@aexp,w
  5255  0221' 1903               	btfsc	3,2
  5256  0222' 2800'              	goto	u2421
  5257  0223' 2800'              	goto	u2420
  5258  0224'                    u2421:
  5259  0224' 2800'              	goto	l526
  5260  0225'                    u2420:
  5261  0225'                    l1777:
  5262  0225' 3001               	movlw	1
  5263  0226' 0795'              	addwf	___fladd@b,f
  5264  0227' 3000               	movlw	0
  5265  0228' 1803               	skipnc
  5266  0229' 3001               	movlw	1
  5267  022A' 0796'              	addwf	___fladd@b+1,f
  5268  022B' 3000               	movlw	0
  5269  022C' 1803               	skipnc
  5270  022D' 3001               	movlw	1
  5271  022E' 0797'              	addwf	___fladd@b+2,f
  5272  022F' 3000               	movlw	0
  5273  0230' 1803               	skipnc
  5274  0231' 3001               	movlw	1
  5275  0232' 0798'              	addwf	___fladd@b+3,f
  5276  0233'                    l1779:
  5277  0233' 1C18'              	btfss	___fladd@b+3,0
  5278  0234' 2800'              	goto	u2431
  5279  0235' 2800'              	goto	u2430
  5280  0236'                    u2431:
  5281  0236' 2800'              	goto	l526
  5282  0237'                    u2430:
  5283  0237'                    l1781:
  5284  0237' 0815'              	movf	___fladd@b,w
  5285  0238' 009D'              	movwf	??___fladd
  5286  0239' 0816'              	movf	___fladd@b+1,w
  5287  023A' 009E'              	movwf	??___fladd+1
  5288  023B' 0817'              	movf	___fladd@b+2,w
  5289  023C' 009F'              	movwf	??___fladd+2
  5290  023D' 0818'              	movf	___fladd@b+3,w
  5291  023E' 00A0'              	movwf	??___fladd+3
  5292  023F' 3001               	movlw	1
  5293  0240' 00A1'              	movwf	??___fladd+4
  5294  0241'                    u2445:
  5295  0241' 0D20'              	rlf	??___fladd+3,w
  5296  0242' 0CA0'              	rrf	??___fladd+3,f
  5297  0243' 0C9F'              	rrf	??___fladd+2,f
  5298  0244' 0C9E'              	rrf	??___fladd+1,f
  5299  0245' 0C9D'              	rrf	??___fladd,f
  5300  0246'                    u2440:
  5301  0246' 0BA1'              	decfsz	??___fladd+4,f
  5302  0247' 2800'              	goto	u2445
  5303  0248' 0820'              	movf	??___fladd+3,w
  5304  0249' 0098'              	movwf	___fladd@b+3
  5305  024A' 081F'              	movf	??___fladd+2,w
  5306  024B' 0097'              	movwf	___fladd@b+2
  5307  024C' 081E'              	movf	??___fladd+1,w
  5308  024D' 0096'              	movwf	___fladd@b+1
  5309  024E' 081D'              	movf	??___fladd,w
  5310  024F' 0095'              	movwf	___fladd@b
  5311  0250' 0A27'              	incf	___fladd@bexp,w
  5312  0251' 1903               	btfsc	3,2
  5313  0252' 2800'              	goto	u2451
  5314  0253' 2800'              	goto	u2450
  5315  0254'                    u2451:
  5316  0254' 2800'              	goto	l526
  5317  0255'                    u2450:
  5318  0255'                    l1783:
  5319  0255' 3001               	movlw	1
  5320  0256' 009D'              	movwf	??___fladd
  5321  0257' 081D'              	movf	??___fladd,w
  5322  0258' 07A7'              	addwf	___fladd@bexp,f
  5323  0259'                    l526:
  5324  0259' 0A27'              	incf	___fladd@bexp,w
  5325  025A' 1903               	btfsc	3,2
  5326  025B' 2800'              	goto	u2461
  5327  025C' 2800'              	goto	u2460
  5328  025D'                    u2461:
  5329  025D' 2800'              	goto	l1787
  5330  025E'                    u2460:
  5331  025E'                    l1785:
  5332  025E' 0827'              	movf	___fladd@bexp,w
  5333  025F' 1D03               	btfss	3,2
  5334  0260' 2800'              	goto	u2471
  5335  0261' 2800'              	goto	u2470
  5336  0262'                    u2471:
  5337  0262' 2800'              	goto	l1793
  5338  0263'                    u2470:
  5339  0263'                    l1787:
  5340  0263' 3000               	movlw	0
  5341  0264' 0098'              	movwf	___fladd@b+3
  5342  0265' 3000               	movlw	0
  5343  0266' 0097'              	movwf	___fladd@b+2
  5344  0267' 3000               	movlw	0
  5345  0268' 0096'              	movwf	___fladd@b+1
  5346  0269' 3000               	movlw	0
  5347  026A' 0095'              	movwf	___fladd@b
  5348  026B'                    l1789:
  5349  026B' 0827'              	movf	___fladd@bexp,w
  5350  026C' 1D03               	btfss	3,2
  5351  026D' 2800'              	goto	u2481
  5352  026E' 2800'              	goto	u2480
  5353  026F'                    u2481:
  5354  026F' 2800'              	goto	l1793
  5355  0270'                    u2480:
  5356  0270'                    l1791:
  5357  0270' 01A5'              	clrf	___fladd@signs
  5358  0271'                    l1793:
  5359  0271' 1C27'              	btfss	___fladd@bexp,0
  5360  0272' 2800'              	goto	u2491
  5361  0273' 2800'              	goto	u2490
  5362  0274'                    u2491:
  5363  0274' 2800'              	goto	l1797
  5364  0275'                    u2490:
  5365  0275'                    l1795:
  5366  0275' 1797'              	bsf	___fladd@b+2,7
  5367  0276' 2800'              	goto	l534
  5368  0277'                    l1797:
  5369  0277' 307F               	movlw	127
  5370  0278' 009D'              	movwf	??___fladd
  5371  0279' 081D'              	movf	??___fladd,w
  5372  027A' 0597'              	andwf	___fladd@b+2,f
  5373  027B'                    l534:
  5374  027B' 0827'              	movf	___fladd@bexp,w
  5375  027C' 009D'              	movwf	??___fladd
  5376  027D' 1003               	clrc
  5377  027E' 0C1D'              	rrf	??___fladd,w
  5378  027F' 009E'              	movwf	??___fladd+1
  5379  0280' 081E'              	movf	??___fladd+1,w
  5380  0281' 0098'              	movwf	___fladd@b+3
  5381  0282'                    l1799:
  5382  0282' 1FA5'              	btfss	___fladd@signs,7
  5383  0283' 2800'              	goto	u2501
  5384  0284' 2800'              	goto	u2500
  5385  0285'                    u2501:
  5386  0285' 2800'              	goto	l535
  5387  0286'                    u2500:
  5388  0286'                    l1801:
  5389  0286' 1798'              	bsf	___fladd@b+3,7
  5390  0287'                    l535:
  5391  0287'                    l505:
  5392  0287' 0008               	return
  5393  0288'                    __end_of___fladd:
  5394  007E                     btemp	set	126	;btemp
  5395  007E                     wtemp0	set	126
  5396                           
  5397                           	psect	idloc
  5398                           
  5399                           ;Config register IDLOC0 @ 0x2000
  5400                           ;	unspecified, using default values
  5401  2000                     	org	8192
  5402  2000  3FFF               	dw	16383
  5403                           
  5404                           ;Config register IDLOC1 @ 0x2001
  5405                           ;	unspecified, using default values
  5406  2001                     	org	8193
  5407  2001  3FFF               	dw	16383
  5408                           
  5409                           ;Config register IDLOC2 @ 0x2002
  5410                           ;	unspecified, using default values
  5411  2002                     	org	8194
  5412  2002  3FFF               	dw	16383
  5413                           
  5414                           ;Config register IDLOC3 @ 0x2003
  5415                           ;	unspecified, using default values
  5416  2003                     	org	8195
  5417  2003  3FFF               	dw	16383
  5418                           
  5419                           	psect	config
  5420                           
  5421                           ;Config register CONFIG1 @ 0x2007
  5422                           ;	Oscillator Selection bits
  5423                           ;	FOSC = INTRC_NOCLKOUT, INTOSCIO oscillator: I/O function on RA6/OSC2/CLKOUT pin, I/O f
      +                          unction on RA7/OSC1/CLKIN
  5424                           ;	Watchdog Timer Enable bit
  5425                           ;	WDTE = OFF, WDT disabled and can be enabled by SWDTEN bit of the WDTCON register
  5426                           ;	Power-up Timer Enable bit
  5427                           ;	PWRTE = OFF, PWRT disabled
  5428                           ;	RE3/MCLR pin function select bit
  5429                           ;	MCLRE = OFF, RE3/MCLR pin function is digital input, MCLR internally tied to VDD
  5430                           ;	Code Protection bit
  5431                           ;	CP = OFF, Program memory code protection is disabled
  5432                           ;	Data Code Protection bit
  5433                           ;	CPD = OFF, Data memory code protection is disabled
  5434                           ;	Brown Out Reset Selection bits
  5435                           ;	BOREN = OFF, BOR disabled
  5436                           ;	Internal External Switchover bit
  5437                           ;	IESO = OFF, Internal/External Switchover mode is disabled
  5438                           ;	Fail-Safe Clock Monitor Enabled bit
  5439                           ;	FCMEN = OFF, Fail-Safe Clock Monitor is disabled
  5440                           ;	Low Voltage Programming Enable bit
  5441                           ;	LVP = OFF, RB3 pin has digital I/O, HV on MCLR must be used for programming
  5442                           ;	In-Circuit Debugger Mode bit
  5443                           ;	DEBUG = 0x1, unprogrammed default
  5444  2007                     	org	8199
  5445  2007  20D4               	dw	8404
  5446                           
  5447                           ;Config register CONFIG2 @ 0x2008
  5448                           ;	Brown-out Reset Selection bit
  5449                           ;	BOR4V = BOR40V, Brown-out Reset set to 4.0V
  5450                           ;	Flash Program Memory Self Write Enable bits
  5451                           ;	WRT = OFF, Write protection off
  5452  2008                     	org	8200
  5453  2008  3FFF               	dw	16383

Data Sizes:
    Strings     4
    Constant    10
    Data        4
    BSS         21
    Persistent  1
    Stack       0

Auto Spaces:
    Space          Size  Autos    Used
    COMMON           14     14      14
    BANK0            80     80      80
    BANK1            80     27      53
    BANK3            96      0       0
    BANK2            96      0       0

Pointer List with Targets:

    time$0	PTR long  size(1) Largest target is 0
		 -> NULL(NULL[0]), 

    printf@f	PTR const unsigned char  size(1) Largest target is 4
		 -> STR_1(CODE[4]), 

    printf@ap	PTR void [1] size(1) Largest target is 2
		 -> ?_printf(BANK0[2]), 


Critical Paths under _main in COMMON

    _main->_GetRandom
    _printf->___lwmod
    _putch->_UART_send_char
    ___lwmod->___lwdiv
    _rand->___lmul

Critical Paths under _main in BANK0

    _GetRandom->___fldiv
    ___xxtofl->_rand
    ___fltol->___fldiv
    ___flmul->___fladd
    ___fldiv->___flmul
    ___fladd->___xxtofl

Critical Paths under _main in BANK1

    _main->_GetRandom
    _GetRandom->___fltol
    ___fltol->___fldiv

Critical Paths under _main in BANK3

    None.

Critical Paths under _main in BANK2

    None.

Call Graph Tables:

 ---------------------------------------------------------------------------------
 (Depth) Function   	        Calls       Base Space   Used Autos Params    Refs
 ---------------------------------------------------------------------------------
 (0) _main                                                 2     2      0    8312
                                             25 BANK1      2     2      0
                          _GetRandom
                    _Initialize_UART
                             _printf
                              _srand
                               _time
 ---------------------------------------------------------------------------------
 (1) _time                                                 5     0      5       9
 ---------------------------------------------------------------------------------
 (1) _srand                                                2     0      2      98
                                              0 COMMON     2     0      2
                               _time (ARG)
 ---------------------------------------------------------------------------------
 (1) _printf                                              20    18      2    1088
                                              0 BANK0     12    10      2
                            ___lwdiv
                            ___lwmod
                              _putch
 ---------------------------------------------------------------------------------
 (2) _putch                                                1     1      0      44
                                              1 COMMON     1     1      0
                     _UART_send_char
 ---------------------------------------------------------------------------------
 (3) _UART_send_char                                       1     1      0      22
                                              0 COMMON     1     1      0
 ---------------------------------------------------------------------------------
 (2) ___lwmod                                              6     2      4     311
                                              8 COMMON     6     2      4
                            ___lwdiv (ARG)
 ---------------------------------------------------------------------------------
 (2) ___lwdiv                                              8     4      4     314
                                              0 COMMON     8     4      4
 ---------------------------------------------------------------------------------
 (1) _Initialize_UART                                      0     0      0       0
 ---------------------------------------------------------------------------------
 (1) _GetRandom                                            2     1      1    7117
                                             13 COMMON     1     1      0
                                             24 BANK1      1     0      1
                            ___fladd
                            ___fldiv
                            ___flmul
                            ___fltol
                           ___xxtofl
                               _rand
 ---------------------------------------------------------------------------------
 (2) _rand                                                 7     5      2     244
                                              0 BANK0      7     5      2
                             ___lmul
 ---------------------------------------------------------------------------------
 (3) ___lmul                                              13     5      8     244
                                              0 COMMON    13     5      8
 ---------------------------------------------------------------------------------
 (2) ___xxtofl                                            14    10      4     474
                                              7 BANK0     14    10      4
                               _rand (ARG)
 ---------------------------------------------------------------------------------
 (2) ___fltol                                             11     7      4     305
                                             13 BANK1     11     7      4
                            ___fladd (ARG)
                            ___fldiv (ARG)
                            ___flmul (ARG)
                           ___xxtofl (ARG)
                               _rand (ARG)
 ---------------------------------------------------------------------------------
 (2) ___flmul                                             26    18      8    2417
                                             41 BANK0     26    18      8
                          __Umul8_16
                            ___fladd (ARG)
                           ___xxtofl (ARG)
                               _rand (ARG)
 ---------------------------------------------------------------------------------
 (3) __Umul8_16                                            9     7      2     799
                                              0 COMMON     9     7      2
 ---------------------------------------------------------------------------------
 (2) ___fldiv                                             26    18      8    1273
                                             67 BANK0     13     5      8
                                              0 BANK1     13    13      0
                            ___fladd (ARG)
                            ___flmul (ARG)
                           ___xxtofl (ARG)
                               _rand (ARG)
 ---------------------------------------------------------------------------------
 (2) ___fladd                                             20    12      8    2262
                                             21 BANK0     20    12      8
                           ___xxtofl (ARG)
 ---------------------------------------------------------------------------------
 Estimated maximum stack depth 3
 ---------------------------------------------------------------------------------

 Call Graph Graphs:

 _main (ROOT)
   _GetRandom
     ___fladd
       ___xxtofl (ARG)
         _rand (ARG)
           ___lmul
     ___fldiv
       ___fladd (ARG)
       ___flmul (ARG)
         __Umul8_16
         ___fladd (ARG)
         ___xxtofl (ARG)
         _rand (ARG)
       ___xxtofl (ARG)
       _rand (ARG)
     ___flmul
     ___fltol
       ___fladd (ARG)
       ___fldiv (ARG)
       ___flmul (ARG)
       ___xxtofl (ARG)
       _rand (ARG)
     ___xxtofl
     _rand
   _Initialize_UART
   _printf
     ___lwdiv
     ___lwmod
       ___lwdiv (ARG)
     _putch
       _UART_send_char
   _srand
     _time (ARG)
   _time

 Address spaces:
Name               Size   Autos  Total    Cost      Usage
BANK3               60      0       0       9        0.0%
BITBANK3            60      0       0       8        0.0%
SFR3                 0      0       0       4        0.0%
BITSFR3              0      0       0       4        0.0%
BANK2               60      0       0      11        0.0%
BITBANK2            60      0       0      10        0.0%
SFR2                 0      0       0       5        0.0%
BITSFR2              0      0       0       5        0.0%
BANK1               50     1B      35       7       66.2%
BITBANK1            50      0       0       6        0.0%
SFR1                 0      0       0       2        0.0%
BITSFR1              0      0       0       2        0.0%
BANK0               50     50      50       5      100.0%
BITBANK0            50      0       0       4        0.0%
SFR0                 0      0       0       1        0.0%
BITSFR0              0      0       0       1        0.0%
COMMON               E      E       E       1      100.0%
BITCOMMON            E      0       0       0        0.0%
CODE                 0      0       0       0        0.0%
DATA                 0      0      93      12        0.0%
ABS                  0      0      93       3        0.0%
NULL                 0      0       0       0        0.0%
STACK                0      0       0       2        0.0%
EEDATA             100      0       0       0        0.0%


Microchip Technology PIC Macro Assembler V2.36 build 20220127204148 
Symbol Table                                                                                   Tue Apr 05 23:04:39 2022

           ___fldiv@aexp 000C             ___fldiv@bexp 000B                        pc 0002  
           ___fldiv@sign 0004                       l50 0017                       l53 0001  
                     l47 0094                       l56 0009                       l72 0001  
                     l75 000D                       fsr 0004      __Umul8_16@word_mpld 0006  
                    l213 0045                      l600 0354                      l513 01D5  
                    l505 0287                      l523 021B                      l195 00DA  
                    l517 01F9                      l534 027B                      l526 0259  
                    l550 029F                      l535 0287                      l607 0014  
                    l471 0043                      l392 0066                      l632 0024  
                    l609 0026                      l385 007B                      l481 0039  
                    l570 0273                      l634 00BB                      l395 007B  
                    l492 0063                      l572 028B                      l564 01F3  
                    l548 007E                      l652 0008                      l645 0085  
                    l646 0091                      l638 0069                      l655 0054  
                    l496 010A                      l498 00E1                      l594 02CC  
                    l588 0360                      _RX9 00C6                      _TX9 04C6  
                    fsr0 0004                      indf 0000             ___flmul@aexp 003B  
           ___flmul@bexp 003C             ___flmul@sign 0036             ___flmul@temp 0041  
           ___flmul@prod 003D             ___fltol@exp1 0017                     l2001 010B  
                   l2011 016D                     l2003 0127                     l2021 01FD  
                   l2013 018A                     l2005 0130                     l2101 0047  
                   l2031 028F                     l2023 022A                     l2015 01A3  
                   l2007 0140                     l2111 007B                     l2103 004E  
                   l2033 0298                     l2041 02AC                     l2025 0250  
                   l2017 01C0                     l2009 015D                     l2121 00AE  
                   l2113 007F                     l2105 0052                     l2043 02B0  
                   l2035 029C                     l2027 0278                     l2019 01ED  
                   l2123 00B2                     l2115 0089                     l2107 0060  
                   l1501 0003                     l2061 0301                     l2053 02D1  
                   l2045 02B1                     l2037 029D                     l2029 0281  
                   l2125 00B3                     l2117 0093                     l2109 0070  
                   l2141 0008                     l2133 0000                     l2213 0000  
                   l1503 000A                     l2071 0338                     l2055 02D6  
                   l2063 0307                     l2047 02B5                     l2039 02A6  
                   l2119 00A9                     l2143 000B                     l2135 0004  
                   l2151 0000                     l2215 0005                     l1505 000E  
                   l2081 0358                     l2073 033A                     l2065 0314  
                   l2057 02E4                     l2049 02C9                     l1513 0000  
                   l2129 0001                     l2145 000E                     l2137 0006  
                   l1601 0028                     l1521 0001                     l2241 0028  
                   l2153 0003                     l2217 0014                     l1611 0007  
                   l1507 001D                     l2075 0348                     l2067 031F  
                   l2059 02E8                     l1531 0016                     l2091 001C  
                   l1515 0021                     l2147 0011                     l2139 0007  
                   l1603 002F                     l1523 0007                     l2171 0043  
                   l2163 0016                     l2155 0008                     l2219 0025  
                   l1701 00F5                     l1621 001C                     l1613 000D  
                   l1509 0022                     l2077 034C                     l2069 032E  
                   l1541 003A                     l1533 002B                     l1525 0000  
                   l2093 002C                     l2085 0003                     l1517 002F  
                   l2149 0014                     l1605 0035                     l2181 004E  
                   l2173 0047                     l2165 0033                     l2157 000E  
                   l1703 00FE                     l1631 0034                     l1623 0024  
                   l1615 0011                     l2079 034D                     l1535 002C  
                   l1527 000D                     l2087 0008                     l2191 0080  
                   l2175 004C                     l2167 003B                     l2159 0015  
                   l1801 0286                     l1721 0144                     l1713 011C  
                   l1705 0102                     l1641 0046                     l1633 003A  
                   l1625 0025                     l1617 0012                     l1609 0000  
                   l1537 0034                     l2097 0035                     l2089 000C  
                   l1561 0000                     l1481 0001                     l2193 0087  
                   l2185 006A                     l2169 003F                     l1723 0146  
                   l1715 0133                     l1707 010E                     l1731 0159  
                   l1643 004B                     l1651 005B                     l1635 003B  
                   l1619 0017                     l1627 0027                     l1811 001C  
                   l1803 0000                     l1555 005B                     l1547 0042  
                   l1539 0036                     l2099 003A                     l1491 0023  
                   l1571 0016                     l1563 0002                     l1483 0007  
                   l2195 00B5                     l2187 0074                     l1733 016F  
                   l1741 01C7                     l1725 014A                     l1717 0137  
                   l1709 0113                     l1661 0079                     l1653 0069  
                   l1645 0050                     l1637 0041                     l1629 002F  
                   l1901 01BF                     l1813 0023                     l1821 0036  
                   l1805 0009                     l1557 006B                     l1549 0054  
                   l1493 002C                     l1485 0000                     l1581 0039  
                   l1573 001A                     l1565 0008                     l2197 00BB  
                   l2189 007A                     l1751 01F4                     l1743 01DD  
                   l1735 01AD                     l1727 014B                     l1719 013B  
                   l1671 008D                     l1663 007D                     l1655 006D  
                   l1647 0058                     l1639 0045                     l1903 01C5  
                   l1831 005A                     l1823 0040                     l1815 0028  
                   l1807 0013                     l1559 0070                     l1495 003D  
                   l1487 0008                     l1575 002B                     l1567 000B  
                   l1583 003F                     l1591 0009                     l2199 00C6  
                   l1761 0207                     l1753 01F8                     l1745 01E2  
                   l1737 01B3                     l1729 0154                     l1681 00A1  
                   l1673 0091                     l1665 0081                     l1657 0071  
                   l1649 0059                     l1921 022C                     l1913 01F8  
                   l1905 01C8                     l1833 0061                     l1841 0074  
                   l1825 0047                     l1817 0032                     l1809 0019  
                   l1489 000C                     l1577 0031                     l1569 0012  
                   l1593 0010                     l1771 0218                     l1755 01FD  
                   l1763 0209                     l1739 01B8                     l1691 00C5  
                   l1683 00A5                     l1675 0095                     l1667 0085  
                   l1659 0075                     l1931 0266                     l1915 01FF  
                   l1923 0234                     l1907 01CC                     l1843 0086  
                   l1851 00A3                     l1835 0066                     l1827 0051  
                   l1819 0034                     l1499 0001                     l1579 0032  
                   l1595 0014                     l1587 0000                     l1781 0237  
                   l1757 0200                     l1749 01EB                     l1765 020D  
                   l1693 00E5                     l1685 00A9                     l1677 0099  
                   l1669 0089                     l1933 0270                     l1925 0243  
                   l1917 020F                     l1909 01EE                     l1861 00EB  
                   l1853 00AA                     l1845 0092                     l1837 0070  
                   l1829 0057                     l1597 0018                     l1589 0006  
                   l1791 0270                     l1783 0255                     l1775 0220  
                   l1767 020E                     l1759 0202                     l1695 00EE  
                   l1679 009D                     l1687 00AD                     l1935 027D  
                   l1927 0253                     l1919 0213                     l1871 011E  
                   l1863 00F5                     l1847 009A                     l1839 0072  
                   l1951 0011                     l1599 0022                     l1793 0271  
                   l1785 025E                     l1777 0225                     l1769 0212  
                   l1697 00F0                     l1689 00AE                     l1937 0281  
                   l1929 0262                     l1881 0157                     l1873 0124  
                   l1865 00FF                     l1857 00B5                     l1961 0026  
                   l1953 0012                     l1945 0000                     l1795 0275  
                   l1787 0263                     l1779 0233                     l1699 00F4  
                   l1939 0285                     l1891 0197                     l1883 017F  
                   l1875 0127                     l1867 0101                     l1859 00D3  
                   l1971 003E                     l1963 002E                     l1955 0017  
                   l1947 0007                     l1797 0277                     l1789 026B  
                   l1893 01A0                     l1869 0106                     l1877 0135  
                   l1885 0187                     l1981 005A                     l1973 0043  
                   l1965 0033                     l1957 001C                     l1949 000D  
                   l1799 0282                     l1895 01A6                     l1887 018D  
                   l1879 0156                     l1991 007D                     l1983 005F  
                   l1975 0048                     l1967 0039                     l1959 0024  
                   l1897 01A9                     l1889 0195                     l1993 008A  
                   l1985 0064                     l1977 0050                     l1969 003D  
                   l1899 01B7                     l1995 00A7                     l1979 0052  
                   l1997 00C3                     l1989 006D                     l1999 00EF  
                   STR_1 0010                     _BRGH 04C2                     _CREN 00C4  
                   u2010 0018                     u2011 0017                     u2100 004B  
                   u2020 0022                     u2101 004A                     u2021 0021  
                   u2005 000A                     u2110 0050                     u2111 004F  
                   u2200 010A                     u2120 0069                     u3000 0236  
                   u2040 0035                     u2201 0109                     u2121 0068  
                   u2041 0034                     u2025 001E                     u2210 010E  
                   u2130 006D                     u2050 0011                     u2211 010D  
                   u2131 006C                     u2051 0010                     u3011 0242  
                   u2035 0029                     u2300 019A                     u2220 0113  
                   u2140 00C5                     u2060 0017                     u3100 02C9  
                   u3020 025E                     u3012 0249                     u2301 019B  
                   u2221 0112                     u2141 00C4                     u2061 0016  
                   u3101 02C8                     u3013 0250                     u3005 0231  
                   u2310 01B8                     u2302 01A0                     u2150 00D0  
                   u2070 001C                     u3110 02D0                     u2311 01B7  
                   u2303 01A1                     u2231 0125                     u2151 00CE  
                   u2071 001B                     u3111 02CF                     u3031 026A  
                   u2400 0218                     u2320 01DD                     u2240 0137  
                   u2232 012C                     u2160 00D1                     u2080 003A  
                   u3120 02D6                     u3032 0271                     u3200 002C  
                   u2401 0217                     u2321 01DC                     u2241 0136  
                   u2233 0133                     u2145 00C1                     u2081 0039  
                   u3121 02D5                     u3033 0278                     u3025 0259  
                   u3201 002B                     u2410 021F                     u2330 01E2  
                   u2250 013B                     u2170 00E5                     u2090 0045  
                   u3130 02E8                     u2411 021E                     u2331 01E1  
                   u2251 013A                     u2171 00E4                     u2091 0044  
                   u3131 02E7                     u2500 0286                     u2420 0225  
                   u2260 014A                     u2180 00F4                     u3140 02F7  
                   u3060 029C                     u3300 00AE                     u3220 004D  
                   u2501 0285                     u2421 0224                     u2261 0149  
                   u2181 00F3                     u3061 029B                     u3045 027A  
                   u3301 00AD                     u3221 004C                     u2430 0237  
                   u2350 01F8                     u2510 0019                     u3150 0314  
                   u3310 00B2                     u1710 0007                     u2431 0236  
                   u2351 01F7                     u2511 0018                     u3151 0313  
                   u3055 0291                     u3311 00B1                     u3215 003F  
                   u1711 0006                     u2440 0246                     u2360 01FD  
                   u2280 016F                     u2520 0023                     u3160 032E  
                   u3080 02B0                     u3240 006F                     u1720 000C  
                   u1800 004C                     u3320 000E                     u2361 01FC  
                   u2345 01ED                     u2281 016E                     u2521 0022  
                   u3161 032D                     u3145 02F2                     u3081 02AF  
                   u3241 006E                     u1721 000B                     u3321 000D  
                   u2450 0255                     u2370 0207                     u2530 0028  
                   u3170 034C                     u3090 02B5                     u1810 0007  
                   u3330 0043                     u2451 0254                     u2371 0206  
                   u2291 0186                     u2283 016B                     u2275 014D  
                   u2195 00F7                     u2531 0027                     u3171 034B  
                   u3155 0310                     u3091 02B4                     u3075 029F  
                   u3235 0061                     u1731 0015                     u1811 0006  
                   u3331 0042                     u2460 025E                     u2380 020D  
                   u2292 0187                     u2620 0124                     u2540 0057  
                   u1900 006B                     u1820 000D                     u3260 007F  
                   u3180 0008                     u1732 001C                     u3340 0069  
                   u2461 025D                     u2445 0241                     u2381 020C  
                   u2293 018C                     u2621 0123                     u2605 010A  
                   u2541 0056                     u3165 032A                     u1901 006A  
                   u1821 000C                     u3261 007E                     u3181 0007  
                   u1733 0023                     u1805 0047                     u3341 0068  
                   u2470 0263                     u2390 0212                     u2294 018D  
                   u2710 01C5                     u2550 0061                     u1910 0070  
                   u1830 0024                     u3270 0085                     u3190 000C  
                   u3350 0074                     u2471 0262                     u2391 0211  
                   u2295 0192                     u2711 01C4                     u2615 0117  
                   u2551 0060                     u1911 006F                     u3271 0084  
                   u3255 0074                     u3191 000B                     u3351 0073  
                   u2480 0270                     u2296 0193                     u2800 0281  
                   u2720 01CC                     u2640 0156                     u2560 0066  
                   u1840 003A                     u3280 0089                     u1760 003D  
                   u1920 0008                     u3360 007A                     u2481 026F  
                   u2801 0280                     u2721 01CB                     u2705 01AC  
                   u2641 0155                     u2561 0065                     u1841 0039  
                   u3281 0088                     u1761 003C                     u1745 0025  
                   u1921 0007                     u3361 0079                     u3345 0065  
                   u2490 0275                     u2730 01EE                     u2650 017B  
                   u2570 0086                     u1770 000E                     u2810 0011  
                   u1850 0041                     u3290 009E                     u3370 00C6  
                   u2491 0274                     u2731 01ED                     u2635 012A  
                   u2571 0085                     u1771 000D                     u2811 0010  
                   u1851 0040                     u1835 001F                     u1755 002D  
                   u3371 00C5                     u2740 01F7                     u2660 018D  
                   u2580 00AA                     u2820 0017                     u1940 001A  
                   u3380 00DA                     u2741 01F6                     u2661 018C  
                   u2645 0152                     u2581 00A9                     u2901 00D1  
                   u2821 0016                     u1941 0019                     u3381 00D9  
                   u2750 01FF                     u2670 0195                     u2590 0106  
                   u1790 0022                     u2902 00D8                     u2830 001C  
                   u1870 0053                     u2751 01FE                     u2671 0194  
                   u2655 0164                     u2591 0105                     u1791 0021  
                   u2911 00FD                     u2903 00DF                     u2831 001B  
                   u1871 0052                     u3295 0099                     u1935 000C  
                   u2760 0213                     u2656 0167                     u2912 0104  
                   u2840 003D                     u1880 005A                     u1960 002B  
                   u2761 0212                     u2657 016E                     u1785 0015  
                   u2921 0119                     u2913 010B                     u2841 003C  
                   u1881 0059                     u1865 0043                     u1961 002A  
                   u2770 0222                     u2690 01A6                     u2658 0171  
                   u2922 0120                     u2850 0043                     u2691 01A5  
                   u2659 0178                     u2923 0127                     u2851 0042  
                   u1955 001B                     u2780 0243                     u2860 0048  
                   u1980 003F                     u2781 0242                     u2685 0199  
                   u2941 014F                     u2861 0047                     u1981 003E  
                   u1965 0027                     u2790 0262                     u2942 0156  
                   u2870 005F                     u1990 0006                     u2791 0261  
                   u2775 021D                     u2951 017C                     u2943 015D  
                   u2935 0129                     u2871 005E                     u1895 005D  
                   u1975 0033                     u1991 0005                     u2952 0183  
                   u2880 0064                     u2785 023F                     u2953 018A  
                   u2881 0063                     u2795 025E                     u2971 01B2  
                   u2891 00B5                     u2972 01B9                     u2892 00BC  
                   _RCIF 0065                     u2981 01DF                     u2973 01C0  
                   u2965 018C                     u2893 00C3                     u2982 01E6  
                   u2991 020C                     u2983 01ED                     u2992 0213  
                   u2993 021A                     _OERR 00C1                     _SPEN 00C7  
                   _TXEN 04C5                     _TXIF 0064                     _SYNC 04C4  
                   _main 0000                     _name 0000                     _rand 0000  
                   _time 0000*                    btemp 007E                     start 0000* 
        ___fldiv@new_exp 0005            ___fltol@sign1 0016          __end_of___fladd 0288  
                  ?_main 0000          __end_of___fldiv 02A0                    ?_rand 0000  
                  ?_time 0000          __end_of___flmul 0361          __end_of___fltol 007C  
        __end_of___lwdiv 0044          __end_of___lwmod 003A                    _RCREG 001A  
                  _SPBRG 0099                    _TXREG 0019      ___lmul@multiplicand 0004  
        __end_of_dpowers 0010                    _randx 0000                    _srand 0000  
                  _putch 0000                    pclath 000A                    status 0003  
                  wtemp0 007E          __initialization 0000             __end_of_main 003E  
           __end_of_rand 0055                   ??_main 0019                   ??_rand 0002  
                 ??_time 0000                   ?_srand 0000                   ?_putch 0000  
                 _TRISC6 043E                   _TRISC7 043F         __end_of___xxtofl 00BC  
                 ___lmul 0000                ??___fladd 001D                ??___fldiv 004B  
              ??___flmul 0031                ??___fltol 0011                ??___lwdiv 0004  
              ??___lwmod 000C                   _time$0 0000                   _printf 0000  
                 srand@x 0000             ___xxtofl@arg 0011             ___xxtofl@exp 0010  
           ___xxtofl@val 0007  __end_of__initialization 0023        __end_of_GetRandom 0095  
             ___fltol@f1 000D           __pcstackCOMMON 0000             __pidataBANK1 0000  
          __end_of_srand 0009            __end_of_putch 000E                  ??_srand 0002  
                ??_putch 0001               __pbssBANK1 0000        __end_of__Umul8_16 0027  
             __pmaintext 0000                  ?___lmul 0000           ___lmul@product 0009  
                ?_printf 0000                ?___xxtofl 0007               __stringtab 0000  
                ___fladd 0000                  ___fldiv 0000                  ___flmul 0000  
                ___fltol 0000                  ___lwdiv 0000                  ___lwmod 0000  
                __ptext1 0000                  __ptext2 0000                  __ptext3 0000  
                __ptext4 0000                  __ptext5 0000                  __ptext6 0000  
                __ptext7 0000                  __ptext8 0000                  __ptext9 0000  
                _dpowers 0006        ??_Initialize_UART 0000               ??___xxtofl 000B  
                clrloop0 0001     end_of_initialization 0023                  printf@c 000B  
                printf@f 0008              ___fladd@grs 0028            ___xxtofl@sign 000F  
            ___fldiv@grs 0007              ___fldiv@rem 0000              ___flmul@grs 0037  
              _GetRandom 0000           __end_of___lmul 0046           __end_of_printf 00DB  
    start_initialization 0000           _UART_send_char 0000                 ??___lmul 0008  
             ?_GetRandom 0018                __Umul8_16 0000              __pdataBANK1 0000  
               ??_printf 0002                ___fladd@a 0019                ___fladd@b 0015  
 __end_of_UART_send_char 000A                ___fldiv@a 0043                ___fldiv@b 0047  
              ___flmul@a 002D                ___flmul@b 0029                ___latbits 0002  
          __pcstackBANK0 0000            __pcstackBANK1 0000                __pnvBANK1 0000  
       ___lwdiv@dividend 0002          _Initialize_UART 0000                 ?___fladd 0015  
               ?___fldiv 0043                 ?___flmul 0029                 ?___fltol 000D  
             ?__Umul8_16 0000                 ?___lwdiv 0000                 ?___lwmod 0008  
       UART_send_char@bt 0000                __pstrings 0000                _get_value 0014  
        ?_UART_send_char 0000         ___lwdiv@quotient 0005                _randomNum 0000  
              clear_ram0 0000              ??_GetRandom 000D             GetRandom@max 0018  
           GetRandom@min 000D              __stringbase 0005               printf@flag 0006  
             printf@prec 0007        ___lmul@multiplier 0000  __end_of_Initialize_UART 0018  
            ??__Umul8_16 0002       __end_of__stringtab 0006                 ___xxtofl 0000  
        ___lwdiv@divisor 0000          ___lwdiv@counter 0007                 __ptext10 0000  
               __ptext11 0000                 __ptext12 0000                 __ptext13 0000  
               __ptext14 0000                 __ptext15 0000                 __ptext16 0000  
              printf@val 0009                putch@data 0001         ___lwmod@dividend 000A  
       ?_Initialize_UART 0000                stringcode 0000                 printf@ap 0005  
       ??_UART_send_char 0000   __Umul8_16@multiplicand 0000          ___lwmod@divisor 0008  
        ___lwmod@counter 000D                 stringdir 0000                 stringtab 0000  
          ___fladd@signs 0025             ___fladd@aexp 0026             ___fladd@bexp 0027  
   __Umul8_16@multiplier 0008        __Umul8_16@product 0004  
